
main.elf:     file format elf32-littleriscv
architecture: riscv:rv32, flags 0x00000112:
EXEC_P, HAS_SYMS, D_PAGED
start address 0x00100084

Sections:
Idx Name          Size      VMA       LMA       File off  Algn
  0 .vectors      00000084  00100000  00100000  00001000  2**0
                  CONTENTS, ALLOC, LOAD, READONLY, CODE
  1 .text         000024d4  00100084  00100084  00001084  2**2
                  CONTENTS, ALLOC, LOAD, READONLY, CODE
  2 .rodata       00000290  00102558  00102558  00003558  2**2
                  CONTENTS, ALLOC, LOAD, READONLY, DATA
  3 .data         00000020  001027e8  001027e8  000037e8  2**2
                  CONTENTS, ALLOC, LOAD, DATA
  4 .bss          00000000  00102808  00102808  00003808  2**0
                  ALLOC
  5 .sbss         00000010  00102808  00102808  00003808  2**3
                  ALLOC
  6 .stack        00002000  001f8000  001f8000  00004000  2**0
                  ALLOC
  7 .debug_info   000011b6  00000000  00000000  00003808  2**0
                  CONTENTS, READONLY, DEBUGGING, OCTETS
  8 .debug_abbrev 000006e7  00000000  00000000  000049be  2**0
                  CONTENTS, READONLY, DEBUGGING, OCTETS
  9 .debug_aranges 000000c8  00000000  00000000  000050a8  2**3
                  CONTENTS, READONLY, DEBUGGING, OCTETS
 10 .debug_line   000027c4  00000000  00000000  00005170  2**0
                  CONTENTS, READONLY, DEBUGGING, OCTETS
 11 .debug_str    000006f9  00000000  00000000  00007934  2**0
                  CONTENTS, READONLY, DEBUGGING, OCTETS
 12 .comment      00000012  00000000  00000000  0000802d  2**0
                  CONTENTS, READONLY
 13 .debug_frame  000004d0  00000000  00000000  00008040  2**2
                  CONTENTS, READONLY, DEBUGGING, OCTETS
 14 .debug_ranges 00000070  00000000  00000000  00008510  2**3
                  CONTENTS, READONLY, DEBUGGING, OCTETS
 15 .debug_loc    00000a4b  00000000  00000000  00008580  2**0
                  CONTENTS, READONLY, DEBUGGING, OCTETS

Disassembly of section .vectors:

00100000 <_stack_start-0x100000>:

  // All unimplemented interrupts/exceptions go to the default_exc_handler.
  .org 0x00
  .rept 7
  jal x0, default_exc_handler
  .endr
  100000:	0e80206f          	j	1020e8 <default_exc_handler>
  100004:	0e40206f          	j	1020e8 <default_exc_handler>
  100008:	0e00206f          	j	1020e8 <default_exc_handler>
  10000c:	0dc0206f          	j	1020e8 <default_exc_handler>
  100010:	0d80206f          	j	1020e8 <default_exc_handler>
  100014:	0d40206f          	j	1020e8 <default_exc_handler>
  100018:	0d00206f          	j	1020e8 <default_exc_handler>
  jal x0, timer_handler
  10001c:	0d00206f          	j	1020ec <timer_handler>
  .rept 23
  jal x0, default_exc_handler
  .endr
  100020:	0c80206f          	j	1020e8 <default_exc_handler>
  100024:	0c40206f          	j	1020e8 <default_exc_handler>
  100028:	0c00206f          	j	1020e8 <default_exc_handler>
  10002c:	0bc0206f          	j	1020e8 <default_exc_handler>
  100030:	0b80206f          	j	1020e8 <default_exc_handler>
  100034:	0b40206f          	j	1020e8 <default_exc_handler>
  100038:	0b00206f          	j	1020e8 <default_exc_handler>
  10003c:	0ac0206f          	j	1020e8 <default_exc_handler>
  100040:	0a80206f          	j	1020e8 <default_exc_handler>
  100044:	0a40206f          	j	1020e8 <default_exc_handler>
  100048:	0a00206f          	j	1020e8 <default_exc_handler>
  10004c:	09c0206f          	j	1020e8 <default_exc_handler>
  100050:	0980206f          	j	1020e8 <default_exc_handler>
  100054:	0940206f          	j	1020e8 <default_exc_handler>
  100058:	0900206f          	j	1020e8 <default_exc_handler>
  10005c:	08c0206f          	j	1020e8 <default_exc_handler>
  100060:	0880206f          	j	1020e8 <default_exc_handler>
  100064:	0840206f          	j	1020e8 <default_exc_handler>
  100068:	0800206f          	j	1020e8 <default_exc_handler>
  10006c:	07c0206f          	j	1020e8 <default_exc_handler>
  100070:	0780206f          	j	1020e8 <default_exc_handler>
  100074:	0740206f          	j	1020e8 <default_exc_handler>
  100078:	0700206f          	j	1020e8 <default_exc_handler>
  10007c:	0000                	unimp
  10007e:	0000                	unimp

  // reset vector
  .org 0x80
  jal x0, reset_handler
  100080:	0700206f          	j	1020f0 <reset_handler>

Disassembly of section .text:

00100084 <putchar>:
// Licensed under the Apache License, Version 2.0, see LICENSE for details.
// SPDX-License-Identifier: Apache-2.0

#include "simple_system_common.h"

int putchar(int c) {
  100084:	ff010113          	addi	sp,sp,-16
  100088:	00a12623          	sw	a0,12(sp)
  DEV_WRITE(SIM_CTRL_BASE + SIM_CTRL_OUT, (unsigned char)c);
  10008c:	00c12783          	lw	a5,12(sp)
  100090:	0ff7f713          	andi	a4,a5,255
  100094:	000207b7          	lui	a5,0x20
  100098:	00e7a023          	sw	a4,0(a5) # 20000 <_stack_len+0x18000>

  return c;
  10009c:	00c12783          	lw	a5,12(sp)
}
  1000a0:	00078513          	mv	a0,a5
  1000a4:	01010113          	addi	sp,sp,16
  1000a8:	00008067          	ret

001000ac <puts>:

int puts(const char *str) {
  1000ac:	fe010113          	addi	sp,sp,-32
  1000b0:	00112e23          	sw	ra,28(sp)
  1000b4:	00a12623          	sw	a0,12(sp)
  while (*str) {
  1000b8:	01c0006f          	j	1000d4 <puts+0x28>
    putchar(*str++);
  1000bc:	00c12783          	lw	a5,12(sp)
  1000c0:	00178713          	addi	a4,a5,1
  1000c4:	00e12623          	sw	a4,12(sp)
  1000c8:	0007c783          	lbu	a5,0(a5)
  1000cc:	00078513          	mv	a0,a5
  1000d0:	fb5ff0ef          	jal	ra,100084 <putchar>
  while (*str) {
  1000d4:	00c12783          	lw	a5,12(sp)
  1000d8:	0007c783          	lbu	a5,0(a5)
  1000dc:	fe0790e3          	bnez	a5,1000bc <puts+0x10>
  }

  return 0;
  1000e0:	00000793          	li	a5,0
}
  1000e4:	00078513          	mv	a0,a5
  1000e8:	01c12083          	lw	ra,28(sp)
  1000ec:	02010113          	addi	sp,sp,32
  1000f0:	00008067          	ret

001000f4 <puthex>:

void puthex(uint32_t h) {
  1000f4:	fd010113          	addi	sp,sp,-48
  1000f8:	02112623          	sw	ra,44(sp)
  1000fc:	00a12623          	sw	a0,12(sp)
  int cur_digit;
  // Iterate through h taking top 4 bits each time and outputting ASCII of hex
  // digit for those 4 bits
  for (int i = 0; i < 8; i++) {
  100100:	00012e23          	sw	zero,28(sp)
  100104:	0580006f          	j	10015c <puthex+0x68>
    cur_digit = h >> 28;
  100108:	00c12783          	lw	a5,12(sp)
  10010c:	01c7d793          	srli	a5,a5,0x1c
  100110:	00f12c23          	sw	a5,24(sp)

    if (cur_digit < 10)
  100114:	01812703          	lw	a4,24(sp)
  100118:	00900793          	li	a5,9
  10011c:	00e7cc63          	blt	a5,a4,100134 <puthex+0x40>
      putchar('0' + cur_digit);
  100120:	01812783          	lw	a5,24(sp)
  100124:	03078793          	addi	a5,a5,48
  100128:	00078513          	mv	a0,a5
  10012c:	f59ff0ef          	jal	ra,100084 <putchar>
  100130:	0140006f          	j	100144 <puthex+0x50>
    else
      putchar('A' - 10 + cur_digit);
  100134:	01812783          	lw	a5,24(sp)
  100138:	03778793          	addi	a5,a5,55
  10013c:	00078513          	mv	a0,a5
  100140:	f45ff0ef          	jal	ra,100084 <putchar>

    h <<= 4;
  100144:	00c12783          	lw	a5,12(sp)
  100148:	00479793          	slli	a5,a5,0x4
  10014c:	00f12623          	sw	a5,12(sp)
  for (int i = 0; i < 8; i++) {
  100150:	01c12783          	lw	a5,28(sp)
  100154:	00178793          	addi	a5,a5,1
  100158:	00f12e23          	sw	a5,28(sp)
  10015c:	01c12703          	lw	a4,28(sp)
  100160:	00700793          	li	a5,7
  100164:	fae7d2e3          	bge	a5,a4,100108 <puthex+0x14>
  }
}
  100168:	00000013          	nop
  10016c:	00000013          	nop
  100170:	02c12083          	lw	ra,44(sp)
  100174:	03010113          	addi	sp,sp,48
  100178:	00008067          	ret

0010017c <sim_halt>:

void sim_halt() { DEV_WRITE(SIM_CTRL_BASE + SIM_CTRL_CTRL, 1); }
  10017c:	000207b7          	lui	a5,0x20
  100180:	00478793          	addi	a5,a5,4 # 20004 <_stack_len+0x18004>
  100184:	00100713          	li	a4,1
  100188:	00e7a023          	sw	a4,0(a5)
  10018c:	00000013          	nop
  100190:	00008067          	ret

00100194 <pcount_reset>:

void pcount_reset() {
  asm volatile(
  100194:	b0201073          	csrw	minstret,zero
  100198:	b0001073          	csrw	mcycle,zero
  10019c:	b0301073          	csrw	mhpmcounter3,zero
  1001a0:	b0401073          	csrw	mhpmcounter4,zero
  1001a4:	b0501073          	csrw	mhpmcounter5,zero
  1001a8:	b0601073          	csrw	mhpmcounter6,zero
  1001ac:	b0701073          	csrw	mhpmcounter7,zero
  1001b0:	b0801073          	csrw	mhpmcounter8,zero
  1001b4:	b0901073          	csrw	mhpmcounter9,zero
  1001b8:	b0a01073          	csrw	mhpmcounter10,zero
  1001bc:	b0b01073          	csrw	mhpmcounter11,zero
  1001c0:	b0c01073          	csrw	mhpmcounter12,zero
  1001c4:	b0d01073          	csrw	mhpmcounter13,zero
  1001c8:	b0e01073          	csrw	mhpmcounter14,zero
  1001cc:	b0f01073          	csrw	mhpmcounter15,zero
  1001d0:	b1001073          	csrw	mhpmcounter16,zero
  1001d4:	b1101073          	csrw	mhpmcounter17,zero
  1001d8:	b1201073          	csrw	mhpmcounter18,zero
  1001dc:	b1301073          	csrw	mhpmcounter19,zero
  1001e0:	b1401073          	csrw	mhpmcounter20,zero
  1001e4:	b1501073          	csrw	mhpmcounter21,zero
  1001e8:	b1601073          	csrw	mhpmcounter22,zero
  1001ec:	b1701073          	csrw	mhpmcounter23,zero
  1001f0:	b1801073          	csrw	mhpmcounter24,zero
  1001f4:	b1901073          	csrw	mhpmcounter25,zero
  1001f8:	b1a01073          	csrw	mhpmcounter26,zero
  1001fc:	b1b01073          	csrw	mhpmcounter27,zero
  100200:	b1c01073          	csrw	mhpmcounter28,zero
  100204:	b1d01073          	csrw	mhpmcounter29,zero
  100208:	b1e01073          	csrw	mhpmcounter30,zero
  10020c:	b1f01073          	csrw	mhpmcounter31,zero
  100210:	b8201073          	csrw	minstreth,zero
  100214:	b8001073          	csrw	mcycleh,zero
  100218:	b8301073          	csrw	mhpmcounter3h,zero
  10021c:	b8401073          	csrw	mhpmcounter4h,zero
  100220:	b8501073          	csrw	mhpmcounter5h,zero
  100224:	b8601073          	csrw	mhpmcounter6h,zero
  100228:	b8701073          	csrw	mhpmcounter7h,zero
  10022c:	b8801073          	csrw	mhpmcounter8h,zero
  100230:	b8901073          	csrw	mhpmcounter9h,zero
  100234:	b8a01073          	csrw	mhpmcounter10h,zero
  100238:	b8b01073          	csrw	mhpmcounter11h,zero
  10023c:	b8c01073          	csrw	mhpmcounter12h,zero
  100240:	b8d01073          	csrw	mhpmcounter13h,zero
  100244:	b8e01073          	csrw	mhpmcounter14h,zero
  100248:	b8f01073          	csrw	mhpmcounter15h,zero
  10024c:	b9001073          	csrw	mhpmcounter16h,zero
  100250:	b9101073          	csrw	mhpmcounter17h,zero
  100254:	b9201073          	csrw	mhpmcounter18h,zero
  100258:	b9301073          	csrw	mhpmcounter19h,zero
  10025c:	b9401073          	csrw	mhpmcounter20h,zero
  100260:	b9501073          	csrw	mhpmcounter21h,zero
  100264:	b9601073          	csrw	mhpmcounter22h,zero
  100268:	b9701073          	csrw	mhpmcounter23h,zero
  10026c:	b9801073          	csrw	mhpmcounter24h,zero
  100270:	b9901073          	csrw	mhpmcounter25h,zero
  100274:	b9a01073          	csrw	mhpmcounter26h,zero
  100278:	b9b01073          	csrw	mhpmcounter27h,zero
  10027c:	b9c01073          	csrw	mhpmcounter28h,zero
  100280:	b9d01073          	csrw	mhpmcounter29h,zero
  100284:	b9e01073          	csrw	mhpmcounter30h,zero
  100288:	b9f01073          	csrw	mhpmcounter31h,zero
      "csrw mhpmcounter27h, x0\n"
      "csrw mhpmcounter28h, x0\n"
      "csrw mhpmcounter29h, x0\n"
      "csrw mhpmcounter30h, x0\n"
      "csrw mhpmcounter31h, x0\n");
}
  10028c:	00000013          	nop
  100290:	00008067          	ret

00100294 <pcount_enable>:

void pcount_enable(int enable) {
  100294:	fe010113          	addi	sp,sp,-32
  100298:	00a12623          	sw	a0,12(sp)
  // Note cycle is disabled with everything else
  unsigned int inhibit_val = enable ? 0x0 : 0xFFFFFFFF;
  10029c:	00c12783          	lw	a5,12(sp)
  1002a0:	00078663          	beqz	a5,1002ac <pcount_enable+0x18>
  1002a4:	00000793          	li	a5,0
  1002a8:	0080006f          	j	1002b0 <pcount_enable+0x1c>
  1002ac:	fff00793          	li	a5,-1
  1002b0:	00f12e23          	sw	a5,28(sp)
  // then dropped in v1.10, and then re-added in v1.11 with the name
  // `mcountinhibit`. Unfortunately, the version of binutils we use only allows
  // the old name, and LLVM only supports the new name (though this is changed
  // on trunk to support both), so we use the numeric value here for maximum
  // compatibility.
  asm volatile("csrw  0x320, %0\n" : : "r"(inhibit_val));
  1002b4:	01c12783          	lw	a5,28(sp)
  1002b8:	32079073          	csrw	mcountinhibit,a5
}
  1002bc:	00000013          	nop
  1002c0:	02010113          	addi	sp,sp,32
  1002c4:	00008067          	ret

001002c8 <get_mepc>:

unsigned int get_mepc() {
  1002c8:	ff010113          	addi	sp,sp,-16
  uint32_t result;
  __asm__ volatile("csrr %0, mepc;" : "=r"(result));
  1002cc:	341027f3          	csrr	a5,mepc
  1002d0:	00f12623          	sw	a5,12(sp)
  return result;
  1002d4:	00c12783          	lw	a5,12(sp)
}
  1002d8:	00078513          	mv	a0,a5
  1002dc:	01010113          	addi	sp,sp,16
  1002e0:	00008067          	ret

001002e4 <get_mcause>:

unsigned int get_mcause() {
  1002e4:	ff010113          	addi	sp,sp,-16
  uint32_t result;
  __asm__ volatile("csrr %0, mcause;" : "=r"(result));
  1002e8:	342027f3          	csrr	a5,mcause
  1002ec:	00f12623          	sw	a5,12(sp)
  return result;
  1002f0:	00c12783          	lw	a5,12(sp)
}
  1002f4:	00078513          	mv	a0,a5
  1002f8:	01010113          	addi	sp,sp,16
  1002fc:	00008067          	ret

00100300 <get_mtval>:

unsigned int get_mtval() {
  100300:	ff010113          	addi	sp,sp,-16
  uint32_t result;
  __asm__ volatile("csrr %0, mtval;" : "=r"(result));
  100304:	343027f3          	csrr	a5,mtval
  100308:	00f12623          	sw	a5,12(sp)
  return result;
  10030c:	00c12783          	lw	a5,12(sp)
}
  100310:	00078513          	mv	a0,a5
  100314:	01010113          	addi	sp,sp,16
  100318:	00008067          	ret

0010031c <simple_exc_handler>:

void simple_exc_handler(void) {
  10031c:	ff010113          	addi	sp,sp,-16
  100320:	00112623          	sw	ra,12(sp)
  puts("EXCEPTION!!!\n");
  100324:	00002517          	auipc	a0,0x2
  100328:	23450513          	addi	a0,a0,564 # 102558 <_wordcopy_bwd_dest_aligned+0xc0>
  10032c:	d81ff0ef          	jal	ra,1000ac <puts>
  puts("============\n");
  100330:	00002517          	auipc	a0,0x2
  100334:	23850513          	addi	a0,a0,568 # 102568 <_wordcopy_bwd_dest_aligned+0xd0>
  100338:	d75ff0ef          	jal	ra,1000ac <puts>
  puts("MEPC:   0x");
  10033c:	00002517          	auipc	a0,0x2
  100340:	23c50513          	addi	a0,a0,572 # 102578 <_wordcopy_bwd_dest_aligned+0xe0>
  100344:	d69ff0ef          	jal	ra,1000ac <puts>
  puthex(get_mepc());
  100348:	f81ff0ef          	jal	ra,1002c8 <get_mepc>
  10034c:	00050793          	mv	a5,a0
  100350:	00078513          	mv	a0,a5
  100354:	da1ff0ef          	jal	ra,1000f4 <puthex>
  puts("\nMCAUSE: 0x");
  100358:	00002517          	auipc	a0,0x2
  10035c:	22c50513          	addi	a0,a0,556 # 102584 <_wordcopy_bwd_dest_aligned+0xec>
  100360:	d4dff0ef          	jal	ra,1000ac <puts>
  puthex(get_mcause());
  100364:	f81ff0ef          	jal	ra,1002e4 <get_mcause>
  100368:	00050793          	mv	a5,a0
  10036c:	00078513          	mv	a0,a5
  100370:	d85ff0ef          	jal	ra,1000f4 <puthex>
  puts("\nMTVAL:  0x");
  100374:	00002517          	auipc	a0,0x2
  100378:	21c50513          	addi	a0,a0,540 # 102590 <_wordcopy_bwd_dest_aligned+0xf8>
  10037c:	d31ff0ef          	jal	ra,1000ac <puts>
  puthex(get_mtval());
  100380:	f81ff0ef          	jal	ra,100300 <get_mtval>
  100384:	00050793          	mv	a5,a0
  100388:	00078513          	mv	a0,a5
  10038c:	d69ff0ef          	jal	ra,1000f4 <puthex>
  putchar('\n');
  100390:	00a00513          	li	a0,10
  100394:	cf1ff0ef          	jal	ra,100084 <putchar>
  sim_halt();
  100398:	de5ff0ef          	jal	ra,10017c <sim_halt>

  while(1);
  10039c:	0000006f          	j	10039c <simple_exc_handler+0x80>

001003a0 <increment_timecmp>:
}

volatile uint64_t time_elapsed;
uint64_t time_increment;

inline static void increment_timecmp(uint64_t time_base) {
  1003a0:	fd010113          	addi	sp,sp,-48
  1003a4:	02112623          	sw	ra,44(sp)
  1003a8:	00a12423          	sw	a0,8(sp)
  1003ac:	00b12623          	sw	a1,12(sp)
  uint64_t current_time = timer_read();
  1003b0:	0d4000ef          	jal	ra,100484 <timer_read>
  1003b4:	00a12c23          	sw	a0,24(sp)
  1003b8:	00b12e23          	sw	a1,28(sp)
  current_time += time_base;
  1003bc:	01812603          	lw	a2,24(sp)
  1003c0:	01c12683          	lw	a3,28(sp)
  1003c4:	00812503          	lw	a0,8(sp)
  1003c8:	00c12583          	lw	a1,12(sp)
  1003cc:	00a60733          	add	a4,a2,a0
  1003d0:	00070813          	mv	a6,a4
  1003d4:	00c83833          	sltu	a6,a6,a2
  1003d8:	00b687b3          	add	a5,a3,a1
  1003dc:	00f806b3          	add	a3,a6,a5
  1003e0:	00068793          	mv	a5,a3
  1003e4:	00e12c23          	sw	a4,24(sp)
  1003e8:	00f12e23          	sw	a5,28(sp)
  timecmp_update(current_time);
  1003ec:	01812503          	lw	a0,24(sp)
  1003f0:	01c12583          	lw	a1,28(sp)
  1003f4:	10c000ef          	jal	ra,100500 <timecmp_update>
}
  1003f8:	00000013          	nop
  1003fc:	02c12083          	lw	ra,44(sp)
  100400:	03010113          	addi	sp,sp,48
  100404:	00008067          	ret

00100408 <timer_enable>:

void timer_enable(uint64_t time_base) {
  100408:	fe010113          	addi	sp,sp,-32
  10040c:	00112e23          	sw	ra,28(sp)
  100410:	00a12423          	sw	a0,8(sp)
  100414:	00b12623          	sw	a1,12(sp)
  time_elapsed = 0;
  100418:	00002797          	auipc	a5,0x2
  10041c:	3f078793          	addi	a5,a5,1008 # 102808 <time_elapsed>
  100420:	00000693          	li	a3,0
  100424:	00000713          	li	a4,0
  100428:	00d7a023          	sw	a3,0(a5)
  10042c:	00e7a223          	sw	a4,4(a5)
  time_increment = time_base;
  100430:	00002697          	auipc	a3,0x2
  100434:	3e068693          	addi	a3,a3,992 # 102810 <time_increment>
  100438:	00812703          	lw	a4,8(sp)
  10043c:	00c12783          	lw	a5,12(sp)
  100440:	00e6a023          	sw	a4,0(a3)
  100444:	00f6a223          	sw	a5,4(a3)
  // Set timer values
  increment_timecmp(time_base);
  100448:	00812503          	lw	a0,8(sp)
  10044c:	00c12583          	lw	a1,12(sp)
  100450:	f51ff0ef          	jal	ra,1003a0 <increment_timecmp>
  // enable timer interrupt
  asm volatile("csrs  mie, %0\n" : : "r"(0x80));
  100454:	08000793          	li	a5,128
  100458:	3047a073          	csrs	mie,a5
  // enable global interrupt
  asm volatile("csrs  mstatus, %0\n" : : "r"(0x8));
  10045c:	00800793          	li	a5,8
  100460:	3007a073          	csrs	mstatus,a5
}
  100464:	00000013          	nop
  100468:	01c12083          	lw	ra,28(sp)
  10046c:	02010113          	addi	sp,sp,32
  100470:	00008067          	ret

00100474 <timer_disable>:

void timer_disable(void) { asm volatile("csrc  mie, %0\n" : : "r"(0x80)); }
  100474:	08000793          	li	a5,128
  100478:	3047b073          	csrc	mie,a5
  10047c:	00000013          	nop
  100480:	00008067          	ret

00100484 <timer_read>:

uint64_t timer_read(void) {
  100484:	ff010113          	addi	sp,sp,-16
  uint32_t current_timeh;
  uint32_t current_time;
  // check if time overflowed while reading and try again
  do {
    current_timeh = DEV_READ(TIMER_BASE + TIMER_MTIMEH, 0);
  100488:	00030837          	lui	a6,0x30
  10048c:	00480813          	addi	a6,a6,4 # 30004 <_stack_len+0x28004>
  100490:	00082803          	lw	a6,0(a6)
  100494:	01012623          	sw	a6,12(sp)
    current_time = DEV_READ(TIMER_BASE + TIMER_MTIME, 0);
  100498:	00030837          	lui	a6,0x30
  10049c:	00082803          	lw	a6,0(a6) # 30000 <_stack_len+0x28000>
  1004a0:	01012423          	sw	a6,8(sp)
  } while (current_timeh != DEV_READ(TIMER_BASE + TIMER_MTIMEH, 0));
  1004a4:	00030837          	lui	a6,0x30
  1004a8:	00480813          	addi	a6,a6,4 # 30004 <_stack_len+0x28004>
  1004ac:	00082803          	lw	a6,0(a6)
  1004b0:	00c12883          	lw	a7,12(sp)
  1004b4:	fd089ae3          	bne	a7,a6,100488 <timer_read+0x4>
  uint64_t final_time = ((uint64_t)current_timeh << 32) | current_time;
  1004b8:	00c12803          	lw	a6,12(sp)
  1004bc:	00080513          	mv	a0,a6
  1004c0:	00000593          	li	a1,0
  1004c4:	00051793          	slli	a5,a0,0x0
  1004c8:	00000713          	li	a4,0
  1004cc:	00812583          	lw	a1,8(sp)
  1004d0:	00058613          	mv	a2,a1
  1004d4:	00000693          	li	a3,0
  1004d8:	00c765b3          	or	a1,a4,a2
  1004dc:	00b12023          	sw	a1,0(sp)
  1004e0:	00d7e7b3          	or	a5,a5,a3
  1004e4:	00f12223          	sw	a5,4(sp)
  return final_time;
  1004e8:	00012703          	lw	a4,0(sp)
  1004ec:	00412783          	lw	a5,4(sp)
}
  1004f0:	00070513          	mv	a0,a4
  1004f4:	00078593          	mv	a1,a5
  1004f8:	01010113          	addi	sp,sp,16
  1004fc:	00008067          	ret

00100500 <timecmp_update>:

void timecmp_update(uint64_t new_time) {
  100500:	ff010113          	addi	sp,sp,-16
  100504:	00a12423          	sw	a0,8(sp)
  100508:	00b12623          	sw	a1,12(sp)
  DEV_WRITE(TIMER_BASE + TIMER_MTIMECMP, -1);
  10050c:	000306b7          	lui	a3,0x30
  100510:	00868693          	addi	a3,a3,8 # 30008 <_stack_len+0x28008>
  100514:	fff00613          	li	a2,-1
  100518:	00c6a023          	sw	a2,0(a3)
  DEV_WRITE(TIMER_BASE + TIMER_MTIMECMPH, new_time >> 32);
  10051c:	00c12683          	lw	a3,12(sp)
  100520:	0006d713          	srli	a4,a3,0x0
  100524:	00000793          	li	a5,0
  100528:	000306b7          	lui	a3,0x30
  10052c:	00c68693          	addi	a3,a3,12 # 3000c <_stack_len+0x2800c>
  100530:	00070793          	mv	a5,a4
  100534:	00f6a023          	sw	a5,0(a3)
  DEV_WRITE(TIMER_BASE + TIMER_MTIMECMP, new_time);
  100538:	000307b7          	lui	a5,0x30
  10053c:	00878793          	addi	a5,a5,8 # 30008 <_stack_len+0x28008>
  100540:	00812703          	lw	a4,8(sp)
  100544:	00e7a023          	sw	a4,0(a5)
}
  100548:	00000013          	nop
  10054c:	01010113          	addi	sp,sp,16
  100550:	00008067          	ret

00100554 <get_elapsed_time>:

uint64_t get_elapsed_time(void) { return time_elapsed; }
  100554:	00002797          	auipc	a5,0x2
  100558:	2b478793          	addi	a5,a5,692 # 102808 <time_elapsed>
  10055c:	0007a703          	lw	a4,0(a5)
  100560:	0047a783          	lw	a5,4(a5)
  100564:	00070513          	mv	a0,a4
  100568:	00078593          	mv	a1,a5
  10056c:	00008067          	ret

00100570 <simple_timer_handler>:

void simple_timer_handler(void) __attribute__((interrupt));

void simple_timer_handler(void) {
  100570:	fc010113          	addi	sp,sp,-64
  100574:	02112e23          	sw	ra,60(sp)
  100578:	02512c23          	sw	t0,56(sp)
  10057c:	02612a23          	sw	t1,52(sp)
  100580:	02712823          	sw	t2,48(sp)
  100584:	02a12623          	sw	a0,44(sp)
  100588:	02b12423          	sw	a1,40(sp)
  10058c:	02c12223          	sw	a2,36(sp)
  100590:	02d12023          	sw	a3,32(sp)
  100594:	00e12e23          	sw	a4,28(sp)
  100598:	00f12c23          	sw	a5,24(sp)
  10059c:	01012a23          	sw	a6,20(sp)
  1005a0:	01112823          	sw	a7,16(sp)
  1005a4:	01c12623          	sw	t3,12(sp)
  1005a8:	01d12423          	sw	t4,8(sp)
  1005ac:	01e12223          	sw	t5,4(sp)
  1005b0:	01f12023          	sw	t6,0(sp)
  increment_timecmp(time_increment);
  1005b4:	00002797          	auipc	a5,0x2
  1005b8:	25c78793          	addi	a5,a5,604 # 102810 <time_increment>
  1005bc:	0007a703          	lw	a4,0(a5)
  1005c0:	0047a783          	lw	a5,4(a5)
  1005c4:	00070513          	mv	a0,a4
  1005c8:	00078593          	mv	a1,a5
  1005cc:	dd5ff0ef          	jal	ra,1003a0 <increment_timecmp>
  time_elapsed++;
  1005d0:	00002797          	auipc	a5,0x2
  1005d4:	23878793          	addi	a5,a5,568 # 102808 <time_elapsed>
  1005d8:	0007a703          	lw	a4,0(a5)
  1005dc:	0047a783          	lw	a5,4(a5)
  1005e0:	00100513          	li	a0,1
  1005e4:	00000593          	li	a1,0
  1005e8:	00a70633          	add	a2,a4,a0
  1005ec:	00060813          	mv	a6,a2
  1005f0:	00e83833          	sltu	a6,a6,a4
  1005f4:	00b786b3          	add	a3,a5,a1
  1005f8:	00d807b3          	add	a5,a6,a3
  1005fc:	00078693          	mv	a3,a5
  100600:	00060713          	mv	a4,a2
  100604:	00068793          	mv	a5,a3
  100608:	00002697          	auipc	a3,0x2
  10060c:	20068693          	addi	a3,a3,512 # 102808 <time_elapsed>
  100610:	00e6a023          	sw	a4,0(a3)
  100614:	00f6a223          	sw	a5,4(a3)
}
  100618:	00000013          	nop
  10061c:	03c12083          	lw	ra,60(sp)
  100620:	03812283          	lw	t0,56(sp)
  100624:	03412303          	lw	t1,52(sp)
  100628:	03012383          	lw	t2,48(sp)
  10062c:	02c12503          	lw	a0,44(sp)
  100630:	02812583          	lw	a1,40(sp)
  100634:	02412603          	lw	a2,36(sp)
  100638:	02012683          	lw	a3,32(sp)
  10063c:	01c12703          	lw	a4,28(sp)
  100640:	01812783          	lw	a5,24(sp)
  100644:	01412803          	lw	a6,20(sp)
  100648:	01012883          	lw	a7,16(sp)
  10064c:	00c12e03          	lw	t3,12(sp)
  100650:	00812e83          	lw	t4,8(sp)
  100654:	00412f03          	lw	t5,4(sp)
  100658:	00012f83          	lw	t6,0(sp)
  10065c:	04010113          	addi	sp,sp,64
  100660:	30200073          	mret

00100664 <main>:
                      0x65, 0x34, 0x30, 0x70,
                      0x20, 0x64, 0x66, 0x61,
                      0x20, 0x61, 0x65, 0x73};

int main(int argc, char *argv[])
{
  100664:	f2010113          	addi	sp,sp,-224
  100668:	0c112e23          	sw	ra,220(sp)
  10066c:	00a12623          	sw	a0,12(sp)
  100670:	00b12423          	sw	a1,8(sp)
    struct AES_ctx ctx;
    AES_init_ctx(&ctx, key);
  100674:	01010793          	addi	a5,sp,16
  100678:	00002597          	auipc	a1,0x2
  10067c:	17058593          	addi	a1,a1,368 # 1027e8 <key>
  100680:	00078513          	mv	a0,a5
  100684:	360000ef          	jal	ra,1009e4 <AES_init_ctx>
    AES_ECB_decrypt(&ctx, cipher);
  100688:	01010793          	addi	a5,sp,16
  10068c:	00002597          	auipc	a1,0x2
  100690:	16c58593          	addi	a1,a1,364 # 1027f8 <cipher>
  100694:	00078513          	mv	a0,a5
  100698:	720010ef          	jal	ra,101db8 <AES_ECB_decrypt>
    return EXIT_SUCCESS;
  10069c:	00000793          	li	a5,0
}
  1006a0:	00078513          	mv	a0,a5
  1006a4:	0dc12083          	lw	ra,220(sp)
  1006a8:	0e010113          	addi	sp,sp,224
  1006ac:	00008067          	ret

001006b0 <KeyExpansion>:
*/
#define getSBoxInvert(num) (rsbox[(num)])

// This function produces Nb(Nr+1) round keys. The round keys are used in each round to decrypt the states. 
static void KeyExpansion(uint8_t* RoundKey, const uint8_t* Key)
{
  1006b0:	fd010113          	addi	sp,sp,-48
  1006b4:	00a12623          	sw	a0,12(sp)
  1006b8:	00b12423          	sw	a1,8(sp)
  unsigned i, j, k;
  uint8_t tempa[4]; // Used for the column/row operations
  
  // The first round key is the key itself.
  for (i = 0; i < Nk; ++i)
  1006bc:	02012623          	sw	zero,44(sp)
  1006c0:	0c80006f          	j	100788 <KeyExpansion+0xd8>
  {
    RoundKey[(i * 4) + 0] = Key[(i * 4) + 0];
  1006c4:	02c12783          	lw	a5,44(sp)
  1006c8:	00279793          	slli	a5,a5,0x2
  1006cc:	00812703          	lw	a4,8(sp)
  1006d0:	00f70733          	add	a4,a4,a5
  1006d4:	02c12783          	lw	a5,44(sp)
  1006d8:	00279793          	slli	a5,a5,0x2
  1006dc:	00c12683          	lw	a3,12(sp)
  1006e0:	00f687b3          	add	a5,a3,a5
  1006e4:	00074703          	lbu	a4,0(a4)
  1006e8:	00e78023          	sb	a4,0(a5)
    RoundKey[(i * 4) + 1] = Key[(i * 4) + 1];
  1006ec:	02c12783          	lw	a5,44(sp)
  1006f0:	00279793          	slli	a5,a5,0x2
  1006f4:	00178793          	addi	a5,a5,1
  1006f8:	00812703          	lw	a4,8(sp)
  1006fc:	00f70733          	add	a4,a4,a5
  100700:	02c12783          	lw	a5,44(sp)
  100704:	00279793          	slli	a5,a5,0x2
  100708:	00178793          	addi	a5,a5,1
  10070c:	00c12683          	lw	a3,12(sp)
  100710:	00f687b3          	add	a5,a3,a5
  100714:	00074703          	lbu	a4,0(a4)
  100718:	00e78023          	sb	a4,0(a5)
    RoundKey[(i * 4) + 2] = Key[(i * 4) + 2];
  10071c:	02c12783          	lw	a5,44(sp)
  100720:	00279793          	slli	a5,a5,0x2
  100724:	00278793          	addi	a5,a5,2
  100728:	00812703          	lw	a4,8(sp)
  10072c:	00f70733          	add	a4,a4,a5
  100730:	02c12783          	lw	a5,44(sp)
  100734:	00279793          	slli	a5,a5,0x2
  100738:	00278793          	addi	a5,a5,2
  10073c:	00c12683          	lw	a3,12(sp)
  100740:	00f687b3          	add	a5,a3,a5
  100744:	00074703          	lbu	a4,0(a4)
  100748:	00e78023          	sb	a4,0(a5)
    RoundKey[(i * 4) + 3] = Key[(i * 4) + 3];
  10074c:	02c12783          	lw	a5,44(sp)
  100750:	00279793          	slli	a5,a5,0x2
  100754:	00378793          	addi	a5,a5,3
  100758:	00812703          	lw	a4,8(sp)
  10075c:	00f70733          	add	a4,a4,a5
  100760:	02c12783          	lw	a5,44(sp)
  100764:	00279793          	slli	a5,a5,0x2
  100768:	00378793          	addi	a5,a5,3
  10076c:	00c12683          	lw	a3,12(sp)
  100770:	00f687b3          	add	a5,a3,a5
  100774:	00074703          	lbu	a4,0(a4)
  100778:	00e78023          	sb	a4,0(a5)
  for (i = 0; i < Nk; ++i)
  10077c:	02c12783          	lw	a5,44(sp)
  100780:	00178793          	addi	a5,a5,1
  100784:	02f12623          	sw	a5,44(sp)
  100788:	02c12703          	lw	a4,44(sp)
  10078c:	00300793          	li	a5,3
  100790:	f2e7fae3          	bgeu	a5,a4,1006c4 <KeyExpansion+0x14>
  }

  // All other round keys are found from the previous round keys.
  for (i = Nk; i < Nb * (Nr + 1); ++i)
  100794:	00400793          	li	a5,4
  100798:	02f12623          	sw	a5,44(sp)
  10079c:	22c0006f          	j	1009c8 <KeyExpansion+0x318>
  {
    {
      k = (i - 1) * 4;
  1007a0:	02c12783          	lw	a5,44(sp)
  1007a4:	fff78793          	addi	a5,a5,-1
  1007a8:	00279793          	slli	a5,a5,0x2
  1007ac:	02f12423          	sw	a5,40(sp)
      tempa[0]=RoundKey[k + 0];
  1007b0:	00c12703          	lw	a4,12(sp)
  1007b4:	02812783          	lw	a5,40(sp)
  1007b8:	00f707b3          	add	a5,a4,a5
  1007bc:	0007c783          	lbu	a5,0(a5)
  1007c0:	00f10e23          	sb	a5,28(sp)
      tempa[1]=RoundKey[k + 1];
  1007c4:	02812783          	lw	a5,40(sp)
  1007c8:	00178793          	addi	a5,a5,1
  1007cc:	00c12703          	lw	a4,12(sp)
  1007d0:	00f707b3          	add	a5,a4,a5
  1007d4:	0007c783          	lbu	a5,0(a5)
  1007d8:	00f10ea3          	sb	a5,29(sp)
      tempa[2]=RoundKey[k + 2];
  1007dc:	02812783          	lw	a5,40(sp)
  1007e0:	00278793          	addi	a5,a5,2
  1007e4:	00c12703          	lw	a4,12(sp)
  1007e8:	00f707b3          	add	a5,a4,a5
  1007ec:	0007c783          	lbu	a5,0(a5)
  1007f0:	00f10f23          	sb	a5,30(sp)
      tempa[3]=RoundKey[k + 3];
  1007f4:	02812783          	lw	a5,40(sp)
  1007f8:	00378793          	addi	a5,a5,3
  1007fc:	00c12703          	lw	a4,12(sp)
  100800:	00f707b3          	add	a5,a4,a5
  100804:	0007c783          	lbu	a5,0(a5)
  100808:	00f10fa3          	sb	a5,31(sp)

    }

    if (i % Nk == 0)
  10080c:	02c12783          	lw	a5,44(sp)
  100810:	0037f793          	andi	a5,a5,3
  100814:	0c079263          	bnez	a5,1008d8 <KeyExpansion+0x228>
      // This function shifts the 4 bytes in a word to the left once.
      // [a0,a1,a2,a3] becomes [a1,a2,a3,a0]

      // Function RotWord()
      {
        const uint8_t u8tmp = tempa[0];
  100818:	01c14783          	lbu	a5,28(sp)
  10081c:	02f103a3          	sb	a5,39(sp)
        tempa[0] = tempa[1];
  100820:	01d14783          	lbu	a5,29(sp)
  100824:	00f10e23          	sb	a5,28(sp)
        tempa[1] = tempa[2];
  100828:	01e14783          	lbu	a5,30(sp)
  10082c:	00f10ea3          	sb	a5,29(sp)
        tempa[2] = tempa[3];
  100830:	01f14783          	lbu	a5,31(sp)
  100834:	00f10f23          	sb	a5,30(sp)
        tempa[3] = u8tmp;
  100838:	02714783          	lbu	a5,39(sp)
  10083c:	00f10fa3          	sb	a5,31(sp)
      // SubWord() is a function that takes a four-byte input word and 
      // applies the S-box to each of the four bytes to produce an output word.

      // Function Subword()
      {
        tempa[0] = getSBoxValue(tempa[0]);
  100840:	01c14783          	lbu	a5,28(sp)
  100844:	00078713          	mv	a4,a5
  100848:	00002797          	auipc	a5,0x2
  10084c:	d5478793          	addi	a5,a5,-684 # 10259c <sbox>
  100850:	00e787b3          	add	a5,a5,a4
  100854:	0007c783          	lbu	a5,0(a5)
  100858:	00f10e23          	sb	a5,28(sp)
        tempa[1] = getSBoxValue(tempa[1]);
  10085c:	01d14783          	lbu	a5,29(sp)
  100860:	00078713          	mv	a4,a5
  100864:	00002797          	auipc	a5,0x2
  100868:	d3878793          	addi	a5,a5,-712 # 10259c <sbox>
  10086c:	00e787b3          	add	a5,a5,a4
  100870:	0007c783          	lbu	a5,0(a5)
  100874:	00f10ea3          	sb	a5,29(sp)
        tempa[2] = getSBoxValue(tempa[2]);
  100878:	01e14783          	lbu	a5,30(sp)
  10087c:	00078713          	mv	a4,a5
  100880:	00002797          	auipc	a5,0x2
  100884:	d1c78793          	addi	a5,a5,-740 # 10259c <sbox>
  100888:	00e787b3          	add	a5,a5,a4
  10088c:	0007c783          	lbu	a5,0(a5)
  100890:	00f10f23          	sb	a5,30(sp)
        tempa[3] = getSBoxValue(tempa[3]);
  100894:	01f14783          	lbu	a5,31(sp)
  100898:	00078713          	mv	a4,a5
  10089c:	00002797          	auipc	a5,0x2
  1008a0:	d0078793          	addi	a5,a5,-768 # 10259c <sbox>
  1008a4:	00e787b3          	add	a5,a5,a4
  1008a8:	0007c783          	lbu	a5,0(a5)
  1008ac:	00f10fa3          	sb	a5,31(sp)
      }

      tempa[0] = tempa[0] ^ Rcon[i/Nk];
  1008b0:	01c14703          	lbu	a4,28(sp)
  1008b4:	02c12783          	lw	a5,44(sp)
  1008b8:	0027d793          	srli	a5,a5,0x2
  1008bc:	00002697          	auipc	a3,0x2
  1008c0:	ee068693          	addi	a3,a3,-288 # 10279c <Rcon>
  1008c4:	00f687b3          	add	a5,a3,a5
  1008c8:	0007c783          	lbu	a5,0(a5)
  1008cc:	00f747b3          	xor	a5,a4,a5
  1008d0:	0ff7f793          	andi	a5,a5,255
  1008d4:	00f10e23          	sb	a5,28(sp)
        tempa[2] = getSBoxValue(tempa[2]);
        tempa[3] = getSBoxValue(tempa[3]);
      }
    }
#endif
    j = i * 4; k=(i - Nk) * 4;
  1008d8:	02c12783          	lw	a5,44(sp)
  1008dc:	00279793          	slli	a5,a5,0x2
  1008e0:	02f12023          	sw	a5,32(sp)
  1008e4:	02c12783          	lw	a5,44(sp)
  1008e8:	ffc78793          	addi	a5,a5,-4
  1008ec:	00279793          	slli	a5,a5,0x2
  1008f0:	02f12423          	sw	a5,40(sp)
    RoundKey[j + 0] = RoundKey[k + 0] ^ tempa[0];
  1008f4:	00c12703          	lw	a4,12(sp)
  1008f8:	02812783          	lw	a5,40(sp)
  1008fc:	00f707b3          	add	a5,a4,a5
  100900:	0007c683          	lbu	a3,0(a5)
  100904:	01c14703          	lbu	a4,28(sp)
  100908:	00c12603          	lw	a2,12(sp)
  10090c:	02012783          	lw	a5,32(sp)
  100910:	00f607b3          	add	a5,a2,a5
  100914:	00e6c733          	xor	a4,a3,a4
  100918:	0ff77713          	andi	a4,a4,255
  10091c:	00e78023          	sb	a4,0(a5)
    RoundKey[j + 1] = RoundKey[k + 1] ^ tempa[1];
  100920:	02812783          	lw	a5,40(sp)
  100924:	00178793          	addi	a5,a5,1
  100928:	00c12703          	lw	a4,12(sp)
  10092c:	00f707b3          	add	a5,a4,a5
  100930:	0007c683          	lbu	a3,0(a5)
  100934:	01d14703          	lbu	a4,29(sp)
  100938:	02012783          	lw	a5,32(sp)
  10093c:	00178793          	addi	a5,a5,1
  100940:	00c12603          	lw	a2,12(sp)
  100944:	00f607b3          	add	a5,a2,a5
  100948:	00e6c733          	xor	a4,a3,a4
  10094c:	0ff77713          	andi	a4,a4,255
  100950:	00e78023          	sb	a4,0(a5)
    RoundKey[j + 2] = RoundKey[k + 2] ^ tempa[2];
  100954:	02812783          	lw	a5,40(sp)
  100958:	00278793          	addi	a5,a5,2
  10095c:	00c12703          	lw	a4,12(sp)
  100960:	00f707b3          	add	a5,a4,a5
  100964:	0007c683          	lbu	a3,0(a5)
  100968:	01e14703          	lbu	a4,30(sp)
  10096c:	02012783          	lw	a5,32(sp)
  100970:	00278793          	addi	a5,a5,2
  100974:	00c12603          	lw	a2,12(sp)
  100978:	00f607b3          	add	a5,a2,a5
  10097c:	00e6c733          	xor	a4,a3,a4
  100980:	0ff77713          	andi	a4,a4,255
  100984:	00e78023          	sb	a4,0(a5)
    RoundKey[j + 3] = RoundKey[k + 3] ^ tempa[3];
  100988:	02812783          	lw	a5,40(sp)
  10098c:	00378793          	addi	a5,a5,3
  100990:	00c12703          	lw	a4,12(sp)
  100994:	00f707b3          	add	a5,a4,a5
  100998:	0007c683          	lbu	a3,0(a5)
  10099c:	01f14703          	lbu	a4,31(sp)
  1009a0:	02012783          	lw	a5,32(sp)
  1009a4:	00378793          	addi	a5,a5,3
  1009a8:	00c12603          	lw	a2,12(sp)
  1009ac:	00f607b3          	add	a5,a2,a5
  1009b0:	00e6c733          	xor	a4,a3,a4
  1009b4:	0ff77713          	andi	a4,a4,255
  1009b8:	00e78023          	sb	a4,0(a5)
  for (i = Nk; i < Nb * (Nr + 1); ++i)
  1009bc:	02c12783          	lw	a5,44(sp)
  1009c0:	00178793          	addi	a5,a5,1
  1009c4:	02f12623          	sw	a5,44(sp)
  1009c8:	02c12703          	lw	a4,44(sp)
  1009cc:	02b00793          	li	a5,43
  1009d0:	dce7f8e3          	bgeu	a5,a4,1007a0 <KeyExpansion+0xf0>
  }
}
  1009d4:	00000013          	nop
  1009d8:	00000013          	nop
  1009dc:	03010113          	addi	sp,sp,48
  1009e0:	00008067          	ret

001009e4 <AES_init_ctx>:

void AES_init_ctx(struct AES_ctx* ctx, const uint8_t* key)
{
  1009e4:	fe010113          	addi	sp,sp,-32
  1009e8:	00112e23          	sw	ra,28(sp)
  1009ec:	00a12623          	sw	a0,12(sp)
  1009f0:	00b12423          	sw	a1,8(sp)
  KeyExpansion(ctx->RoundKey, key);
  1009f4:	00c12783          	lw	a5,12(sp)
  1009f8:	00812583          	lw	a1,8(sp)
  1009fc:	00078513          	mv	a0,a5
  100a00:	cb1ff0ef          	jal	ra,1006b0 <KeyExpansion>
}
  100a04:	00000013          	nop
  100a08:	01c12083          	lw	ra,28(sp)
  100a0c:	02010113          	addi	sp,sp,32
  100a10:	00008067          	ret

00100a14 <AES_init_ctx_iv>:
#if (defined(CBC) && (CBC == 1)) || (defined(CTR) && (CTR == 1))
void AES_init_ctx_iv(struct AES_ctx* ctx, const uint8_t* key, const uint8_t* iv)
{
  100a14:	fe010113          	addi	sp,sp,-32
  100a18:	00112e23          	sw	ra,28(sp)
  100a1c:	00a12623          	sw	a0,12(sp)
  100a20:	00b12423          	sw	a1,8(sp)
  100a24:	00c12223          	sw	a2,4(sp)
  KeyExpansion(ctx->RoundKey, key);
  100a28:	00c12783          	lw	a5,12(sp)
  100a2c:	00812583          	lw	a1,8(sp)
  100a30:	00078513          	mv	a0,a5
  100a34:	c7dff0ef          	jal	ra,1006b0 <KeyExpansion>
  memcpy (ctx->Iv, iv, AES_BLOCKLEN);
  100a38:	00c12783          	lw	a5,12(sp)
  100a3c:	0b078793          	addi	a5,a5,176
  100a40:	01000613          	li	a2,16
  100a44:	00412583          	lw	a1,4(sp)
  100a48:	00078513          	mv	a0,a5
  100a4c:	76c010ef          	jal	ra,1021b8 <memcpy>
}
  100a50:	00000013          	nop
  100a54:	01c12083          	lw	ra,28(sp)
  100a58:	02010113          	addi	sp,sp,32
  100a5c:	00008067          	ret

00100a60 <AES_ctx_set_iv>:
void AES_ctx_set_iv(struct AES_ctx* ctx, const uint8_t* iv)
{
  100a60:	fe010113          	addi	sp,sp,-32
  100a64:	00112e23          	sw	ra,28(sp)
  100a68:	00a12623          	sw	a0,12(sp)
  100a6c:	00b12423          	sw	a1,8(sp)
  memcpy (ctx->Iv, iv, AES_BLOCKLEN);
  100a70:	00c12783          	lw	a5,12(sp)
  100a74:	0b078793          	addi	a5,a5,176
  100a78:	01000613          	li	a2,16
  100a7c:	00812583          	lw	a1,8(sp)
  100a80:	00078513          	mv	a0,a5
  100a84:	734010ef          	jal	ra,1021b8 <memcpy>
}
  100a88:	00000013          	nop
  100a8c:	01c12083          	lw	ra,28(sp)
  100a90:	02010113          	addi	sp,sp,32
  100a94:	00008067          	ret

00100a98 <AddRoundKey>:
#endif

// This function adds the round key to state.
// The round key is added to the state by an XOR function.
static void AddRoundKey(uint8_t round, state_t* state, const uint8_t* RoundKey)
{
  100a98:	fe010113          	addi	sp,sp,-32
  100a9c:	00050793          	mv	a5,a0
  100aa0:	00b12423          	sw	a1,8(sp)
  100aa4:	00c12223          	sw	a2,4(sp)
  100aa8:	00f107a3          	sb	a5,15(sp)
  uint8_t i,j;
  for (i = 0; i < 4; ++i)
  100aac:	00010fa3          	sb	zero,31(sp)
  100ab0:	09c0006f          	j	100b4c <AddRoundKey+0xb4>
  {
    for (j = 0; j < 4; ++j)
  100ab4:	00010f23          	sb	zero,30(sp)
  100ab8:	07c0006f          	j	100b34 <AddRoundKey+0x9c>
    {
      (*state)[i][j] ^= RoundKey[(round * Nb * 4) + (i * Nb) + j];
  100abc:	01f14703          	lbu	a4,31(sp)
  100ac0:	01e14783          	lbu	a5,30(sp)
  100ac4:	00812683          	lw	a3,8(sp)
  100ac8:	00271713          	slli	a4,a4,0x2
  100acc:	00e68733          	add	a4,a3,a4
  100ad0:	00f707b3          	add	a5,a4,a5
  100ad4:	0007c603          	lbu	a2,0(a5)
  100ad8:	00f14783          	lbu	a5,15(sp)
  100adc:	00279713          	slli	a4,a5,0x2
  100ae0:	01f14783          	lbu	a5,31(sp)
  100ae4:	00f707b3          	add	a5,a4,a5
  100ae8:	00279713          	slli	a4,a5,0x2
  100aec:	01e14783          	lbu	a5,30(sp)
  100af0:	00f707b3          	add	a5,a4,a5
  100af4:	00078713          	mv	a4,a5
  100af8:	00412783          	lw	a5,4(sp)
  100afc:	00e787b3          	add	a5,a5,a4
  100b00:	0007c703          	lbu	a4,0(a5)
  100b04:	01f14683          	lbu	a3,31(sp)
  100b08:	01e14783          	lbu	a5,30(sp)
  100b0c:	00e64733          	xor	a4,a2,a4
  100b10:	0ff77713          	andi	a4,a4,255
  100b14:	00812603          	lw	a2,8(sp)
  100b18:	00269693          	slli	a3,a3,0x2
  100b1c:	00d606b3          	add	a3,a2,a3
  100b20:	00f687b3          	add	a5,a3,a5
  100b24:	00e78023          	sb	a4,0(a5)
    for (j = 0; j < 4; ++j)
  100b28:	01e14783          	lbu	a5,30(sp)
  100b2c:	00178793          	addi	a5,a5,1
  100b30:	00f10f23          	sb	a5,30(sp)
  100b34:	01e14703          	lbu	a4,30(sp)
  100b38:	00300793          	li	a5,3
  100b3c:	f8e7f0e3          	bgeu	a5,a4,100abc <AddRoundKey+0x24>
  for (i = 0; i < 4; ++i)
  100b40:	01f14783          	lbu	a5,31(sp)
  100b44:	00178793          	addi	a5,a5,1
  100b48:	00f10fa3          	sb	a5,31(sp)
  100b4c:	01f14703          	lbu	a4,31(sp)
  100b50:	00300793          	li	a5,3
  100b54:	f6e7f0e3          	bgeu	a5,a4,100ab4 <AddRoundKey+0x1c>
    }
  }
}
  100b58:	00000013          	nop
  100b5c:	00000013          	nop
  100b60:	02010113          	addi	sp,sp,32
  100b64:	00008067          	ret

00100b68 <SubBytes>:

// The SubBytes Function Substitutes the values in the
// state matrix with values in an S-box.
static void SubBytes(state_t* state)
{
  100b68:	fe010113          	addi	sp,sp,-32
  100b6c:	00a12623          	sw	a0,12(sp)
  uint8_t i, j;
  for (i = 0; i < 4; ++i)
  100b70:	00010fa3          	sb	zero,31(sp)
  100b74:	07c0006f          	j	100bf0 <SubBytes+0x88>
  {
    for (j = 0; j < 4; ++j)
  100b78:	00010f23          	sb	zero,30(sp)
  100b7c:	05c0006f          	j	100bd8 <SubBytes+0x70>
    {
      (*state)[j][i] = getSBoxValue((*state)[j][i]);
  100b80:	01e14703          	lbu	a4,30(sp)
  100b84:	01f14783          	lbu	a5,31(sp)
  100b88:	00c12683          	lw	a3,12(sp)
  100b8c:	00271713          	slli	a4,a4,0x2
  100b90:	00e68733          	add	a4,a3,a4
  100b94:	00f707b3          	add	a5,a4,a5
  100b98:	0007c783          	lbu	a5,0(a5)
  100b9c:	00078613          	mv	a2,a5
  100ba0:	01e14683          	lbu	a3,30(sp)
  100ba4:	01f14783          	lbu	a5,31(sp)
  100ba8:	00002717          	auipc	a4,0x2
  100bac:	9f470713          	addi	a4,a4,-1548 # 10259c <sbox>
  100bb0:	00c70733          	add	a4,a4,a2
  100bb4:	00074703          	lbu	a4,0(a4)
  100bb8:	00c12603          	lw	a2,12(sp)
  100bbc:	00269693          	slli	a3,a3,0x2
  100bc0:	00d606b3          	add	a3,a2,a3
  100bc4:	00f687b3          	add	a5,a3,a5
  100bc8:	00e78023          	sb	a4,0(a5)
    for (j = 0; j < 4; ++j)
  100bcc:	01e14783          	lbu	a5,30(sp)
  100bd0:	00178793          	addi	a5,a5,1
  100bd4:	00f10f23          	sb	a5,30(sp)
  100bd8:	01e14703          	lbu	a4,30(sp)
  100bdc:	00300793          	li	a5,3
  100be0:	fae7f0e3          	bgeu	a5,a4,100b80 <SubBytes+0x18>
  for (i = 0; i < 4; ++i)
  100be4:	01f14783          	lbu	a5,31(sp)
  100be8:	00178793          	addi	a5,a5,1
  100bec:	00f10fa3          	sb	a5,31(sp)
  100bf0:	01f14703          	lbu	a4,31(sp)
  100bf4:	00300793          	li	a5,3
  100bf8:	f8e7f0e3          	bgeu	a5,a4,100b78 <SubBytes+0x10>
    }
  }
}
  100bfc:	00000013          	nop
  100c00:	00000013          	nop
  100c04:	02010113          	addi	sp,sp,32
  100c08:	00008067          	ret

00100c0c <ShiftRows>:

// The ShiftRows() function shifts the rows in the state to the left.
// Each row is shifted with different offset.
// Offset = Row number. So the first row is not shifted.
static void ShiftRows(state_t* state)
{
  100c0c:	fe010113          	addi	sp,sp,-32
  100c10:	00a12623          	sw	a0,12(sp)
  uint8_t temp;

  // Rotate first row 1 columns to left  
  temp           = (*state)[0][1];
  100c14:	00c12783          	lw	a5,12(sp)
  100c18:	0017c783          	lbu	a5,1(a5)
  100c1c:	00f10fa3          	sb	a5,31(sp)
  (*state)[0][1] = (*state)[1][1];
  100c20:	00c12783          	lw	a5,12(sp)
  100c24:	0057c703          	lbu	a4,5(a5)
  100c28:	00c12783          	lw	a5,12(sp)
  100c2c:	00e780a3          	sb	a4,1(a5)
  (*state)[1][1] = (*state)[2][1];
  100c30:	00c12783          	lw	a5,12(sp)
  100c34:	0097c703          	lbu	a4,9(a5)
  100c38:	00c12783          	lw	a5,12(sp)
  100c3c:	00e782a3          	sb	a4,5(a5)
  (*state)[2][1] = (*state)[3][1];
  100c40:	00c12783          	lw	a5,12(sp)
  100c44:	00d7c703          	lbu	a4,13(a5)
  100c48:	00c12783          	lw	a5,12(sp)
  100c4c:	00e784a3          	sb	a4,9(a5)
  (*state)[3][1] = temp;
  100c50:	00c12783          	lw	a5,12(sp)
  100c54:	01f14703          	lbu	a4,31(sp)
  100c58:	00e786a3          	sb	a4,13(a5)

  // Rotate second row 2 columns to left  
  temp           = (*state)[0][2];
  100c5c:	00c12783          	lw	a5,12(sp)
  100c60:	0027c783          	lbu	a5,2(a5)
  100c64:	00f10fa3          	sb	a5,31(sp)
  (*state)[0][2] = (*state)[2][2];
  100c68:	00c12783          	lw	a5,12(sp)
  100c6c:	00a7c703          	lbu	a4,10(a5)
  100c70:	00c12783          	lw	a5,12(sp)
  100c74:	00e78123          	sb	a4,2(a5)
  (*state)[2][2] = temp;
  100c78:	00c12783          	lw	a5,12(sp)
  100c7c:	01f14703          	lbu	a4,31(sp)
  100c80:	00e78523          	sb	a4,10(a5)

  temp           = (*state)[1][2];
  100c84:	00c12783          	lw	a5,12(sp)
  100c88:	0067c783          	lbu	a5,6(a5)
  100c8c:	00f10fa3          	sb	a5,31(sp)
  (*state)[1][2] = (*state)[3][2];
  100c90:	00c12783          	lw	a5,12(sp)
  100c94:	00e7c703          	lbu	a4,14(a5)
  100c98:	00c12783          	lw	a5,12(sp)
  100c9c:	00e78323          	sb	a4,6(a5)
  (*state)[3][2] = temp;
  100ca0:	00c12783          	lw	a5,12(sp)
  100ca4:	01f14703          	lbu	a4,31(sp)
  100ca8:	00e78723          	sb	a4,14(a5)

  // Rotate third row 3 columns to left
  temp           = (*state)[0][3];
  100cac:	00c12783          	lw	a5,12(sp)
  100cb0:	0037c783          	lbu	a5,3(a5)
  100cb4:	00f10fa3          	sb	a5,31(sp)
  (*state)[0][3] = (*state)[3][3];
  100cb8:	00c12783          	lw	a5,12(sp)
  100cbc:	00f7c703          	lbu	a4,15(a5)
  100cc0:	00c12783          	lw	a5,12(sp)
  100cc4:	00e781a3          	sb	a4,3(a5)
  (*state)[3][3] = (*state)[2][3];
  100cc8:	00c12783          	lw	a5,12(sp)
  100ccc:	00b7c703          	lbu	a4,11(a5)
  100cd0:	00c12783          	lw	a5,12(sp)
  100cd4:	00e787a3          	sb	a4,15(a5)
  (*state)[2][3] = (*state)[1][3];
  100cd8:	00c12783          	lw	a5,12(sp)
  100cdc:	0077c703          	lbu	a4,7(a5)
  100ce0:	00c12783          	lw	a5,12(sp)
  100ce4:	00e785a3          	sb	a4,11(a5)
  (*state)[1][3] = temp;
  100ce8:	00c12783          	lw	a5,12(sp)
  100cec:	01f14703          	lbu	a4,31(sp)
  100cf0:	00e783a3          	sb	a4,7(a5)
}
  100cf4:	00000013          	nop
  100cf8:	02010113          	addi	sp,sp,32
  100cfc:	00008067          	ret

00100d00 <xtime>:

static uint8_t xtime(uint8_t x)
{
  100d00:	ff010113          	addi	sp,sp,-16
  100d04:	00050793          	mv	a5,a0
  100d08:	00f107a3          	sb	a5,15(sp)
  return ((x<<1) ^ (((x>>7) & 1) * 0x1b));
  100d0c:	00f14783          	lbu	a5,15(sp)
  100d10:	00179793          	slli	a5,a5,0x1
  100d14:	01879693          	slli	a3,a5,0x18
  100d18:	4186d693          	srai	a3,a3,0x18
  100d1c:	00f14783          	lbu	a5,15(sp)
  100d20:	0077d793          	srli	a5,a5,0x7
  100d24:	0ff7f793          	andi	a5,a5,255
  100d28:	00078713          	mv	a4,a5
  100d2c:	00371713          	slli	a4,a4,0x3
  100d30:	40f70733          	sub	a4,a4,a5
  100d34:	00271713          	slli	a4,a4,0x2
  100d38:	40f707b3          	sub	a5,a4,a5
  100d3c:	0ff7f793          	andi	a5,a5,255
  100d40:	01879793          	slli	a5,a5,0x18
  100d44:	4187d793          	srai	a5,a5,0x18
  100d48:	00f6c7b3          	xor	a5,a3,a5
  100d4c:	01879793          	slli	a5,a5,0x18
  100d50:	4187d793          	srai	a5,a5,0x18
  100d54:	0ff7f793          	andi	a5,a5,255
}
  100d58:	00078513          	mv	a0,a5
  100d5c:	01010113          	addi	sp,sp,16
  100d60:	00008067          	ret

00100d64 <MixColumns>:

// MixColumns function mixes the columns of the state matrix
static void MixColumns(state_t* state)
{
  100d64:	fd010113          	addi	sp,sp,-48
  100d68:	02112623          	sw	ra,44(sp)
  100d6c:	00a12623          	sw	a0,12(sp)
  uint8_t i;
  uint8_t Tmp, Tm, t;
  for (i = 0; i < 4; ++i)
  100d70:	00010fa3          	sb	zero,31(sp)
  100d74:	2900006f          	j	101004 <MixColumns+0x2a0>
  {  
    t   = (*state)[i][0];
  100d78:	01f14783          	lbu	a5,31(sp)
  100d7c:	00c12703          	lw	a4,12(sp)
  100d80:	00279793          	slli	a5,a5,0x2
  100d84:	00f707b3          	add	a5,a4,a5
  100d88:	0007c783          	lbu	a5,0(a5)
  100d8c:	00f10f23          	sb	a5,30(sp)
    Tmp = (*state)[i][0] ^ (*state)[i][1] ^ (*state)[i][2] ^ (*state)[i][3] ;
  100d90:	01f14783          	lbu	a5,31(sp)
  100d94:	00c12703          	lw	a4,12(sp)
  100d98:	00279793          	slli	a5,a5,0x2
  100d9c:	00f707b3          	add	a5,a4,a5
  100da0:	0007c703          	lbu	a4,0(a5)
  100da4:	01f14783          	lbu	a5,31(sp)
  100da8:	00c12683          	lw	a3,12(sp)
  100dac:	00279793          	slli	a5,a5,0x2
  100db0:	00f687b3          	add	a5,a3,a5
  100db4:	0017c783          	lbu	a5,1(a5)
  100db8:	00f747b3          	xor	a5,a4,a5
  100dbc:	0ff7f713          	andi	a4,a5,255
  100dc0:	01f14783          	lbu	a5,31(sp)
  100dc4:	00c12683          	lw	a3,12(sp)
  100dc8:	00279793          	slli	a5,a5,0x2
  100dcc:	00f687b3          	add	a5,a3,a5
  100dd0:	0027c783          	lbu	a5,2(a5)
  100dd4:	00f747b3          	xor	a5,a4,a5
  100dd8:	0ff7f713          	andi	a4,a5,255
  100ddc:	01f14783          	lbu	a5,31(sp)
  100de0:	00c12683          	lw	a3,12(sp)
  100de4:	00279793          	slli	a5,a5,0x2
  100de8:	00f687b3          	add	a5,a3,a5
  100dec:	0037c783          	lbu	a5,3(a5)
  100df0:	00f747b3          	xor	a5,a4,a5
  100df4:	00f10ea3          	sb	a5,29(sp)
    Tm  = (*state)[i][0] ^ (*state)[i][1] ; Tm = xtime(Tm);  (*state)[i][0] ^= Tm ^ Tmp ;
  100df8:	01f14783          	lbu	a5,31(sp)
  100dfc:	00c12703          	lw	a4,12(sp)
  100e00:	00279793          	slli	a5,a5,0x2
  100e04:	00f707b3          	add	a5,a4,a5
  100e08:	0007c703          	lbu	a4,0(a5)
  100e0c:	01f14783          	lbu	a5,31(sp)
  100e10:	00c12683          	lw	a3,12(sp)
  100e14:	00279793          	slli	a5,a5,0x2
  100e18:	00f687b3          	add	a5,a3,a5
  100e1c:	0017c783          	lbu	a5,1(a5)
  100e20:	00f747b3          	xor	a5,a4,a5
  100e24:	00f10e23          	sb	a5,28(sp)
  100e28:	01c14783          	lbu	a5,28(sp)
  100e2c:	00078513          	mv	a0,a5
  100e30:	ed1ff0ef          	jal	ra,100d00 <xtime>
  100e34:	00050793          	mv	a5,a0
  100e38:	00f10e23          	sb	a5,28(sp)
  100e3c:	01f14783          	lbu	a5,31(sp)
  100e40:	00c12703          	lw	a4,12(sp)
  100e44:	00279793          	slli	a5,a5,0x2
  100e48:	00f707b3          	add	a5,a4,a5
  100e4c:	0007c683          	lbu	a3,0(a5)
  100e50:	01c14703          	lbu	a4,28(sp)
  100e54:	01d14783          	lbu	a5,29(sp)
  100e58:	00f747b3          	xor	a5,a4,a5
  100e5c:	0ff7f713          	andi	a4,a5,255
  100e60:	01f14783          	lbu	a5,31(sp)
  100e64:	00e6c733          	xor	a4,a3,a4
  100e68:	0ff77713          	andi	a4,a4,255
  100e6c:	00c12683          	lw	a3,12(sp)
  100e70:	00279793          	slli	a5,a5,0x2
  100e74:	00f687b3          	add	a5,a3,a5
  100e78:	00e78023          	sb	a4,0(a5)
    Tm  = (*state)[i][1] ^ (*state)[i][2] ; Tm = xtime(Tm);  (*state)[i][1] ^= Tm ^ Tmp ;
  100e7c:	01f14783          	lbu	a5,31(sp)
  100e80:	00c12703          	lw	a4,12(sp)
  100e84:	00279793          	slli	a5,a5,0x2
  100e88:	00f707b3          	add	a5,a4,a5
  100e8c:	0017c703          	lbu	a4,1(a5)
  100e90:	01f14783          	lbu	a5,31(sp)
  100e94:	00c12683          	lw	a3,12(sp)
  100e98:	00279793          	slli	a5,a5,0x2
  100e9c:	00f687b3          	add	a5,a3,a5
  100ea0:	0027c783          	lbu	a5,2(a5)
  100ea4:	00f747b3          	xor	a5,a4,a5
  100ea8:	00f10e23          	sb	a5,28(sp)
  100eac:	01c14783          	lbu	a5,28(sp)
  100eb0:	00078513          	mv	a0,a5
  100eb4:	e4dff0ef          	jal	ra,100d00 <xtime>
  100eb8:	00050793          	mv	a5,a0
  100ebc:	00f10e23          	sb	a5,28(sp)
  100ec0:	01f14783          	lbu	a5,31(sp)
  100ec4:	00c12703          	lw	a4,12(sp)
  100ec8:	00279793          	slli	a5,a5,0x2
  100ecc:	00f707b3          	add	a5,a4,a5
  100ed0:	0017c683          	lbu	a3,1(a5)
  100ed4:	01c14703          	lbu	a4,28(sp)
  100ed8:	01d14783          	lbu	a5,29(sp)
  100edc:	00f747b3          	xor	a5,a4,a5
  100ee0:	0ff7f713          	andi	a4,a5,255
  100ee4:	01f14783          	lbu	a5,31(sp)
  100ee8:	00e6c733          	xor	a4,a3,a4
  100eec:	0ff77713          	andi	a4,a4,255
  100ef0:	00c12683          	lw	a3,12(sp)
  100ef4:	00279793          	slli	a5,a5,0x2
  100ef8:	00f687b3          	add	a5,a3,a5
  100efc:	00e780a3          	sb	a4,1(a5)
    Tm  = (*state)[i][2] ^ (*state)[i][3] ; Tm = xtime(Tm);  (*state)[i][2] ^= Tm ^ Tmp ;
  100f00:	01f14783          	lbu	a5,31(sp)
  100f04:	00c12703          	lw	a4,12(sp)
  100f08:	00279793          	slli	a5,a5,0x2
  100f0c:	00f707b3          	add	a5,a4,a5
  100f10:	0027c703          	lbu	a4,2(a5)
  100f14:	01f14783          	lbu	a5,31(sp)
  100f18:	00c12683          	lw	a3,12(sp)
  100f1c:	00279793          	slli	a5,a5,0x2
  100f20:	00f687b3          	add	a5,a3,a5
  100f24:	0037c783          	lbu	a5,3(a5)
  100f28:	00f747b3          	xor	a5,a4,a5
  100f2c:	00f10e23          	sb	a5,28(sp)
  100f30:	01c14783          	lbu	a5,28(sp)
  100f34:	00078513          	mv	a0,a5
  100f38:	dc9ff0ef          	jal	ra,100d00 <xtime>
  100f3c:	00050793          	mv	a5,a0
  100f40:	00f10e23          	sb	a5,28(sp)
  100f44:	01f14783          	lbu	a5,31(sp)
  100f48:	00c12703          	lw	a4,12(sp)
  100f4c:	00279793          	slli	a5,a5,0x2
  100f50:	00f707b3          	add	a5,a4,a5
  100f54:	0027c683          	lbu	a3,2(a5)
  100f58:	01c14703          	lbu	a4,28(sp)
  100f5c:	01d14783          	lbu	a5,29(sp)
  100f60:	00f747b3          	xor	a5,a4,a5
  100f64:	0ff7f713          	andi	a4,a5,255
  100f68:	01f14783          	lbu	a5,31(sp)
  100f6c:	00e6c733          	xor	a4,a3,a4
  100f70:	0ff77713          	andi	a4,a4,255
  100f74:	00c12683          	lw	a3,12(sp)
  100f78:	00279793          	slli	a5,a5,0x2
  100f7c:	00f687b3          	add	a5,a3,a5
  100f80:	00e78123          	sb	a4,2(a5)
    Tm  = (*state)[i][3] ^ t ;              Tm = xtime(Tm);  (*state)[i][3] ^= Tm ^ Tmp ;
  100f84:	01f14783          	lbu	a5,31(sp)
  100f88:	00c12703          	lw	a4,12(sp)
  100f8c:	00279793          	slli	a5,a5,0x2
  100f90:	00f707b3          	add	a5,a4,a5
  100f94:	0037c703          	lbu	a4,3(a5)
  100f98:	01e14783          	lbu	a5,30(sp)
  100f9c:	00f747b3          	xor	a5,a4,a5
  100fa0:	00f10e23          	sb	a5,28(sp)
  100fa4:	01c14783          	lbu	a5,28(sp)
  100fa8:	00078513          	mv	a0,a5
  100fac:	d55ff0ef          	jal	ra,100d00 <xtime>
  100fb0:	00050793          	mv	a5,a0
  100fb4:	00f10e23          	sb	a5,28(sp)
  100fb8:	01f14783          	lbu	a5,31(sp)
  100fbc:	00c12703          	lw	a4,12(sp)
  100fc0:	00279793          	slli	a5,a5,0x2
  100fc4:	00f707b3          	add	a5,a4,a5
  100fc8:	0037c683          	lbu	a3,3(a5)
  100fcc:	01c14703          	lbu	a4,28(sp)
  100fd0:	01d14783          	lbu	a5,29(sp)
  100fd4:	00f747b3          	xor	a5,a4,a5
  100fd8:	0ff7f713          	andi	a4,a5,255
  100fdc:	01f14783          	lbu	a5,31(sp)
  100fe0:	00e6c733          	xor	a4,a3,a4
  100fe4:	0ff77713          	andi	a4,a4,255
  100fe8:	00c12683          	lw	a3,12(sp)
  100fec:	00279793          	slli	a5,a5,0x2
  100ff0:	00f687b3          	add	a5,a3,a5
  100ff4:	00e781a3          	sb	a4,3(a5)
  for (i = 0; i < 4; ++i)
  100ff8:	01f14783          	lbu	a5,31(sp)
  100ffc:	00178793          	addi	a5,a5,1
  101000:	00f10fa3          	sb	a5,31(sp)
  101004:	01f14703          	lbu	a4,31(sp)
  101008:	00300793          	li	a5,3
  10100c:	d6e7f6e3          	bgeu	a5,a4,100d78 <MixColumns+0x14>
  }
}
  101010:	00000013          	nop
  101014:	00000013          	nop
  101018:	02c12083          	lw	ra,44(sp)
  10101c:	03010113          	addi	sp,sp,48
  101020:	00008067          	ret

00101024 <InvMixColumns>:
#if (defined(CBC) && CBC == 1) || (defined(ECB) && ECB == 1)
// MixColumns function mixes the columns of the state matrix.
// The method used to multiply may be difficult to understand for the inexperienced.
// Please use the references to gain more information.
static void InvMixColumns(state_t* state)
{
  101024:	fd010113          	addi	sp,sp,-48
  101028:	02112623          	sw	ra,44(sp)
  10102c:	02812423          	sw	s0,40(sp)
  101030:	02912223          	sw	s1,36(sp)
  101034:	00a12623          	sw	a0,12(sp)
  int i;
  uint8_t a, b, c, d;
  for (i = 0; i < 4; ++i)
  101038:	00012e23          	sw	zero,28(sp)
  10103c:	2710006f          	j	101aac <InvMixColumns+0xa88>
  { 
    a = (*state)[i][0];
  101040:	00c12703          	lw	a4,12(sp)
  101044:	01c12783          	lw	a5,28(sp)
  101048:	00279793          	slli	a5,a5,0x2
  10104c:	00f707b3          	add	a5,a4,a5
  101050:	0007c783          	lbu	a5,0(a5)
  101054:	00f10da3          	sb	a5,27(sp)
    b = (*state)[i][1];
  101058:	00c12703          	lw	a4,12(sp)
  10105c:	01c12783          	lw	a5,28(sp)
  101060:	00279793          	slli	a5,a5,0x2
  101064:	00f707b3          	add	a5,a4,a5
  101068:	0017c783          	lbu	a5,1(a5)
  10106c:	00f10d23          	sb	a5,26(sp)
    c = (*state)[i][2];
  101070:	00c12703          	lw	a4,12(sp)
  101074:	01c12783          	lw	a5,28(sp)
  101078:	00279793          	slli	a5,a5,0x2
  10107c:	00f707b3          	add	a5,a4,a5
  101080:	0027c783          	lbu	a5,2(a5)
  101084:	00f10ca3          	sb	a5,25(sp)
    d = (*state)[i][3];
  101088:	00c12703          	lw	a4,12(sp)
  10108c:	01c12783          	lw	a5,28(sp)
  101090:	00279793          	slli	a5,a5,0x2
  101094:	00f707b3          	add	a5,a4,a5
  101098:	0037c783          	lbu	a5,3(a5)
  10109c:	00f10c23          	sb	a5,24(sp)

    (*state)[i][0] = Multiply(a, 0x0e) ^ Multiply(b, 0x0b) ^ Multiply(c, 0x0d) ^ Multiply(d, 0x09);
  1010a0:	01b14783          	lbu	a5,27(sp)
  1010a4:	00078513          	mv	a0,a5
  1010a8:	c59ff0ef          	jal	ra,100d00 <xtime>
  1010ac:	00050793          	mv	a5,a0
  1010b0:	00078513          	mv	a0,a5
  1010b4:	c4dff0ef          	jal	ra,100d00 <xtime>
  1010b8:	00050793          	mv	a5,a0
  1010bc:	00078513          	mv	a0,a5
  1010c0:	c41ff0ef          	jal	ra,100d00 <xtime>
  1010c4:	00050793          	mv	a5,a0
  1010c8:	00078513          	mv	a0,a5
  1010cc:	c35ff0ef          	jal	ra,100d00 <xtime>
  1010d0:	01a14783          	lbu	a5,26(sp)
  1010d4:	00078513          	mv	a0,a5
  1010d8:	c29ff0ef          	jal	ra,100d00 <xtime>
  1010dc:	00050793          	mv	a5,a0
  1010e0:	00078513          	mv	a0,a5
  1010e4:	c1dff0ef          	jal	ra,100d00 <xtime>
  1010e8:	01a14783          	lbu	a5,26(sp)
  1010ec:	00078513          	mv	a0,a5
  1010f0:	c11ff0ef          	jal	ra,100d00 <xtime>
  1010f4:	00050793          	mv	a5,a0
  1010f8:	00078513          	mv	a0,a5
  1010fc:	c05ff0ef          	jal	ra,100d00 <xtime>
  101100:	00050793          	mv	a5,a0
  101104:	00078513          	mv	a0,a5
  101108:	bf9ff0ef          	jal	ra,100d00 <xtime>
  10110c:	00050793          	mv	a5,a0
  101110:	00078513          	mv	a0,a5
  101114:	bedff0ef          	jal	ra,100d00 <xtime>
  101118:	01914783          	lbu	a5,25(sp)
  10111c:	00078513          	mv	a0,a5
  101120:	be1ff0ef          	jal	ra,100d00 <xtime>
  101124:	01914783          	lbu	a5,25(sp)
  101128:	00078513          	mv	a0,a5
  10112c:	bd5ff0ef          	jal	ra,100d00 <xtime>
  101130:	00050793          	mv	a5,a0
  101134:	00078513          	mv	a0,a5
  101138:	bc9ff0ef          	jal	ra,100d00 <xtime>
  10113c:	00050793          	mv	a5,a0
  101140:	00078513          	mv	a0,a5
  101144:	bbdff0ef          	jal	ra,100d00 <xtime>
  101148:	00050793          	mv	a5,a0
  10114c:	00078513          	mv	a0,a5
  101150:	bb1ff0ef          	jal	ra,100d00 <xtime>
  101154:	01814783          	lbu	a5,24(sp)
  101158:	00078513          	mv	a0,a5
  10115c:	ba5ff0ef          	jal	ra,100d00 <xtime>
  101160:	01814783          	lbu	a5,24(sp)
  101164:	00078513          	mv	a0,a5
  101168:	b99ff0ef          	jal	ra,100d00 <xtime>
  10116c:	00050793          	mv	a5,a0
  101170:	00078513          	mv	a0,a5
  101174:	b8dff0ef          	jal	ra,100d00 <xtime>
  101178:	01814783          	lbu	a5,24(sp)
  10117c:	00078513          	mv	a0,a5
  101180:	b81ff0ef          	jal	ra,100d00 <xtime>
  101184:	00050793          	mv	a5,a0
  101188:	00078513          	mv	a0,a5
  10118c:	b75ff0ef          	jal	ra,100d00 <xtime>
  101190:	00050793          	mv	a5,a0
  101194:	00078513          	mv	a0,a5
  101198:	b69ff0ef          	jal	ra,100d00 <xtime>
  10119c:	00050793          	mv	a5,a0
  1011a0:	00078513          	mv	a0,a5
  1011a4:	b5dff0ef          	jal	ra,100d00 <xtime>
  1011a8:	01b14783          	lbu	a5,27(sp)
  1011ac:	00078513          	mv	a0,a5
  1011b0:	b51ff0ef          	jal	ra,100d00 <xtime>
  1011b4:	00050793          	mv	a5,a0
  1011b8:	00078413          	mv	s0,a5
  1011bc:	01b14783          	lbu	a5,27(sp)
  1011c0:	00078513          	mv	a0,a5
  1011c4:	b3dff0ef          	jal	ra,100d00 <xtime>
  1011c8:	00050793          	mv	a5,a0
  1011cc:	00078513          	mv	a0,a5
  1011d0:	b31ff0ef          	jal	ra,100d00 <xtime>
  1011d4:	00050793          	mv	a5,a0
  1011d8:	00f447b3          	xor	a5,s0,a5
  1011dc:	0ff7f413          	andi	s0,a5,255
  1011e0:	01b14783          	lbu	a5,27(sp)
  1011e4:	00078513          	mv	a0,a5
  1011e8:	b19ff0ef          	jal	ra,100d00 <xtime>
  1011ec:	00050793          	mv	a5,a0
  1011f0:	00078513          	mv	a0,a5
  1011f4:	b0dff0ef          	jal	ra,100d00 <xtime>
  1011f8:	00050793          	mv	a5,a0
  1011fc:	00078513          	mv	a0,a5
  101200:	b01ff0ef          	jal	ra,100d00 <xtime>
  101204:	00050793          	mv	a5,a0
  101208:	00f447b3          	xor	a5,s0,a5
  10120c:	0ff7f413          	andi	s0,a5,255
  101210:	01a14783          	lbu	a5,26(sp)
  101214:	00078513          	mv	a0,a5
  101218:	ae9ff0ef          	jal	ra,100d00 <xtime>
  10121c:	00050793          	mv	a5,a0
  101220:	00078713          	mv	a4,a5
  101224:	01a14783          	lbu	a5,26(sp)
  101228:	00f747b3          	xor	a5,a4,a5
  10122c:	0ff7f493          	andi	s1,a5,255
  101230:	01a14783          	lbu	a5,26(sp)
  101234:	00078513          	mv	a0,a5
  101238:	ac9ff0ef          	jal	ra,100d00 <xtime>
  10123c:	00050793          	mv	a5,a0
  101240:	00078513          	mv	a0,a5
  101244:	abdff0ef          	jal	ra,100d00 <xtime>
  101248:	00050793          	mv	a5,a0
  10124c:	00078513          	mv	a0,a5
  101250:	ab1ff0ef          	jal	ra,100d00 <xtime>
  101254:	00050793          	mv	a5,a0
  101258:	00f4c7b3          	xor	a5,s1,a5
  10125c:	0ff7f793          	andi	a5,a5,255
  101260:	00f447b3          	xor	a5,s0,a5
  101264:	0ff7f413          	andi	s0,a5,255
  101268:	01914783          	lbu	a5,25(sp)
  10126c:	00078513          	mv	a0,a5
  101270:	a91ff0ef          	jal	ra,100d00 <xtime>
  101274:	00050793          	mv	a5,a0
  101278:	00078513          	mv	a0,a5
  10127c:	a85ff0ef          	jal	ra,100d00 <xtime>
  101280:	00050793          	mv	a5,a0
  101284:	00078713          	mv	a4,a5
  101288:	01914783          	lbu	a5,25(sp)
  10128c:	00f747b3          	xor	a5,a4,a5
  101290:	0ff7f493          	andi	s1,a5,255
  101294:	01914783          	lbu	a5,25(sp)
  101298:	00078513          	mv	a0,a5
  10129c:	a65ff0ef          	jal	ra,100d00 <xtime>
  1012a0:	00050793          	mv	a5,a0
  1012a4:	00078513          	mv	a0,a5
  1012a8:	a59ff0ef          	jal	ra,100d00 <xtime>
  1012ac:	00050793          	mv	a5,a0
  1012b0:	00078513          	mv	a0,a5
  1012b4:	a4dff0ef          	jal	ra,100d00 <xtime>
  1012b8:	00050793          	mv	a5,a0
  1012bc:	00f4c7b3          	xor	a5,s1,a5
  1012c0:	0ff7f793          	andi	a5,a5,255
  1012c4:	00f447b3          	xor	a5,s0,a5
  1012c8:	0ff7f413          	andi	s0,a5,255
  1012cc:	01814783          	lbu	a5,24(sp)
  1012d0:	00078513          	mv	a0,a5
  1012d4:	a2dff0ef          	jal	ra,100d00 <xtime>
  1012d8:	00050793          	mv	a5,a0
  1012dc:	00078513          	mv	a0,a5
  1012e0:	a21ff0ef          	jal	ra,100d00 <xtime>
  1012e4:	00050793          	mv	a5,a0
  1012e8:	00078513          	mv	a0,a5
  1012ec:	a15ff0ef          	jal	ra,100d00 <xtime>
  1012f0:	00050793          	mv	a5,a0
  1012f4:	00078713          	mv	a4,a5
  1012f8:	01814783          	lbu	a5,24(sp)
  1012fc:	00f747b3          	xor	a5,a4,a5
  101300:	0ff7f793          	andi	a5,a5,255
  101304:	00f447b3          	xor	a5,s0,a5
  101308:	0ff7f713          	andi	a4,a5,255
  10130c:	00c12683          	lw	a3,12(sp)
  101310:	01c12783          	lw	a5,28(sp)
  101314:	00279793          	slli	a5,a5,0x2
  101318:	00f687b3          	add	a5,a3,a5
  10131c:	00e78023          	sb	a4,0(a5)
    (*state)[i][1] = Multiply(a, 0x09) ^ Multiply(b, 0x0e) ^ Multiply(c, 0x0b) ^ Multiply(d, 0x0d);
  101320:	01b14783          	lbu	a5,27(sp)
  101324:	00078513          	mv	a0,a5
  101328:	9d9ff0ef          	jal	ra,100d00 <xtime>
  10132c:	01b14783          	lbu	a5,27(sp)
  101330:	00078513          	mv	a0,a5
  101334:	9cdff0ef          	jal	ra,100d00 <xtime>
  101338:	00050793          	mv	a5,a0
  10133c:	00078513          	mv	a0,a5
  101340:	9c1ff0ef          	jal	ra,100d00 <xtime>
  101344:	01b14783          	lbu	a5,27(sp)
  101348:	00078513          	mv	a0,a5
  10134c:	9b5ff0ef          	jal	ra,100d00 <xtime>
  101350:	00050793          	mv	a5,a0
  101354:	00078513          	mv	a0,a5
  101358:	9a9ff0ef          	jal	ra,100d00 <xtime>
  10135c:	00050793          	mv	a5,a0
  101360:	00078513          	mv	a0,a5
  101364:	99dff0ef          	jal	ra,100d00 <xtime>
  101368:	00050793          	mv	a5,a0
  10136c:	00078513          	mv	a0,a5
  101370:	991ff0ef          	jal	ra,100d00 <xtime>
  101374:	01a14783          	lbu	a5,26(sp)
  101378:	00078513          	mv	a0,a5
  10137c:	985ff0ef          	jal	ra,100d00 <xtime>
  101380:	00050793          	mv	a5,a0
  101384:	00078513          	mv	a0,a5
  101388:	979ff0ef          	jal	ra,100d00 <xtime>
  10138c:	00050793          	mv	a5,a0
  101390:	00078513          	mv	a0,a5
  101394:	96dff0ef          	jal	ra,100d00 <xtime>
  101398:	00050793          	mv	a5,a0
  10139c:	00078513          	mv	a0,a5
  1013a0:	961ff0ef          	jal	ra,100d00 <xtime>
  1013a4:	01914783          	lbu	a5,25(sp)
  1013a8:	00078513          	mv	a0,a5
  1013ac:	955ff0ef          	jal	ra,100d00 <xtime>
  1013b0:	00050793          	mv	a5,a0
  1013b4:	00078513          	mv	a0,a5
  1013b8:	949ff0ef          	jal	ra,100d00 <xtime>
  1013bc:	01914783          	lbu	a5,25(sp)
  1013c0:	00078513          	mv	a0,a5
  1013c4:	93dff0ef          	jal	ra,100d00 <xtime>
  1013c8:	00050793          	mv	a5,a0
  1013cc:	00078513          	mv	a0,a5
  1013d0:	931ff0ef          	jal	ra,100d00 <xtime>
  1013d4:	00050793          	mv	a5,a0
  1013d8:	00078513          	mv	a0,a5
  1013dc:	925ff0ef          	jal	ra,100d00 <xtime>
  1013e0:	00050793          	mv	a5,a0
  1013e4:	00078513          	mv	a0,a5
  1013e8:	919ff0ef          	jal	ra,100d00 <xtime>
  1013ec:	01814783          	lbu	a5,24(sp)
  1013f0:	00078513          	mv	a0,a5
  1013f4:	90dff0ef          	jal	ra,100d00 <xtime>
  1013f8:	01814783          	lbu	a5,24(sp)
  1013fc:	00078513          	mv	a0,a5
  101400:	901ff0ef          	jal	ra,100d00 <xtime>
  101404:	00050793          	mv	a5,a0
  101408:	00078513          	mv	a0,a5
  10140c:	8f5ff0ef          	jal	ra,100d00 <xtime>
  101410:	00050793          	mv	a5,a0
  101414:	00078513          	mv	a0,a5
  101418:	8e9ff0ef          	jal	ra,100d00 <xtime>
  10141c:	00050793          	mv	a5,a0
  101420:	00078513          	mv	a0,a5
  101424:	8ddff0ef          	jal	ra,100d00 <xtime>
  101428:	01b14783          	lbu	a5,27(sp)
  10142c:	00078513          	mv	a0,a5
  101430:	8d1ff0ef          	jal	ra,100d00 <xtime>
  101434:	00050793          	mv	a5,a0
  101438:	00078513          	mv	a0,a5
  10143c:	8c5ff0ef          	jal	ra,100d00 <xtime>
  101440:	00050793          	mv	a5,a0
  101444:	00078513          	mv	a0,a5
  101448:	8b9ff0ef          	jal	ra,100d00 <xtime>
  10144c:	00050793          	mv	a5,a0
  101450:	00078713          	mv	a4,a5
  101454:	01b14783          	lbu	a5,27(sp)
  101458:	00f747b3          	xor	a5,a4,a5
  10145c:	0ff7f413          	andi	s0,a5,255
  101460:	01a14783          	lbu	a5,26(sp)
  101464:	00078513          	mv	a0,a5
  101468:	899ff0ef          	jal	ra,100d00 <xtime>
  10146c:	00050793          	mv	a5,a0
  101470:	00078493          	mv	s1,a5
  101474:	01a14783          	lbu	a5,26(sp)
  101478:	00078513          	mv	a0,a5
  10147c:	885ff0ef          	jal	ra,100d00 <xtime>
  101480:	00050793          	mv	a5,a0
  101484:	00078513          	mv	a0,a5
  101488:	879ff0ef          	jal	ra,100d00 <xtime>
  10148c:	00050793          	mv	a5,a0
  101490:	00f4c7b3          	xor	a5,s1,a5
  101494:	0ff7f493          	andi	s1,a5,255
  101498:	01a14783          	lbu	a5,26(sp)
  10149c:	00078513          	mv	a0,a5
  1014a0:	861ff0ef          	jal	ra,100d00 <xtime>
  1014a4:	00050793          	mv	a5,a0
  1014a8:	00078513          	mv	a0,a5
  1014ac:	855ff0ef          	jal	ra,100d00 <xtime>
  1014b0:	00050793          	mv	a5,a0
  1014b4:	00078513          	mv	a0,a5
  1014b8:	849ff0ef          	jal	ra,100d00 <xtime>
  1014bc:	00050793          	mv	a5,a0
  1014c0:	00f4c7b3          	xor	a5,s1,a5
  1014c4:	0ff7f793          	andi	a5,a5,255
  1014c8:	00f447b3          	xor	a5,s0,a5
  1014cc:	0ff7f413          	andi	s0,a5,255
  1014d0:	01914783          	lbu	a5,25(sp)
  1014d4:	00078513          	mv	a0,a5
  1014d8:	829ff0ef          	jal	ra,100d00 <xtime>
  1014dc:	00050793          	mv	a5,a0
  1014e0:	00078713          	mv	a4,a5
  1014e4:	01914783          	lbu	a5,25(sp)
  1014e8:	00f747b3          	xor	a5,a4,a5
  1014ec:	0ff7f493          	andi	s1,a5,255
  1014f0:	01914783          	lbu	a5,25(sp)
  1014f4:	00078513          	mv	a0,a5
  1014f8:	809ff0ef          	jal	ra,100d00 <xtime>
  1014fc:	00050793          	mv	a5,a0
  101500:	00078513          	mv	a0,a5
  101504:	ffcff0ef          	jal	ra,100d00 <xtime>
  101508:	00050793          	mv	a5,a0
  10150c:	00078513          	mv	a0,a5
  101510:	ff0ff0ef          	jal	ra,100d00 <xtime>
  101514:	00050793          	mv	a5,a0
  101518:	00f4c7b3          	xor	a5,s1,a5
  10151c:	0ff7f793          	andi	a5,a5,255
  101520:	00f447b3          	xor	a5,s0,a5
  101524:	0ff7f413          	andi	s0,a5,255
  101528:	01814783          	lbu	a5,24(sp)
  10152c:	00078513          	mv	a0,a5
  101530:	fd0ff0ef          	jal	ra,100d00 <xtime>
  101534:	00050793          	mv	a5,a0
  101538:	00078513          	mv	a0,a5
  10153c:	fc4ff0ef          	jal	ra,100d00 <xtime>
  101540:	00050793          	mv	a5,a0
  101544:	00078713          	mv	a4,a5
  101548:	01814783          	lbu	a5,24(sp)
  10154c:	00f747b3          	xor	a5,a4,a5
  101550:	0ff7f493          	andi	s1,a5,255
  101554:	01814783          	lbu	a5,24(sp)
  101558:	00078513          	mv	a0,a5
  10155c:	fa4ff0ef          	jal	ra,100d00 <xtime>
  101560:	00050793          	mv	a5,a0
  101564:	00078513          	mv	a0,a5
  101568:	f98ff0ef          	jal	ra,100d00 <xtime>
  10156c:	00050793          	mv	a5,a0
  101570:	00078513          	mv	a0,a5
  101574:	f8cff0ef          	jal	ra,100d00 <xtime>
  101578:	00050793          	mv	a5,a0
  10157c:	00f4c7b3          	xor	a5,s1,a5
  101580:	0ff7f793          	andi	a5,a5,255
  101584:	00f447b3          	xor	a5,s0,a5
  101588:	0ff7f713          	andi	a4,a5,255
  10158c:	00c12683          	lw	a3,12(sp)
  101590:	01c12783          	lw	a5,28(sp)
  101594:	00279793          	slli	a5,a5,0x2
  101598:	00f687b3          	add	a5,a3,a5
  10159c:	00e780a3          	sb	a4,1(a5)
    (*state)[i][2] = Multiply(a, 0x0d) ^ Multiply(b, 0x09) ^ Multiply(c, 0x0e) ^ Multiply(d, 0x0b);
  1015a0:	01b14783          	lbu	a5,27(sp)
  1015a4:	00078513          	mv	a0,a5
  1015a8:	f58ff0ef          	jal	ra,100d00 <xtime>
  1015ac:	01b14783          	lbu	a5,27(sp)
  1015b0:	00078513          	mv	a0,a5
  1015b4:	f4cff0ef          	jal	ra,100d00 <xtime>
  1015b8:	00050793          	mv	a5,a0
  1015bc:	00078513          	mv	a0,a5
  1015c0:	f40ff0ef          	jal	ra,100d00 <xtime>
  1015c4:	00050793          	mv	a5,a0
  1015c8:	00078513          	mv	a0,a5
  1015cc:	f34ff0ef          	jal	ra,100d00 <xtime>
  1015d0:	00050793          	mv	a5,a0
  1015d4:	00078513          	mv	a0,a5
  1015d8:	f28ff0ef          	jal	ra,100d00 <xtime>
  1015dc:	01a14783          	lbu	a5,26(sp)
  1015e0:	00078513          	mv	a0,a5
  1015e4:	f1cff0ef          	jal	ra,100d00 <xtime>
  1015e8:	01a14783          	lbu	a5,26(sp)
  1015ec:	00078513          	mv	a0,a5
  1015f0:	f10ff0ef          	jal	ra,100d00 <xtime>
  1015f4:	00050793          	mv	a5,a0
  1015f8:	00078513          	mv	a0,a5
  1015fc:	f04ff0ef          	jal	ra,100d00 <xtime>
  101600:	01a14783          	lbu	a5,26(sp)
  101604:	00078513          	mv	a0,a5
  101608:	ef8ff0ef          	jal	ra,100d00 <xtime>
  10160c:	00050793          	mv	a5,a0
  101610:	00078513          	mv	a0,a5
  101614:	eecff0ef          	jal	ra,100d00 <xtime>
  101618:	00050793          	mv	a5,a0
  10161c:	00078513          	mv	a0,a5
  101620:	ee0ff0ef          	jal	ra,100d00 <xtime>
  101624:	00050793          	mv	a5,a0
  101628:	00078513          	mv	a0,a5
  10162c:	ed4ff0ef          	jal	ra,100d00 <xtime>
  101630:	01914783          	lbu	a5,25(sp)
  101634:	00078513          	mv	a0,a5
  101638:	ec8ff0ef          	jal	ra,100d00 <xtime>
  10163c:	00050793          	mv	a5,a0
  101640:	00078513          	mv	a0,a5
  101644:	ebcff0ef          	jal	ra,100d00 <xtime>
  101648:	00050793          	mv	a5,a0
  10164c:	00078513          	mv	a0,a5
  101650:	eb0ff0ef          	jal	ra,100d00 <xtime>
  101654:	00050793          	mv	a5,a0
  101658:	00078513          	mv	a0,a5
  10165c:	ea4ff0ef          	jal	ra,100d00 <xtime>
  101660:	01814783          	lbu	a5,24(sp)
  101664:	00078513          	mv	a0,a5
  101668:	e98ff0ef          	jal	ra,100d00 <xtime>
  10166c:	00050793          	mv	a5,a0
  101670:	00078513          	mv	a0,a5
  101674:	e8cff0ef          	jal	ra,100d00 <xtime>
  101678:	01814783          	lbu	a5,24(sp)
  10167c:	00078513          	mv	a0,a5
  101680:	e80ff0ef          	jal	ra,100d00 <xtime>
  101684:	00050793          	mv	a5,a0
  101688:	00078513          	mv	a0,a5
  10168c:	e74ff0ef          	jal	ra,100d00 <xtime>
  101690:	00050793          	mv	a5,a0
  101694:	00078513          	mv	a0,a5
  101698:	e68ff0ef          	jal	ra,100d00 <xtime>
  10169c:	00050793          	mv	a5,a0
  1016a0:	00078513          	mv	a0,a5
  1016a4:	e5cff0ef          	jal	ra,100d00 <xtime>
  1016a8:	01b14783          	lbu	a5,27(sp)
  1016ac:	00078513          	mv	a0,a5
  1016b0:	e50ff0ef          	jal	ra,100d00 <xtime>
  1016b4:	00050793          	mv	a5,a0
  1016b8:	00078513          	mv	a0,a5
  1016bc:	e44ff0ef          	jal	ra,100d00 <xtime>
  1016c0:	00050793          	mv	a5,a0
  1016c4:	00078713          	mv	a4,a5
  1016c8:	01b14783          	lbu	a5,27(sp)
  1016cc:	00f747b3          	xor	a5,a4,a5
  1016d0:	0ff7f413          	andi	s0,a5,255
  1016d4:	01b14783          	lbu	a5,27(sp)
  1016d8:	00078513          	mv	a0,a5
  1016dc:	e24ff0ef          	jal	ra,100d00 <xtime>
  1016e0:	00050793          	mv	a5,a0
  1016e4:	00078513          	mv	a0,a5
  1016e8:	e18ff0ef          	jal	ra,100d00 <xtime>
  1016ec:	00050793          	mv	a5,a0
  1016f0:	00078513          	mv	a0,a5
  1016f4:	e0cff0ef          	jal	ra,100d00 <xtime>
  1016f8:	00050793          	mv	a5,a0
  1016fc:	00f447b3          	xor	a5,s0,a5
  101700:	0ff7f413          	andi	s0,a5,255
  101704:	01a14783          	lbu	a5,26(sp)
  101708:	00078513          	mv	a0,a5
  10170c:	df4ff0ef          	jal	ra,100d00 <xtime>
  101710:	00050793          	mv	a5,a0
  101714:	00078513          	mv	a0,a5
  101718:	de8ff0ef          	jal	ra,100d00 <xtime>
  10171c:	00050793          	mv	a5,a0
  101720:	00078513          	mv	a0,a5
  101724:	ddcff0ef          	jal	ra,100d00 <xtime>
  101728:	00050793          	mv	a5,a0
  10172c:	00078713          	mv	a4,a5
  101730:	01a14783          	lbu	a5,26(sp)
  101734:	00f747b3          	xor	a5,a4,a5
  101738:	0ff7f793          	andi	a5,a5,255
  10173c:	00f447b3          	xor	a5,s0,a5
  101740:	0ff7f413          	andi	s0,a5,255
  101744:	01914783          	lbu	a5,25(sp)
  101748:	00078513          	mv	a0,a5
  10174c:	db4ff0ef          	jal	ra,100d00 <xtime>
  101750:	00050793          	mv	a5,a0
  101754:	00078493          	mv	s1,a5
  101758:	01914783          	lbu	a5,25(sp)
  10175c:	00078513          	mv	a0,a5
  101760:	da0ff0ef          	jal	ra,100d00 <xtime>
  101764:	00050793          	mv	a5,a0
  101768:	00078513          	mv	a0,a5
  10176c:	d94ff0ef          	jal	ra,100d00 <xtime>
  101770:	00050793          	mv	a5,a0
  101774:	00f4c7b3          	xor	a5,s1,a5
  101778:	0ff7f493          	andi	s1,a5,255
  10177c:	01914783          	lbu	a5,25(sp)
  101780:	00078513          	mv	a0,a5
  101784:	d7cff0ef          	jal	ra,100d00 <xtime>
  101788:	00050793          	mv	a5,a0
  10178c:	00078513          	mv	a0,a5
  101790:	d70ff0ef          	jal	ra,100d00 <xtime>
  101794:	00050793          	mv	a5,a0
  101798:	00078513          	mv	a0,a5
  10179c:	d64ff0ef          	jal	ra,100d00 <xtime>
  1017a0:	00050793          	mv	a5,a0
  1017a4:	00f4c7b3          	xor	a5,s1,a5
  1017a8:	0ff7f793          	andi	a5,a5,255
  1017ac:	00f447b3          	xor	a5,s0,a5
  1017b0:	0ff7f413          	andi	s0,a5,255
  1017b4:	01814783          	lbu	a5,24(sp)
  1017b8:	00078513          	mv	a0,a5
  1017bc:	d44ff0ef          	jal	ra,100d00 <xtime>
  1017c0:	00050793          	mv	a5,a0
  1017c4:	00078713          	mv	a4,a5
  1017c8:	01814783          	lbu	a5,24(sp)
  1017cc:	00f747b3          	xor	a5,a4,a5
  1017d0:	0ff7f493          	andi	s1,a5,255
  1017d4:	01814783          	lbu	a5,24(sp)
  1017d8:	00078513          	mv	a0,a5
  1017dc:	d24ff0ef          	jal	ra,100d00 <xtime>
  1017e0:	00050793          	mv	a5,a0
  1017e4:	00078513          	mv	a0,a5
  1017e8:	d18ff0ef          	jal	ra,100d00 <xtime>
  1017ec:	00050793          	mv	a5,a0
  1017f0:	00078513          	mv	a0,a5
  1017f4:	d0cff0ef          	jal	ra,100d00 <xtime>
  1017f8:	00050793          	mv	a5,a0
  1017fc:	00f4c7b3          	xor	a5,s1,a5
  101800:	0ff7f793          	andi	a5,a5,255
  101804:	00f447b3          	xor	a5,s0,a5
  101808:	0ff7f713          	andi	a4,a5,255
  10180c:	00c12683          	lw	a3,12(sp)
  101810:	01c12783          	lw	a5,28(sp)
  101814:	00279793          	slli	a5,a5,0x2
  101818:	00f687b3          	add	a5,a3,a5
  10181c:	00e78123          	sb	a4,2(a5)
    (*state)[i][3] = Multiply(a, 0x0b) ^ Multiply(b, 0x0d) ^ Multiply(c, 0x09) ^ Multiply(d, 0x0e);
  101820:	01b14783          	lbu	a5,27(sp)
  101824:	00078513          	mv	a0,a5
  101828:	cd8ff0ef          	jal	ra,100d00 <xtime>
  10182c:	00050793          	mv	a5,a0
  101830:	00078513          	mv	a0,a5
  101834:	cccff0ef          	jal	ra,100d00 <xtime>
  101838:	01b14783          	lbu	a5,27(sp)
  10183c:	00078513          	mv	a0,a5
  101840:	cc0ff0ef          	jal	ra,100d00 <xtime>
  101844:	00050793          	mv	a5,a0
  101848:	00078513          	mv	a0,a5
  10184c:	cb4ff0ef          	jal	ra,100d00 <xtime>
  101850:	00050793          	mv	a5,a0
  101854:	00078513          	mv	a0,a5
  101858:	ca8ff0ef          	jal	ra,100d00 <xtime>
  10185c:	00050793          	mv	a5,a0
  101860:	00078513          	mv	a0,a5
  101864:	c9cff0ef          	jal	ra,100d00 <xtime>
  101868:	01a14783          	lbu	a5,26(sp)
  10186c:	00078513          	mv	a0,a5
  101870:	c90ff0ef          	jal	ra,100d00 <xtime>
  101874:	01a14783          	lbu	a5,26(sp)
  101878:	00078513          	mv	a0,a5
  10187c:	c84ff0ef          	jal	ra,100d00 <xtime>
  101880:	00050793          	mv	a5,a0
  101884:	00078513          	mv	a0,a5
  101888:	c78ff0ef          	jal	ra,100d00 <xtime>
  10188c:	00050793          	mv	a5,a0
  101890:	00078513          	mv	a0,a5
  101894:	c6cff0ef          	jal	ra,100d00 <xtime>
  101898:	00050793          	mv	a5,a0
  10189c:	00078513          	mv	a0,a5
  1018a0:	c60ff0ef          	jal	ra,100d00 <xtime>
  1018a4:	01914783          	lbu	a5,25(sp)
  1018a8:	00078513          	mv	a0,a5
  1018ac:	c54ff0ef          	jal	ra,100d00 <xtime>
  1018b0:	01914783          	lbu	a5,25(sp)
  1018b4:	00078513          	mv	a0,a5
  1018b8:	c48ff0ef          	jal	ra,100d00 <xtime>
  1018bc:	00050793          	mv	a5,a0
  1018c0:	00078513          	mv	a0,a5
  1018c4:	c3cff0ef          	jal	ra,100d00 <xtime>
  1018c8:	01914783          	lbu	a5,25(sp)
  1018cc:	00078513          	mv	a0,a5
  1018d0:	c30ff0ef          	jal	ra,100d00 <xtime>
  1018d4:	00050793          	mv	a5,a0
  1018d8:	00078513          	mv	a0,a5
  1018dc:	c24ff0ef          	jal	ra,100d00 <xtime>
  1018e0:	00050793          	mv	a5,a0
  1018e4:	00078513          	mv	a0,a5
  1018e8:	c18ff0ef          	jal	ra,100d00 <xtime>
  1018ec:	00050793          	mv	a5,a0
  1018f0:	00078513          	mv	a0,a5
  1018f4:	c0cff0ef          	jal	ra,100d00 <xtime>
  1018f8:	01814783          	lbu	a5,24(sp)
  1018fc:	00078513          	mv	a0,a5
  101900:	c00ff0ef          	jal	ra,100d00 <xtime>
  101904:	00050793          	mv	a5,a0
  101908:	00078513          	mv	a0,a5
  10190c:	bf4ff0ef          	jal	ra,100d00 <xtime>
  101910:	00050793          	mv	a5,a0
  101914:	00078513          	mv	a0,a5
  101918:	be8ff0ef          	jal	ra,100d00 <xtime>
  10191c:	00050793          	mv	a5,a0
  101920:	00078513          	mv	a0,a5
  101924:	bdcff0ef          	jal	ra,100d00 <xtime>
  101928:	01b14783          	lbu	a5,27(sp)
  10192c:	00078513          	mv	a0,a5
  101930:	bd0ff0ef          	jal	ra,100d00 <xtime>
  101934:	00050793          	mv	a5,a0
  101938:	00078713          	mv	a4,a5
  10193c:	01b14783          	lbu	a5,27(sp)
  101940:	00f747b3          	xor	a5,a4,a5
  101944:	0ff7f413          	andi	s0,a5,255
  101948:	01b14783          	lbu	a5,27(sp)
  10194c:	00078513          	mv	a0,a5
  101950:	bb0ff0ef          	jal	ra,100d00 <xtime>
  101954:	00050793          	mv	a5,a0
  101958:	00078513          	mv	a0,a5
  10195c:	ba4ff0ef          	jal	ra,100d00 <xtime>
  101960:	00050793          	mv	a5,a0
  101964:	00078513          	mv	a0,a5
  101968:	b98ff0ef          	jal	ra,100d00 <xtime>
  10196c:	00050793          	mv	a5,a0
  101970:	00f447b3          	xor	a5,s0,a5
  101974:	0ff7f413          	andi	s0,a5,255
  101978:	01a14783          	lbu	a5,26(sp)
  10197c:	00078513          	mv	a0,a5
  101980:	b80ff0ef          	jal	ra,100d00 <xtime>
  101984:	00050793          	mv	a5,a0
  101988:	00078513          	mv	a0,a5
  10198c:	b74ff0ef          	jal	ra,100d00 <xtime>
  101990:	00050793          	mv	a5,a0
  101994:	00078713          	mv	a4,a5
  101998:	01a14783          	lbu	a5,26(sp)
  10199c:	00f747b3          	xor	a5,a4,a5
  1019a0:	0ff7f493          	andi	s1,a5,255
  1019a4:	01a14783          	lbu	a5,26(sp)
  1019a8:	00078513          	mv	a0,a5
  1019ac:	b54ff0ef          	jal	ra,100d00 <xtime>
  1019b0:	00050793          	mv	a5,a0
  1019b4:	00078513          	mv	a0,a5
  1019b8:	b48ff0ef          	jal	ra,100d00 <xtime>
  1019bc:	00050793          	mv	a5,a0
  1019c0:	00078513          	mv	a0,a5
  1019c4:	b3cff0ef          	jal	ra,100d00 <xtime>
  1019c8:	00050793          	mv	a5,a0
  1019cc:	00f4c7b3          	xor	a5,s1,a5
  1019d0:	0ff7f793          	andi	a5,a5,255
  1019d4:	00f447b3          	xor	a5,s0,a5
  1019d8:	0ff7f413          	andi	s0,a5,255
  1019dc:	01914783          	lbu	a5,25(sp)
  1019e0:	00078513          	mv	a0,a5
  1019e4:	b1cff0ef          	jal	ra,100d00 <xtime>
  1019e8:	00050793          	mv	a5,a0
  1019ec:	00078513          	mv	a0,a5
  1019f0:	b10ff0ef          	jal	ra,100d00 <xtime>
  1019f4:	00050793          	mv	a5,a0
  1019f8:	00078513          	mv	a0,a5
  1019fc:	b04ff0ef          	jal	ra,100d00 <xtime>
  101a00:	00050793          	mv	a5,a0
  101a04:	00078713          	mv	a4,a5
  101a08:	01914783          	lbu	a5,25(sp)
  101a0c:	00f747b3          	xor	a5,a4,a5
  101a10:	0ff7f793          	andi	a5,a5,255
  101a14:	00f447b3          	xor	a5,s0,a5
  101a18:	0ff7f413          	andi	s0,a5,255
  101a1c:	01814783          	lbu	a5,24(sp)
  101a20:	00078513          	mv	a0,a5
  101a24:	adcff0ef          	jal	ra,100d00 <xtime>
  101a28:	00050793          	mv	a5,a0
  101a2c:	00078493          	mv	s1,a5
  101a30:	01814783          	lbu	a5,24(sp)
  101a34:	00078513          	mv	a0,a5
  101a38:	ac8ff0ef          	jal	ra,100d00 <xtime>
  101a3c:	00050793          	mv	a5,a0
  101a40:	00078513          	mv	a0,a5
  101a44:	abcff0ef          	jal	ra,100d00 <xtime>
  101a48:	00050793          	mv	a5,a0
  101a4c:	00f4c7b3          	xor	a5,s1,a5
  101a50:	0ff7f493          	andi	s1,a5,255
  101a54:	01814783          	lbu	a5,24(sp)
  101a58:	00078513          	mv	a0,a5
  101a5c:	aa4ff0ef          	jal	ra,100d00 <xtime>
  101a60:	00050793          	mv	a5,a0
  101a64:	00078513          	mv	a0,a5
  101a68:	a98ff0ef          	jal	ra,100d00 <xtime>
  101a6c:	00050793          	mv	a5,a0
  101a70:	00078513          	mv	a0,a5
  101a74:	a8cff0ef          	jal	ra,100d00 <xtime>
  101a78:	00050793          	mv	a5,a0
  101a7c:	00f4c7b3          	xor	a5,s1,a5
  101a80:	0ff7f793          	andi	a5,a5,255
  101a84:	00f447b3          	xor	a5,s0,a5
  101a88:	0ff7f713          	andi	a4,a5,255
  101a8c:	00c12683          	lw	a3,12(sp)
  101a90:	01c12783          	lw	a5,28(sp)
  101a94:	00279793          	slli	a5,a5,0x2
  101a98:	00f687b3          	add	a5,a3,a5
  101a9c:	00e781a3          	sb	a4,3(a5)
  for (i = 0; i < 4; ++i)
  101aa0:	01c12783          	lw	a5,28(sp)
  101aa4:	00178793          	addi	a5,a5,1
  101aa8:	00f12e23          	sw	a5,28(sp)
  101aac:	01c12703          	lw	a4,28(sp)
  101ab0:	00300793          	li	a5,3
  101ab4:	d8e7d663          	bge	a5,a4,101040 <InvMixColumns+0x1c>
  }
}
  101ab8:	00000013          	nop
  101abc:	00000013          	nop
  101ac0:	02c12083          	lw	ra,44(sp)
  101ac4:	02812403          	lw	s0,40(sp)
  101ac8:	02412483          	lw	s1,36(sp)
  101acc:	03010113          	addi	sp,sp,48
  101ad0:	00008067          	ret

00101ad4 <InvSubBytes>:


// The SubBytes Function Substitutes the values in the
// state matrix with values in an S-box.
static void InvSubBytes(state_t* state)
{
  101ad4:	fe010113          	addi	sp,sp,-32
  101ad8:	00a12623          	sw	a0,12(sp)
  uint8_t i, j;
  for (i = 0; i < 4; ++i)
  101adc:	00010fa3          	sb	zero,31(sp)
  101ae0:	07c0006f          	j	101b5c <InvSubBytes+0x88>
  {
    for (j = 0; j < 4; ++j)
  101ae4:	00010f23          	sb	zero,30(sp)
  101ae8:	05c0006f          	j	101b44 <InvSubBytes+0x70>
    {
      (*state)[j][i] = getSBoxInvert((*state)[j][i]);
  101aec:	01e14703          	lbu	a4,30(sp)
  101af0:	01f14783          	lbu	a5,31(sp)
  101af4:	00c12683          	lw	a3,12(sp)
  101af8:	00271713          	slli	a4,a4,0x2
  101afc:	00e68733          	add	a4,a3,a4
  101b00:	00f707b3          	add	a5,a4,a5
  101b04:	0007c783          	lbu	a5,0(a5)
  101b08:	00078613          	mv	a2,a5
  101b0c:	01e14683          	lbu	a3,30(sp)
  101b10:	01f14783          	lbu	a5,31(sp)
  101b14:	00001717          	auipc	a4,0x1
  101b18:	b8870713          	addi	a4,a4,-1144 # 10269c <rsbox>
  101b1c:	00c70733          	add	a4,a4,a2
  101b20:	00074703          	lbu	a4,0(a4)
  101b24:	00c12603          	lw	a2,12(sp)
  101b28:	00269693          	slli	a3,a3,0x2
  101b2c:	00d606b3          	add	a3,a2,a3
  101b30:	00f687b3          	add	a5,a3,a5
  101b34:	00e78023          	sb	a4,0(a5)
    for (j = 0; j < 4; ++j)
  101b38:	01e14783          	lbu	a5,30(sp)
  101b3c:	00178793          	addi	a5,a5,1
  101b40:	00f10f23          	sb	a5,30(sp)
  101b44:	01e14703          	lbu	a4,30(sp)
  101b48:	00300793          	li	a5,3
  101b4c:	fae7f0e3          	bgeu	a5,a4,101aec <InvSubBytes+0x18>
  for (i = 0; i < 4; ++i)
  101b50:	01f14783          	lbu	a5,31(sp)
  101b54:	00178793          	addi	a5,a5,1
  101b58:	00f10fa3          	sb	a5,31(sp)
  101b5c:	01f14703          	lbu	a4,31(sp)
  101b60:	00300793          	li	a5,3
  101b64:	f8e7f0e3          	bgeu	a5,a4,101ae4 <InvSubBytes+0x10>
    }
  }
}
  101b68:	00000013          	nop
  101b6c:	00000013          	nop
  101b70:	02010113          	addi	sp,sp,32
  101b74:	00008067          	ret

00101b78 <InvShiftRows>:

static void InvShiftRows(state_t* state)
{
  101b78:	fe010113          	addi	sp,sp,-32
  101b7c:	00a12623          	sw	a0,12(sp)
  uint8_t temp;

  // Rotate first row 1 columns to right  
  temp = (*state)[3][1];
  101b80:	00c12783          	lw	a5,12(sp)
  101b84:	00d7c783          	lbu	a5,13(a5)
  101b88:	00f10fa3          	sb	a5,31(sp)
  (*state)[3][1] = (*state)[2][1];
  101b8c:	00c12783          	lw	a5,12(sp)
  101b90:	0097c703          	lbu	a4,9(a5)
  101b94:	00c12783          	lw	a5,12(sp)
  101b98:	00e786a3          	sb	a4,13(a5)
  (*state)[2][1] = (*state)[1][1];
  101b9c:	00c12783          	lw	a5,12(sp)
  101ba0:	0057c703          	lbu	a4,5(a5)
  101ba4:	00c12783          	lw	a5,12(sp)
  101ba8:	00e784a3          	sb	a4,9(a5)
  (*state)[1][1] = (*state)[0][1];
  101bac:	00c12783          	lw	a5,12(sp)
  101bb0:	0017c703          	lbu	a4,1(a5)
  101bb4:	00c12783          	lw	a5,12(sp)
  101bb8:	00e782a3          	sb	a4,5(a5)
  (*state)[0][1] = temp;
  101bbc:	00c12783          	lw	a5,12(sp)
  101bc0:	01f14703          	lbu	a4,31(sp)
  101bc4:	00e780a3          	sb	a4,1(a5)

  // Rotate second row 2 columns to right 
  temp = (*state)[0][2];
  101bc8:	00c12783          	lw	a5,12(sp)
  101bcc:	0027c783          	lbu	a5,2(a5)
  101bd0:	00f10fa3          	sb	a5,31(sp)
  (*state)[0][2] = (*state)[2][2];
  101bd4:	00c12783          	lw	a5,12(sp)
  101bd8:	00a7c703          	lbu	a4,10(a5)
  101bdc:	00c12783          	lw	a5,12(sp)
  101be0:	00e78123          	sb	a4,2(a5)
  (*state)[2][2] = temp;
  101be4:	00c12783          	lw	a5,12(sp)
  101be8:	01f14703          	lbu	a4,31(sp)
  101bec:	00e78523          	sb	a4,10(a5)

  temp = (*state)[1][2];
  101bf0:	00c12783          	lw	a5,12(sp)
  101bf4:	0067c783          	lbu	a5,6(a5)
  101bf8:	00f10fa3          	sb	a5,31(sp)
  (*state)[1][2] = (*state)[3][2];
  101bfc:	00c12783          	lw	a5,12(sp)
  101c00:	00e7c703          	lbu	a4,14(a5)
  101c04:	00c12783          	lw	a5,12(sp)
  101c08:	00e78323          	sb	a4,6(a5)
  (*state)[3][2] = temp;
  101c0c:	00c12783          	lw	a5,12(sp)
  101c10:	01f14703          	lbu	a4,31(sp)
  101c14:	00e78723          	sb	a4,14(a5)

  // Rotate third row 3 columns to right
  temp = (*state)[0][3];
  101c18:	00c12783          	lw	a5,12(sp)
  101c1c:	0037c783          	lbu	a5,3(a5)
  101c20:	00f10fa3          	sb	a5,31(sp)
  (*state)[0][3] = (*state)[1][3];
  101c24:	00c12783          	lw	a5,12(sp)
  101c28:	0077c703          	lbu	a4,7(a5)
  101c2c:	00c12783          	lw	a5,12(sp)
  101c30:	00e781a3          	sb	a4,3(a5)
  (*state)[1][3] = (*state)[2][3];
  101c34:	00c12783          	lw	a5,12(sp)
  101c38:	00b7c703          	lbu	a4,11(a5)
  101c3c:	00c12783          	lw	a5,12(sp)
  101c40:	00e783a3          	sb	a4,7(a5)
  (*state)[2][3] = (*state)[3][3];
  101c44:	00c12783          	lw	a5,12(sp)
  101c48:	00f7c703          	lbu	a4,15(a5)
  101c4c:	00c12783          	lw	a5,12(sp)
  101c50:	00e785a3          	sb	a4,11(a5)
  (*state)[3][3] = temp;
  101c54:	00c12783          	lw	a5,12(sp)
  101c58:	01f14703          	lbu	a4,31(sp)
  101c5c:	00e787a3          	sb	a4,15(a5)
}
  101c60:	00000013          	nop
  101c64:	02010113          	addi	sp,sp,32
  101c68:	00008067          	ret

00101c6c <Cipher>:
#endif // #if (defined(CBC) && CBC == 1) || (defined(ECB) && ECB == 1)

// Cipher is the main function that encrypts the PlainText.
static void Cipher(state_t* state, const uint8_t* RoundKey)
{
  101c6c:	fd010113          	addi	sp,sp,-48
  101c70:	02112623          	sw	ra,44(sp)
  101c74:	00a12623          	sw	a0,12(sp)
  101c78:	00b12423          	sw	a1,8(sp)
  uint8_t round = 0;
  101c7c:	00010fa3          	sb	zero,31(sp)

  // Add the First round key to the state before starting the rounds.
  AddRoundKey(0, state, RoundKey);
  101c80:	00812603          	lw	a2,8(sp)
  101c84:	00c12583          	lw	a1,12(sp)
  101c88:	00000513          	li	a0,0
  101c8c:	e0dfe0ef          	jal	ra,100a98 <AddRoundKey>

  // There will be Nr rounds.
  // The first Nr-1 rounds are identical.
  // These Nr rounds are executed in the loop below.
  // Last one without MixColumns()
  for (round = 1; ; ++round)
  101c90:	00100793          	li	a5,1
  101c94:	00f10fa3          	sb	a5,31(sp)
  {
    SubBytes(state);
  101c98:	00c12503          	lw	a0,12(sp)
  101c9c:	ecdfe0ef          	jal	ra,100b68 <SubBytes>
    ShiftRows(state);
  101ca0:	00c12503          	lw	a0,12(sp)
  101ca4:	f69fe0ef          	jal	ra,100c0c <ShiftRows>
    if (round == Nr) {
  101ca8:	01f14703          	lbu	a4,31(sp)
  101cac:	00a00793          	li	a5,10
  101cb0:	02f70863          	beq	a4,a5,101ce0 <Cipher+0x74>
      break;
    }
    MixColumns(state);
  101cb4:	00c12503          	lw	a0,12(sp)
  101cb8:	8acff0ef          	jal	ra,100d64 <MixColumns>
    AddRoundKey(round, state, RoundKey);
  101cbc:	01f14783          	lbu	a5,31(sp)
  101cc0:	00812603          	lw	a2,8(sp)
  101cc4:	00c12583          	lw	a1,12(sp)
  101cc8:	00078513          	mv	a0,a5
  101ccc:	dcdfe0ef          	jal	ra,100a98 <AddRoundKey>
  for (round = 1; ; ++round)
  101cd0:	01f14783          	lbu	a5,31(sp)
  101cd4:	00178793          	addi	a5,a5,1
  101cd8:	00f10fa3          	sb	a5,31(sp)
    SubBytes(state);
  101cdc:	fbdff06f          	j	101c98 <Cipher+0x2c>
      break;
  101ce0:	00000013          	nop
  }
  // Add round key to last round
  AddRoundKey(Nr, state, RoundKey);
  101ce4:	00812603          	lw	a2,8(sp)
  101ce8:	00c12583          	lw	a1,12(sp)
  101cec:	00a00513          	li	a0,10
  101cf0:	da9fe0ef          	jal	ra,100a98 <AddRoundKey>
}
  101cf4:	00000013          	nop
  101cf8:	02c12083          	lw	ra,44(sp)
  101cfc:	03010113          	addi	sp,sp,48
  101d00:	00008067          	ret

00101d04 <InvCipher>:

#if (defined(CBC) && CBC == 1) || (defined(ECB) && ECB == 1)
static void InvCipher(state_t* state, const uint8_t* RoundKey)
{
  101d04:	fd010113          	addi	sp,sp,-48
  101d08:	02112623          	sw	ra,44(sp)
  101d0c:	00a12623          	sw	a0,12(sp)
  101d10:	00b12423          	sw	a1,8(sp)
  uint8_t round = 0;
  101d14:	00010fa3          	sb	zero,31(sp)

  // Add the First round key to the state before starting the rounds.
  AddRoundKey(Nr, state, RoundKey);
  101d18:	00812603          	lw	a2,8(sp)
  101d1c:	00c12583          	lw	a1,12(sp)
  101d20:	00a00513          	li	a0,10
  101d24:	d75fe0ef          	jal	ra,100a98 <AddRoundKey>

  // There will be Nr rounds.
  // The first Nr-1 rounds are identical.
  // These Nr rounds are executed in the loop below.
  // Last one without InvMixColumn()
  for (round = (Nr - 1); ; --round)
  101d28:	00900793          	li	a5,9
  101d2c:	00f10fa3          	sb	a5,31(sp)
  {
    InvShiftRows(state);
  101d30:	00c12503          	lw	a0,12(sp)
  101d34:	e45ff0ef          	jal	ra,101b78 <InvShiftRows>
    InvSubBytes(state);
  101d38:	00c12503          	lw	a0,12(sp)
  101d3c:	d99ff0ef          	jal	ra,101ad4 <InvSubBytes>
    AddRoundKey(round, state, RoundKey);
  101d40:	01f14783          	lbu	a5,31(sp)
  101d44:	00812603          	lw	a2,8(sp)
  101d48:	00c12583          	lw	a1,12(sp)
  101d4c:	00078513          	mv	a0,a5
  101d50:	d49fe0ef          	jal	ra,100a98 <AddRoundKey>
    if (round == 0) {
  101d54:	01f14783          	lbu	a5,31(sp)
  101d58:	00078e63          	beqz	a5,101d74 <InvCipher+0x70>
      break;
    }
    InvMixColumns(state);
  101d5c:	00c12503          	lw	a0,12(sp)
  101d60:	ac4ff0ef          	jal	ra,101024 <InvMixColumns>
  for (round = (Nr - 1); ; --round)
  101d64:	01f14783          	lbu	a5,31(sp)
  101d68:	fff78793          	addi	a5,a5,-1
  101d6c:	00f10fa3          	sb	a5,31(sp)
    InvShiftRows(state);
  101d70:	fc1ff06f          	j	101d30 <InvCipher+0x2c>
      break;
  101d74:	00000013          	nop
  }

}
  101d78:	00000013          	nop
  101d7c:	02c12083          	lw	ra,44(sp)
  101d80:	03010113          	addi	sp,sp,48
  101d84:	00008067          	ret

00101d88 <AES_ECB_encrypt>:
/*****************************************************************************/
#if defined(ECB) && (ECB == 1)


void AES_ECB_encrypt(const struct AES_ctx* ctx, uint8_t* buf)
{
  101d88:	fe010113          	addi	sp,sp,-32
  101d8c:	00112e23          	sw	ra,28(sp)
  101d90:	00a12623          	sw	a0,12(sp)
  101d94:	00b12423          	sw	a1,8(sp)
  // The next function call encrypts the PlainText with the Key using AES algorithm.
  Cipher((state_t*)buf, ctx->RoundKey);
  101d98:	00c12783          	lw	a5,12(sp)
  101d9c:	00078593          	mv	a1,a5
  101da0:	00812503          	lw	a0,8(sp)
  101da4:	ec9ff0ef          	jal	ra,101c6c <Cipher>
}
  101da8:	00000013          	nop
  101dac:	01c12083          	lw	ra,28(sp)
  101db0:	02010113          	addi	sp,sp,32
  101db4:	00008067          	ret

00101db8 <AES_ECB_decrypt>:

void AES_ECB_decrypt(const struct AES_ctx* ctx, uint8_t* buf)
{
  101db8:	fe010113          	addi	sp,sp,-32
  101dbc:	00112e23          	sw	ra,28(sp)
  101dc0:	00a12623          	sw	a0,12(sp)
  101dc4:	00b12423          	sw	a1,8(sp)
  // The next function call decrypts the PlainText with the Key using AES algorithm.
  InvCipher((state_t*)buf, ctx->RoundKey);
  101dc8:	00c12783          	lw	a5,12(sp)
  101dcc:	00078593          	mv	a1,a5
  101dd0:	00812503          	lw	a0,8(sp)
  101dd4:	f31ff0ef          	jal	ra,101d04 <InvCipher>
}
  101dd8:	00000013          	nop
  101ddc:	01c12083          	lw	ra,28(sp)
  101de0:	02010113          	addi	sp,sp,32
  101de4:	00008067          	ret

00101de8 <XorWithIv>:

#if defined(CBC) && (CBC == 1)


static void XorWithIv(uint8_t* buf, const uint8_t* Iv)
{
  101de8:	fe010113          	addi	sp,sp,-32
  101dec:	00a12623          	sw	a0,12(sp)
  101df0:	00b12423          	sw	a1,8(sp)
  uint8_t i;
  for (i = 0; i < AES_BLOCKLEN; ++i) // The block in AES is always 128bit no matter the key size
  101df4:	00010fa3          	sb	zero,31(sp)
  101df8:	0480006f          	j	101e40 <XorWithIv+0x58>
  {
    buf[i] ^= Iv[i];
  101dfc:	01f14783          	lbu	a5,31(sp)
  101e00:	00c12703          	lw	a4,12(sp)
  101e04:	00f707b3          	add	a5,a4,a5
  101e08:	0007c683          	lbu	a3,0(a5)
  101e0c:	01f14783          	lbu	a5,31(sp)
  101e10:	00812703          	lw	a4,8(sp)
  101e14:	00f707b3          	add	a5,a4,a5
  101e18:	0007c703          	lbu	a4,0(a5)
  101e1c:	01f14783          	lbu	a5,31(sp)
  101e20:	00c12603          	lw	a2,12(sp)
  101e24:	00f607b3          	add	a5,a2,a5
  101e28:	00e6c733          	xor	a4,a3,a4
  101e2c:	0ff77713          	andi	a4,a4,255
  101e30:	00e78023          	sb	a4,0(a5)
  for (i = 0; i < AES_BLOCKLEN; ++i) // The block in AES is always 128bit no matter the key size
  101e34:	01f14783          	lbu	a5,31(sp)
  101e38:	00178793          	addi	a5,a5,1
  101e3c:	00f10fa3          	sb	a5,31(sp)
  101e40:	01f14703          	lbu	a4,31(sp)
  101e44:	00f00793          	li	a5,15
  101e48:	fae7fae3          	bgeu	a5,a4,101dfc <XorWithIv+0x14>
  }
}
  101e4c:	00000013          	nop
  101e50:	00000013          	nop
  101e54:	02010113          	addi	sp,sp,32
  101e58:	00008067          	ret

00101e5c <AES_CBC_encrypt_buffer>:

void AES_CBC_encrypt_buffer(struct AES_ctx *ctx, uint8_t* buf, uint32_t length)
{
  101e5c:	fd010113          	addi	sp,sp,-48
  101e60:	02112623          	sw	ra,44(sp)
  101e64:	00a12623          	sw	a0,12(sp)
  101e68:	00b12423          	sw	a1,8(sp)
  101e6c:	00c12223          	sw	a2,4(sp)
  uintptr_t i;
  uint8_t *Iv = ctx->Iv;
  101e70:	00c12783          	lw	a5,12(sp)
  101e74:	0b078793          	addi	a5,a5,176
  101e78:	00f12c23          	sw	a5,24(sp)
  for (i = 0; i < length; i += AES_BLOCKLEN)
  101e7c:	00012e23          	sw	zero,28(sp)
  101e80:	0400006f          	j	101ec0 <AES_CBC_encrypt_buffer+0x64>
  {
    XorWithIv(buf, Iv);
  101e84:	01812583          	lw	a1,24(sp)
  101e88:	00812503          	lw	a0,8(sp)
  101e8c:	f5dff0ef          	jal	ra,101de8 <XorWithIv>
    Cipher((state_t*)buf, ctx->RoundKey);
  101e90:	00c12783          	lw	a5,12(sp)
  101e94:	00078593          	mv	a1,a5
  101e98:	00812503          	lw	a0,8(sp)
  101e9c:	dd1ff0ef          	jal	ra,101c6c <Cipher>
    Iv = buf;
  101ea0:	00812783          	lw	a5,8(sp)
  101ea4:	00f12c23          	sw	a5,24(sp)
    buf += AES_BLOCKLEN;
  101ea8:	00812783          	lw	a5,8(sp)
  101eac:	01078793          	addi	a5,a5,16
  101eb0:	00f12423          	sw	a5,8(sp)
  for (i = 0; i < length; i += AES_BLOCKLEN)
  101eb4:	01c12783          	lw	a5,28(sp)
  101eb8:	01078793          	addi	a5,a5,16
  101ebc:	00f12e23          	sw	a5,28(sp)
  101ec0:	01c12703          	lw	a4,28(sp)
  101ec4:	00412783          	lw	a5,4(sp)
  101ec8:	faf76ee3          	bltu	a4,a5,101e84 <AES_CBC_encrypt_buffer+0x28>
    //printf("Step %d - %d", i/16, i);
  }
  /* store Iv in ctx for next call */
  memcpy(ctx->Iv, Iv, AES_BLOCKLEN);
  101ecc:	00c12783          	lw	a5,12(sp)
  101ed0:	0b078793          	addi	a5,a5,176
  101ed4:	01000613          	li	a2,16
  101ed8:	01812583          	lw	a1,24(sp)
  101edc:	00078513          	mv	a0,a5
  101ee0:	2d8000ef          	jal	ra,1021b8 <memcpy>
}
  101ee4:	00000013          	nop
  101ee8:	02c12083          	lw	ra,44(sp)
  101eec:	03010113          	addi	sp,sp,48
  101ef0:	00008067          	ret

00101ef4 <AES_CBC_decrypt_buffer>:

void AES_CBC_decrypt_buffer(struct AES_ctx* ctx, uint8_t* buf,  uint32_t length)
{
  101ef4:	fc010113          	addi	sp,sp,-64
  101ef8:	02112e23          	sw	ra,60(sp)
  101efc:	00a12623          	sw	a0,12(sp)
  101f00:	00b12423          	sw	a1,8(sp)
  101f04:	00c12223          	sw	a2,4(sp)
  uintptr_t i;
  uint8_t storeNextIv[AES_BLOCKLEN];
  for (i = 0; i < length; i += AES_BLOCKLEN)
  101f08:	02012623          	sw	zero,44(sp)
  101f0c:	0700006f          	j	101f7c <AES_CBC_decrypt_buffer+0x88>
  {
    memcpy(storeNextIv, buf, AES_BLOCKLEN);
  101f10:	01c10793          	addi	a5,sp,28
  101f14:	01000613          	li	a2,16
  101f18:	00812583          	lw	a1,8(sp)
  101f1c:	00078513          	mv	a0,a5
  101f20:	298000ef          	jal	ra,1021b8 <memcpy>
    InvCipher((state_t*)buf, ctx->RoundKey);
  101f24:	00c12783          	lw	a5,12(sp)
  101f28:	00078593          	mv	a1,a5
  101f2c:	00812503          	lw	a0,8(sp)
  101f30:	dd5ff0ef          	jal	ra,101d04 <InvCipher>
    XorWithIv(buf, ctx->Iv);
  101f34:	00c12783          	lw	a5,12(sp)
  101f38:	0b078793          	addi	a5,a5,176
  101f3c:	00078593          	mv	a1,a5
  101f40:	00812503          	lw	a0,8(sp)
  101f44:	ea5ff0ef          	jal	ra,101de8 <XorWithIv>
    memcpy(ctx->Iv, storeNextIv, AES_BLOCKLEN);
  101f48:	00c12783          	lw	a5,12(sp)
  101f4c:	0b078793          	addi	a5,a5,176
  101f50:	01c10713          	addi	a4,sp,28
  101f54:	01000613          	li	a2,16
  101f58:	00070593          	mv	a1,a4
  101f5c:	00078513          	mv	a0,a5
  101f60:	258000ef          	jal	ra,1021b8 <memcpy>
    buf += AES_BLOCKLEN;
  101f64:	00812783          	lw	a5,8(sp)
  101f68:	01078793          	addi	a5,a5,16
  101f6c:	00f12423          	sw	a5,8(sp)
  for (i = 0; i < length; i += AES_BLOCKLEN)
  101f70:	02c12783          	lw	a5,44(sp)
  101f74:	01078793          	addi	a5,a5,16
  101f78:	02f12623          	sw	a5,44(sp)
  101f7c:	02c12703          	lw	a4,44(sp)
  101f80:	00412783          	lw	a5,4(sp)
  101f84:	f8f766e3          	bltu	a4,a5,101f10 <AES_CBC_decrypt_buffer+0x1c>
  }

}
  101f88:	00000013          	nop
  101f8c:	00000013          	nop
  101f90:	03c12083          	lw	ra,60(sp)
  101f94:	04010113          	addi	sp,sp,64
  101f98:	00008067          	ret

00101f9c <AES_CTR_xcrypt_buffer>:

#if defined(CTR) && (CTR == 1)

/* Symmetrical operation: same function for encrypting as for decrypting. Note any IV/nonce should never be reused with the same key */
void AES_CTR_xcrypt_buffer(struct AES_ctx* ctx, uint8_t* buf, uint32_t length)
{
  101f9c:	fc010113          	addi	sp,sp,-64
  101fa0:	02112e23          	sw	ra,60(sp)
  101fa4:	00a12623          	sw	a0,12(sp)
  101fa8:	00b12423          	sw	a1,8(sp)
  101fac:	00c12223          	sw	a2,4(sp)
  uint8_t buffer[AES_BLOCKLEN];
  
  unsigned i;
  int bi;
  for (i = 0, bi = AES_BLOCKLEN; i < length; ++i, ++bi)
  101fb0:	02012623          	sw	zero,44(sp)
  101fb4:	01000793          	li	a5,16
  101fb8:	02f12423          	sw	a5,40(sp)
  101fbc:	10c0006f          	j	1020c8 <AES_CTR_xcrypt_buffer+0x12c>
  {
    if (bi == AES_BLOCKLEN) /* we need to regen xor compliment in buffer */
  101fc0:	02812703          	lw	a4,40(sp)
  101fc4:	01000793          	li	a5,16
  101fc8:	0af71863          	bne	a4,a5,102078 <AES_CTR_xcrypt_buffer+0xdc>
    {
      
      memcpy(buffer, ctx->Iv, AES_BLOCKLEN);
  101fcc:	00c12783          	lw	a5,12(sp)
  101fd0:	0b078713          	addi	a4,a5,176
  101fd4:	01810793          	addi	a5,sp,24
  101fd8:	01000613          	li	a2,16
  101fdc:	00070593          	mv	a1,a4
  101fe0:	00078513          	mv	a0,a5
  101fe4:	1d4000ef          	jal	ra,1021b8 <memcpy>
      Cipher((state_t*)buffer,ctx->RoundKey);
  101fe8:	00c12703          	lw	a4,12(sp)
  101fec:	01810793          	addi	a5,sp,24
  101ff0:	00070593          	mv	a1,a4
  101ff4:	00078513          	mv	a0,a5
  101ff8:	c75ff0ef          	jal	ra,101c6c <Cipher>

      /* Increment Iv and handle overflow */
      for (bi = (AES_BLOCKLEN - 1); bi >= 0; --bi)
  101ffc:	00f00793          	li	a5,15
  102000:	02f12423          	sw	a5,40(sp)
  102004:	0680006f          	j	10206c <AES_CTR_xcrypt_buffer+0xd0>
      {
	/* inc will overflow */
        if (ctx->Iv[bi] == 255)
  102008:	00c12703          	lw	a4,12(sp)
  10200c:	02812783          	lw	a5,40(sp)
  102010:	00f707b3          	add	a5,a4,a5
  102014:	0b07c703          	lbu	a4,176(a5)
  102018:	0ff00793          	li	a5,255
  10201c:	02f71263          	bne	a4,a5,102040 <AES_CTR_xcrypt_buffer+0xa4>
	{
          ctx->Iv[bi] = 0;
  102020:	00c12703          	lw	a4,12(sp)
  102024:	02812783          	lw	a5,40(sp)
  102028:	00f707b3          	add	a5,a4,a5
  10202c:	0a078823          	sb	zero,176(a5)
      for (bi = (AES_BLOCKLEN - 1); bi >= 0; --bi)
  102030:	02812783          	lw	a5,40(sp)
  102034:	fff78793          	addi	a5,a5,-1
  102038:	02f12423          	sw	a5,40(sp)
  10203c:	0300006f          	j	10206c <AES_CTR_xcrypt_buffer+0xd0>
          continue;
        } 
        ctx->Iv[bi] += 1;
  102040:	00c12703          	lw	a4,12(sp)
  102044:	02812783          	lw	a5,40(sp)
  102048:	00f707b3          	add	a5,a4,a5
  10204c:	0b07c783          	lbu	a5,176(a5)
  102050:	00178793          	addi	a5,a5,1
  102054:	0ff7f713          	andi	a4,a5,255
  102058:	00c12683          	lw	a3,12(sp)
  10205c:	02812783          	lw	a5,40(sp)
  102060:	00f687b3          	add	a5,a3,a5
  102064:	0ae78823          	sb	a4,176(a5)
        break;   
  102068:	00c0006f          	j	102074 <AES_CTR_xcrypt_buffer+0xd8>
      for (bi = (AES_BLOCKLEN - 1); bi >= 0; --bi)
  10206c:	02812783          	lw	a5,40(sp)
  102070:	f807dce3          	bgez	a5,102008 <AES_CTR_xcrypt_buffer+0x6c>
      }
      bi = 0;
  102074:	02012423          	sw	zero,40(sp)
    }

    buf[i] = (buf[i] ^ buffer[bi]);
  102078:	00812703          	lw	a4,8(sp)
  10207c:	02c12783          	lw	a5,44(sp)
  102080:	00f707b3          	add	a5,a4,a5
  102084:	0007c683          	lbu	a3,0(a5)
  102088:	02812783          	lw	a5,40(sp)
  10208c:	03010713          	addi	a4,sp,48
  102090:	00f707b3          	add	a5,a4,a5
  102094:	fe87c703          	lbu	a4,-24(a5)
  102098:	00812603          	lw	a2,8(sp)
  10209c:	02c12783          	lw	a5,44(sp)
  1020a0:	00f607b3          	add	a5,a2,a5
  1020a4:	00e6c733          	xor	a4,a3,a4
  1020a8:	0ff77713          	andi	a4,a4,255
  1020ac:	00e78023          	sb	a4,0(a5)
  for (i = 0, bi = AES_BLOCKLEN; i < length; ++i, ++bi)
  1020b0:	02c12783          	lw	a5,44(sp)
  1020b4:	00178793          	addi	a5,a5,1
  1020b8:	02f12623          	sw	a5,44(sp)
  1020bc:	02812783          	lw	a5,40(sp)
  1020c0:	00178793          	addi	a5,a5,1
  1020c4:	02f12423          	sw	a5,40(sp)
  1020c8:	02c12703          	lw	a4,44(sp)
  1020cc:	00412783          	lw	a5,4(sp)
  1020d0:	eef768e3          	bltu	a4,a5,101fc0 <AES_CTR_xcrypt_buffer+0x24>
  }
}
  1020d4:	00000013          	nop
  1020d8:	00000013          	nop
  1020dc:	03c12083          	lw	ra,60(sp)
  1020e0:	04010113          	addi	sp,sp,64
  1020e4:	00008067          	ret

001020e8 <default_exc_handler>:
  jal x0, simple_exc_handler
  1020e8:	a34fe06f          	j	10031c <simple_exc_handler>

001020ec <timer_handler>:
  jal x0, simple_timer_handler
  1020ec:	c84fe06f          	j	100570 <simple_timer_handler>

001020f0 <reset_handler>:
  mv  x1, x0
  1020f0:	00000093          	li	ra,0
  mv  x2, x1
  1020f4:	00008113          	mv	sp,ra
  mv  x3, x1
  1020f8:	00008193          	mv	gp,ra
  mv  x4, x1
  1020fc:	00008213          	mv	tp,ra
  mv  x5, x1
  102100:	00008293          	mv	t0,ra
  mv  x6, x1
  102104:	00008313          	mv	t1,ra
  mv  x7, x1
  102108:	00008393          	mv	t2,ra
  mv  x8, x1
  10210c:	00008413          	mv	s0,ra
  mv  x9, x1
  102110:	00008493          	mv	s1,ra
  mv x10, x1
  102114:	00008513          	mv	a0,ra
  mv x11, x1
  102118:	00008593          	mv	a1,ra
  mv x12, x1
  10211c:	00008613          	mv	a2,ra
  mv x13, x1
  102120:	00008693          	mv	a3,ra
  mv x14, x1
  102124:	00008713          	mv	a4,ra
  mv x15, x1
  102128:	00008793          	mv	a5,ra
  mv x16, x1
  10212c:	00008813          	mv	a6,ra
  mv x17, x1
  102130:	00008893          	mv	a7,ra
  mv x18, x1
  102134:	00008913          	mv	s2,ra
  mv x19, x1
  102138:	00008993          	mv	s3,ra
  mv x20, x1
  10213c:	00008a13          	mv	s4,ra
  mv x21, x1
  102140:	00008a93          	mv	s5,ra
  mv x22, x1
  102144:	00008b13          	mv	s6,ra
  mv x23, x1
  102148:	00008b93          	mv	s7,ra
  mv x24, x1
  10214c:	00008c13          	mv	s8,ra
  mv x25, x1
  102150:	00008c93          	mv	s9,ra
  mv x26, x1
  102154:	00008d13          	mv	s10,ra
  mv x27, x1
  102158:	00008d93          	mv	s11,ra
  mv x28, x1
  10215c:	00008e13          	mv	t3,ra
  mv x29, x1
  102160:	00008e93          	mv	t4,ra
  mv x30, x1
  102164:	00008f13          	mv	t5,ra
  mv x31, x1
  102168:	00008f93          	mv	t6,ra
  la   x2, _stack_start
  10216c:	000fe117          	auipc	sp,0xfe
  102170:	e9410113          	addi	sp,sp,-364 # 200000 <_stack_start>

00102174 <_start>:
  la x26, _bss_start
  102174:	00000d17          	auipc	s10,0x0
  102178:	694d0d13          	addi	s10,s10,1684 # 102808 <time_elapsed>
  la x27, _bss_end
  10217c:	00000d97          	auipc	s11,0x0
  102180:	68cd8d93          	addi	s11,s11,1676 # 102808 <time_elapsed>
  bge x26, x27, zero_loop_end
  102184:	01bd5863          	bge	s10,s11,102194 <main_entry>

00102188 <zero_loop>:
  sw x0, 0(x26)
  102188:	000d2023          	sw	zero,0(s10)
  addi x26, x26, 4
  10218c:	004d0d13          	addi	s10,s10,4
  ble x26, x27, zero_loop
  102190:	ffaddce3          	bge	s11,s10,102188 <zero_loop>

00102194 <main_entry>:
  addi x10, x0, 0
  102194:	00000513          	li	a0,0
  addi x11, x0, 0
  102198:	00000593          	li	a1,0
  jal x1, main
  10219c:	cc8fe0ef          	jal	ra,100664 <main>
  li x5, SIM_CTRL_BASE + SIM_CTRL_CTRL
  1021a0:	000202b7          	lui	t0,0x20
  1021a4:	00428293          	addi	t0,t0,4 # 20004 <_stack_len+0x18004>
  li x6, 1
  1021a8:	00100313          	li	t1,1
  sw x6, 0(x5)
  1021ac:	0062a023          	sw	t1,0(t0)

001021b0 <sleep_loop>:
  wfi
  1021b0:	10500073          	wfi
  j sleep_loop
  1021b4:	ffdff06f          	j	1021b0 <sleep_loop>

001021b8 <memcpy>:

#undef memcpy

void *
memcpy (void *dstpp, const void *srcpp, size_t len)
{
  1021b8:	1101                	addi	sp,sp,-32
  1021ba:	cc22                	sw	s0,24(sp)
  1021bc:	c84a                	sw	s2,16(sp)
  1021be:	ce06                	sw	ra,28(sp)
  1021c0:	ca26                	sw	s1,20(sp)
  1021c2:	c64e                	sw	s3,12(sp)
  unsigned long int srcp = (long int) srcpp;

  /* Copy from the beginning to the end.  */

  /* If there not too few bytes to copy, use word copy.  */
  if (len >= OP_T_THRES)
  1021c4:	47bd                	li	a5,15
{
  1021c6:	892a                	mv	s2,a0
  unsigned long int dstp = (long int) dstpp;
  1021c8:	872a                	mv	a4,a0
  unsigned long int srcp = (long int) srcpp;
  1021ca:	842e                	mv	s0,a1
  if (len >= OP_T_THRES)
  1021cc:	04c7f463          	bgeu	a5,a2,102214 <memcpy+0x5c>
    {
      /* Copy just a few bytes to make DSTP aligned.  */
      len -= (-dstp) % OPSIZ;
  1021d0:	40a006b3          	neg	a3,a0
  1021d4:	8a8d                	andi	a3,a3,3
  1021d6:	40d604b3          	sub	s1,a2,a3
  unsigned long int dstp = (long int) dstpp;
  1021da:	89aa                	mv	s3,a0
      BYTE_COPY_FWD (dstp, srcp, (-dstp) % OPSIZ);
  1021dc:	ce91                	beqz	a3,1021f8 <memcpy+0x40>
  1021de:	00a689b3          	add	s3,a3,a0
  unsigned long int srcp = (long int) srcpp;
  1021e2:	87ae                	mv	a5,a1
      BYTE_COPY_FWD (dstp, srcp, (-dstp) % OPSIZ);
  1021e4:	0007c603          	lbu	a2,0(a5)
  1021e8:	0705                	addi	a4,a4,1
  1021ea:	0785                	addi	a5,a5,1
  1021ec:	fec70fa3          	sb	a2,-1(a4)
  1021f0:	fee99ae3          	bne	s3,a4,1021e4 <memcpy+0x2c>
  1021f4:	00d58433          	add	s0,a1,a3

      /* Copy from SRCP to DSTP taking advantage of the known alignment of
	 DSTP.  Number of bytes remaining is put in the third argument,
	 i.e. in LEN.  This number may vary from machine to machine.  */

      WORD_COPY_FWD (dstp, srcp, len, len);
  1021f8:	00347793          	andi	a5,s0,3
  1021fc:	0024d613          	srli	a2,s1,0x2
  102200:	85a2                	mv	a1,s0
  102202:	854e                	mv	a0,s3
  102204:	cf9d                	beqz	a5,102242 <memcpy+0x8a>
  102206:	2a31                	jal	102322 <_wordcopy_fwd_dest_aligned>
  102208:	ffc4f713          	andi	a4,s1,-4
  10220c:	943a                	add	s0,s0,a4
  10220e:	0034f613          	andi	a2,s1,3
  102212:	974e                	add	a4,a4,s3

      /* Fall out and copy the tail.  */
    }

  /* There are just a few bytes to copy.  Use byte memory operations.  */
  BYTE_COPY_FWD (dstp, srcp, len);
  102214:	177d                	addi	a4,a4,-1
  102216:	87a2                	mv	a5,s0
  102218:	008605b3          	add	a1,a2,s0
  10221c:	8f01                	sub	a4,a4,s0
  10221e:	ca11                	beqz	a2,102232 <memcpy+0x7a>
  102220:	0007c603          	lbu	a2,0(a5)
  102224:	0785                	addi	a5,a5,1
  102226:	00f706b3          	add	a3,a4,a5
  10222a:	00c68023          	sb	a2,0(a3)
  10222e:	fef599e3          	bne	a1,a5,102220 <memcpy+0x68>

  return dstpp;
}
  102232:	40f2                	lw	ra,28(sp)
  102234:	4462                	lw	s0,24(sp)
  102236:	44d2                	lw	s1,20(sp)
  102238:	49b2                	lw	s3,12(sp)
  10223a:	854a                	mv	a0,s2
  10223c:	4942                	lw	s2,16(sp)
  10223e:	6105                	addi	sp,sp,32
  102240:	8082                	ret
      WORD_COPY_FWD (dstp, srcp, len, len);
  102242:	2011                	jal	102246 <_wordcopy_fwd_aligned>
  102244:	b7d1                	j	102208 <memcpy+0x50>

00102246 <_wordcopy_fwd_aligned>:
void
WORDCOPY_FWD_ALIGNED (long int dstp, long int srcp, size_t len)
{
  op_t a0, a1;

  switch (len % 8)
  102246:	00767793          	andi	a5,a2,7
  10224a:	00102737          	lui	a4,0x102
  10224e:	7a870713          	addi	a4,a4,1960 # 1027a8 <Rcon+0xc>
  102252:	078a                	slli	a5,a5,0x2
  102254:	97ba                	add	a5,a5,a4
  102256:	4394                	lw	a3,0(a5)
    {
    case 2:
      a0 = ((op_t *) srcp)[0];
  102258:	0005a803          	lw	a6,0(a1)
      srcp -= 6 * OPSIZ;
  10225c:	872e                	mv	a4,a1
      dstp -= 7 * OPSIZ;
  10225e:	87aa                	mv	a5,a0
  102260:	8682                	jr	a3
      dstp -= 3 * OPSIZ;
      len += 2;
      goto do5;
    case 7:
      a1 = ((op_t *) srcp)[0];
      srcp -= 1 * OPSIZ;
  102262:	ffc58713          	addi	a4,a1,-4
      dstp -= 2 * OPSIZ;
  102266:	ff850693          	addi	a3,a0,-8
      len += 1;
  10226a:	0605                	addi	a2,a2,1
      goto do6;
  10226c:	a831                	j	102288 <_wordcopy_fwd_aligned+0x42>
      ((op_t *) dstp)[6] = a1;
    do1:
      a1 = ((op_t *) srcp)[7];
      ((op_t *) dstp)[7] = a0;

      srcp += 8 * OPSIZ;
  10226e:	02070713          	addi	a4,a4,32
      dstp += 8 * OPSIZ;
  102272:	8536                	mv	a0,a3
      a0 = ((op_t *) srcp)[0];
  102274:	430c                	lw	a1,0(a4)
      ((op_t *) dstp)[1] = a0;
  102276:	00468793          	addi	a5,a3,4
      ((op_t *) dstp)[0] = a1;
  10227a:	01052023          	sw	a6,0(a0)
      a1 = ((op_t *) srcp)[1];
  10227e:	00472803          	lw	a6,4(a4)
      ((op_t *) dstp)[1] = a0;
  102282:	c38c                	sw	a1,0(a5)
      ((op_t *) dstp)[2] = a1;
  102284:	00868793          	addi	a5,a3,8
      a0 = ((op_t *) srcp)[2];
  102288:	470c                	lw	a1,8(a4)
      ((op_t *) dstp)[2] = a1;
  10228a:	0107a023          	sw	a6,0(a5)
      ((op_t *) dstp)[3] = a0;
  10228e:	00c68793          	addi	a5,a3,12
      a0 = ((op_t *) srcp)[2];
  102292:	882e                	mv	a6,a1
      a1 = ((op_t *) srcp)[3];
  102294:	474c                	lw	a1,12(a4)
      ((op_t *) dstp)[3] = a0;
  102296:	0107a023          	sw	a6,0(a5)
      ((op_t *) dstp)[4] = a1;
  10229a:	01068793          	addi	a5,a3,16
      a0 = ((op_t *) srcp)[4];
  10229e:	01072803          	lw	a6,16(a4)
      ((op_t *) dstp)[4] = a1;
  1022a2:	c38c                	sw	a1,0(a5)
      ((op_t *) dstp)[5] = a0;
  1022a4:	01468793          	addi	a5,a3,20
      a1 = ((op_t *) srcp)[5];
  1022a8:	4b48                	lw	a0,20(a4)
      ((op_t *) dstp)[5] = a0;
  1022aa:	0107a023          	sw	a6,0(a5)
      ((op_t *) dstp)[6] = a1;
  1022ae:	01868793          	addi	a5,a3,24
      a0 = ((op_t *) srcp)[6];
  1022b2:	4f0c                	lw	a1,24(a4)
      ((op_t *) dstp)[6] = a1;
  1022b4:	c388                	sw	a0,0(a5)
      ((op_t *) dstp)[7] = a0;
  1022b6:	01c68793          	addi	a5,a3,28
      a1 = ((op_t *) srcp)[7];
  1022ba:	01c72803          	lw	a6,28(a4)
      len -= 8;
  1022be:	1661                	addi	a2,a2,-8
      ((op_t *) dstp)[7] = a0;
  1022c0:	c38c                	sw	a1,0(a5)
      dstp += 8 * OPSIZ;
  1022c2:	02068693          	addi	a3,a3,32
    }
  while (len != 0);
  1022c6:	f645                	bnez	a2,10226e <_wordcopy_fwd_aligned+0x28>

  /* This is the right position for do0.  Please don't move
     it into the loop.  */
 do0:
  ((op_t *) dstp)[0] = a1;
  1022c8:	0106a023          	sw	a6,0(a3)
}
  1022cc:	8082                	ret
      srcp -=-1 * OPSIZ;
  1022ce:	00458713          	addi	a4,a1,4
      len -= 1;
  1022d2:	167d                	addi	a2,a2,-1
      goto do8;			/* No-op.  */
  1022d4:	86aa                	mv	a3,a0
  1022d6:	bf79                	j	102274 <_wordcopy_fwd_aligned+0x2e>
      srcp -= 6 * OPSIZ;
  1022d8:	fe858713          	addi	a4,a1,-24
      dstp -= 7 * OPSIZ;
  1022dc:	fe450693          	addi	a3,a0,-28
      len += 6;
  1022e0:	0619                	addi	a2,a2,6
      a0 = ((op_t *) srcp)[0];
  1022e2:	85c2                	mv	a1,a6
      goto do1;
  1022e4:	bfd9                	j	1022ba <_wordcopy_fwd_aligned+0x74>
      dstp -= 6 * OPSIZ;
  1022e6:	fe850693          	addi	a3,a0,-24
      srcp -= 5 * OPSIZ;
  1022ea:	fec58713          	addi	a4,a1,-20
      len += 5;
  1022ee:	0615                	addi	a2,a2,5
      a1 = ((op_t *) srcp)[0];
  1022f0:	8542                	mv	a0,a6
      goto do2;
  1022f2:	b7c1                	j	1022b2 <_wordcopy_fwd_aligned+0x6c>
      srcp -= 4 * OPSIZ;
  1022f4:	ff058713          	addi	a4,a1,-16
      dstp -= 5 * OPSIZ;
  1022f8:	fec50693          	addi	a3,a0,-20
      len += 4;
  1022fc:	0611                	addi	a2,a2,4
      goto do3;
  1022fe:	b76d                	j	1022a8 <_wordcopy_fwd_aligned+0x62>
      srcp -= 3 * OPSIZ;
  102300:	ff458713          	addi	a4,a1,-12
      dstp -= 4 * OPSIZ;
  102304:	ff050693          	addi	a3,a0,-16
      len += 3;
  102308:	060d                	addi	a2,a2,3
      a1 = ((op_t *) srcp)[0];
  10230a:	85c2                	mv	a1,a6
      goto do4;
  10230c:	bf49                	j	10229e <_wordcopy_fwd_aligned+0x58>
      srcp -= 2 * OPSIZ;
  10230e:	ff858713          	addi	a4,a1,-8
      dstp -= 3 * OPSIZ;
  102312:	ff450693          	addi	a3,a0,-12
      len += 2;
  102316:	0609                	addi	a2,a2,2
      goto do5;
  102318:	bfb5                	j	102294 <_wordcopy_fwd_aligned+0x4e>
      dstp -= 1 * OPSIZ;
  10231a:	ffc50693          	addi	a3,a0,-4
      a0 = ((op_t *) srcp)[0];
  10231e:	85c2                	mv	a1,a6
      goto do7;
  102320:	bfb9                	j	10227e <_wordcopy_fwd_aligned+0x38>

00102322 <_wordcopy_fwd_dest_aligned>:
  sh_1 = 8 * (srcp % OPSIZ);
  sh_2 = 8 * OPSIZ - sh_1;

  /* Make SRCP aligned by rounding it down to the beginning of the `op_t'
     it points in the middle of.  */
  srcp &= -OPSIZ;
  102322:	ffc5f893          	andi	a7,a1,-4

  switch (len % 4)
    {
    case 2:
      a1 = ((op_t *) srcp)[0];
      a2 = ((op_t *) srcp)[1];
  102326:	0048a703          	lw	a4,4(a7)

  do
    {
    do4:
      a0 = ((op_t *) srcp)[0];
      ((op_t *) dstp)[0] = MERGE (a2, sh_1, a3, sh_2);
  10232a:	0008a783          	lw	a5,0(a7)
  sh_1 = 8 * (srcp % OPSIZ);
  10232e:	898d                	andi	a1,a1,3
  102330:	058e                	slli	a1,a1,0x3
  sh_2 = 8 * OPSIZ - sh_1;
  102332:	02000693          	li	a3,32
  102336:	8e8d                	sub	a3,a3,a1
      ((op_t *) dstp)[0] = MERGE (a2, sh_1, a3, sh_2);
  102338:	00b7d7b3          	srl	a5,a5,a1
  10233c:	00d71f33          	sll	t5,a4,a3
  switch (len % 4)
  102340:	00367e13          	andi	t3,a2,3
  102344:	4e89                	li	t4,2
      a2 = ((op_t *) srcp)[1];
  102346:	00488313          	addi	t1,a7,4
      dstp -= 3 * OPSIZ;
  10234a:	882a                	mv	a6,a0
      ((op_t *) dstp)[0] = MERGE (a2, sh_1, a3, sh_2);
  10234c:	01e7e7b3          	or	a5,a5,t5
  switch (len % 4)
  102350:	09de0a63          	beq	t3,t4,1023e4 <_wordcopy_fwd_dest_aligned+0xc2>
  102354:	4e8d                	li	t4,3
  102356:	09de0263          	beq	t3,t4,1023da <_wordcopy_fwd_dest_aligned+0xb8>
  10235a:	4e85                	li	t4,1
  10235c:	07de0a63          	beq	t3,t4,1023d0 <_wordcopy_fwd_dest_aligned+0xae>
      dstp -= 1 * OPSIZ;
  102360:	ffc50e13          	addi	t3,a0,-4
      a0 = ((op_t *) srcp)[1];
  102364:	88ba                	mv	a7,a4
    do3:
      a1 = ((op_t *) srcp)[1];
  102366:	00432703          	lw	a4,4(t1)
      ((op_t *) dstp)[1] = MERGE (a3, sh_1, a0, sh_2);
    do2:
      a2 = ((op_t *) srcp)[2];
      ((op_t *) dstp)[2] = MERGE (a0, sh_1, a1, sh_2);
  10236a:	00b8d8b3          	srl	a7,a7,a1
      ((op_t *) dstp)[1] = MERGE (a3, sh_1, a0, sh_2);
  10236e:	00f82023          	sw	a5,0(a6)
      ((op_t *) dstp)[2] = MERGE (a0, sh_1, a1, sh_2);
  102372:	00d717b3          	sll	a5,a4,a3
  102376:	008e0813          	addi	a6,t3,8
  10237a:	00f8e7b3          	or	a5,a7,a5
      a2 = ((op_t *) srcp)[2];
  10237e:	00832503          	lw	a0,8(t1)
      ((op_t *) dstp)[2] = MERGE (a0, sh_1, a1, sh_2);
  102382:	00f82023          	sw	a5,0(a6)
    do1:
      a3 = ((op_t *) srcp)[3];
  102386:	00c32883          	lw	a7,12(t1)
      ((op_t *) dstp)[3] = MERGE (a1, sh_1, a2, sh_2);
  10238a:	00b75733          	srl	a4,a4,a1
  10238e:	00d517b3          	sll	a5,a0,a3
  102392:	8fd9                	or	a5,a5,a4
      a2 = ((op_t *) srcp)[2];
  102394:	872a                	mv	a4,a0
  while (len != 0);

  /* This is the right position for do0.  Please don't move
     it into the loop.  */
 do0:
  ((op_t *) dstp)[0] = MERGE (a2, sh_1, a3, sh_2);
  102396:	00b75733          	srl	a4,a4,a1
      ((op_t *) dstp)[3] = MERGE (a1, sh_1, a2, sh_2);
  10239a:	00fe2623          	sw	a5,12(t3)
      len -= 4;
  10239e:	1671                	addi	a2,a2,-4
  ((op_t *) dstp)[0] = MERGE (a2, sh_1, a3, sh_2);
  1023a0:	00d897b3          	sll	a5,a7,a3
      ((op_t *) dstp)[3] = MERGE (a1, sh_1, a2, sh_2);
  1023a4:	00ce0813          	addi	a6,t3,12
  ((op_t *) dstp)[0] = MERGE (a2, sh_1, a3, sh_2);
  1023a8:	8fd9                	or	a5,a5,a4
      dstp += 4 * OPSIZ;
  1023aa:	0e41                	addi	t3,t3,16
  while (len != 0);
  1023ac:	ce19                	beqz	a2,1023ca <_wordcopy_fwd_dest_aligned+0xa8>
      srcp += 4 * OPSIZ;
  1023ae:	0341                	addi	t1,t1,16
      dstp += 4 * OPSIZ;
  1023b0:	8572                	mv	a0,t3
      a3 = ((op_t *) srcp)[3];
  1023b2:	8746                	mv	a4,a7
      a0 = ((op_t *) srcp)[0];
  1023b4:	00032883          	lw	a7,0(t1)
      ((op_t *) dstp)[1] = MERGE (a3, sh_1, a0, sh_2);
  1023b8:	00b75733          	srl	a4,a4,a1
      ((op_t *) dstp)[0] = MERGE (a2, sh_1, a3, sh_2);
  1023bc:	c11c                	sw	a5,0(a0)
      ((op_t *) dstp)[1] = MERGE (a3, sh_1, a0, sh_2);
  1023be:	00d897b3          	sll	a5,a7,a3
  1023c2:	004e0813          	addi	a6,t3,4
  1023c6:	8fd9                	or	a5,a5,a4
  1023c8:	bf79                	j	102366 <_wordcopy_fwd_dest_aligned+0x44>
  ((op_t *) dstp)[0] = MERGE (a2, sh_1, a3, sh_2);
  1023ca:	00fe2023          	sw	a5,0(t3)
}
  1023ce:	8082                	ret
      srcp -=-2 * OPSIZ;
  1023d0:	00888313          	addi	t1,a7,8
      len -= 1;
  1023d4:	167d                	addi	a2,a2,-1
      goto do4;			/* No-op.  */
  1023d6:	8e2a                	mv	t3,a0
  1023d8:	bff1                	j	1023b4 <_wordcopy_fwd_dest_aligned+0x92>
      dstp -= 2 * OPSIZ;
  1023da:	ff850e13          	addi	t3,a0,-8
      len += 1;
  1023de:	0605                	addi	a2,a2,1
      goto do2;
  1023e0:	8346                	mv	t1,a7
  1023e2:	bf71                	j	10237e <_wordcopy_fwd_dest_aligned+0x5c>
      srcp -= 1 * OPSIZ;
  1023e4:	ffc88313          	addi	t1,a7,-4
      a3 = ((op_t *) srcp)[3];
  1023e8:	00c32883          	lw	a7,12(t1)
      len += 2;
  1023ec:	0609                	addi	a2,a2,2
      dstp -= 3 * OPSIZ;
  1023ee:	ff450e13          	addi	t3,a0,-12
  ((op_t *) dstp)[0] = MERGE (a2, sh_1, a3, sh_2);
  1023f2:	00b75733          	srl	a4,a4,a1
      ((op_t *) dstp)[3] = MERGE (a1, sh_1, a2, sh_2);
  1023f6:	00f82023          	sw	a5,0(a6)
      len -= 4;
  1023fa:	1671                	addi	a2,a2,-4
  ((op_t *) dstp)[0] = MERGE (a2, sh_1, a3, sh_2);
  1023fc:	00d897b3          	sll	a5,a7,a3
      dstp += 4 * OPSIZ;
  102400:	0e41                	addi	t3,t3,16
  ((op_t *) dstp)[0] = MERGE (a2, sh_1, a3, sh_2);
  102402:	8fd9                	or	a5,a5,a4
  while (len != 0);
  102404:	d279                	beqz	a2,1023ca <_wordcopy_fwd_dest_aligned+0xa8>
  102406:	b765                	j	1023ae <_wordcopy_fwd_dest_aligned+0x8c>

00102408 <_wordcopy_bwd_aligned>:
void
WORDCOPY_BWD_ALIGNED (long int dstp, long int srcp, size_t len)
{
  op_t a0, a1;

  switch (len % 8)
  102408:	00767793          	andi	a5,a2,7
  10240c:	00102737          	lui	a4,0x102
  102410:	7c870713          	addi	a4,a4,1992 # 1027c8 <Rcon+0x2c>
  102414:	078a                	slli	a5,a5,0x2
  102416:	97ba                	add	a5,a5,a4
  102418:	4398                	lw	a4,0(a5)
    {
    case 2:
      srcp -= 2 * OPSIZ;
      dstp -= 1 * OPSIZ;
      a0 = ((op_t *) srcp)[1];
  10241a:	ffc5a783          	lw	a5,-4(a1)
  switch (len % 8)
  10241e:	8702                	jr	a4
      dstp -= 5 * OPSIZ;
      a0 = ((op_t *) srcp)[5];
      len += 2;
      goto do5;
    case 7:
      srcp -= 7 * OPSIZ;
  102420:	1591                	addi	a1,a1,-28
      dstp -= 6 * OPSIZ;
  102422:	1521                	addi	a0,a0,-24
      a1 = ((op_t *) srcp)[6];
      len += 1;
  102424:	0605                	addi	a2,a2,1
      goto do6;
  102426:	a039                	j	102434 <_wordcopy_bwd_aligned+0x2c>
      ((op_t *) dstp)[1] = a1;
    do1:
      a1 = ((op_t *) srcp)[0];
      ((op_t *) dstp)[0] = a0;

      srcp -= 8 * OPSIZ;
  102428:	1581                	addi	a1,a1,-32
      dstp -= 8 * OPSIZ;
  10242a:	1501                	addi	a0,a0,-32
      a0 = ((op_t *) srcp)[7];
  10242c:	4dd8                	lw	a4,28(a1)
      ((op_t *) dstp)[7] = a1;
  10242e:	cd5c                	sw	a5,28(a0)
      a1 = ((op_t *) srcp)[6];
  102430:	4d9c                	lw	a5,24(a1)
      ((op_t *) dstp)[6] = a0;
  102432:	cd18                	sw	a4,24(a0)
      a0 = ((op_t *) srcp)[5];
  102434:	49d8                	lw	a4,20(a1)
      ((op_t *) dstp)[5] = a1;
  102436:	c95c                	sw	a5,20(a0)
      a0 = ((op_t *) srcp)[5];
  102438:	87ba                	mv	a5,a4
      a1 = ((op_t *) srcp)[4];
  10243a:	4998                	lw	a4,16(a1)
      ((op_t *) dstp)[4] = a0;
  10243c:	c91c                	sw	a5,16(a0)
      a0 = ((op_t *) srcp)[3];
  10243e:	45dc                	lw	a5,12(a1)
      ((op_t *) dstp)[3] = a1;
  102440:	c558                	sw	a4,12(a0)
      a1 = ((op_t *) srcp)[2];
  102442:	4594                	lw	a3,8(a1)
      ((op_t *) dstp)[2] = a0;
  102444:	c51c                	sw	a5,8(a0)
      a0 = ((op_t *) srcp)[1];
  102446:	41d8                	lw	a4,4(a1)
      ((op_t *) dstp)[1] = a1;
  102448:	c154                	sw	a3,4(a0)
      a1 = ((op_t *) srcp)[0];
  10244a:	419c                	lw	a5,0(a1)
      len -= 8;
  10244c:	1661                	addi	a2,a2,-8
      ((op_t *) dstp)[0] = a0;
  10244e:	c118                	sw	a4,0(a0)
    }
  while (len != 0);
  102450:	fe61                	bnez	a2,102428 <_wordcopy_bwd_aligned+0x20>

  /* This is the right position for do0.  Please don't move
     it into the loop.  */
 do0:
  ((op_t *) dstp)[7] = a1;
  102452:	fef52e23          	sw	a5,-4(a0)
}
  102456:	8082                	ret
      srcp -= 9 * OPSIZ;
  102458:	fdc58593          	addi	a1,a1,-36
      dstp -= 8 * OPSIZ;
  10245c:	1501                	addi	a0,a0,-32
      len -= 1;
  10245e:	167d                	addi	a2,a2,-1
      goto do8;			/* No-op.  */
  102460:	b7f1                	j	10242c <_wordcopy_bwd_aligned+0x24>
      srcp -= 2 * OPSIZ;
  102462:	15e1                	addi	a1,a1,-8
      dstp -= 1 * OPSIZ;
  102464:	1571                	addi	a0,a0,-4
      len += 6;
  102466:	0619                	addi	a2,a2,6
      a0 = ((op_t *) srcp)[1];
  102468:	873e                	mv	a4,a5
      goto do1;
  10246a:	b7c5                	j	10244a <_wordcopy_bwd_aligned+0x42>
      srcp -= 3 * OPSIZ;
  10246c:	15d1                	addi	a1,a1,-12
      dstp -= 2 * OPSIZ;
  10246e:	1561                	addi	a0,a0,-8
      len += 5;
  102470:	0615                	addi	a2,a2,5
      a1 = ((op_t *) srcp)[2];
  102472:	86be                	mv	a3,a5
      goto do2;
  102474:	bfc9                	j	102446 <_wordcopy_bwd_aligned+0x3e>
      srcp -= 4 * OPSIZ;
  102476:	15c1                	addi	a1,a1,-16
      dstp -= 3 * OPSIZ;
  102478:	1551                	addi	a0,a0,-12
      len += 4;
  10247a:	0611                	addi	a2,a2,4
      goto do3;
  10247c:	b7d9                	j	102442 <_wordcopy_bwd_aligned+0x3a>
      srcp -= 5 * OPSIZ;
  10247e:	15b1                	addi	a1,a1,-20
      dstp -= 4 * OPSIZ;
  102480:	1541                	addi	a0,a0,-16
      len += 3;
  102482:	060d                	addi	a2,a2,3
      a1 = ((op_t *) srcp)[4];
  102484:	873e                	mv	a4,a5
      goto do4;
  102486:	bf65                	j	10243e <_wordcopy_bwd_aligned+0x36>
      srcp -= 6 * OPSIZ;
  102488:	15a1                	addi	a1,a1,-24
      dstp -= 5 * OPSIZ;
  10248a:	1531                	addi	a0,a0,-20
      len += 2;
  10248c:	0609                	addi	a2,a2,2
      goto do5;
  10248e:	b775                	j	10243a <_wordcopy_bwd_aligned+0x32>
      srcp -= 8 * OPSIZ;
  102490:	1581                	addi	a1,a1,-32
      dstp -= 7 * OPSIZ;
  102492:	1511                	addi	a0,a0,-28
      a0 = ((op_t *) srcp)[7];
  102494:	873e                	mv	a4,a5
      goto do7;
  102496:	bf69                	j	102430 <_wordcopy_bwd_aligned+0x28>

00102498 <_wordcopy_bwd_dest_aligned>:
  sh_1 = 8 * (srcp % OPSIZ);
  sh_2 = 8 * OPSIZ - sh_1;

  /* Make srcp aligned by rounding it down to the beginning of the op_t
     it points in the middle of.  */
  srcp &= -OPSIZ;
  102498:	ffc5f693          	andi	a3,a1,-4
    {
    case 2:
      srcp -= 3 * OPSIZ;
      dstp -= 1 * OPSIZ;
      a2 = ((op_t *) srcp)[2];
      a1 = ((op_t *) srcp)[1];
  10249c:	ffc6a703          	lw	a4,-4(a3)

  do
    {
    do4:
      a3 = ((op_t *) srcp)[3];
      ((op_t *) dstp)[3] = MERGE (a0, sh_1, a1, sh_2);
  1024a0:	429c                	lw	a5,0(a3)
  sh_1 = 8 * (srcp % OPSIZ);
  1024a2:	898d                	andi	a1,a1,3
  1024a4:	058e                	slli	a1,a1,0x3
  sh_2 = 8 * OPSIZ - sh_1;
  1024a6:	02000813          	li	a6,32
  1024aa:	40b80833          	sub	a6,a6,a1
      ((op_t *) dstp)[3] = MERGE (a0, sh_1, a1, sh_2);
  1024ae:	010797b3          	sll	a5,a5,a6
  1024b2:	00b75e33          	srl	t3,a4,a1
  switch (len % 4)
  1024b6:	00367893          	andi	a7,a2,3
  1024ba:	4309                	li	t1,2
      ((op_t *) dstp)[3] = MERGE (a0, sh_1, a1, sh_2);
  1024bc:	01c7e7b3          	or	a5,a5,t3
  switch (len % 4)
  1024c0:	06688d63          	beq	a7,t1,10253a <_wordcopy_bwd_dest_aligned+0xa2>
  1024c4:	430d                	li	t1,3
  1024c6:	06688663          	beq	a7,t1,102532 <_wordcopy_bwd_dest_aligned+0x9a>
  1024ca:	4305                	li	t1,1
  1024cc:	04688f63          	beq	a7,t1,10252a <_wordcopy_bwd_dest_aligned+0x92>
      srcp -= 5 * OPSIZ;
  1024d0:	16c1                	addi	a3,a3,-16
      dstp -= 3 * OPSIZ;
  1024d2:	1551                	addi	a0,a0,-12
      a3 = ((op_t *) srcp)[3];
  1024d4:	88ba                	mv	a7,a4
    do3:
      a2 = ((op_t *) srcp)[2];
  1024d6:	4698                	lw	a4,8(a3)
      ((op_t *) dstp)[2] = MERGE (a3, sh_1, a0, sh_2);
    do2:
      a1 = ((op_t *) srcp)[1];
      ((op_t *) dstp)[1] = MERGE (a2, sh_1, a3, sh_2);
  1024d8:	010898b3          	sll	a7,a7,a6
      ((op_t *) dstp)[2] = MERGE (a3, sh_1, a0, sh_2);
  1024dc:	c51c                	sw	a5,8(a0)
      ((op_t *) dstp)[1] = MERGE (a2, sh_1, a3, sh_2);
  1024de:	00b757b3          	srl	a5,a4,a1
  1024e2:	0117e7b3          	or	a5,a5,a7
      a1 = ((op_t *) srcp)[1];
  1024e6:	0046a883          	lw	a7,4(a3)
    do1:
      a0 = ((op_t *) srcp)[0];
      ((op_t *) dstp)[0] = MERGE (a1, sh_1, a2, sh_2);
  1024ea:	01071733          	sll	a4,a4,a6
      ((op_t *) dstp)[1] = MERGE (a2, sh_1, a3, sh_2);
  1024ee:	c15c                	sw	a5,4(a0)
      ((op_t *) dstp)[0] = MERGE (a1, sh_1, a2, sh_2);
  1024f0:	00b8d7b3          	srl	a5,a7,a1
  1024f4:	8fd9                	or	a5,a5,a4
      a1 = ((op_t *) srcp)[1];
  1024f6:	8746                	mv	a4,a7
      a0 = ((op_t *) srcp)[0];
  1024f8:	0006a883          	lw	a7,0(a3)
  while (len != 0);

  /* This is the right position for do0.  Please don't move
     it into the loop.  */
 do0:
  ((op_t *) dstp)[3] = MERGE (a0, sh_1, a1, sh_2);
  1024fc:	01071733          	sll	a4,a4,a6
      ((op_t *) dstp)[0] = MERGE (a1, sh_1, a2, sh_2);
  102500:	c11c                	sw	a5,0(a0)
      len -= 4;
  102502:	1671                	addi	a2,a2,-4
  ((op_t *) dstp)[3] = MERGE (a0, sh_1, a1, sh_2);
  102504:	00b8d7b3          	srl	a5,a7,a1
  102508:	8fd9                	or	a5,a5,a4
  while (len != 0);
  10250a:	ce09                	beqz	a2,102524 <_wordcopy_bwd_dest_aligned+0x8c>
      srcp -= 4 * OPSIZ;
  10250c:	16c1                	addi	a3,a3,-16
      dstp -= 4 * OPSIZ;
  10250e:	1541                	addi	a0,a0,-16
      a0 = ((op_t *) srcp)[0];
  102510:	8746                	mv	a4,a7
      a3 = ((op_t *) srcp)[3];
  102512:	00c6a883          	lw	a7,12(a3)
      ((op_t *) dstp)[2] = MERGE (a3, sh_1, a0, sh_2);
  102516:	01071733          	sll	a4,a4,a6
      ((op_t *) dstp)[3] = MERGE (a0, sh_1, a1, sh_2);
  10251a:	c55c                	sw	a5,12(a0)
      ((op_t *) dstp)[2] = MERGE (a3, sh_1, a0, sh_2);
  10251c:	00b8d7b3          	srl	a5,a7,a1
  102520:	8fd9                	or	a5,a5,a4
  102522:	bf55                	j	1024d6 <_wordcopy_bwd_dest_aligned+0x3e>
  ((op_t *) dstp)[3] = MERGE (a0, sh_1, a1, sh_2);
  102524:	fef52e23          	sw	a5,-4(a0)
}
  102528:	8082                	ret
      srcp -= 6 * OPSIZ;
  10252a:	16b1                	addi	a3,a3,-20
      dstp -= 4 * OPSIZ;
  10252c:	1541                	addi	a0,a0,-16
      len -= 1;
  10252e:	167d                	addi	a2,a2,-1
      goto do4;			/* No-op.  */
  102530:	b7cd                	j	102512 <_wordcopy_bwd_dest_aligned+0x7a>
      srcp -= 4 * OPSIZ;
  102532:	16d1                	addi	a3,a3,-12
      dstp -= 2 * OPSIZ;
  102534:	1561                	addi	a0,a0,-8
      len += 1;
  102536:	0605                	addi	a2,a2,1
      goto do2;
  102538:	b77d                	j	1024e6 <_wordcopy_bwd_dest_aligned+0x4e>
      a0 = ((op_t *) srcp)[0];
  10253a:	ff86a883          	lw	a7,-8(a3)
      len += 2;
  10253e:	0609                	addi	a2,a2,2
  ((op_t *) dstp)[3] = MERGE (a0, sh_1, a1, sh_2);
  102540:	01071733          	sll	a4,a4,a6
      ((op_t *) dstp)[0] = MERGE (a1, sh_1, a2, sh_2);
  102544:	fef52e23          	sw	a5,-4(a0)
      len -= 4;
  102548:	1671                	addi	a2,a2,-4
  ((op_t *) dstp)[3] = MERGE (a0, sh_1, a1, sh_2);
  10254a:	00b8d7b3          	srl	a5,a7,a1
      srcp -= 3 * OPSIZ;
  10254e:	16e1                	addi	a3,a3,-8
      dstp -= 1 * OPSIZ;
  102550:	1571                	addi	a0,a0,-4
  ((op_t *) dstp)[3] = MERGE (a0, sh_1, a1, sh_2);
  102552:	8fd9                	or	a5,a5,a4
  while (len != 0);
  102554:	da61                	beqz	a2,102524 <_wordcopy_bwd_dest_aligned+0x8c>
  102556:	bf5d                	j	10250c <_wordcopy_bwd_dest_aligned+0x74>
