
main.elf:     file format elf32-littleriscv
architecture: riscv:rv32, flags 0x00000112:
EXEC_P, HAS_SYMS, D_PAGED
start address 0x00100084

Sections:
Idx Name          Size      VMA       LMA       File off  Algn
  0 .vectors      00000084  00100000  00100000  00001000  2**0
                  CONTENTS, ALLOC, LOAD, READONLY, CODE
  1 .text         000024d4  00100084  00100084  00001084  2**2
                  CONTENTS, ALLOC, LOAD, READONLY, CODE
  2 .rodata       00000290  00102558  00102558  00003558  2**2
                  CONTENTS, ALLOC, LOAD, READONLY, DATA
  3 .data         00000020  001027e8  001027e8  000037e8  2**2
                  CONTENTS, ALLOC, LOAD, DATA
  4 .bss          00000000  00102808  00102808  00003808  2**0
                  ALLOC
  5 .sbss         00000010  00102808  00102808  00003808  2**3
                  ALLOC
  6 .stack        00002000  001f8000  001f8000  00004000  2**0
                  ALLOC
  7 .debug_info   000011b6  00000000  00000000  00003808  2**0
                  CONTENTS, READONLY, DEBUGGING, OCTETS
  8 .debug_abbrev 000006e7  00000000  00000000  000049be  2**0
                  CONTENTS, READONLY, DEBUGGING, OCTETS
  9 .debug_aranges 000000c8  00000000  00000000  000050a8  2**3
                  CONTENTS, READONLY, DEBUGGING, OCTETS
 10 .debug_line   000027c4  00000000  00000000  00005170  2**0
                  CONTENTS, READONLY, DEBUGGING, OCTETS
 11 .debug_str    000006f9  00000000  00000000  00007934  2**0
                  CONTENTS, READONLY, DEBUGGING, OCTETS
 12 .comment      00000012  00000000  00000000  0000802d  2**0
                  CONTENTS, READONLY
 13 .debug_frame  000004d0  00000000  00000000  00008040  2**2
                  CONTENTS, READONLY, DEBUGGING, OCTETS
 14 .debug_ranges 00000070  00000000  00000000  00008510  2**3
                  CONTENTS, READONLY, DEBUGGING, OCTETS
 15 .debug_loc    00000a4b  00000000  00000000  00008580  2**0
                  CONTENTS, READONLY, DEBUGGING, OCTETS

Disassembly of section .vectors:

00100000 <_stack_start-0x100000>:

  // All unimplemented interrupts/exceptions go to the default_exc_handler.
  .org 0x00
  .rept 7
  jal x0, default_exc_handler
  .endr
  100000:	0e80206f          	j	1020e8 <default_exc_handler>
  100004:	0e40206f          	j	1020e8 <default_exc_handler>
  100008:	0e00206f          	j	1020e8 <default_exc_handler>
  10000c:	0dc0206f          	j	1020e8 <default_exc_handler>
  100010:	0d80206f          	j	1020e8 <default_exc_handler>
  100014:	0d40206f          	j	1020e8 <default_exc_handler>
  100018:	0d00206f          	j	1020e8 <default_exc_handler>
  jal x0, timer_handler
  10001c:	0d00206f          	j	1020ec <timer_handler>
  .rept 23
  jal x0, default_exc_handler
  .endr
  100020:	0c80206f          	j	1020e8 <default_exc_handler>
  100024:	0c40206f          	j	1020e8 <default_exc_handler>
  100028:	0c00206f          	j	1020e8 <default_exc_handler>
  10002c:	0bc0206f          	j	1020e8 <default_exc_handler>
  100030:	0b80206f          	j	1020e8 <default_exc_handler>
  100034:	0b40206f          	j	1020e8 <default_exc_handler>
  100038:	0b00206f          	j	1020e8 <default_exc_handler>
  10003c:	0ac0206f          	j	1020e8 <default_exc_handler>
  100040:	0a80206f          	j	1020e8 <default_exc_handler>
  100044:	0a40206f          	j	1020e8 <default_exc_handler>
  100048:	0a00206f          	j	1020e8 <default_exc_handler>
  10004c:	09c0206f          	j	1020e8 <default_exc_handler>
  100050:	0980206f          	j	1020e8 <default_exc_handler>
  100054:	0940206f          	j	1020e8 <default_exc_handler>
  100058:	0900206f          	j	1020e8 <default_exc_handler>
  10005c:	08c0206f          	j	1020e8 <default_exc_handler>
  100060:	0880206f          	j	1020e8 <default_exc_handler>
  100064:	0840206f          	j	1020e8 <default_exc_handler>
  100068:	0800206f          	j	1020e8 <default_exc_handler>
  10006c:	07c0206f          	j	1020e8 <default_exc_handler>
  100070:	0780206f          	j	1020e8 <default_exc_handler>
  100074:	0740206f          	j	1020e8 <default_exc_handler>
  100078:	0700206f          	j	1020e8 <default_exc_handler>
  10007c:	0000                	unimp
  10007e:	0000                	unimp

  // reset vector
  .org 0x80
  jal x0, reset_handler
  100080:	0700206f          	j	1020f0 <reset_handler>

Disassembly of section .text:

00100084 <putchar>:
// Licensed under the Apache License, Version 2.0, see LICENSE for details.
// SPDX-License-Identifier: Apache-2.0

#include "simple_system_common.h"

int putchar(int c) {
  100084:	ff010113          	addi	sp,sp,-16
  100088:	00a12623          	sw	a0,12(sp)
  DEV_WRITE(SIM_CTRL_BASE + SIM_CTRL_OUT, (unsigned char)c);
  10008c:	00c12783          	lw	a5,12(sp)
  100090:	0ff7f713          	andi	a4,a5,255
  100094:	000207b7          	lui	a5,0x20
  100098:	00e7a023          	sw	a4,0(a5) # 20000 <_stack_len+0x18000>

  return c;
  10009c:	00c12783          	lw	a5,12(sp)
}
  1000a0:	00078513          	mv	a0,a5
  1000a4:	01010113          	addi	sp,sp,16
  1000a8:	00008067          	ret

001000ac <puts>:

int puts(const char *str) {
  1000ac:	fe010113          	addi	sp,sp,-32
  1000b0:	00112e23          	sw	ra,28(sp)
  1000b4:	00a12623          	sw	a0,12(sp)
  while (*str) {
  1000b8:	01c0006f          	j	1000d4 <puts+0x28>
    putchar(*str++);
  1000bc:	00c12783          	lw	a5,12(sp)
  1000c0:	00178713          	addi	a4,a5,1
  1000c4:	00e12623          	sw	a4,12(sp)
  1000c8:	0007c783          	lbu	a5,0(a5)
  1000cc:	00078513          	mv	a0,a5
  1000d0:	fb5ff0ef          	jal	ra,100084 <putchar>
  while (*str) {
  1000d4:	00c12783          	lw	a5,12(sp)
  1000d8:	0007c783          	lbu	a5,0(a5)
  1000dc:	fe0790e3          	bnez	a5,1000bc <puts+0x10>
  }

  return 0;
  1000e0:	00000793          	li	a5,0
}
  1000e4:	00078513          	mv	a0,a5
  1000e8:	01c12083          	lw	ra,28(sp)
  1000ec:	02010113          	addi	sp,sp,32
  1000f0:	00008067          	ret

001000f4 <puthex>:

void puthex(uint32_t h) {
  1000f4:	fd010113          	addi	sp,sp,-48
  1000f8:	02112623          	sw	ra,44(sp)
  1000fc:	00a12623          	sw	a0,12(sp)
  int cur_digit;
  // Iterate through h taking top 4 bits each time and outputting ASCII of hex
  // digit for those 4 bits
  for (int i = 0; i < 8; i++) {
  100100:	00012e23          	sw	zero,28(sp)
  100104:	0580006f          	j	10015c <puthex+0x68>
    cur_digit = h >> 28;
  100108:	00c12783          	lw	a5,12(sp)
  10010c:	01c7d793          	srli	a5,a5,0x1c
  100110:	00f12c23          	sw	a5,24(sp)

    if (cur_digit < 10)
  100114:	01812703          	lw	a4,24(sp)
  100118:	00900793          	li	a5,9
  10011c:	00e7cc63          	blt	a5,a4,100134 <puthex+0x40>
      putchar('0' + cur_digit);
  100120:	01812783          	lw	a5,24(sp)
  100124:	03078793          	addi	a5,a5,48
  100128:	00078513          	mv	a0,a5
  10012c:	f59ff0ef          	jal	ra,100084 <putchar>
  100130:	0140006f          	j	100144 <puthex+0x50>
    else
      putchar('A' - 10 + cur_digit);
  100134:	01812783          	lw	a5,24(sp)
  100138:	03778793          	addi	a5,a5,55
  10013c:	00078513          	mv	a0,a5
  100140:	f45ff0ef          	jal	ra,100084 <putchar>

    h <<= 4;
  100144:	00c12783          	lw	a5,12(sp)
  100148:	00479793          	slli	a5,a5,0x4
  10014c:	00f12623          	sw	a5,12(sp)
  for (int i = 0; i < 8; i++) {
  100150:	01c12783          	lw	a5,28(sp)
  100154:	00178793          	addi	a5,a5,1
  100158:	00f12e23          	sw	a5,28(sp)
  10015c:	01c12703          	lw	a4,28(sp)
  100160:	00700793          	li	a5,7
  100164:	fae7d2e3          	bge	a5,a4,100108 <puthex+0x14>
  }
}
  100168:	00000013          	nop
  10016c:	00000013          	nop
  100170:	02c12083          	lw	ra,44(sp)
  100174:	03010113          	addi	sp,sp,48
  100178:	00008067          	ret

0010017c <sim_halt>:

void sim_halt() { DEV_WRITE(SIM_CTRL_BASE + SIM_CTRL_CTRL, 1); }
  10017c:	000207b7          	lui	a5,0x20
  100180:	00478793          	addi	a5,a5,4 # 20004 <_stack_len+0x18004>
  100184:	00100713          	li	a4,1
  100188:	00e7a023          	sw	a4,0(a5)
  10018c:	00000013          	nop
  100190:	00008067          	ret

00100194 <pcount_reset>:

void pcount_reset() {
  asm volatile(
  100194:	b0201073          	csrw	minstret,zero
  100198:	b0001073          	csrw	mcycle,zero
  10019c:	b0301073          	csrw	mhpmcounter3,zero
  1001a0:	b0401073          	csrw	mhpmcounter4,zero
  1001a4:	b0501073          	csrw	mhpmcounter5,zero
  1001a8:	b0601073          	csrw	mhpmcounter6,zero
  1001ac:	b0701073          	csrw	mhpmcounter7,zero
  1001b0:	b0801073          	csrw	mhpmcounter8,zero
  1001b4:	b0901073          	csrw	mhpmcounter9,zero
  1001b8:	b0a01073          	csrw	mhpmcounter10,zero
  1001bc:	b0b01073          	csrw	mhpmcounter11,zero
  1001c0:	b0c01073          	csrw	mhpmcounter12,zero
  1001c4:	b0d01073          	csrw	mhpmcounter13,zero
  1001c8:	b0e01073          	csrw	mhpmcounter14,zero
  1001cc:	b0f01073          	csrw	mhpmcounter15,zero
  1001d0:	b1001073          	csrw	mhpmcounter16,zero
  1001d4:	b1101073          	csrw	mhpmcounter17,zero
  1001d8:	b1201073          	csrw	mhpmcounter18,zero
  1001dc:	b1301073          	csrw	mhpmcounter19,zero
  1001e0:	b1401073          	csrw	mhpmcounter20,zero
  1001e4:	b1501073          	csrw	mhpmcounter21,zero
  1001e8:	b1601073          	csrw	mhpmcounter22,zero
  1001ec:	b1701073          	csrw	mhpmcounter23,zero
  1001f0:	b1801073          	csrw	mhpmcounter24,zero
  1001f4:	b1901073          	csrw	mhpmcounter25,zero
  1001f8:	b1a01073          	csrw	mhpmcounter26,zero
  1001fc:	b1b01073          	csrw	mhpmcounter27,zero
  100200:	b1c01073          	csrw	mhpmcounter28,zero
  100204:	b1d01073          	csrw	mhpmcounter29,zero
  100208:	b1e01073          	csrw	mhpmcounter30,zero
  10020c:	b1f01073          	csrw	mhpmcounter31,zero
  100210:	b8201073          	csrw	minstreth,zero
  100214:	b8001073          	csrw	mcycleh,zero
  100218:	b8301073          	csrw	mhpmcounter3h,zero
  10021c:	b8401073          	csrw	mhpmcounter4h,zero
  100220:	b8501073          	csrw	mhpmcounter5h,zero
  100224:	b8601073          	csrw	mhpmcounter6h,zero
  100228:	b8701073          	csrw	mhpmcounter7h,zero
  10022c:	b8801073          	csrw	mhpmcounter8h,zero
  100230:	b8901073          	csrw	mhpmcounter9h,zero
  100234:	b8a01073          	csrw	mhpmcounter10h,zero
  100238:	b8b01073          	csrw	mhpmcounter11h,zero
  10023c:	b8c01073          	csrw	mhpmcounter12h,zero
  100240:	b8d01073          	csrw	mhpmcounter13h,zero
  100244:	b8e01073          	csrw	mhpmcounter14h,zero
  100248:	b8f01073          	csrw	mhpmcounter15h,zero
  10024c:	b9001073          	csrw	mhpmcounter16h,zero
  100250:	b9101073          	csrw	mhpmcounter17h,zero
  100254:	b9201073          	csrw	mhpmcounter18h,zero
  100258:	b9301073          	csrw	mhpmcounter19h,zero
  10025c:	b9401073          	csrw	mhpmcounter20h,zero
  100260:	b9501073          	csrw	mhpmcounter21h,zero
  100264:	b9601073          	csrw	mhpmcounter22h,zero
  100268:	b9701073          	csrw	mhpmcounter23h,zero
  10026c:	b9801073          	csrw	mhpmcounter24h,zero
  100270:	b9901073          	csrw	mhpmcounter25h,zero
  100274:	b9a01073          	csrw	mhpmcounter26h,zero
  100278:	b9b01073          	csrw	mhpmcounter27h,zero
  10027c:	b9c01073          	csrw	mhpmcounter28h,zero
  100280:	b9d01073          	csrw	mhpmcounter29h,zero
  100284:	b9e01073          	csrw	mhpmcounter30h,zero
  100288:	b9f01073          	csrw	mhpmcounter31h,zero
      "csrw mhpmcounter27h, x0\n"
      "csrw mhpmcounter28h, x0\n"
      "csrw mhpmcounter29h, x0\n"
      "csrw mhpmcounter30h, x0\n"
      "csrw mhpmcounter31h, x0\n");
}
  10028c:	00000013          	nop
  100290:	00008067          	ret

00100294 <pcount_enable>:

void pcount_enable(int enable) {
  100294:	fe010113          	addi	sp,sp,-32
  100298:	00a12623          	sw	a0,12(sp)
  // Note cycle is disabled with everything else
  unsigned int inhibit_val = enable ? 0x0 : 0xFFFFFFFF;
  10029c:	00c12783          	lw	a5,12(sp)
  1002a0:	00078663          	beqz	a5,1002ac <pcount_enable+0x18>
  1002a4:	00000793          	li	a5,0
  1002a8:	0080006f          	j	1002b0 <pcount_enable+0x1c>
  1002ac:	fff00793          	li	a5,-1
  1002b0:	00f12e23          	sw	a5,28(sp)
  // then dropped in v1.10, and then re-added in v1.11 with the name
  // `mcountinhibit`. Unfortunately, the version of binutils we use only allows
  // the old name, and LLVM only supports the new name (though this is changed
  // on trunk to support both), so we use the numeric value here for maximum
  // compatibility.
  asm volatile("csrw  0x320, %0\n" : : "r"(inhibit_val));
  1002b4:	01c12783          	lw	a5,28(sp)
  1002b8:	32079073          	csrw	mcountinhibit,a5
}
  1002bc:	00000013          	nop
  1002c0:	02010113          	addi	sp,sp,32
  1002c4:	00008067          	ret

001002c8 <get_mepc>:

unsigned int get_mepc() {
  1002c8:	ff010113          	addi	sp,sp,-16
  uint32_t result;
  __asm__ volatile("csrr %0, mepc;" : "=r"(result));
  1002cc:	341027f3          	csrr	a5,mepc
  1002d0:	00f12623          	sw	a5,12(sp)
  return result;
  1002d4:	00c12783          	lw	a5,12(sp)
}
  1002d8:	00078513          	mv	a0,a5
  1002dc:	01010113          	addi	sp,sp,16
  1002e0:	00008067          	ret

001002e4 <get_mcause>:

unsigned int get_mcause() {
  1002e4:	ff010113          	addi	sp,sp,-16
  uint32_t result;
  __asm__ volatile("csrr %0, mcause;" : "=r"(result));
  1002e8:	342027f3          	csrr	a5,mcause
  1002ec:	00f12623          	sw	a5,12(sp)
  return result;
  1002f0:	00c12783          	lw	a5,12(sp)
}
  1002f4:	00078513          	mv	a0,a5
  1002f8:	01010113          	addi	sp,sp,16
  1002fc:	00008067          	ret

00100300 <get_mtval>:

unsigned int get_mtval() {
  100300:	ff010113          	addi	sp,sp,-16
  uint32_t result;
  __asm__ volatile("csrr %0, mtval;" : "=r"(result));
  100304:	343027f3          	csrr	a5,mtval
  100308:	00f12623          	sw	a5,12(sp)
  return result;
  10030c:	00c12783          	lw	a5,12(sp)
}
  100310:	00078513          	mv	a0,a5
  100314:	01010113          	addi	sp,sp,16
  100318:	00008067          	ret

0010031c <simple_exc_handler>:

void simple_exc_handler(void) {
  10031c:	ff010113          	addi	sp,sp,-16
  100320:	00112623          	sw	ra,12(sp)
  puts("EXCEPTION!!!\n");
  100324:	00002517          	auipc	a0,0x2
  100328:	23450513          	addi	a0,a0,564 # 102558 <_wordcopy_bwd_dest_aligned+0xc0>
  10032c:	d81ff0ef          	jal	ra,1000ac <puts>
  puts("============\n");
  100330:	00002517          	auipc	a0,0x2
  100334:	23850513          	addi	a0,a0,568 # 102568 <_wordcopy_bwd_dest_aligned+0xd0>
  100338:	d75ff0ef          	jal	ra,1000ac <puts>
  puts("MEPC:   0x");
  10033c:	00002517          	auipc	a0,0x2
  100340:	23c50513          	addi	a0,a0,572 # 102578 <_wordcopy_bwd_dest_aligned+0xe0>
  100344:	d69ff0ef          	jal	ra,1000ac <puts>
  puthex(get_mepc());
  100348:	f81ff0ef          	jal	ra,1002c8 <get_mepc>
  10034c:	00050793          	mv	a5,a0
  100350:	00078513          	mv	a0,a5
  100354:	da1ff0ef          	jal	ra,1000f4 <puthex>
  puts("\nMCAUSE: 0x");
  100358:	00002517          	auipc	a0,0x2
  10035c:	22c50513          	addi	a0,a0,556 # 102584 <_wordcopy_bwd_dest_aligned+0xec>
  100360:	d4dff0ef          	jal	ra,1000ac <puts>
  puthex(get_mcause());
  100364:	f81ff0ef          	jal	ra,1002e4 <get_mcause>
  100368:	00050793          	mv	a5,a0
  10036c:	00078513          	mv	a0,a5
  100370:	d85ff0ef          	jal	ra,1000f4 <puthex>
  puts("\nMTVAL:  0x");
  100374:	00002517          	auipc	a0,0x2
  100378:	21c50513          	addi	a0,a0,540 # 102590 <_wordcopy_bwd_dest_aligned+0xf8>
  10037c:	d31ff0ef          	jal	ra,1000ac <puts>
  puthex(get_mtval());
  100380:	f81ff0ef          	jal	ra,100300 <get_mtval>
  100384:	00050793          	mv	a5,a0
  100388:	00078513          	mv	a0,a5
  10038c:	d69ff0ef          	jal	ra,1000f4 <puthex>
  putchar('\n');
  100390:	00a00513          	li	a0,10
  100394:	cf1ff0ef          	jal	ra,100084 <putchar>
  sim_halt();
  100398:	de5ff0ef          	jal	ra,10017c <sim_halt>

  while(1);
  10039c:	0000006f          	j	10039c <simple_exc_handler+0x80>

001003a0 <increment_timecmp>:
}

volatile uint64_t time_elapsed;
uint64_t time_increment;

inline static void increment_timecmp(uint64_t time_base) {
  1003a0:	fd010113          	addi	sp,sp,-48
  1003a4:	02112623          	sw	ra,44(sp)
  1003a8:	00a12423          	sw	a0,8(sp)
  1003ac:	00b12623          	sw	a1,12(sp)
  uint64_t current_time = timer_read();
  1003b0:	0d4000ef          	jal	ra,100484 <timer_read>
  1003b4:	00a12c23          	sw	a0,24(sp)
  1003b8:	00b12e23          	sw	a1,28(sp)
  current_time += time_base;
  1003bc:	01812603          	lw	a2,24(sp)
  1003c0:	01c12683          	lw	a3,28(sp)
  1003c4:	00812503          	lw	a0,8(sp)
  1003c8:	00c12583          	lw	a1,12(sp)
  1003cc:	00a60733          	add	a4,a2,a0
  1003d0:	00070813          	mv	a6,a4
  1003d4:	00c83833          	sltu	a6,a6,a2
  1003d8:	00b687b3          	add	a5,a3,a1
  1003dc:	00f806b3          	add	a3,a6,a5
  1003e0:	00068793          	mv	a5,a3
  1003e4:	00e12c23          	sw	a4,24(sp)
  1003e8:	00f12e23          	sw	a5,28(sp)
  timecmp_update(current_time);
  1003ec:	01812503          	lw	a0,24(sp)
  1003f0:	01c12583          	lw	a1,28(sp)
  1003f4:	10c000ef          	jal	ra,100500 <timecmp_update>
}
  1003f8:	00000013          	nop
  1003fc:	02c12083          	lw	ra,44(sp)
  100400:	03010113          	addi	sp,sp,48
  100404:	00008067          	ret

00100408 <timer_enable>:

void timer_enable(uint64_t time_base) {
  100408:	fe010113          	addi	sp,sp,-32
  10040c:	00112e23          	sw	ra,28(sp)
  100410:	00a12423          	sw	a0,8(sp)
  100414:	00b12623          	sw	a1,12(sp)
  time_elapsed = 0;
  100418:	00002797          	auipc	a5,0x2
  10041c:	3f078793          	addi	a5,a5,1008 # 102808 <time_elapsed>
  100420:	00000693          	li	a3,0
  100424:	00000713          	li	a4,0
  100428:	00d7a023          	sw	a3,0(a5)
  10042c:	00e7a223          	sw	a4,4(a5)
  time_increment = time_base;
  100430:	00002697          	auipc	a3,0x2
  100434:	3e068693          	addi	a3,a3,992 # 102810 <time_increment>
  100438:	00812703          	lw	a4,8(sp)
  10043c:	00c12783          	lw	a5,12(sp)
  100440:	00e6a023          	sw	a4,0(a3)
  100444:	00f6a223          	sw	a5,4(a3)
  // Set timer values
  increment_timecmp(time_base);
  100448:	00812503          	lw	a0,8(sp)
  10044c:	00c12583          	lw	a1,12(sp)
  100450:	f51ff0ef          	jal	ra,1003a0 <increment_timecmp>
  // enable timer interrupt
  asm volatile("csrs  mie, %0\n" : : "r"(0x80));
  100454:	08000793          	li	a5,128
  100458:	3047a073          	csrs	mie,a5
  // enable global interrupt
  asm volatile("csrs  mstatus, %0\n" : : "r"(0x8));
  10045c:	00800793          	li	a5,8
  100460:	3007a073          	csrs	mstatus,a5
}
  100464:	00000013          	nop
  100468:	01c12083          	lw	ra,28(sp)
  10046c:	02010113          	addi	sp,sp,32
  100470:	00008067          	ret

00100474 <timer_disable>:

void timer_disable(void) { asm volatile("csrc  mie, %0\n" : : "r"(0x80)); }
  100474:	08000793          	li	a5,128
  100478:	3047b073          	csrc	mie,a5
  10047c:	00000013          	nop
  100480:	00008067          	ret

00100484 <timer_read>:

uint64_t timer_read(void) {
  100484:	ff010113          	addi	sp,sp,-16
  uint32_t current_timeh;
  uint32_t current_time;
  // check if time overflowed while reading and try again
  do {
    current_timeh = DEV_READ(TIMER_BASE + TIMER_MTIMEH, 0);
  100488:	00030837          	lui	a6,0x30
  10048c:	00480813          	addi	a6,a6,4 # 30004 <_stack_len+0x28004>
  100490:	00082803          	lw	a6,0(a6)
  100494:	01012623          	sw	a6,12(sp)
    current_time = DEV_READ(TIMER_BASE + TIMER_MTIME, 0);
  100498:	00030837          	lui	a6,0x30
  10049c:	00082803          	lw	a6,0(a6) # 30000 <_stack_len+0x28000>
  1004a0:	01012423          	sw	a6,8(sp)
  } while (current_timeh != DEV_READ(TIMER_BASE + TIMER_MTIMEH, 0));
  1004a4:	00030837          	lui	a6,0x30
  1004a8:	00480813          	addi	a6,a6,4 # 30004 <_stack_len+0x28004>
  1004ac:	00082803          	lw	a6,0(a6)
  1004b0:	00c12883          	lw	a7,12(sp)
  1004b4:	fd089ae3          	bne	a7,a6,100488 <timer_read+0x4>
  uint64_t final_time = ((uint64_t)current_timeh << 32) | current_time;
  1004b8:	00c12803          	lw	a6,12(sp)
  1004bc:	00080513          	mv	a0,a6
  1004c0:	00000593          	li	a1,0
  1004c4:	00051793          	slli	a5,a0,0x0
  1004c8:	00000713          	li	a4,0
  1004cc:	00812583          	lw	a1,8(sp)
  1004d0:	00058613          	mv	a2,a1
  1004d4:	00000693          	li	a3,0
  1004d8:	00c765b3          	or	a1,a4,a2
  1004dc:	00b12023          	sw	a1,0(sp)
  1004e0:	00d7e7b3          	or	a5,a5,a3
  1004e4:	00f12223          	sw	a5,4(sp)
  return final_time;
  1004e8:	00012703          	lw	a4,0(sp)
  1004ec:	00412783          	lw	a5,4(sp)
}
  1004f0:	00070513          	mv	a0,a4
  1004f4:	00078593          	mv	a1,a5
  1004f8:	01010113          	addi	sp,sp,16
  1004fc:	00008067          	ret

00100500 <timecmp_update>:

void timecmp_update(uint64_t new_time) {
  100500:	ff010113          	addi	sp,sp,-16
  100504:	00a12423          	sw	a0,8(sp)
  100508:	00b12623          	sw	a1,12(sp)
  DEV_WRITE(TIMER_BASE + TIMER_MTIMECMP, -1);
  10050c:	000306b7          	lui	a3,0x30
  100510:	00868693          	addi	a3,a3,8 # 30008 <_stack_len+0x28008>
  100514:	fff00613          	li	a2,-1
  100518:	00c6a023          	sw	a2,0(a3)
  DEV_WRITE(TIMER_BASE + TIMER_MTIMECMPH, new_time >> 32);
  10051c:	00c12683          	lw	a3,12(sp)
  100520:	0006d713          	srli	a4,a3,0x0
  100524:	00000793          	li	a5,0
  100528:	000306b7          	lui	a3,0x30
  10052c:	00c68693          	addi	a3,a3,12 # 3000c <_stack_len+0x2800c>
  100530:	00070793          	mv	a5,a4
  100534:	00f6a023          	sw	a5,0(a3)
  DEV_WRITE(TIMER_BASE + TIMER_MTIMECMP, new_time);
  100538:	000307b7          	lui	a5,0x30
  10053c:	00878793          	addi	a5,a5,8 # 30008 <_stack_len+0x28008>
  100540:	00812703          	lw	a4,8(sp)
  100544:	00e7a023          	sw	a4,0(a5)
}
  100548:	00000013          	nop
  10054c:	01010113          	addi	sp,sp,16
  100550:	00008067          	ret

00100554 <get_elapsed_time>:

uint64_t get_elapsed_time(void) { return time_elapsed; }
  100554:	00002797          	auipc	a5,0x2
  100558:	2b478793          	addi	a5,a5,692 # 102808 <time_elapsed>
  10055c:	0007a703          	lw	a4,0(a5)
  100560:	0047a783          	lw	a5,4(a5)
  100564:	00070513          	mv	a0,a4
  100568:	00078593          	mv	a1,a5
  10056c:	00008067          	ret

00100570 <simple_timer_handler>:

void simple_timer_handler(void) __attribute__((interrupt));

void simple_timer_handler(void) {
  100570:	fc010113          	addi	sp,sp,-64
  100574:	02112e23          	sw	ra,60(sp)
  100578:	02512c23          	sw	t0,56(sp)
  10057c:	02612a23          	sw	t1,52(sp)
  100580:	02712823          	sw	t2,48(sp)
  100584:	02a12623          	sw	a0,44(sp)
  100588:	02b12423          	sw	a1,40(sp)
  10058c:	02c12223          	sw	a2,36(sp)
  100590:	02d12023          	sw	a3,32(sp)
  100594:	00e12e23          	sw	a4,28(sp)
  100598:	00f12c23          	sw	a5,24(sp)
  10059c:	01012a23          	sw	a6,20(sp)
  1005a0:	01112823          	sw	a7,16(sp)
  1005a4:	01c12623          	sw	t3,12(sp)
  1005a8:	01d12423          	sw	t4,8(sp)
  1005ac:	01e12223          	sw	t5,4(sp)
  1005b0:	01f12023          	sw	t6,0(sp)
  increment_timecmp(time_increment);
  1005b4:	00002797          	auipc	a5,0x2
  1005b8:	25c78793          	addi	a5,a5,604 # 102810 <time_increment>
  1005bc:	0007a703          	lw	a4,0(a5)
  1005c0:	0047a783          	lw	a5,4(a5)
  1005c4:	00070513          	mv	a0,a4
  1005c8:	00078593          	mv	a1,a5
  1005cc:	dd5ff0ef          	jal	ra,1003a0 <increment_timecmp>
  time_elapsed++;
  1005d0:	00002797          	auipc	a5,0x2
  1005d4:	23878793          	addi	a5,a5,568 # 102808 <time_elapsed>
  1005d8:	0007a703          	lw	a4,0(a5)
  1005dc:	0047a783          	lw	a5,4(a5)
  1005e0:	00100513          	li	a0,1
  1005e4:	00000593          	li	a1,0
  1005e8:	00a70633          	add	a2,a4,a0
  1005ec:	00060813          	mv	a6,a2
  1005f0:	00e83833          	sltu	a6,a6,a4
  1005f4:	00b786b3          	add	a3,a5,a1
  1005f8:	00d807b3          	add	a5,a6,a3
  1005fc:	00078693          	mv	a3,a5
  100600:	00060713          	mv	a4,a2
  100604:	00068793          	mv	a5,a3
  100608:	00002697          	auipc	a3,0x2
  10060c:	20068693          	addi	a3,a3,512 # 102808 <time_elapsed>
  100610:	00e6a023          	sw	a4,0(a3)
  100614:	00f6a223          	sw	a5,4(a3)
}
  100618:	00000013          	nop
  10061c:	03c12083          	lw	ra,60(sp)
  100620:	03812283          	lw	t0,56(sp)
  100624:	03412303          	lw	t1,52(sp)
  100628:	03012383          	lw	t2,48(sp)
  10062c:	02c12503          	lw	a0,44(sp)
  100630:	02812583          	lw	a1,40(sp)
  100634:	02412603          	lw	a2,36(sp)
  100638:	02012683          	lw	a3,32(sp)
  10063c:	01c12703          	lw	a4,28(sp)
  100640:	01812783          	lw	a5,24(sp)
  100644:	01412803          	lw	a6,20(sp)
  100648:	01012883          	lw	a7,16(sp)
  10064c:	00c12e03          	lw	t3,12(sp)
  100650:	00812e83          	lw	t4,8(sp)
  100654:	00412f03          	lw	t5,4(sp)
  100658:	00012f83          	lw	t6,0(sp)
  10065c:	04010113          	addi	sp,sp,64
  100660:	30200073          	mret

00100664 <main>:
                      0x65, 0x34, 0x30, 0x70,
                      0x20, 0x64, 0x66, 0x61,
                      0x20, 0x61, 0x65, 0x73};

int main(int argc, char *argv[])
{
  100664:	f2010113          	addi	sp,sp,-224
  100668:	0c112e23          	sw	ra,220(sp)
  10066c:	00a12623          	sw	a0,12(sp)
  100670:	00b12423          	sw	a1,8(sp)
    struct AES_ctx ctx;
    AES_init_ctx(&ctx, key);
  100674:	01010793          	addi	a5,sp,16
  100678:	00002597          	auipc	a1,0x2
  10067c:	17058593          	addi	a1,a1,368 # 1027e8 <key>
  100680:	00078513          	mv	a0,a5
  100684:	360000ef          	jal	ra,1009e4 <AES_init_ctx>
    AES_ECB_decrypt(&ctx, cipher);
  100688:	01010793          	addi	a5,sp,16
  10068c:	00002597          	auipc	a1,0x2
  100690:	16c58593          	addi	a1,a1,364 # 1027f8 <cipher>
  100694:	00078513          	mv	a0,a5
  100698:	720010ef          	jal	ra,101db8 <AES_ECB_decrypt>
    return EXIT_SUCCESS;
  10069c:	00000793          	li	a5,0
}
  1006a0:	00078513          	mv	a0,a5
  1006a4:	0dc12083          	lw	ra,220(sp)
  1006a8:	0e010113          	addi	sp,sp,224
  1006ac:	00008067          	ret

001006b0 <KeyExpansion>:
*/
#define getSBoxInvert(num) (rsbox[(num)])

// This function produces Nb(Nr+1) round keys. The round keys are used in each round to decrypt the states. 
static void KeyExpansion(uint8_t* RoundKey, const uint8_t* Key)
{
  1006b0:	fd010113          	addi	sp,sp,-48
  1006b4:	00a12623          	sw	a0,12(sp)
  1006b8:	00b12423          	sw	a1,8(sp)
  unsigned i, j, k;
  uint8_t tempa[4]; // Used for the column/row operations
  
  // The first round key is the key itself.
  for (i = 0; i < Nk; ++i)
  1006bc:	02012623          	sw	zero,44(sp)
  1006c0:	0c80006f          	j	100788 <KeyExpansion+0xd8>
  {
    RoundKey[(i * 4) + 0] = Key[(i * 4) + 0];
  1006c4:	02c12783          	lw	a5,44(sp)
  1006c8:	00279793          	slli	a5,a5,0x2
  1006cc:	00812703          	lw	a4,8(sp)
  1006d0:	00f70733          	add	a4,a4,a5
  1006d4:	02c12783          	lw	a5,44(sp)
  1006d8:	00279793          	slli	a5,a5,0x2
  1006dc:	00c12683          	lw	a3,12(sp)
  1006e0:	00f687b3          	add	a5,a3,a5
  1006e4:	00074703          	lbu	a4,0(a4)
  1006e8:	00e78023          	sb	a4,0(a5)
    RoundKey[(i * 4) + 1] = Key[(i * 4) + 1];
  1006ec:	02c12783          	lw	a5,44(sp)
  1006f0:	00279793          	slli	a5,a5,0x2
  1006f4:	00178793          	addi	a5,a5,1
  1006f8:	00812703          	lw	a4,8(sp)
  1006fc:	00f70733          	add	a4,a4,a5
  100700:	02c12783          	lw	a5,44(sp)
  100704:	00279793          	slli	a5,a5,0x2
  100708:	00178793          	addi	a5,a5,1
  10070c:	00c12683          	lw	a3,12(sp)
  100710:	00f687b3          	add	a5,a3,a5
  100714:	00074703          	lbu	a4,0(a4)
  100718:	00e78023          	sb	a4,0(a5)
    RoundKey[(i * 4) + 2] = Key[(i * 4) + 2];
  10071c:	02c12783          	lw	a5,44(sp)
  100720:	00279793          	slli	a5,a5,0x2
  100724:	00278793          	addi	a5,a5,2
  100728:	00812703          	lw	a4,8(sp)
  10072c:	00f70733          	add	a4,a4,a5
  100730:	02c12783          	lw	a5,44(sp)
  100734:	00279793          	slli	a5,a5,0x2
  100738:	00278793          	addi	a5,a5,2
  10073c:	00c12683          	lw	a3,12(sp)
  100740:	00f687b3          	add	a5,a3,a5
  100744:	00074703          	lbu	a4,0(a4)
  100748:	00e78023          	sb	a4,0(a5)
    RoundKey[(i * 4) + 3] = Key[(i * 4) + 3];
  10074c:	02c12783          	lw	a5,44(sp)
  100750:	00279793          	slli	a5,a5,0x2
  100754:	00378793          	addi	a5,a5,3
  100758:	00812703          	lw	a4,8(sp)
  10075c:	00f70733          	add	a4,a4,a5
  100760:	02c12783          	lw	a5,44(sp)
  100764:	00279793          	slli	a5,a5,0x2
  100768:	00378793          	addi	a5,a5,3
  10076c:	00c12683          	lw	a3,12(sp)
  100770:	00f687b3          	add	a5,a3,a5
  100774:	00074703          	lbu	a4,0(a4)
  100778:	00e78023          	sb	a4,0(a5)
  for (i = 0; i < Nk; ++i)
  10077c:	02c12783          	lw	a5,44(sp)
  100780:	00178793          	addi	a5,a5,1
  100784:	02f12623          	sw	a5,44(sp)
  100788:	02c12703          	lw	a4,44(sp)
  10078c:	00300793          	li	a5,3
  100790:	f2e7fae3          	bgeu	a5,a4,1006c4 <KeyExpansion+0x14>
  }

  // All other round keys are found from the previous round keys.
  for (i = Nk; i < Nb * (Nr + 1); ++i)
  100794:	00400793          	li	a5,4
  100798:	02f12623          	sw	a5,44(sp)
  10079c:	22c0006f          	j	1009c8 <KeyExpansion+0x318>
  {
    {
      k = (i - 1) * 4;
  1007a0:	02c12783          	lw	a5,44(sp)
  1007a4:	fff78793          	addi	a5,a5,-1
  1007a8:	00279793          	slli	a5,a5,0x2
  1007ac:	02f12423          	sw	a5,40(sp)
      tempa[0]=RoundKey[k + 0];
  1007b0:	00c12703          	lw	a4,12(sp)
  1007b4:	02812783          	lw	a5,40(sp)
  1007b8:	00f707b3          	add	a5,a4,a5
  1007bc:	0007c783          	lbu	a5,0(a5)
  1007c0:	00f10e23          	sb	a5,28(sp)
      tempa[1]=RoundKey[k + 1];
  1007c4:	02812783          	lw	a5,40(sp)
  1007c8:	00178793          	addi	a5,a5,1
  1007cc:	00c12703          	lw	a4,12(sp)
  1007d0:	00f707b3          	add	a5,a4,a5
  1007d4:	0007c783          	lbu	a5,0(a5)
  1007d8:	00f10ea3          	sb	a5,29(sp)
      tempa[2]=RoundKey[k + 2];
  1007dc:	02812783          	lw	a5,40(sp)
  1007e0:	00278793          	addi	a5,a5,2
  1007e4:	00c12703          	lw	a4,12(sp)
  1007e8:	00f707b3          	add	a5,a4,a5
  1007ec:	0007c783          	lbu	a5,0(a5)
  1007f0:	00f10f23          	sb	a5,30(sp)
      tempa[3]=RoundKey[k + 3];
  1007f4:	02812783          	lw	a5,40(sp)
  1007f8:	00378793          	addi	a5,a5,3
  1007fc:	00c12703          	lw	a4,12(sp)
  100800:	00f707b3          	add	a5,a4,a5
  100804:	0007c783          	lbu	a5,0(a5)
  100808:	00f10fa3          	sb	a5,31(sp)

    }

    if (i % Nk == 0)
  10080c:	02c12783          	lw	a5,44(sp)
  100810:	0037f793          	andi	a5,a5,3
  100814:	0c079263          	bnez	a5,1008d8 <KeyExpansion+0x228>
      // This function shifts the 4 bytes in a word to the left once.
      // [a0,a1,a2,a3] becomes [a1,a2,a3,a0]

      // Function RotWord()
      {
        const uint8_t u8tmp = tempa[0];
  100818:	01c14783          	lbu	a5,28(sp)
  10081c:	02f103a3          	sb	a5,39(sp)
        tempa[0] = tempa[1];
  100820:	01d14783          	lbu	a5,29(sp)
  100824:	00f10e23          	sb	a5,28(sp)
        tempa[1] = tempa[2];
  100828:	01e14783          	lbu	a5,30(sp)
  10082c:	00f10ea3          	sb	a5,29(sp)
        tempa[2] = tempa[3];
  100830:	01f14783          	lbu	a5,31(sp)
  100834:	00f10f23          	sb	a5,30(sp)
        tempa[3] = u8tmp;
  100838:	02714783          	lbu	a5,39(sp)
  10083c:	00f10fa3          	sb	a5,31(sp)
      // SubWord() is a function that takes a four-byte input word and 
      // applies the S-box to each of the four bytes to produce an output word.

      // Function Subword()
      {
        tempa[0] = getSBoxValue(tempa[0]);
  100840:	01c14783          	lbu	a5,28(sp)
  100844:	00078713          	mv	a4,a5
  100848:	00002797          	auipc	a5,0x2
  10084c:	d5478793          	addi	a5,a5,-684 # 10259c <sbox>
  100850:	00e787b3          	add	a5,a5,a4
  100854:	0007c783          	lbu	a5,0(a5)
  100858:	00f10e23          	sb	a5,28(sp)
        tempa[1] = getSBoxValue(tempa[1]);
  10085c:	01d14783          	lbu	a5,29(sp)
  100860:	00078713          	mv	a4,a5
  100864:	00002797          	auipc	a5,0x2
  100868:	d3878793          	addi	a5,a5,-712 # 10259c <sbox>
  10086c:	00e787b3          	add	a5,a5,a4
  100870:	0007c783          	lbu	a5,0(a5)
  100874:	00f10ea3          	sb	a5,29(sp)
        tempa[2] = getSBoxValue(tempa[2]);
  100878:	01e14783          	lbu	a5,30(sp)
  10087c:	00078713          	mv	a4,a5
  100880:	00002797          	auipc	a5,0x2
  100884:	d1c78793          	addi	a5,a5,-740 # 10259c <sbox>
  100888:	00e787b3          	add	a5,a5,a4
  10088c:	0007c783          	lbu	a5,0(a5)
  100890:	00f10f23          	sb	a5,30(sp)
        tempa[3] = getSBoxValue(tempa[3]);
  100894:	01f14783          	lbu	a5,31(sp)
  100898:	00078713          	mv	a4,a5
  10089c:	00002797          	auipc	a5,0x2
  1008a0:	d0078793          	addi	a5,a5,-768 # 10259c <sbox>
  1008a4:	00e787b3          	add	a5,a5,a4
  1008a8:	0007c783          	lbu	a5,0(a5)
  1008ac:	00f10fa3          	sb	a5,31(sp)
      }

      tempa[0] = tempa[0] ^ Rcon[i/Nk];
  1008b0:	01c14703          	lbu	a4,28(sp)
  1008b4:	02c12783          	lw	a5,44(sp)
  1008b8:	0027d793          	srli	a5,a5,0x2
  1008bc:	00002697          	auipc	a3,0x2
  1008c0:	ee068693          	addi	a3,a3,-288 # 10279c <Rcon>
  1008c4:	00f687b3          	add	a5,a3,a5
  1008c8:	0007c783          	lbu	a5,0(a5)
  1008cc:	00f747b3          	xor	a5,a4,a5
  1008d0:	0ff7f793          	andi	a5,a5,255
  1008d4:	00f10e23          	sb	a5,28(sp)
        tempa[2] = getSBoxValue(tempa[2]);
        tempa[3] = getSBoxValue(tempa[3]);
      }
    }
#endif
    j = i * 4; k=(i - Nk) * 4;
  1008d8:	02c12783          	lw	a5,44(sp)
  1008dc:	00279793          	slli	a5,a5,0x2
  1008e0:	02f12023          	sw	a5,32(sp)
  1008e4:	02c12783          	lw	a5,44(sp)
  1008e8:	ffc78793          	addi	a5,a5,-4
  1008ec:	00279793          	slli	a5,a5,0x2
  1008f0:	02f12423          	sw	a5,40(sp)
    RoundKey[j + 0] = RoundKey[k + 0] ^ tempa[0];
  1008f4:	00c12703          	lw	a4,12(sp)
  1008f8:	02812783          	lw	a5,40(sp)
  1008fc:	00f707b3          	add	a5,a4,a5
  100900:	0007c683          	lbu	a3,0(a5)
  100904:	01c14703          	lbu	a4,28(sp)
  100908:	00c12603          	lw	a2,12(sp)
  10090c:	02012783          	lw	a5,32(sp)
  100910:	00f607b3          	add	a5,a2,a5
  100914:	00e6c733          	xor	a4,a3,a4
  100918:	0ff77713          	andi	a4,a4,255
  10091c:	00e78023          	sb	a4,0(a5)
    RoundKey[j + 1] = RoundKey[k + 1] ^ tempa[1];
  100920:	02812783          	lw	a5,40(sp)
  100924:	00178793          	addi	a5,a5,1
  100928:	00c12703          	lw	a4,12(sp)
  10092c:	00f707b3          	add	a5,a4,a5
  100930:	0007c683          	lbu	a3,0(a5)
  100934:	01d14703          	lbu	a4,29(sp)
  100938:	02012783          	lw	a5,32(sp)
  10093c:	00178793          	addi	a5,a5,1
  100940:	00c12603          	lw	a2,12(sp)
  100944:	00f607b3          	add	a5,a2,a5
  100948:	00e6c733          	xor	a4,a3,a4
  10094c:	0ff77713          	andi	a4,a4,255
  100950:	00e78023          	sb	a4,0(a5)
    RoundKey[j + 2] = RoundKey[k + 2] ^ tempa[2];
  100954:	02812783          	lw	a5,40(sp)
  100958:	00278793          	addi	a5,a5,2
  10095c:	00c12703          	lw	a4,12(sp)
  100960:	00f707b3          	add	a5,a4,a5
  100964:	0007c683          	lbu	a3,0(a5)
  100968:	01e14703          	lbu	a4,30(sp)
  10096c:	02012783          	lw	a5,32(sp)
  100970:	00278793          	addi	a5,a5,2
  100974:	00c12603          	lw	a2,12(sp)
  100978:	00f607b3          	add	a5,a2,a5
  10097c:	00e6c733          	xor	a4,a3,a4
  100980:	0ff77713          	andi	a4,a4,255
  100984:	00e78023          	sb	a4,0(a5)
    RoundKey[j + 3] = RoundKey[k + 3] ^ tempa[3];
  100988:	02812783          	lw	a5,40(sp)
  10098c:	00378793          	addi	a5,a5,3
  100990:	00c12703          	lw	a4,12(sp)
  100994:	00f707b3          	add	a5,a4,a5
  100998:	0007c683          	lbu	a3,0(a5)
  10099c:	01f14703          	lbu	a4,31(sp)
  1009a0:	02012783          	lw	a5,32(sp)
  1009a4:	00378793          	addi	a5,a5,3
  1009a8:	00c12603          	lw	a2,12(sp)
  1009ac:	00f607b3          	add	a5,a2,a5
  1009b0:	00e6c733          	xor	a4,a3,a4
  1009b4:	0ff77713          	andi	a4,a4,255
  1009b8:	00e78023          	sb	a4,0(a5)
  for (i = Nk; i < Nb * (Nr + 1); ++i)
  1009bc:	02c12783          	lw	a5,44(sp)
  1009c0:	00178793          	addi	a5,a5,1
  1009c4:	02f12623          	sw	a5,44(sp)
  1009c8:	02c12703          	lw	a4,44(sp)
  1009cc:	02b00793          	li	a5,43
  1009d0:	dce7f8e3          	bgeu	a5,a4,1007a0 <KeyExpansion+0xf0>
  }
}
  1009d4:	00000013          	nop
  1009d8:	00000013          	nop
  1009dc:	03010113          	addi	sp,sp,48
  1009e0:	00008067          	ret

001009e4 <AES_init_ctx>:

void AES_init_ctx(struct AES_ctx* ctx, const uint8_t* key)
{
  1009e4:	fe010113          	addi	sp,sp,-32
  1009e8:	00112e23          	sw	ra,28(sp)
  1009ec:	00a12623          	sw	a0,12(sp)
  1009f0:	00b12423          	sw	a1,8(sp)
  KeyExpansion(ctx->RoundKey, key);
  1009f4:	00c12783          	lw	a5,12(sp)
  1009f8:	00812583          	lw	a1,8(sp)
  1009fc:	00078513          	mv	a0,a5
  100a00:	cb1ff0ef          	jal	ra,1006b0 <KeyExpansion>
}
  100a04:	00000013          	nop
  100a08:	01c12083          	lw	ra,28(sp)
  100a0c:	02010113          	addi	sp,sp,32
  100a10:	00008067          	ret

00100a14 <AES_init_ctx_iv>:
#if (defined(CBC) && (CBC == 1)) || (defined(CTR) && (CTR == 1))
void AES_init_ctx_iv(struct AES_ctx* ctx, const uint8_t* key, const uint8_t* iv)
{
  100a14:	fe010113          	addi	sp,sp,-32
  100a18:	00112e23          	sw	ra,28(sp)
  100a1c:	00a12623          	sw	a0,12(sp)
  100a20:	00b12423          	sw	a1,8(sp)
  100a24:	00c12223          	sw	a2,4(sp)
  KeyExpansion(ctx->RoundKey, key);
  100a28:	00c12783          	lw	a5,12(sp)
  100a2c:	00812583          	lw	a1,8(sp)
  100a30:	00078513          	mv	a0,a5
  100a34:	c7dff0ef          	jal	ra,1006b0 <KeyExpansion>
  memcpy (ctx->Iv, iv, AES_BLOCKLEN);
  100a38:	00c12783          	lw	a5,12(sp)
  100a3c:	0b078793          	addi	a5,a5,176
  100a40:	01000613          	li	a2,16
  100a44:	00412583          	lw	a1,4(sp)
  100a48:	00078513          	mv	a0,a5
  100a4c:	76c010ef          	jal	ra,1021b8 <memcpy>
}
  100a50:	00000013          	nop
  100a54:	01c12083          	lw	ra,28(sp)
  100a58:	02010113          	addi	sp,sp,32
  100a5c:	00008067          	ret

00100a60 <AES_ctx_set_iv>:
void AES_ctx_set_iv(struct AES_ctx* ctx, const uint8_t* iv)
{
  100a60:	fe010113          	addi	sp,sp,-32
  100a64:	00112e23          	sw	ra,28(sp)
  100a68:	00a12623          	sw	a0,12(sp)
  100a6c:	00b12423          	sw	a1,8(sp)
  memcpy (ctx->Iv, iv, AES_BLOCKLEN);
  100a70:	00c12783          	lw	a5,12(sp)
  100a74:	0b078793          	addi	a5,a5,176
  100a78:	01000613          	li	a2,16
  100a7c:	00812583          	lw	a1,8(sp)
  100a80:	00078513          	mv	a0,a5
  100a84:	734010ef          	jal	ra,1021b8 <memcpy>
}
  100a88:	00000013          	nop
  100a8c:	01c12083          	lw	ra,28(sp)
  100a90:	02010113          	addi	sp,sp,32
  100a94:	00008067          	ret

00100a98 <AddRoundKey>:
#endif

// This function adds the round key to state.
// The round key is added to the state by an XOR function.
static void AddRoundKey(uint8_t round, state_t* state, const uint8_t* RoundKey)
{
  100a98:	fe010113          	addi	sp,sp,-32
  100a9c:	00050793          	mv	a5,a0
  100aa0:	00b12423          	sw	a1,8(sp)
  100aa4:	00c12223          	sw	a2,4(sp)
  100aa8:	00f107a3          	sb	a5,15(sp)
  uint8_t i,j;
  for (i = 0; i < 4; ++i)
  100aac:	00010fa3          	sb	zero,31(sp)
  100ab0:	09c0006f          	j	100b4c <AddRoundKey+0xb4>
  {
    for (j = 0; j < 4; ++j)
  100ab4:	00010f23          	sb	zero,30(sp)
  100ab8:	07c0006f          	j	100b34 <AddRoundKey+0x9c>
    {
      (*state)[i][j] ^= RoundKey[(round * Nb * 4) + (i * Nb) + j];
  100abc:	01f14703          	lbu	a4,31(sp)
  100ac0:	01e14783          	lbu	a5,30(sp)
  100ac4:	00812683          	lw	a3,8(sp)
  100ac8:	00271713          	slli	a4,a4,0x2
  100acc:	00e68733          	add	a4,a3,a4
  100ad0:	00f707b3          	add	a5,a4,a5
  100ad4:	0007c603          	lbu	a2,0(a5)
  100ad8:	00f14783          	lbu	a5,15(sp)
  100adc:	00279713          	slli	a4,a5,0x2
  100ae0:	01f14783          	lbu	a5,31(sp)
  100ae4:	00f707b3          	add	a5,a4,a5
  100ae8:	00279713          	slli	a4,a5,0x2
  100aec:	01e14783          	lbu	a5,30(sp)
  100af0:	00f707b3          	add	a5,a4,a5
  100af4:	00078713          	mv	a4,a5
  100af8:	00412783          	lw	a5,4(sp)
  100afc:	00e787b3          	add	a5,a5,a4
  100b00:	0007c703          	lbu	a4,0(a5)
  100b04:	01f14683          	lbu	a3,31(sp)
  100b08:	01e14783          	lbu	a5,30(sp)
  100b0c:	00e64733          	xor	a4,a2,a4
  100b10:	0ff77713          	andi	a4,a4,255
  100b14:	00812603          	lw	a2,8(sp)
  100b18:	00269693          	slli	a3,a3,0x2
  100b1c:	00d606b3          	add	a3,a2,a3
  100b20:	00f687b3          	add	a5,a3,a5
  100b24:	00e78023          	sb	a4,0(a5)
    for (j = 0; j < 4; ++j)
  100b28:	01e14783          	lbu	a5,30(sp)
  100b2c:	00178793          	addi	a5,a5,1
  100b30:	00f10f23          	sb	a5,30(sp)
  100b34:	01e14703          	lbu	a4,30(sp)
  100b38:	00300793          	li	a5,3
  100b3c:	f8e7f0e3          	bgeu	a5,a4,100abc <AddRoundKey+0x24>
  for (i = 0; i < 4; ++i)
  100b40:	01f14783          	lbu	a5,31(sp)
  100b44:	00178793          	addi	a5,a5,1
  100b48:	00f10fa3          	sb	a5,31(sp)
  100b4c:	01f14703          	lbu	a4,31(sp)
  100b50:	00300793          	li	a5,3
  100b54:	f6e7f0e3          	bgeu	a5,a4,100ab4 <AddRoundKey+0x1c>
    }
  }
}
  100b58:	00000013          	nop
  100b5c:	00000013          	nop
  100b60:	02010113          	addi	sp,sp,32
  100b64:	00008067          	ret

00100b68 <SubBytes>:

// The SubBytes Function Substitutes the values in the
// state matrix with values in an S-box.
static void SubBytes(state_t* state)
{
  100b68:	fe010113          	addi	sp,sp,-32
  100b6c:	00a12623          	sw	a0,12(sp)
  uint8_t i, j;
  for (i = 0; i < 4; ++i)
  100b70:	00010fa3          	sb	zero,31(sp)
  100b74:	07c0006f          	j	100bf0 <SubBytes+0x88>
  {
    for (j = 0; j < 4; ++j)
  100b78:	00010f23          	sb	zero,30(sp)
  100b7c:	05c0006f          	j	100bd8 <SubBytes+0x70>
    {
      (*state)[j][i] = getSBoxValue((*state)[j][i]);
  100b80:	01e14703          	lbu	a4,30(sp)
  100b84:	01f14783          	lbu	a5,31(sp)
  100b88:	00c12683          	lw	a3,12(sp)
  100b8c:	00271713          	slli	a4,a4,0x2
  100b90:	00e68733          	add	a4,a3,a4
  100b94:	00f707b3          	add	a5,a4,a5
  100b98:	0007c783          	lbu	a5,0(a5)
  100b9c:	00078613          	mv	a2,a5
  100ba0:	01e14683          	lbu	a3,30(sp)
  100ba4:	01f14783          	lbu	a5,31(sp)
  100ba8:	00002717          	auipc	a4,0x2
  100bac:	9f470713          	addi	a4,a4,-1548 # 10259c <sbox>
  100bb0:	00c70733          	add	a4,a4,a2
  100bb4:	00074703          	lbu	a4,0(a4)
  100bb8:	00c12603          	lw	a2,12(sp)
  100bbc:	00269693          	slli	a3,a3,0x2
  100bc0:	00d606b3          	add	a3,a2,a3
  100bc4:	00f687b3          	add	a5,a3,a5
  100bc8:	00e78023          	sb	a4,0(a5)
    for (j = 0; j < 4; ++j)
  100bcc:	01e14783          	lbu	a5,30(sp)
  100bd0:	00178793          	addi	a5,a5,1
  100bd4:	00f10f23          	sb	a5,30(sp)
  100bd8:	01e14703          	lbu	a4,30(sp)
  100bdc:	00300793          	li	a5,3
  100be0:	fae7f0e3          	bgeu	a5,a4,100b80 <SubBytes+0x18>
  for (i = 0; i < 4; ++i)
  100be4:	01f14783          	lbu	a5,31(sp)
  100be8:	00178793          	addi	a5,a5,1
  100bec:	00f10fa3          	sb	a5,31(sp)
  100bf0:	01f14703          	lbu	a4,31(sp)
  100bf4:	00300793          	li	a5,3
  100bf8:	f8e7f0e3          	bgeu	a5,a4,100b78 <SubBytes+0x10>
    }
  }
}
  100bfc:	00000013          	nop
  100c00:	00000013          	nop
  100c04:	02010113          	addi	sp,sp,32
  100c08:	00008067          	ret

00100c0c <ShiftRows>:

// The ShiftRows() function shifts the rows in the state to the left.
// Each row is shifted with different offset.
// Offset = Row number. So the first row is not shifted.
static void ShiftRows(state_t* state)
{
  100c0c:	fe010113          	addi	sp,sp,-32
  100c10:	00a12623          	sw	a0,12(sp)
  uint8_t temp;

  // Rotate first row 1 columns to left  
  temp           = (*state)[0][1];
  100c14:	00c12783          	lw	a5,12(sp)
  100c18:	0017c783          	lbu	a5,1(a5)
  100c1c:	00f10fa3          	sb	a5,31(sp)
  (*state)[0][1] = (*state)[1][1];
  100c20:	00c12783          	lw	a5,12(sp)
  100c24:	0057c703          	lbu	a4,5(a5)
  100c28:	00c12783          	lw	a5,12(sp)
  100c2c:	00e780a3          	sb	a4,1(a5)
  (*state)[1][1] = (*state)[2][1];
  100c30:	00c12783          	lw	a5,12(sp)
  100c34:	0097c703          	lbu	a4,9(a5)
  100c38:	00c12783          	lw	a5,12(sp)
  100c3c:	00e782a3          	sb	a4,5(a5)
  (*state)[2][1] = (*state)[3][1];
  100c40:	00c12783          	lw	a5,12(sp)
  100c44:	00d7c703          	lbu	a4,13(a5)
  100c48:	00c12783          	lw	a5,12(sp)
  100c4c:	00e784a3          	sb	a4,9(a5)
  (*state)[3][1] = temp;
  100c50:	00c12783          	lw	a5,12(sp)
  100c54:	01f14703          	lbu	a4,31(sp)
  100c58:	00e786a3          	sb	a4,13(a5)

  // Rotate second row 2 columns to left  
  temp           = (*state)[0][2];
  100c5c:	00c12783          	lw	a5,12(sp)
  100c60:	0027c783          	lbu	a5,2(a5)
  100c64:	00f10fa3          	sb	a5,31(sp)
  (*state)[0][2] = (*state)[2][2];
  100c68:	00c12783          	lw	a5,12(sp)
  100c6c:	00a7c703          	lbu	a4,10(a5)
  100c70:	00c12783          	lw	a5,12(sp)
  100c74:	00e78123          	sb	a4,2(a5)
  (*state)[2][2] = temp;
  100c78:	00c12783          	lw	a5,12(sp)
  100c7c:	01f14703          	lbu	a4,31(sp)
  100c80:	00e78523          	sb	a4,10(a5)

  temp           = (*state)[1][2];
  100c84:	00c12783          	lw	a5,12(sp)
  100c88:	0067c783          	lbu	a5,6(a5)
  100c8c:	00f10fa3          	sb	a5,31(sp)
  (*state)[1][2] = (*state)[3][2];
  100c90:	00c12783          	lw	a5,12(sp)
  100c94:	00e7c703          	lbu	a4,14(a5)
  100c98:	00c12783          	lw	a5,12(sp)
  100c9c:	00e78323          	sb	a4,6(a5)
  (*state)[3][2] = temp;
  100ca0:	00c12783          	lw	a5,12(sp)
  100ca4:	01f14703          	lbu	a4,31(sp)
  100ca8:	00e78723          	sb	a4,14(a5)

  // Rotate third row 3 columns to left
  temp           = (*state)[0][3];
  100cac:	00c12783          	lw	a5,12(sp)
  100cb0:	0037c783          	lbu	a5,3(a5)
  100cb4:	00f10fa3          	sb	a5,31(sp)
  (*state)[0][3] = (*state)[3][3];
  100cb8:	00c12783          	lw	a5,12(sp)
  100cbc:	00f7c703          	lbu	a4,15(a5)
  100cc0:	00c12783          	lw	a5,12(sp)
  100cc4:	00e781a3          	sb	a4,3(a5)
  (*state)[3][3] = (*state)[2][3];
  100cc8:	00c12783          	lw	a5,12(sp)
  100ccc:	00b7c703          	lbu	a4,11(a5)
  100cd0:	00c12783          	lw	a5,12(sp)
  100cd4:	00e787a3          	sb	a4,15(a5)
  (*state)[2][3] = (*state)[1][3];
  100cd8:	00c12783          	lw	a5,12(sp)
  100cdc:	0077c703          	lbu	a4,7(a5)
  100ce0:	00c12783          	lw	a5,12(sp)
  100ce4:	00e785a3          	sb	a4,11(a5)
  (*state)[1][3] = temp;
  100ce8:	00c12783          	lw	a5,12(sp)
  100cec:	01f14703          	lbu	a4,31(sp)
  100cf0:	00e783a3          	sb	a4,7(a5)
}
  100cf4:	00000013          	nop
  100cf8:	02010113          	addi	sp,sp,32
  100cfc:	00008067          	ret

00100d00 <xtime>:

static uint8_t xtime(uint8_t x)
{
  100d00:	ff010113          	addi	sp,sp,-16
  100d04:	00050793          	mv	a5,a0
  100d08:	00f107a3          	sb	a5,15(sp)
  return ((x<<1) ^ (((x>>7) & 1) * 0x1b));
  100d0c:	00f14783          	lbu	a5,15(sp)
  100d10:	00179793          	slli	a5,a5,0x1
  100d14:	01879693          	slli	a3,a5,0x18
  100d18:	4186d693          	srai	a3,a3,0x18
  100d1c:	00f14783          	lbu	a5,15(sp)
  100d20:	0077d793          	srli	a5,a5,0x7
  100d24:	0ff7f793          	andi	a5,a5,255
  100d28:	00078713          	mv	a4,a5
  100d2c:	00371713          	slli	a4,a4,0x3
  100d30:	40f70733          	sub	a4,a4,a5
  100d34:	00271713          	slli	a4,a4,0x2
  100d38:	40f707b3          	sub	a5,a4,a5
  100d3c:	0ff7f793          	andi	a5,a5,255
  100d40:	01879793          	slli	a5,a5,0x18
  100d44:	4187d793          	srai	a5,a5,0x18
  100d48:	00f6c7b3          	xor	a5,a3,a5
  100d4c:	01879793          	slli	a5,a5,0x18
  100d50:	4187d793          	srai	a5,a5,0x18
  100d54:	0ff7f793          	andi	a5,a5,255
}
  100d58:	00078513          	mv	a0,a5
  100d5c:	01010113          	addi	sp,sp,16
  100d60:	00008067          	ret

00100d64 <MixColumns>:

// MixColumns function mixes the columns of the state matrix
static void MixColumns(state_t* state)
{
  100d64:	fd010113          	addi	sp,sp,-48
  100d68:	02112623          	sw	ra,44(sp)
  100d6c:	00a12623          	sw	a0,12(sp)
  uint8_t i;
  uint8_t Tmp, Tm, t;
  for (i = 0; i < 4; ++i)
  100d70:	00010fa3          	sb	zero,31(sp)
  100d74:	2900006f          	j	101004 <MixColumns+0x2a0>
  {  
    t   = (*state)[i][0];
  100d78:	01f14783          	lbu	a5,31(sp)
  100d7c:	00c12703          	lw	a4,12(sp)
  100d80:	00279793          	slli	a5,a5,0x2
  100d84:	00f707b3          	add	a5,a4,a5
  100d88:	0007c783          	lbu	a5,0(a5)
  100d8c:	00f10f23          	sb	a5,30(sp)
    Tmp = (*state)[i][0] ^ (*state)[i][1] ^ (*state)[i][2] ^ (*state)[i][3] ;
  100d90:	01f14783          	lbu	a5,31(sp)
  100d94:	00c12703          	lw	a4,12(sp)
  100d98:	00279793          	slli	a5,a5,0x2
  100d9c:	00f707b3          	add	a5,a4,a5
  100da0:	0007c703          	lbu	a4,0(a5)
  100da4:	01f14783          	lbu	a5,31(sp)
  100da8:	00c12683          	lw	a3,12(sp)
  100dac:	00279793          	slli	a5,a5,0x2
  100db0:	00f687b3          	add	a5,a3,a5
  100db4:	0017c783          	lbu	a5,1(a5)
  100db8:	00f747b3          	xor	a5,a4,a5
  100dbc:	0ff7f713          	andi	a4,a5,255
  100dc0:	01f14783          	lbu	a5,31(sp)
  100dc4:	00c12683          	lw	a3,12(sp)
  100dc8:	00279793          	slli	a5,a5,0x2
  100dcc:	00f687b3          	add	a5,a3,a5
  100dd0:	0027c783          	lbu	a5,2(a5)
  100dd4:	00f747b3          	xor	a5,a4,a5
  100dd8:	0ff7f713          	andi	a4,a5,255
  100ddc:	01f14783          	lbu	a5,31(sp)
  100de0:	00c12683          	lw	a3,12(sp)
  100de4:	00279793          	slli	a5,a5,0x2
  100de8:	00f687b3          	add	a5,a3,a5
  100dec:	0037c783          	lbu	a5,3(a5)
  100df0:	00f747b3          	xor	a5,a4,a5
  100df4:	00f10ea3          	sb	a5,29(sp)
    Tm  = (*state)[i][0] ^ (*state)[i][1] ; Tm = xtime(Tm);  (*state)[i][0] ^= Tm ^ Tmp ;
  100df8:	01f14783          	lbu	a5,31(sp)
  100dfc:	00c12703          	lw	a4,12(sp)
  100e00:	00279793          	slli	a5,a5,0x2
  100e04:	00f707b3          	add	a5,a4,a5
  100e08:	0007c703          	lbu	a4,0(a5)
  100e0c:	01f14783          	lbu	a5,31(sp)
  100e10:	00c12683          	lw	a3,12(sp)
  100e14:	00279793          	slli	a5,a5,0x2
  100e18:	00f687b3          	add	a5,a3,a5
  100e1c:	0017c783          	lbu	a5,1(a5)
  100e20:	00f747b3          	xor	a5,a4,a5
  100e24:	00f10e23          	sb	a5,28(sp)
  100e28:	01c14783          	lbu	a5,28(sp)
  100e2c:	00078513          	mv	a0,a5
  100e30:	ed1ff0ef          	jal	ra,100d00 <xtime>
  100e34:	00050793          	mv	a5,a0
  100e38:	00f10e23          	sb	a5,28(sp)
  100e3c:	01f14783          	lbu	a5,31(sp)
  100e40:	00c12703          	lw	a4,12(sp)
  100e44:	00279793          	slli	a5,a5,0x2
  100e48:	00f707b3          	add	a5,a4,a5
  100e4c:	0007c683          	lbu	a3,0(a5)
  100e50:	01c14703          	lbu	a4,28(sp)
  100e54:	01d14783          	lbu	a5,29(sp)
  100e58:	00f747b3          	xor	a5,a4,a5
  100e5c:	0ff7f713          	andi	a4,a5,255
  100e60:	01f14783          	lbu	a5,31(sp)
  100e64:	00e6c733          	xor	a4,a3,a4
  100e68:	0ff77713          	andi	a4,a4,255
  100e6c:	00c12683          	lw	a3,12(sp)
  100e70:	00279793          	slli	a5,a5,0x2
  100e74:	00f687b3          	add	a5,a3,a5
  100e78:	00e78023          	sb	a4,0(a5)
    Tm  = (*state)[i][1] ^ (*state)[i][2] ; Tm = xtime(Tm);  (*state)[i][1] ^= Tm ^ Tmp ;
  100e7c:	01f14783          	lbu	a5,31(sp)
  100e80:	00c12703          	lw	a4,12(sp)
  100e84:	00279793          	slli	a5,a5,0x2
  100e88:	00f707b3          	add	a5,a4,a5
  100e8c:	0017c703          	lbu	a4,1(a5)
  100e90:	01f14783          	lbu	a5,31(sp)
  100e94:	00c12683          	lw	a3,12(sp)
  100e98:	00279793          	slli	a5,a5,0x2
  100e9c:	00f687b3          	add	a5,a3,a5
  100ea0:	0027c783          	lbu	a5,2(a5)
  100ea4:	00f747b3          	xor	a5,a4,a5
  100ea8:	00f10e23          	sb	a5,28(sp)
  100eac:	01c14783          	lbu	a5,28(sp)
  100eb0:	00078513          	mv	a0,a5
  100eb4:	e4dff0ef          	jal	ra,100d00 <xtime>
  100eb8:	00050793          	mv	a5,a0
  100ebc:	00f10e23          	sb	a5,28(sp)
  100ec0:	01f14783          	lbu	a5,31(sp)
  100ec4:	00c12703          	lw	a4,12(sp)
  100ec8:	00279793          	slli	a5,a5,0x2
  100ecc:	00f707b3          	add	a5,a4,a5
  100ed0:	0017c683          	lbu	a3,1(a5)
  100ed4:	01c14703          	lbu	a4,28(sp)
  100ed8:	01d14783          	lbu	a5,29(sp)
  100edc:	00f747b3          	xor	a5,a4,a5
  100ee0:	0ff7f713          	andi	a4,a5,255
  100ee4:	01f14783          	lbu	a5,31(sp)
  100ee8:	00e6c733          	xor	a4,a3,a4
  100eec:	0ff77713          	andi	a4,a4,255
  100ef0:	00c12683          	lw	a3,12(sp)
  100ef4:	00279793          	slli	a5,a5,0x2
  100ef8:	00f687b3          	add	a5,a3,a5
  100efc:	00e780a3          	sb	a4,1(a5)
    Tm  = (*state)[i][2] ^ (*state)[i][3] ; Tm = xtime(Tm);  (*state)[i][2] ^= Tm ^ Tmp ;
  100f00:	01f14783          	lbu	a5,31(sp)
  100f04:	00c12703          	lw	a4,12(sp)
  100f08:	00279793          	slli	a5,a5,0x2
  100f0c:	00f707b3          	add	a5,a4,a5
  100f10:	0027c703          	lbu	a4,2(a5)
  100f14:	01f14783          	lbu	a5,31(sp)
  100f18:	00c12683          	lw	a3,12(sp)
  100f1c:	00279793          	slli	a5,a5,0x2
  100f20:	00f687b3          	add	a5,a3,a5
  100f24:	0037c783          	lbu	a5,3(a5)
  100f28:	00f747b3          	xor	a5,a4,a5
  100f2c:	00f10e23          	sb	a5,28(sp)
  100f30:	01c14783          	lbu	a5,28(sp)
  100f34:	00078513          	mv	a0,a5
  100f38:	dc9ff0ef          	jal	ra,100d00 <xtime>
  100f3c:	00050793          	mv	a5,a0
  100f40:	00f10e23          	sb	a5,28(sp)
  100f44:	01f14783          	lbu	a5,31(sp)
  100f48:	00c12703          	lw	a4,12(sp)
  100f4c:	00279793          	slli	a5,a5,0x2
  100f50:	00f707b3          	add	a5,a4,a5
  100f54:	0027c683          	lbu	a3,2(a5)
  100f58:	01c14703          	lbu	a4,28(sp)
  100f5c:	01d14783          	lbu	a5,29(sp)
  100f60:	00f747b3          	xor	a5,a4,a5
  100f64:	0ff7f713          	andi	a4,a5,255
  100f68:	01f14783          	lbu	a5,31(sp)
  100f6c:	00e6c733          	xor	a4,a3,a4
  100f70:	0ff77713          	andi	a4,a4,255
  100f74:	00c12683          	lw	a3,12(sp)
  100f78:	00279793          	slli	a5,a5,0x2
  100f7c:	00f687b3          	add	a5,a3,a5
  100f80:	00e78123          	sb	a4,2(a5)
    Tm  = (*state)[i][3] ^ t ;              Tm = xtime(Tm);  (*state)[i][3] ^= Tm ^ Tmp ;
  100f84:	01f14783          	lbu	a5,31(sp)
  100f88:	00c12703          	lw	a4,12(sp)
  100f8c:	00279793          	slli	a5,a5,0x2
  100f90:	00f707b3          	add	a5,a4,a5
  100f94:	0037c703          	lbu	a4,3(a5)
  100f98:	01e14783          	lbu	a5,30(sp)
  100f9c:	00f747b3          	xor	a5,a4,a5
  100fa0:	00f10e23          	sb	a5,28(sp)
  100fa4:	01c14783          	lbu	a5,28(sp)
  100fa8:	00078513          	mv	a0,a5
  100fac:	d55ff0ef          	jal	ra,100d00 <xtime>
  100fb0:	00050793          	mv	a5,a0
  100fb4:	00f10e23          	sb	a5,28(sp)
  100fb8:	01f14783          	lbu	a5,31(sp)
  100fbc:	00c12703          	lw	a4,12(sp)
  100fc0:	00279793          	slli	a5,a5,0x2
  100fc4:	00f707b3          	add	a5,a4,a5
  100fc8:	0037c683          	lbu	a3,3(a5)
  100fcc:	01c14703          	lbu	a4,28(sp)
  100fd0:	01d14783          	lbu	a5,29(sp)
  100fd4:	00f747b3          	xor	a5,a4,a5
  100fd8:	0ff7f713          	andi	a4,a5,255
  100fdc:	01f14783          	lbu	a5,31(sp)
  100fe0:	00e6c733          	xor	a4,a3,a4
  100fe4:	0ff77713          	andi	a4,a4,255
  100fe8:	00c12683          	lw	a3,12(sp)
  100fec:	00279793          	slli	a5,a5,0x2
  100ff0:	00f687b3          	add	a5,a3,a5
  100ff4:	00e781a3          	sb	a4,3(a5)
  for (i = 0; i < 4; ++i)
  100ff8:	01f14783          	lbu	a5,31(sp)
  100ffc:	00178793          	addi	a5,a5,1
  101000:	00f10fa3          	sb	a5,31(sp)
  101004:	01f14703          	lbu	a4,31(sp)
  101008:	00300793          	li	a5,3
  10100c:	d6e7f6e3          	bgeu	a5,a4,100d78 <MixColumns+0x14>
  }
}
  101010:	00000013          	nop
  101014:	00000013          	nop
  101018:	02c12083          	lw	ra,44(sp)
  10101c:	03010113          	addi	sp,sp,48
  101020:	00008067          	ret

00101024 <InvMixColumns>:
#if (defined(CBC) && CBC == 1) || (defined(ECB) && ECB == 1)
// MixColumns function mixes the columns of the state matrix.
// The method used to multiply may be difficult to understand for the inexperienced.
// Please use the references to gain more information.
static void InvMixColumns(state_t* state)
{
  101024:	fd010113          	addi	sp,sp,-48
  101028:	02112623          	sw	ra,44(sp)
  10102c:	02812423          	sw	s0,40(sp)
  101030:	02912223          	sw	s1,36(sp)
  101034:	00a12623          	sw	a0,12(sp)
  int i;
  uint8_t a, b, c, d;
  for (i = 0; i < 4; ++i)
  101038:	00012e23          	sw	zero,28(sp)
  10103c:	2710006f          	j	101aac <InvMixColumns+0xa88>
  { 
    a = (*state)[i][0];
  101040:	00c12703          	lw	a4,12(sp)
  101044:	01c12783          	lw	a5,28(sp)
  101048:	00279793          	slli	a5,a5,0x2
  10104c:	00f707b3          	add	a5,a4,a5
  101050:	0007c783          	lbu	a5,0(a5)
  101054:	00f10da3          	sb	a5,27(sp)
    b = (*state)[i][1];
  101058:	00c12703          	lw	a4,12(sp)
  10105c:	01c12783          	lw	a5,28(sp)
  101060:	00279793          	slli	a5,a5,0x2
  101064:	00f707b3          	add	a5,a4,a5
  101068:	0017c783          	lbu	a5,1(a5)
  10106c:	00f10d23          	sb	a5,26(sp)
    c = (*state)[i][2];
  101070:	00c12703          	lw	a4,12(sp)
  101074:	01c12783          	lw	a5,28(sp)
  101078:	00279793          	slli	a5,a5,0x2
  10107c:	00f707b3          	add	a5,a4,a5
  101080:	0027c783          	lbu	a5,2(a5)
  101084:	00f10ca3          	sb	a5,25(sp)
    d = (*state)[i][3];
  101088:	00c12703          	lw	a4,12(sp)
  10108c:	01c12783          	lw	a5,28(sp)
  101090:	00279793          	slli	a5,a5,0x2
  101094:	00f707b3          	add	a5,a4,a5
  101098:	0037c783          	lbu	a5,3(a5)
  10109c:	00f10c23          	sb	a5,24(sp)

    (*state)[i][0] = Multiply(a, 0x0e) ^ Multiply(b, 0x0b) ^ Multiply(c, 0x0d) ^ Multiply(d, 0x09);
  1010a0:	01b14783          	lbu	a5,27(sp)
  1010a4:	00078513          	mv	a0,a5
  1010a8:	c59ff0ef          	jal	ra,100d00 <xtime>
  1010ac:	00050793          	mv	a5,a0
  1010b0:	00078513          	mv	a0,a5
  1010b4:	c4dff0ef          	jal	ra,100d00 <xtime>
  1010b8:	00050793          	mv	a5,a0
  1010bc:	00078513          	mv	a0,a5
  1010c0:	c41ff0ef          	jal	ra,100d00 <xtime>
  1010c4:	00050793          	mv	a5,a0
  1010c8:	00078513          	mv	a0,a5
  1010cc:	c35ff0ef          	jal	ra,100d00 <xtime>
  1010d0:	01a14783          	lbu	a5,26(sp)
  1010d4:	00078513          	mv	a0,a5
  1010d8:	c29ff0ef          	jal	ra,100d00 <xtime>
  1010dc:	00050793          	mv	a5,a0
  1010e0:	00078513          	mv	a0,a5
  1010e4:	c1dff0ef          	jal	ra,100d00 <xtime>
  1010e8:	01a14783          	lbu	a5,26(sp)
  1010ec:	00078513          	mv	a0,a5
  1010f0:	c11ff0ef          	jal	ra,100d00 <xtime>
  1010f4:	00050793          	mv	a5,a0
  1010f8:	00078513          	mv	a0,a5
  1010fc:	c05ff0ef          	jal	ra,100d00 <xtime>
  101100:	00050793          	mv	a5,a0
  101104:	00078513          	mv	a0,a5
  101108:	bf9ff0ef          	jal	ra,100d00 <xtime>
  10110c:	00050793          	mv	a5,a0
  101110:	00078513          	mv	a0,a5
  101114:	bedff0ef          	jal	ra,100d00 <xtime>
  101118:	01914783          	lbu	a5,25(sp)
  10111c:	00078513          	mv	a0,a5
  101120:	be1ff0ef          	jal	ra,100d00 <xtime>
  101124:	01914783          	lbu	a5,25(sp)
  101128:	00078513          	mv	a0,a5
  10112c:	bd5ff0ef          	jal	ra,100d00 <xtime>
  101130:	00050793          	mv	a5,a0
  101134:	00078513          	mv	a0,a5
  101138:	bc9ff0ef          	jal	ra,100d00 <xtime>
  10113c:	00050793          	mv	a5,a0
  101140:	00078513          	mv	a0,a5
  101144:	bbdff0ef          	jal	ra,100d00 <xtime>
  101148:	00050793          	mv	a5,a0
  10114c:	00078513          	mv	a0,a5
  101150:	bb1ff0ef          	jal	ra,100d00 <xtime>
  101154:	01814783          	lbu	a5,24(sp)
  101158:	00078513          	mv	a0,a5
  10115c:	ba5ff0ef          	jal	ra,100d00 <xtime>
  101160:	01814783          	lbu	a5,24(sp)
  101164:	00078513          	mv	a0,a5
  101168:	b99ff0ef          	jal	ra,100d00 <xtime>
  10116c:	00050793          	mv	a5,a0
  101170:	00078513          	mv	a0,a5
  101174:	b8dff0ef          	jal	ra,100d00 <xtime>
  101178:	01814783          	lbu	a5,24(sp)
  10117c:	00078513          	mv	a0,a5
  101180:	b81ff0ef          	jal	ra,100d00 <xtime>
  101184:	00050793          	mv	a5,a0
  101188:	00078513          	mv	a0,a5
  10118c:	b75ff0ef          	jal	ra,100d00 <xtime>
  101190:	00050793          	mv	a5,a0
  101194:	00078513          	mv	a0,a5
  101198:	b69ff0ef          	jal	ra,100d00 <xtime>
  10119c:	00050793          	mv	a5,a0
  1011a0:	00078513          	mv	a0,a5
  1011a4:	b5dff0ef          	jal	ra,100d00 <xtime>
  1011a8:	01b14783          	lbu	a5,27(sp)
  1011ac:	00078513          	mv	a0,a5
  1011b0:	b51ff0ef          	jal	ra,100d00 <xtime>
  1011b4:	00050793          	mv	a5,a0
  1011b8:	00078413          	mv	s0,a5
  1011bc:	01b14783          	lbu	a5,27(sp)
  1011c0:	00078513          	mv	a0,a5
  1011c4:	b3dff0ef          	jal	ra,100d00 <xtime>
  1011c8:	00050793          	mv	a5,a0
  1011cc:	00078513          	mv	a0,a5
  1011d0:	b31ff0ef          	jal	ra,100d00 <xtime>
  1011d4:	00050793          	mv	a5,a0
  1011d8:	00f447b3          	xor	a5,s0,a5
  1011dc:	0ff7f413          	andi	s0,a5,255
  1011e0:	01b14783          	lbu	a5,27(sp)
  1011e4:	00078513          	mv	a0,a5
  1011e8:	b19ff0ef          	jal	ra,100d00 <xtime>
  1011ec:	00050793          	mv	a5,a0
  1011f0:	00078513          	mv	a0,a5
  1011f4:	b0dff0ef          	jal	ra,100d00 <xtime>
  1011f8:	00050793          	mv	a5,a0
  1011fc:	00078513          	mv	a0,a5
  101200:	b01ff0ef          	jal	ra,100d00 <xtime>
  101204:	00050793          	mv	a5,a0
  101208:	00f447b3          	xor	a5,s0,a5
  10120c:	0ff7f413          	andi	s0,a5,255
  101210:	01a14783          	lbu	a5,26(sp)
  101214:	00078513          	mv	a0,a5
  101218:	ae9ff0ef          	jal	ra,100d00 <xtime>
  10121c:	00050793          	mv	a5,a0
  101220:	00078713          	mv	a4,a5
  101224:	01a14783          	lbu	a5,26(sp)
  101228:	00f747b3          	xor	a5,a4,a5
  10122c:	0ff7f493          	andi	s1,a5,255
  101230:	01a14783          	lbu	a5,26(sp)
  101234:	00078513          	mv	a0,a5
  101238:	ac9ff0ef          	jal	ra,100d00 <xtime>
  10123c:	00050793          	mv	a5,a0
  101240:	00078513          	mv	a0,a5
  101244:	abdff0ef          	jal	ra,100d00 <xtime>
  101248:	00050793          	mv	a5,a0
  10124c:	00078513          	mv	a0,a5
  101250:	ab1ff0ef          	jal	ra,100d00 <xtime>
  101254:	00050793          	mv	a5,a0
  101258:	00f4c7b3          	xor	a5,s1,a5
  10125c:	0ff7f793          	andi	a5,a5,255
  101260:	00f447b3          	xor	a5,s0,a5
  101264:	0ff7f413          	andi	s0,a5,255
  101268:	01914783          	lbu	a5,25(sp)
  10126c:	00078513          	mv	a0,a5
  101270:	a91ff0ef          	jal	ra,100d00 <xtime>
  101274:	00050793          	mv	a5,a0
  101278:	00078513          	mv	a0,a5
  10127c:	a85ff0ef          	jal	ra,100d00 <xtime>
  101280:	00050793          	mv	a5,a0
  101284:	00078713          	mv	a4,a5
  101288:	01914783          	lbu	a5,25(sp)
  10128c:	00f747b3          	xor	a5,a4,a5
  101290:	0ff7f493          	andi	s1,a5,255
  101294:	01914783          	lbu	a5,25(sp)
  101298:	00078513          	mv	a0,a5
  10129c:	a65ff0ef          	jal	ra,100d00 <xtime>
  1012a0:	00050793          	mv	a5,a0
  1012a4:	00078513          	mv	a0,a5
  1012a8:	a59ff0ef          	jal	ra,100d00 <xtime>
  1012ac:	00050793          	mv	a5,a0
  1012b0:	00078513          	mv	a0,a5
  1012b4:	a4dff0ef          	jal	ra,100d00 <xtime>
  1012b8:	00050793          	mv	a5,a0
  1012bc:	00f4c7b3          	xor	a5,s1,a5
  1012c0:	0ff7f793          	andi	a5,a5,255
  1012c4:	00f447b3          	xor	a5,s0,a5
  1012c8:	0ff7f413          	andi	s0,a5,255
  1012cc:	01814783          	lbu	a5,24(sp)
  1012d0:	00078513          	mv	a0,a5
  1012d4:	a2dff0ef          	jal	ra,100d00 <xtime>
  1012d8:	00050793          	mv	a5,a0
  1012dc:	00078513          	mv	a0,a5
  1012e0:	a21ff0ef          	jal	ra,100d00 <xtime>
  1012e4:	00050793          	mv	a5,a0
  1012e8:	00078513          	mv	a0,a5
  1012ec:	a15ff0ef          	jal	ra,100d00 <xtime>
  1012f0:	00050793          	mv	a5,a0
  1012f4:	00078713          	mv	a4,a5
  1012f8:	01814783          	lbu	a5,24(sp)
  1012fc:	00f747b3          	xor	a5,a4,a5
  101300:	0ff7f793          	andi	a5,a5,255
  101304:	00f447b3          	xor	a5,s0,a5
  101308:	0ff7f713          	andi	a4,a5,255
  10130c:	00c12683          	lw	a3,12(sp)
  101310:	01c12783          	lw	a5,28(sp)
  101314:	00279793          	slli	a5,a5,0x2
  101318:	00f687b3          	add	a5,a3,a5
  10131c:	00e78023          	sb	a4,0(a5)
    (*state)[i][1] = Multiply(a, 0x09) ^ Multiply(b, 0x0e) ^ Multiply(c, 0x0b) ^ Multiply(d, 0x0d);
  101320:	01b14783          	lbu	a5,27(sp)
  101324:	00078513          	mv	a0,a5
  101328:	9d9ff0ef          	jal	ra,100d00 <xtime>
  10132c:	01b14783          	lbu	a5,27(sp)
  101330:	00078513          	mv	a0,a5
  101334:	9cdff0ef          	jal	ra,100d00 <xtime>
  101338:	00050793          	mv	a5,a0
  10133c:	00078513          	mv	a0,a5
  101340:	9c1ff0ef          	jal	ra,100d00 <xtime>
  101344:	01b14783          	lbu	a5,27(sp)
  101348:	00078513          	mv	a0,a5
  10134c:	9b5ff0ef          	jal	ra,100d00 <xtime>
  101350:	00050793          	mv	a5,a0
  101354:	00078513          	mv	a0,a5
  101358:	9a9ff0ef          	jal	ra,100d00 <xtime>
  10135c:	00050793          	mv	a5,a0
  101360:	00078513          	mv	a0,a5
  101364:	99dff0ef          	jal	ra,100d00 <xtime>
  101368:	00050793          	mv	a5,a0
  10136c:	00078513          	mv	a0,a5
  101370:	991ff0ef          	jal	ra,100d00 <xtime>
  101374:	01a14783          	lbu	a5,26(sp)
  101378:	00078513          	mv	a0,a5
  10137c:	985ff0ef          	jal	ra,100d00 <xtime>
  101380:	00050793          	mv	a5,a0
  101384:	00078513          	mv	a0,a5
  101388:	979ff0ef          	jal	ra,100d00 <xtime>
  10138c:	00050793          	mv	a5,a0
  101390:	00078513          	mv	a0,a5
  101394:	96dff0ef          	jal	ra,100d00 <xtime>
  101398:	00050793          	mv	a5,a0
  10139c:	00078513          	mv	a0,a5
  1013a0:	961ff0ef          	jal	ra,100d00 <xtime>
  1013a4:	01914783          	lbu	a5,25(sp)
  1013a8:	00078513          	mv	a0,a5
  1013ac:	955ff0ef          	jal	ra,100d00 <xtime>
  1013b0:	00050793          	mv	a5,a0
  1013b4:	00078513          	mv	a0,a5
  1013b8:	949ff0ef          	jal	ra,100d00 <xtime>
  1013bc:	01914783          	lbu	a5,25(sp)
  1013c0:	00078513          	mv	a0,a5
  1013c4:	93dff0ef          	jal	ra,100d00 <xtime>
  1013c8:	00050793          	mv	a5,a0
  1013cc:	00078513          	mv	a0,a5
  1013d0:	931ff0ef          	jal	ra,100d00 <xtime>
  1013d4:	00050793          	mv	a5,a0
  1013d8:	00078513          	mv	a0,a5
  1013dc:	925ff0ef          	jal	ra,100d00 <xtime>
  1013e0:	00050793          	mv	a5,a0
  1013e4:	00078513          	mv	a0,a5
  1013e8:	919ff0ef          	jal	ra,100d00 <xtime>
  1013ec:	01814783          	lbu	a5,24(sp)
  1013f0:	00078513          	mv	a0,a5
  1013f4:	90dff0ef          	jal	ra,100d00 <xtime>
  1013f8:	01814783          	lbu	a5,24(sp)
  1013fc:	00078513          	mv	a0,a5
  101400:	901ff0ef          	jal	ra,100d00 <xtime>
  101404:	00050793          	mv	a5,a0
  101408:	00078513          	mv	a0,a5
  10140c:	8f5ff0ef          	jal	ra,100d00 <xtime>
  101410:	00050793          	mv	a5,a0
  101414:	00078513          	mv	a0,a5
  101418:	8e9ff0ef          	jal	ra,100d00 <xtime>
  10141c:	00050793          	mv	a5,a0
  101420:	00078513          	mv	a0,a5
  101424:	8ddff0ef          	jal	ra,100d00 <xtime>
  101428:	01b14783          	lbu	a5,27(sp)
  10142c:	00078513          	mv	a0,a5
  101430:	8d1ff0ef          	jal	ra,100d00 <xtime>
  101434:	00050793          	mv	a5,a0
  101438:	00078513          	mv	a0,a5
  10143c:	8c5ff0ef          	jal	ra,100d00 <xtime>
  101440:	00050793          	mv	a5,a0
  101444:	00078513          	mv	a0,a5
  101448:	8b9ff0ef          	jal	ra,100d00 <xtime>
  10144c:	00050793          	mv	a5,a0
  101450:	00078713          	mv	a4,a5
  101454:	01b14783          	lbu	a5,27(sp)
  101458:	00f747b3          	xor	a5,a4,a5
  10145c:	0ff7f413          	andi	s0,a5,255
  101460:	01a14783          	lbu	a5,26(sp)
  101464:	00078513          	mv	a0,a5
  101468:	899ff0ef          	jal	ra,100d00 <xtime>
  10146c:	00050793          	mv	a5,a0
  101470:	00078493          	mv	s1,a5
  101474:	01a14783          	lbu	a5,26(sp)
  101478:	00078513          	mv	a0,a5
  10147c:	885ff0ef          	jal	ra,100d00 <xtime>
  101480:	00050793          	mv	a5,a0
  101484:	00078513          	mv	a0,a5
  101488:	879ff0ef          	jal	ra,100d00 <xtime>
  10148c:	00050793          	mv	a5,a0
  101490:	00f4c7b3          	xor	a5,s1,a5
  101494:	0ff7f493          	andi	s1,a5,255
  101498:	01a14783          	lbu	a5,26(sp)
  10149c:	00078513          	mv	a0,a5
  1014a0:	861ff0ef          	jal	ra,100d00 <xtime>
  1014a4:	00050793          	mv	a5,a0
  1014a8:	00078513          	mv	a0,a5
  1014ac:	855ff0ef          	jal	ra,100d00 <xtime>
  1014b0:	00050793          	mv	a5,a0
  1014b4:	00078513          	mv	a0,a5
  1014b8:	849ff0ef          	jal	ra,100d00 <xtime>
  1014bc:	00050793          	mv	a5,a0
  1014c0:	00f4c7b3          	xor	a5,s1,a5
  1014c4:	0ff7f793          	andi	a5,a5,255
  1014c8:	00f447b3          	xor	a5,s0,a5
  1014cc:	0ff7f413          	andi	s0,a5,255
  1014d0:	01914783          	lbu	a5,25(sp)
  1014d4:	00078513          	mv	a0,a5
  1014d8:	829ff0ef          	jal	ra,100d00 <xtime>
  1014dc:	00050793          	mv	a5,a0
  1014e0:	00078713          	mv	a4,a5
  1014e4:	01914783          	lbu	a5,25(sp)
  1014e8:	00f747b3          	xor	a5,a4,a5
  1014ec:	0ff7f493          	andi	s1,a5,255
  1014f0:	01914783          	lbu	a5,25(sp)
  1014f4:	00078513          	mv	a0,a5
  1014f8:	809ff0ef          	jal	ra,100d00 <xtime>
  1014fc:	00050793          	mv	a5,a0
  101500:	00078513          	mv	a0,a5
  101504:	ffcff0ef          	jal	ra,100d00 <xtime>
  101508:	00050793          	mv	a5,a0
  10150c:	00078513          	mv	a0,a5
  101510:	ff0ff0ef          	jal	ra,100d00 <xtime>
  101514:	00050793          	mv	a5,a0
  101518:	00f4c7b3          	xor	a5,s1,a5
  10151c:	0ff7f793          	andi	a5,a5,255
  101520:	00f447b3          	xor	a5,s0,a5
  101524:	0ff7f413          	andi	s0,a5,255
  101528:	01814783          	lbu	a5,24(sp)
  10152c:	00078513          	mv	a0,a5
  101530:	fd0ff0ef          	jal	ra,100d00 <xtime>
  101534:	00050793          	mv	a5,a0
  101538:	00078513          	mv	a0,a5
  10153c:	fc4ff0ef          	jal	ra,100d00 <xtime>
  101540:	00050793          	mv	a5,a0
  101544:	00078713          	mv	a4,a5
  101548:	01814783          	lbu	a5,24(sp)
  10154c:	00f747b3          	xor	a5,a4,a5
  101550:	0ff7f493          	andi	s1,a5,255
  101554:	01814783          	lbu	a5,24(sp)
  101558:	00078513          	mv	a0,a5
  10155c:	fa4ff0ef          	jal	ra,100d00 <xtime>
  101560:	00050793          	mv	a5,a0
  101564:	00078513          	mv	a0,a5
  101568:	f98ff0ef          	jal	ra,100d00 <xtime>
  10156c:	00050793          	mv	a5,a0
  101570:	00078513          	mv	a0,a5
  101574:	f8cff0ef          	jal	ra,100d00 <xtime>
  101578:	00050793          	mv	a5,a0
  10157c:	00f4c7b3          	xor	a5,s1,a5
  101580:	0ff7f793          	andi	a5,a5,255
  101584:	00f447b3          	xor	a5,s0,a5
  101588:	0ff7f713          	andi	a4,a5,255
  10158c:	00c12683          	lw	a3,12(sp)
  101590:	01c12783          	lw	a5,28(sp)
  101594:	00279793          	slli	a5,a5,0x2
  101598:	00f687b3          	add	a5,a3,a5
  10159c:	00e780a3          	sb	a4,1(a5)
    (*state)[i][2] = Multiply(a, 0x0d) ^ Multiply(b, 0x09) ^ Multiply(c, 0x0e) ^ Multiply(d, 0x0b);
  1015a0:	01b14783          	lbu	a5,27(sp)
  1015a4:	00078513          	mv	a0,a5
  1015a8:	f58ff0ef          	jal	ra,100d00 <xtime>
  1015ac:	01b14783          	lbu	a5,27(sp)
  1015b0:	00078513          	mv	a0,a5
  1015b4:	f4cff0ef          	jal	ra,100d00 <xtime>
  1015b8:	00050793          	mv	a5,a0
  1015bc:	00078513          	mv	a0,a5
  1015c0:	f40ff0ef          	jal	ra,100d00 <xtime>
  1015c4:	00050793          	mv	a5,a0
  1015c8:	00078513          	mv	a0,a5
  1015cc:	f34ff0ef          	jal	ra,100d00 <xtime>
  1015d0:	00050793          	mv	a5,a0
  1015d4:	00078513          	mv	a0,a5
  1015d8:	f28ff0ef          	jal	ra,100d00 <xtime>
  1015dc:	01a14783          	lbu	a5,26(sp)
  1015e0:	00078513          	mv	a0,a5
  1015e4:	f1cff0ef          	jal	ra,100d00 <xtime>
  1015e8:	01a14783          	lbu	a5,26(sp)
  1015ec:	00078513          	mv	a0,a5
  1015f0:	f10ff0ef          	jal	ra,100d00 <xtime>
  1015f4:	00050793          	mv	a5,a0
  1015f8:	00078513          	mv	a0,a5
  1015fc:	f04ff0ef          	jal	ra,100d00 <xtime>
  101600:	01a14783          	lbu	a5,26(sp)
  101604:	00078513          	mv	a0,a5
  101608:	ef8ff0ef          	jal	ra,100d00 <xtime>
  10160c:	00050793          	mv	a5,a0
  101610:	00078513          	mv	a0,a5
  101614:	eecff0ef          	jal	ra,100d00 <xtime>
  101618:	00050793          	mv	a5,a0
  10161c:	00078513          	mv	a0,a5
  101620:	ee0ff0ef          	jal	ra,100d00 <xtime>
  101624:	00050793          	mv	a5,a0
  101628:	00078513          	mv	a0,a5
  10162c:	ed4ff0ef          	jal	ra,100d00 <xtime>
  101630:	01914783          	lbu	a5,25(sp)
  101634:	00078513          	mv	a0,a5
  101638:	ec8ff0ef          	jal	ra,100d00 <xtime>
  10163c:	00050793          	mv	a5,a0
  101640:	00078513          	mv	a0,a5
  101644:	ebcff0ef          	jal	ra,100d00 <xtime>
  101648:	00050793          	mv	a5,a0
  10164c:	00078513          	mv	a0,a5
  101650:	eb0ff0ef          	jal	ra,100d00 <xtime>
  101654:	00050793          	mv	a5,a0
  101658:	00078513          	mv	a0,a5
  10165c:	ea4ff0ef          	jal	ra,100d00 <xtime>
  101660:	01814783          	lbu	a5,24(sp)
  101664:	00078513          	mv	a0,a5
  101668:	e98ff0ef          	jal	ra,100d00 <xtime>
  10166c:	00050793          	mv	a5,a0
  101670:	00078513          	mv	a0,a5
  101674:	e8cff0ef          	jal	ra,100d00 <xtime>
  101678:	01814783          	lbu	a5,24(sp)
  10167c:	00078513          	mv	a0,a5
  101680:	e80ff0ef          	jal	ra,100d00 <xtime>
  101684:	00050793          	mv	a5,a0
  101688:	00078513          	mv	a0,a5
  10168c:	e74ff0ef          	jal	ra,100d00 <xtime>
  101690:	00050793          	mv	a5,a0
  101694:	00078513          	mv	a0,a5
  101698:	e68ff0ef          	jal	ra,100d00 <xtime>
  10169c:	00050793          	mv	a5,a0
  1016a0:	00078513          	mv	a0,a5
  1016a4:	e5cff0ef          	jal	ra,100d00 <xtime>
  1016a8:	01b14783          	lbu	a5,27(sp)
  1016ac:	00078513          	mv	a0,a5
  1016b0:	e50ff0ef          	jal	ra,100d00 <xtime>
  1016b4:	00050793          	mv	a5,a0
  1016b8:	00078513          	mv	a0,a5
  1016bc:	e44ff0ef          	jal	ra,100d00 <xtime>
  1016c0:	00050793          	mv	a5,a0
  1016c4:	00078713          	mv	a4,a5
  1016c8:	01b14783          	lbu	a5,27(sp)
  1016cc:	00f747b3          	xor	a5,a4,a5
  1016d0:	0ff7f413          	andi	s0,a5,255
  1016d4:	01b14783          	lbu	a5,27(sp)
  1016d8:	00078513          	mv	a0,a5
  1016dc:	e24ff0ef          	jal	ra,100d00 <xtime>
  1016e0:	00050793          	mv	a5,a0
  1016e4:	00078513          	mv	a0,a5
  1016e8:	e18ff0ef          	jal	ra,100d00 <xtime>
  1016ec:	00050793          	mv	a5,a0
  1016f0:	00078513          	mv	a0,a5
  1016f4:	e0cff0ef          	jal	ra,100d00 <xtime>
  1016f8:	00050793          	mv	a5,a0
  1016fc:	00f447b3          	xor	a5,s0,a5
  101700:	0ff7f413          	andi	s0,a5,255
  101704:	01a14783          	lbu	a5,26(sp)
  101708:	00078513          	mv	a0,a5
  10170c:	df4ff0ef          	jal	ra,100d00 <xtime>
  101710:	00050793          	mv	a5,a0
  101714:	00078513          	mv	a0,a5
  101718:	de8ff0ef          	jal	ra,100d00 <xtime>
  10171c:	00050793          	mv	a5,a0
  101720:	00078513          	mv	a0,a5
  101724:	ddcff0ef          	jal	ra,100d00 <xtime>
  101728:	00050793          	mv	a5,a0
  10172c:	00078713          	mv	a4,a5
  101730:	01a14783          	lbu	a5,26(sp)
  101734:	00f747b3          	xor	a5,a4,a5
  101738:	0ff7f793          	andi	a5,a5,255
  10173c:	00f447b3          	xor	a5,s0,a5
  101740:	0ff7f413          	andi	s0,a5,255
  101744:	01914783          	lbu	a5,25(sp)
  101748:	00078513          	mv	a0,a5
  10174c:	db4ff0ef          	jal	ra,100d00 <xtime>
  101750:	00050793          	mv	a5,a0
  101754:	00078493          	mv	s1,a5
  101758:	01914783          	lbu	a5,25(sp)
  10175c:	00078513          	mv	a0,a5
  101760:	da0ff0ef          	jal	ra,100d00 <xtime>
  101764:	00050793          	mv	a5,a0
  101768:	00078513          	mv	a0,a5
  10176c:	d94ff0ef          	jal	ra,100d00 <xtime>
  101770:	00050793          	mv	a5,a0
  101774:	00f4c7b3          	xor	a5,s1,a5
  101778:	0ff7f493          	andi	s1,a5,255
  10177c:	01914783          	lbu	a5,25(sp)
  101780:	00078513          	mv	a0,a5
  101784:	d7cff0ef          	jal	ra,100d00 <xtime>
  101788:	00050793          	mv	a5,a0
  10178c:	00078513          	mv	a0,a5
  101790:	d70ff0ef          	jal	ra,100d00 <xtime>
  101794:	00050793          	mv	a5,a0
  101798:	00078513          	mv	a0,a5
  10179c:	d64ff0ef          	jal	ra,100d00 <xtime>
  1017a0:	00050793          	mv	a5,a0
  1017a4:	00f4c7b3          	xor	a5,s1,a5
  1017a8:	0ff7f793          	andi	a5,a5,255
  1017ac:	00f447b3          	xor	a5,s0,a5
  1017b0:	0ff7f413          	andi	s0,a5,255
  1017b4:	01814783          	lbu	a5,24(sp)
  1017b8:	00078513          	mv	a0,a5
  1017bc:	d44ff0ef          	jal	ra,100d00 <xtime>
  1017c0:	00050793          	mv	a5,a0
  1017c4:	00078713          	mv	a4,a5
  1017c8:	01814783          	lbu	a5,24(sp)
  1017cc:	00f747b3          	xor	a5,a4,a5
  1017d0:	0ff7f493          	andi	s1,a5,255
  1017d4:	01814783          	lbu	a5,24(sp)
  1017d8:	00078513          	mv	a0,a5
  1017dc:	d24ff0ef          	jal	ra,100d00 <xtime>
  1017e0:	00050793          	mv	a5,a0
  1017e4:	00078513          	mv	a0,a5
  1017e8:	d18ff0ef          	jal	ra,100d00 <xtime>
  1017ec:	00050793          	mv	a5,a0
  1017f0:	00078513          	mv	a0,a5
  1017f4:	d0cff0ef          	jal	ra,100d00 <xtime>
  1017f8:	00050793          	mv	a5,a0
  1017fc:	00f4c7b3          	xor	a5,s1,a5
  101800:	0ff7f793          	andi	a5,a5,255
  101804:	00f447b3          	xor	a5,s0,a5
  101808:	0ff7f713          	andi	a4,a5,255
  10180c:	00c12683          	lw	a3,12(sp)
  101810:	01c12783          	lw	a5,28(sp)
  101814:	00279793          	slli	a5,a5,0x2
  101818:	00f687b3          	add	a5,a3,a5
  10181c:	00e78123          	sb	a4,2(a5)
    (*state)[i][3] = Multiply(a, 0x0b) ^ Multiply(b, 0x0d) ^ Multiply(c, 0x09) ^ Multiply(d, 0x0e);
  101820:	01b14783          	lbu	a5,27(sp)
  101824:	00078513          	mv	a0,a5
  101828:	cd8ff0ef          	jal	ra,100d00 <xtime>
  10182c:	00050793          	mv	a5,a0
  101830:	00078513          	mv	a0,a5
  101834:	cccff0ef          	jal	ra,100d00 <xtime>
  101838:	01b14783          	lbu	a5,27(sp)
  10183c:	00078513          	mv	a0,a5
  101840:	cc0ff0ef          	jal	ra,100d00 <xtime>
  101844:	00050793          	mv	a5,a0
  101848:	00078513          	mv	a0,a5
  10184c:	cb4ff0ef          	jal	ra,100d00 <xtime>
  101850:	00050793          	mv	a5,a0
  101854:	00078513          	mv	a0,a5
  101858:	ca8ff0ef          	jal	ra,100d00 <xtime>
  10185c:	00050793          	mv	a5,a0
  101860:	00078513          	mv	a0,a5
  101864:	c9cff0ef          	jal	ra,100d00 <xtime>
  101868:	01a14783          	lbu	a5,26(sp)
  10186c:	00078513          	mv	a0,a5
  101870:	c90ff0ef          	jal	ra,100d00 <xtime>
  101874:	01a14783          	lbu	a5,26(sp)
  101878:	00078513          	mv	a0,a5
  10187c:	c84ff0ef          	jal	ra,100d00 <xtime>
  101880:	00050793          	mv	a5,a0
  101884:	00078513          	mv	a0,a5
  101888:	c78ff0ef          	jal	ra,100d00 <xtime>
  10188c:	00050793          	mv	a5,a0
  101890:	00078513          	mv	a0,a5
  101894:	c6cff0ef          	jal	ra,100d00 <xtime>
  101898:	00050793          	mv	a5,a0
  10189c:	00078513          	mv	a0,a5
  1018a0:	c60ff0ef          	jal	ra,100d00 <xtime>
  1018a4:	01914783          	lbu	a5,25(sp)
  1018a8:	00078513          	mv	a0,a5
  1018ac:	c54ff0ef          	jal	ra,100d00 <xtime>
  1018b0:	01914783          	lbu	a5,25(sp)
  1018b4:	00078513          	mv	a0,a5
  1018b8:	c48ff0ef          	jal	ra,100d00 <xtime>
  1018bc:	00050793          	mv	a5,a0
  1018c0:	00078513          	mv	a0,a5
  1018c4:	c3cff0ef          	jal	ra,100d00 <xtime>
  1018c8:	01914783          	lbu	a5,25(sp)
  1018cc:	00078513          	mv	a0,a5
  1018d0:	c30ff0ef          	jal	ra,100d00 <xtime>
  1018d4:	00050793          	mv	a5,a0
  1018d8:	00078513          	mv	a0,a5
  1018dc:	c24ff0ef          	jal	ra,100d00 <xtime>
  1018e0:	00050793          	mv	a5,a0
  1018e4:	00078513          	mv	a0,a5
  1018e8:	c18ff0ef          	jal	ra,100d00 <xtime>
  1018ec:	00050793          	mv	a5,a0
  1018f0:	00078513          	mv	a0,a5
  1018f4:	c0cff0ef          	jal	ra,100d00 <xtime>
  1018f8:	01814783          	lbu	a5,24(sp)
  1018fc:	00078513          	mv	a0,a5
  101900:	c00ff0ef          	jal	ra,100d00 <xtime>
  101904:	00050793          	mv	a5,a0
  101908:	00078513          	mv	a0,a5
  10190c:	bf4ff0ef          	jal	ra,100d00 <xtime>
  101910:	00050793          	mv	a5,a0
  101914:	00078513          	mv	a0,a5
  101918:	be8ff0ef          	jal	ra,100d00 <xtime>
  10191c:	00050793          	mv	a5,a0
  101920:	00078513          	mv	a0,a5
  101924:	bdcff0ef          	jal	ra,100d00 <xtime>
  101928:	01b14783          	lbu	a5,27(sp)
  10192c:	00078513          	mv	a0,a5
  101930:	bd0ff0ef          	jal	ra,100d00 <xtime>
  101934:	00050793          	mv	a5,a0
  101938:	00078713          	mv	a4,a5
  10193c:	01b14783          	lbu	a5,27(sp)
  101940:	00f747b3          	xor	a5,a4,a5
  101944:	0ff7f413          	andi	s0,a5,255
  101948:	01b14783          	lbu	a5,27(sp)
  10194c:	00078513          	mv	a0,a5
  101950:	bb0ff0ef          	jal	ra,100d00 <xtime>
  101954:	00050793          	mv	a5,a0
  101958:	00078513          	mv	a0,a5
  10195c:	ba4ff0ef          	jal	ra,100d00 <xtime>
  101960:	00050793          	mv	a5,a0
  101964:	00078513          	mv	a0,a5
  101968:	b98ff0ef          	jal	ra,100d00 <xtime>
  10196c:	00050793          	mv	a5,a0
  101970:	00f447b3          	xor	a5,s0,a5
  101974:	0ff7f413          	andi	s0,a5,255
  101978:	01a14783          	lbu	a5,26(sp)
  10197c:	00078513          	mv	a0,a5
  101980:	b80ff0ef          	jal	ra,100d00 <xtime>
  101984:	00050793          	mv	a5,a0
  101988:	00078513          	mv	a0,a5
  10198c:	b74ff0ef          	jal	ra,100d00 <xtime>
  101990:	00050793          	mv	a5,a0
  101994:	00078713          	mv	a4,a5
  101998:	01a14783          	lbu	a5,26(sp)
  10199c:	00f747b3          	xor	a5,a4,a5
  1019a0:	0ff7f493          	andi	s1,a5,255
  1019a4:	01a14783          	lbu	a5,26(sp)
  1019a8:	00078513          	mv	a0,a5
  1019ac:	b54ff0ef          	jal	ra,100d00 <xtime>
  1019b0:	00050793          	mv	a5,a0
  1019b4:	00078513          	mv	a0,a5
  1019b8:	b48ff0ef          	jal	ra,100d00 <xtime>
  1019bc:	00050793          	mv	a5,a0
  1019c0:	00078513          	mv	a0,a5
  1019c4:	b3cff0ef          	jal	ra,100d00 <xtime>
  1019c8:	00050793          	mv	a5,a0
  1019cc:	00f4c7b3          	xor	a5,s1,a5
  1019d0:	0ff7f793          	andi	a5,a5,255
  1019d4:	00f447b3          	xor	a5,s0,a5
  1019d8:	0ff7f413          	andi	s0,a5,255
  1019dc:	01914783          	lbu	a5,25(sp)
  1019e0:	00078513          	mv	a0,a5
  1019e4:	b1cff0ef          	jal	ra,100d00 <xtime>
  1019e8:	00050793          	mv	a5,a0
  1019ec:	00078513          	mv	a0,a5
  1019f0:	b10ff0ef          	jal	ra,100d00 <xtime>
  1019f4:	00050793          	mv	a5,a0
  1019f8:	00078513          	mv	a0,a5
  1019fc:	b04ff0ef          	jal	ra,100d00 <xtime>
  101a00:	00050793          	mv	a5,a0
  101a04:	00078713          	mv	a4,a5
  101a08:	01914783          	lbu	a5,25(sp)
  101a0c:	00f747b3          	xor	a5,a4,a5
  101a10:	0ff7f793          	andi	a5,a5,255
  101a14:	00f447b3          	xor	a5,s0,a5
  101a18:	0ff7f413          	andi	s0,a5,255
  101a1c:	01814783          	lbu	a5,24(sp)
  101a20:	00078513          	mv	a0,a5
  101a24:	adcff0ef          	jal	ra,100d00 <xtime>
  101a28:	00050793          	mv	a5,a0
  101a2c:	00078493          	mv	s1,a5
  101a30:	01814783          	lbu	a5,24(sp)
  101a34:	00078513          	mv	a0,a5
  101a38:	ac8ff0ef          	jal	ra,100d00 <xtime>
  101a3c:	00050793          	mv	a5,a0
  101a40:	00078513          	mv	a0,a5
  101a44:	abcff0ef          	jal	ra,100d00 <xtime>
  101a48:	00050793          	mv	a5,a0
  101a4c:	00f4c7b3          	xor	a5,s1,a5
  101a50:	0ff7f493          	andi	s1,a5,255
  101a54:	01814783          	lbu	a5,24(sp)
  101a58:	00078513          	mv	a0,a5
  101a5c:	aa4ff0ef          	jal	ra,100d00 <xtime>
  101a60:	00050793          	mv	a5,a0
  101a64:	00078513          	mv	a0,a5
  101a68:	a98ff0ef          	jal	ra,100d00 <xtime>
  101a6c:	00050793          	mv	a5,a0
  101a70:	00078513          	mv	a0,a5
  101a74:	a8cff0ef          	jal	ra,100d00 <xtime>
  101a78:	00050793          	mv	a5,a0
  101a7c:	00f4c7b3          	xor	a5,s1,a5
  101a80:	0ff7f793          	andi	a5,a5,255
  101a84:	00f447b3          	xor	a5,s0,a5
  101a88:	0ff7f713          	andi	a4,a5,255
  101a8c:	00c12683          	lw	a3,12(sp)
  101a90:	01c12783          	lw	a5,28(sp)
  101a94:	00279793          	slli	a5,a5,0x2
  101a98:	00f687b3          	add	a5,a3,a5
  101a9c:	00e781a3          	sb	a4,3(a5)
  for (i = 0; i < 4; ++i)
  101aa0:	01c12783          	lw	a5,28(sp)
  101aa4:	00178793          	addi	a5,a5,1
  101aa8:	00f12e23          	sw	a5,28(sp)
  101aac:	01c12703          	lw	a4,28(sp)
  101ab0:	00300793          	li	a5,3
  101ab4:	d8e7d663          	bge	a5,a4,101040 <InvMixColumns+0x1c>
  }
}
  101ab8:	00000013          	nop
  101abc:	00000013          	nop
  101ac0:	02c12083          	lw	ra,44(sp)
  101ac4:	02812403          	lw	s0,40(sp)
  101ac8:	02412483          	lw	s1,36(sp)
  101acc:	03010113          	addi	sp,sp,48
  101ad0:	00008067          	ret

00101ad4 <InvSubBytes>:


// The SubBytes Function Substitutes the values in the
// state matrix with values in an S-box.
static void InvSubBytes(state_t* state)
{
  101ad4:	fe010113          	addi	sp,sp,-32
  101ad8:	00a12623          	sw	a0,12(sp)
  uint8_t i, j;
  for (i = 0; i < 4; ++i)
  101adc:	00010fa3          	sb	zero,31(sp)
  101ae0:	07c0006f          	j	101b5c <InvSubBytes+0x88>
  {
    for (j = 0; j < 4; ++j)
  101ae4:	00010f23          	sb	zero,30(sp)
  101ae8:	05c0006f          	j	101b44 <InvSubBytes+0x70>
    {
      (*state)[j][i] = getSBoxInvert((*state)[j][i]);
  101aec:	01e14703          	lbu	a4,30(sp)
  101af0:	01f14783          	lbu	a5,31(sp)
  101af4:	00c12683          	lw	a3,12(sp)
  101af8:	00271713          	slli	a4,a4,0x2
  101afc:	00e68733          	add	a4,a3,a4
  101b00:	00f707b3          	add	a5,a4,a5
  101b04:	0007c783          	lbu	a5,0(a5)
  101b08:	00078613          	mv	a2,a5
  101b0c:	01e14683          	lbu	a3,30(sp)
  101b10:	01f14783          	lbu	a5,31(sp)
  101b14:	00001717          	auipc	a4,0x1
  101b18:	b8870713          	addi	a4,a4,-1144 # 10269c <rsbox>
  101b1c:	00c70733          	add	a4,a4,a2
  101b20:	00074703          	lbu	a4,0(a4)
  101b24:	00c12603          	lw	a2,12(sp)
  101b28:	00269693          	slli	a3,a3,0x2
  101b2c:	00d606b3          	add	a3,a2,a3
  101b30:	00f687b3          	add	a5,a3,a5
  101b34:	00e78023          	sb	a4,0(a5)
    for (j = 0; j < 4; ++j)
  101b38:	01e14783          	lbu	a5,30(sp)
  101b3c:	00178793          	addi	a5,a5,1
  101b40:	00f10f23          	sb	a5,30(sp)
  101b44:	01e14703          	lbu	a4,30(sp)
  101b48:	00300793          	li	a5,3
  101b4c:	fae7f0e3          	bgeu	a5,a4,101aec <InvSubBytes+0x18>
  for (i = 0; i < 4; ++i)
  101b50:	01f14783          	lbu	a5,31(sp)
  101b54:	00178793          	addi	a5,a5,1
  101b58:	00f10fa3          	sb	a5,31(sp)
  101b5c:	01f14703          	lbu	a4,31(sp)
  101b60:	00300793          	li	a5,3
  101b64:	f8e7f0e3          	bgeu	a5,a4,101ae4 <InvSubBytes+0x10>
    }
  }
}
  101b68:	00000013          	nop
  101b6c:	00000013          	nop
  101b70:	02010113          	addi	sp,sp,32
  101b74:	00008067          	ret

00101b78 <InvShiftRows>:

static void InvShiftRows(state_t* state)
{
  101b78:	fe010113          	addi	sp,sp,-32
  101b7c:	00a12623          	sw	a0,12(sp)
  uint8_t temp;

  // Rotate first row 1 columns to right  
  temp = (*state)[3][1];
  101b80:	00c12783          	lw	a5,12(sp)
  101b84:	00d7c783          	lbu	a5,13(a5)
  101b88:	00f10fa3          	sb	a5,31(sp)
  (*state)[3][1] = (*state)[2][1];
  101b8c:	00c12783          	lw	a5,12(sp)
  101b90:	0097c703          	lbu	a4,9(a5)
  101b94:	00c12783          	lw	a5,12(sp)
  101b98:	00e786a3          	sb	a4,13(a5)
  (*state)[2][1] = (*state)[1][1];
  101b9c:	00c12783          	lw	a5,12(sp)
  101ba0:	0057c703          	lbu	a4,5(a5)
  101ba4:	00c12783          	lw	a5,12(sp)
  101ba8:	00e784a3          	sb	a4,9(a5)
  (*state)[1][1] = (*state)[0][1];
  101bac:	00c12783          	lw	a5,12(sp)
  101bb0:	0017c703          	lbu	a4,1(a5)
  101bb4:	00c12783          	lw	a5,12(sp)
  101bb8:	00e782a3          	sb	a4,5(a5)
  (*state)[0][1] = temp;
  101bbc:	00c12783          	lw	a5,12(sp)
  101bc0:	01f14703          	lbu	a4,31(sp)
  101bc4:	00e780a3          	sb	a4,1(a5)

  // Rotate second row 2 columns to right 
  temp = (*state)[0][2];
  101bc8:	00c12783          	lw	a5,12(sp)
  101bcc:	0027c783          	lbu	a5,2(a5)
  101bd0:	00f10fa3          	sb	a5,31(sp)
  (*state)[0][2] = (*state)[2][2];
  101bd4:	00c12783          	lw	a5,12(sp)
  101bd8:	00a7c703          	lbu	a4,10(a5)
  101bdc:	00c12783          	lw	a5,12(sp)
  101be0:	00e78123          	sb	a4,2(a5)
  (*state)[2][2] = temp;
  101be4:	00c12783          	lw	a5,12(sp)
  101be8:	01f14703          	lbu	a4,31(sp)
  101bec:	00e78523          	sb	a4,10(a5)

  temp = (*state)[1][2];
  101bf0:	00c12783          	lw	a5,12(sp)
  101bf4:	0067c783          	lbu	a5,6(a5)
  101bf8:	00f10fa3          	sb	a5,31(sp)
  (*state)[1][2] = (*state)[3][2];
  101bfc:	00c12783          	lw	a5,12(sp)
  101c00:	00e7c703          	lbu	a4,14(a5)
  101c04:	00c12783          	lw	a5,12(sp)
  101c08:	00e78323          	sb	a4,6(a5)
  (*state)[3][2] = temp;
  101c0c:	00c12783          	lw	a5,12(sp)
  101c10:	01f14703          	lbu	a4,31(sp)
  101c14:	00e78723          	sb	a4,14(a5)

  // Rotate third row 3 columns to right
  temp = (*state)[0][3];
  101c18:	00c12783          	lw	a5,12(sp)
  101c1c:	0037c783          	lbu	a5,3(a5)
  101c20:	00f10fa3          	sb	a5,31(sp)
  (*state)[0][3] = (*state)[1][3];
  101c24:	00c12783          	lw	a5,12(sp)
  101c28:	0077c703          	lbu	a4,7(a5)
  101c2c:	00c12783          	lw	a5,12(sp)
  101c30:	00e781a3          	sb	a4,3(a5)
  (*state)[1][3] = (*state)[2][3];
  101c34:	00c12783          	lw	a5,12(sp)
  101c38:	00b7c703          	lbu	a4,11(a5)
  101c3c:	00c12783          	lw	a5,12(sp)
  101c40:	00e783a3          	sb	a4,7(a5)
  (*state)[2][3] = (*state)[3][3];
  101c44:	00c12783          	lw	a5,12(sp)
  101c48:	00f7c703          	lbu	a4,15(a5)
  101c4c:	00c12783          	lw	a5,12(sp)
  101c50:	00e785a3          	sb	a4,11(a5)
  (*state)[3][3] = temp;
  101c54:	00c12783          	lw	a5,12(sp)
  101c58:	01f14703          	lbu	a4,31(sp)
  101c5c:	00e787a3          	sb	a4,15(a5)
}
  101c60:	00000013          	nop
  101c64:	02010113          	addi	sp,sp,32
  101c68:	00008067          	ret

00101c6c <Cipher>:
#endif // #if (defined(CBC) && CBC == 1) || (defined(ECB) && ECB == 1)

// Cipher is the main function that encrypts the PlainText.
static void Cipher(state_t* state, const uint8_t* RoundKey)
{
  101c6c:	fd010113          	addi	sp,sp,-48
  101c70:	02112623          	sw	ra,44(sp)
  101c74:	00a12623          	sw	a0,12(sp)
  101c78:	00b12423          	sw	a1,8(sp)
  uint8_t round = 0;
  101c7c:	00010fa3          	sb	zero,31(sp)

  // Add the First round key to the state before starting the rounds.
  AddRoundKey(0, state, RoundKey);
  101c80:	00812603          	lw	a2,8(sp)
  101c84:	00c12583          	lw	a1,12(sp)
  101c88:	00000513          	li	a0,0
  101c8c:	e0dfe0ef          	jal	ra,100a98 <AddRoundKey>

  // There will be Nr rounds.
  // The first Nr-1 rounds are identical.
  // These Nr rounds are executed in the loop below.
  // Last one without MixColumns()
  for (round = 1; ; ++round)
  101c90:	00100793          	li	a5,1
  101c94:	00f10fa3          	sb	a5,31(sp)
  {
    SubBytes(state);
  101c98:	00c12503          	lw	a0,12(sp)
  101c9c:	ecdfe0ef          	jal	ra,100b68 <SubBytes>
    ShiftRows(state);
  101ca0:	00c12503          	lw	a0,12(sp)
  101ca4:	f69fe0ef          	jal	ra,100c0c <ShiftRows>
    if (round == Nr) {
  101ca8:	01f14703          	lbu	a4,31(sp)
  101cac:	00a00793          	li	a5,10
  101cb0:	02f70863          	beq	a4,a5,101ce0 <Cipher+0x74>
      break;
    }
    MixColumns(state);
  101cb4:	00c12503          	lw	a0,12(sp)
  101cb8:	8acff0ef          	jal	ra,100d64 <MixColumns>
    AddRoundKey(round, state, RoundKey);
  101cbc:	01f14783          	lbu	a5,31(sp)
  101cc0:	00812603          	lw	a2,8(sp)
  101cc4:	00c12583          	lw	a1,12(sp)
  101cc8:	00078513          	mv	a0,a5
  101ccc:	dcdfe0ef          	jal	ra,100a98 <AddRoundKey>
  for (round = 1; ; ++round)
  101cd0:	01f14783          	lbu	a5,31(sp)
  101cd4:	00178793          	addi	a5,a5,1
  101cd8:	00f10fa3          	sb	a5,31(sp)
    SubBytes(state);
  101cdc:	fbdff06f          	j	101c98 <Cipher+0x2c>
      break;
  101ce0:	00000013          	nop
  }
  // Add round key to last round
  AddRoundKey(Nr, state, RoundKey);
  101ce4:	00812603          	lw	a2,8(sp)
  101ce8:	00c12583          	lw	a1,12(sp)
  101cec:	00a00513          	li	a0,10
  101cf0:	da9fe0ef          	jal	ra,100a98 <AddRoundKey>
}
  101cf4:	00000013          	nop
  101cf8:	02c12083          	lw	ra,44(sp)
  101cfc:	03010113          	addi	sp,sp,48
  101d00:	00008067          	ret

00101d04 <InvCipher>:

#if (defined(CBC) && CBC == 1) || (defined(ECB) && ECB == 1)
static void InvCipher(state_t* state, const uint8_t* RoundKey)
{
  101d04:	fd010113          	addi	sp,sp,-48
  101d08:	02112623          	sw	ra,44(sp)
  101d0c:	00a12623          	sw	a0,12(sp)
  101d10:	00b12423          	sw	a1,8(sp)
  uint8_t round = 0;
  101d14:	00010fa3          	sb	zero,31(sp)

  // Add the First round key to the state before starting the rounds.
  AddRoundKey(Nr, state, RoundKey);
  101d18:	00812603          	lw	a2,8(sp)
  101d1c:	00c12583          	lw	a1,12(sp)
  101d20:	00a00513          	li	a0,10
  101d24:	d75fe0ef          	jal	ra,100a98 <AddRoundKey>

  // There will be Nr rounds.
  // The first Nr-1 rounds are identical.
  // These Nr rounds are executed in the loop below.
  // Last one without InvMixColumn()
  for (round = (Nr - 1); ; --round)
  101d28:	00900793          	li	a5,9
  101d2c:	00f10fa3          	sb	a5,31(sp)
  {
    InvShiftRows(state);
  101d30:	00c12503          	lw	a0,12(sp)
  101d34:	e45ff0ef          	jal	ra,101b78 <InvShiftRows>
    InvSubBytes(state);
  101d38:	00c12503          	lw	a0,12(sp)
  101d3c:	d99ff0ef          	jal	ra,101ad4 <InvSubBytes>
    AddRoundKey(round, state, RoundKey);
  101d40:	01f14783          	lbu	a5,31(sp)
  101d44:	00812603          	lw	a2,8(sp)
  101d48:	00c12583          	lw	a1,12(sp)
  101d4c:	00078513          	mv	a0,a5
  101d50:	d49fe0ef          	jal	ra,100a98 <AddRoundKey>
    if (round == 0) {
  101d54:	01f14783          	lbu	a5,31(sp)
  101d58:	00078e63          	beqz	a5,101d74 <InvCipher+0x70>
      break;
    }
    InvMixColumns(state);
  101d5c:	00c12503          	lw	a0,12(sp)
  101d60:	ac4ff0ef          	jal	ra,101024 <InvMixColumns>
  for (round = (Nr - 1); ; --round)
  101d64:	01f14783          	lbu	a5,31(sp)
  101d68:	fff78793          	addi	a5,a5,-1
  101d6c:	00f10fa3          	sb	a5,31(sp)
    InvShiftRows(state);
  101d70:	fc1ff06f          	j	101d30 <InvCipher+0x2c>
      break;
  101d74:	00000013          	nop
  }

}
  101d78:	00000013          	nop
  101d7c:	02c12083          	lw	ra,44(sp)
  101d80:	03010113          	addi	sp,sp,48
  101d84:	00008067          	ret

00101d88 <AES_ECB_encrypt>:
/*****************************************************************************/
#if defined(ECB) && (ECB == 1)


void AES_ECB_encrypt(const struct AES_ctx* ctx, uint8_t* buf)
{
  101d88:	fe010113          	addi	sp,sp,-32
  101d8c:	00112e23          	sw	ra,28(sp)
  101d90:	00a12623          	sw	a0,12(sp)
  101d94:	00b12423          	sw	a1,8(sp)
  // The next function call encrypts the PlainText with the Key using AES algorithm.
  Cipher((state_t*)buf, ctx->RoundKey);
  101d98:	00c12783          	lw	a5,12(sp)
  101d9c:	00078593          	mv	a1,a5
  101da0:	00812503          	lw	a0,8(sp)
  101da4:	ec9ff0ef          	jal	ra,101c6c <Cipher>
}
  101da8:	00000013          	nop
  101dac:	01c12083          	lw	ra,28(sp)
  101db0:	02010113          	addi	sp,sp,32
  101db4:	00008067          	ret

00101db8 <AES_ECB_decrypt>:

void AES_ECB_decrypt(const struct AES_ctx* ctx, uint8_t* buf)
{
  101db8:	fe010113          	addi	sp,sp,-32
  101dbc:	00112e23          	sw	ra,28(sp)
  101dc0:	00a12623          	sw	a0,12(sp)
  101dc4:	00b12423          	sw	a1,8(sp)
  // The next function call decrypts the PlainText with the Key using AES algorithm.
  InvCipher((state_t*)buf, ctx->RoundKey);
  101dc8:	00c12783          	lw	a5,12(sp)
  101dcc:	00078593          	mv	a1,a5
  101dd0:	00812503          	lw	a0,8(sp)
  101dd4:	f31ff0ef          	jal	ra,101d04 <InvCipher>
}
  101dd8:	00000013          	nop
  101ddc:	01c12083          	lw	ra,28(sp)
  101de0:	02010113          	addi	sp,sp,32
  101de4:	00008067          	ret

00101de8 <XorWithIv>:

#if defined(CBC) && (CBC == 1)


static void XorWithIv(uint8_t* buf, const uint8_t* Iv)
{
  101de8:	fe010113          	addi	sp,sp,-32
  101dec:	00a12623          	sw	a0,12(sp)
  101df0:	00b12423          	sw	a1,8(sp)
  uint8_t i;
  for (i = 0; i < AES_BLOCKLEN; ++i) // The block in AES is always 128bit no matter the key size
  101df4:	00010fa3          	sb	zero,31(sp)
  101df8:	0480006f          	j	101e40 <XorWithIv+0x58>
  {
    buf[i] ^= Iv[i];
  101dfc:	01f14783          	lbu	a5,31(sp)
  101e00:	00c12703          	lw	a4,12(sp)
  101e04:	00f707b3          	add	a5,a4,a5
  101e08:	0007c683          	lbu	a3,0(a5)
  101e0c:	01f14783          	lbu	a5,31(sp)
  101e10:	00812703          	lw	a4,8(sp)
  101e14:	00f707b3          	add	a5,a4,a5
  101e18:	0007c703          	lbu	a4,0(a5)
  101e1c:	01f14783          	lbu	a5,31(sp)
  101e20:	00c12603          	lw	a2,12(sp)
  101e24:	00f607b3          	add	a5,a2,a5
  101e28:	00e6c733          	xor	a4,a3,a4
  101e2c:	0ff77713          	andi	a4,a4,255
  101e30:	00e78023          	sb	a4,0(a5)
  for (i = 0; i < AES_BLOCKLEN; ++i) // The block in AES is always 128bit no matter the key size
  101e34:	01f14783          	lbu	a5,31(sp)
  101e38:	00178793          	addi	a5,a5,1
  101e3c:	00f10fa3          	sb	a5,31(sp)
  101e40:	01f14703          	lbu	a4,31(sp)
  101e44:	00f00793          	li	a5,15
  101e48:	fae7fae3          	bgeu	a5,a4,101dfc <XorWithIv+0x14>
  }
}
  101e4c:	00000013          	nop
  101e50:	00000013          	nop
  101e54:	02010113          	addi	sp,sp,32
  101e58:	00008067          	ret

00101e5c <AES_CBC_encrypt_buffer>:

void AES_CBC_encrypt_buffer(struct AES_ctx *ctx, uint8_t* buf, uint32_t length)
{
  101e5c:	fd010113          	addi	sp,sp,-48
  101e60:	02112623          	sw	ra,44(sp)
  101e64:	00a12623          	sw	a0,12(sp)
  101e68:	00b12423          	sw	a1,8(sp)
  101e6c:	00c12223          	sw	a2,4(sp)
  uintptr_t i;
  uint8_t *Iv = ctx->Iv;
  101e70:	00c12783          	lw	a5,12(sp)
  101e74:	0b078793          	addi	a5,a5,176
  101e78:	00f12c23          	sw	a5,24(sp)
  for (i = 0; i < length; i += AES_BLOCKLEN)
  101e7c:	00012e23          	sw	zero,28(sp)
  101e80:	0400006f          	j	101ec0 <AES_CBC_encrypt_buffer+0x64>
  {
    XorWithIv(buf, Iv);
  101e84:	01812583          	lw	a1,24(sp)
  101e88:	00812503          	lw	a0,8(sp)
  101e8c:	f5dff0ef          	jal	ra,101de8 <XorWithIv>
    Cipher((state_t*)buf, ctx->RoundKey);
  101e90:	00c12783          	lw	a5,12(sp)
  101e94:	00078593          	mv	a1,a5
  101e98:	00812503          	lw	a0,8(sp)
  101e9c:	dd1ff0ef          	jal	ra,101c6c <Cipher>
    Iv = buf;
  101ea0:	00812783          	lw	a5,8(sp)
  101ea4:	00f12c23          	sw	a5,24(sp)
    buf += AES_BLOCKLEN;
  101ea8:	00812783          	lw	a5,8(sp)
  101eac:	01078793          	addi	a5,a5,16
  101eb0:	00f12423          	sw	a5,8(sp)
  for (i = 0; i < length; i += AES_BLOCKLEN)
  101eb4:	01c12783          	lw	a5,28(sp)
  101eb8:	01078793          	addi	a5,a5,16
  101ebc:	00f12e23          	sw	a5,28(sp)
  101ec0:	01c12703          	lw	a4,28(sp)
  101ec4:	00412783          	lw	a5,4(sp)
  101ec8:	faf76ee3          	bltu	a4,a5,101e84 <AES_CBC_encrypt_buffer+0x28>
    //printf("Step %d - %d", i/16, i);
  }
  /* store Iv in ctx for next call */
  memcpy(ctx->Iv, Iv, AES_BLOCKLEN);
  101ecc:	00c12783          	lw	a5,12(sp)
  101ed0:	0b078793          	addi	a5,a5,176
  101ed4:	01000613          	li	a2,16
  101ed8:	01812583          	lw	a1,24(sp)
  101edc:	00078513          	mv	a0,a5
  101ee0:	2d8000ef          	jal	ra,1021b8 <memcpy>
}
  101ee4:	00000013          	nop
  101ee8:	02c12083          	lw	ra,44(sp)
  101eec:	03010113          	addi	sp,sp,48
  101ef0:	00008067          	ret

00101ef4 <AES_CBC_decrypt_buffer>:

void AES_CBC_decrypt_buffer(struct AES_ctx* ctx, uint8_t* buf,  uint32_t length)
{
  101ef4:	fc010113          	addi	sp,sp,-64
  101ef8:	02112e23          	sw	ra,60(sp)
  101efc:	00a12623          	sw	a0,12(sp)
  101f00:	00b12423          	sw	a1,8(sp)
  101f04:	00c12223          	sw	a2,4(sp)
  uintptr_t i;
  uint8_t storeNextIv[AES_BLOCKLEN];
  for (i = 0; i < length; i += AES_BLOCKLEN)
  101f08:	02012623          	sw	zero,44(sp)
  101f0c:	0700006f          	j	101f7c <AES_CBC_decrypt_buffer+0x88>
  {
    memcpy(storeNextIv, buf, AES_BLOCKLEN);
  101f10:	01c10793          	addi	a5,sp,28
  101f14:	01000613          	li	a2,16
  101f18:	00812583          	lw	a1,8(sp)
  101f1c:	00078513          	mv	a0,a5
  101f20:	298000ef          	jal	ra,1021b8 <memcpy>
    InvCipher((state_t*)buf, ctx->RoundKey);
  101f24:	00c12783          	lw	a5,12(sp)
  101f28:	00078593          	mv	a1,a5
  101f2c:	00812503          	lw	a0,8(sp)
  101f30:	dd5ff0ef          	jal	ra,101d04 <InvCipher>
    XorWithIv(buf, ctx->Iv);
  101f34:	00c12783          	lw	a5,12(sp)
  101f38:	0b078793          	addi	a5,a5,176
  101f3c:	00078593          	mv	a1,a5
  101f40:	00812503          	lw	a0,8(sp)
  101f44:	ea5ff0ef          	jal	ra,101de8 <XorWithIv>
    memcpy(ctx->Iv, storeNextIv, AES_BLOCKLEN);
  101f48:	00c12783          	lw	a5,12(sp)
  101f4c:	0b078793          	addi	a5,a5,176
  101f50:	01c10713          	addi	a4,sp,28
  101f54:	01000613          	li	a2,16
  101f58:	00070593          	mv	a1,a4
  101f5c:	00078513          	mv	a0,a5
  101f60:	258000ef          	jal	ra,1021b8 <memcpy>
    buf += AES_BLOCKLEN;
  101f64:	00812783          	lw	a5,8(sp)
  101f68:	01078793          	addi	a5,a5,16
  101f6c:	00f12423          	sw	a5,8(sp)
  for (i = 0; i < length; i += AES_BLOCKLEN)
  101f70:	02c12783          	lw	a5,44(sp)
  101f74:	01078793          	addi	a5,a5,16
  101f78:	02f12623          	sw	a5,44(sp)
  101f7c:	02c12703          	lw	a4,44(sp)
  101f80:	00412783          	lw	a5,4(sp)
  101f84:	f8f766e3          	bltu	a4,a5,101f10 <AES_CBC_decrypt_buffer+0x1c>
  }

}
  101f88:	00000013          	nop
  101f8c:	00000013          	nop
  101f90:	03c12083          	lw	ra,60(sp)
  101f94:	04010113          	addi	sp,sp,64
  101f98:	00008067          	ret

00101f9c <AES_CTR_xcrypt_buffer>:

#if defined(CTR) && (CTR == 1)

/* Symmetrical operation: same function for encrypting as for decrypting. Note any IV/nonce should never be reused with the same key */
void AES_CTR_xcrypt_buffer(struct AES_ctx* ctx, uint8_t* buf, uint32_t length)
{
  101f9c:	fc010113          	addi	sp,sp,-64
  101fa0:	02112e23          	sw	ra,60(sp)
  101fa4:	00a12623          	sw	a0,12(sp)
  101fa8:	00b12423          	sw	a1,8(sp)
  101fac:	00c12223          	sw	a2,4(sp)
  uint8_t buffer[AES_BLOCKLEN];
  
  unsigned i;
  int bi;
  for (i = 0, bi = AES_BLOCKLEN; i < length; ++i, ++bi)
  101fb0:	02012623          	sw	zero,44(sp)
  101fb4:	01000793          	li	a5,16
  101fb8:	02f12423          	sw	a5,40(sp)
  101fbc:	10c0006f          	j	1020c8 <AES_CTR_xcrypt_buffer+0x12c>
  {
    if (bi == AES_BLOCKLEN) /* we need to regen xor compliment in buffer */
  101fc0:	02812703          	lw	a4,40(sp)
  101fc4:	01000793          	li	a5,16
  101fc8:	0af71863          	bne	a4,a5,102078 <AES_CTR_xcrypt_buffer+0xdc>
    {
      
      memcpy(buffer, ctx->Iv, AES_BLOCKLEN);
  101fcc:	00c12783          	lw	a5,12(sp)
  101fd0:	0b078713          	addi	a4,a5,176
  101fd4:	01810793          	addi	a5,sp,24
  101fd8:	01000613          	li	a2,16
  101fdc:	00070593          	mv	a1,a4
  101fe0:	00078513          	mv	a0,a5
  101fe4:	1d4000ef          	jal	ra,1021b8 <memcpy>
      Cipher((state_t*)buffer,ctx->RoundKey);
  101fe8:	00c12703          	lw	a4,12(sp)
  101fec:	01810793          	addi	a5,sp,24
  101ff0:	00070593          	mv	a1,a4
  101ff4:	00078513          	mv	a0,a5
  101ff8:	c75ff0ef          	jal	ra,101c6c <Cipher>

      /* Increment Iv and handle overflow */
      for (bi = (AES_BLOCKLEN - 1); bi >= 0; --bi)
  101ffc:	00f00793          	li	a5,15
  102000:	02f12423          	sw	a5,40(sp)
  102004:	0680006f          	j	10206c <AES_CTR_xcrypt_buffer+0xd0>
      {
	/* inc will overflow */
        if (ctx->Iv[bi] == 255)
  102008:	00c12703          	lw	a4,12(sp)
  10200c:	02812783          	lw	a5,40(sp)
  102010:	00f707b3          	add	a5,a4,a5
  102014:	0b07c703          	lbu	a4,176(a5)
  102018:	0ff00793          	li	a5,255
  10201c:	02f71263          	bne	a4,a5,102040 <AES_CTR_xcrypt_buffer+0xa4>
	{
          ctx->Iv[bi] = 0;
  102020:	00c12703          	lw	a4,12(sp)
  102024:	02812783          	lw	a5,40(sp)
  102028:	00f707b3          	add	a5,a4,a5
  10202c:	0a078823          	sb	zero,176(a5)
      for (bi = (AES_BLOCKLEN - 1); bi >= 0; --bi)
  102030:	02812783          	lw	a5,40(sp)
  102034:	fff78793          	addi	a5,a5,-1
  102038:	02f12423          	sw	a5,40(sp)
  10203c:	0300006f          	j	10206c <AES_CTR_xcrypt_buffer+0xd0>
          continue;
        } 
        ctx->Iv[bi] += 1;
  102040:	00c12703          	lw	a4,12(sp)
  102044:	02812783          	lw	a5,40(sp)
  102048:	00f707b3          	add	a5,a4,a5
  10204c:	0b07c783          	lbu	a5,176(a5)
  102050:	00178793          	addi	a5,a5,1
  102054:	0ff7f713          	andi	a4,a5,255
  102058:	00c12683          	lw	a3,12(sp)
  10205c:	02812783          	lw	a5,40(sp)
  102060:	00f687b3          	add	a5,a3,a5
  102064:	0ae78823          	sb	a4,176(a5)
        break;   
  102068:	00c0006f          	j	102074 <AES_CTR_xcrypt_buffer+0xd8>
      for (bi = (AES_BLOCKLEN - 1); bi >= 0; --bi)
  10206c:	02812783          	lw	a5,40(sp)
  102070:	f807dce3          	bgez	a5,102008 <AES_CTR_xcrypt_buffer+0x6c>
      }
      bi = 0;
  102074:	02012423          	sw	zero,40(sp)
    }

    buf[i] = (buf[i] ^ buffer[bi]);
  102078:	00812703          	lw	a4,8(sp)
  10207c:	02c12783          	lw	a5,44(sp)
  102080:	00f707b3          	add	a5,a4,a5
  102084:	0007c683          	lbu	a3,0(a5)
  102088:	02812783          	lw	a5,40(sp)
  10208c:	03010713          	addi	a4,sp,48
  102090:	00f707b3          	add	a5,a4,a5
  102094:	fe87c703          	lbu	a4,-24(a5)
  102098:	00812603          	lw	a2,8(sp)
  10209c:	02c12783          	lw	a5,44(sp)
  1020a0:	00f607b3          	add	a5,a2,a5
  1020a4:	00e6c733          	xor	a4,a3,a4
  1020a8:	0ff77713          	andi	a4,a4,255
  1020ac:	00e78023          	sb	a4,0(a5)
  for (i = 0, bi = AES_BLOCKLEN; i < length; ++i, ++bi)
  1020b0:	02c12783          	lw	a5,44(sp)
  1020b4:	00178793          	addi	a5,a5,1
  1020b8:	02f12623          	sw	a5,44(sp)
  1020bc:	02812783          	lw	a5,40(sp)
  1020c0:	00178793          	addi	a5,a5,1
  1020c4:	02f12423          	sw	a5,40(sp)
  1020c8:	02c12703          	lw	a4,44(sp)
  1020cc:	00412783          	lw	a5,4(sp)
  1020d0:	eef768e3          	bltu	a4,a5,101fc0 <AES_CTR_xcrypt_buffer+0x24>
  }
}
  1020d4:	00000013          	nop
  1020d8:	00000013          	nop
  1020dc:	03c12083          	lw	ra,60(sp)
  1020e0:	04010113          	addi	sp,sp,64
  1020e4:	00008067          	ret

001020e8 <default_exc_handler>:
  jal x0, simple_exc_handler
  1020e8:	a34fe06f          	j	10031c <simple_exc_handler>

001020ec <timer_handler>:
  jal x0, simple_timer_handler
  1020ec:	c84fe06f          	j	100570 <simple_timer_handler>

001020f0 <reset_handler>:
  mv  x1, x0
  1020f0:	00000093          	li	ra,0
  mv  x2, x1
  1020f4:	00008113          	mv	sp,ra
  mv  x3, x1
  1020f8:	00008193          	mv	gp,ra
  mv  x4, x1
  1020fc:	00008213          	mv	tp,ra
  mv  x5, x1
  102100:	00008293          	mv	t0,ra
  mv  x6, x1
  102104:	00008313          	mv	t1,ra
  mv  x7, x1
  102108:	00008393          	mv	t2,ra
  mv  x8, x1
  10210c:	00008413          	mv	s0,ra
  mv  x9, x1
  102110:	00008493          	mv	s1,ra
  mv x10, x1
  102114:	00008513          	mv	a0,ra
  mv x11, x1
  102118:	00008593          	mv	a1,ra
  mv x12, x1
  10211c:	00008613          	mv	a2,ra
  mv x13, x1
  102120:	00008693          	mv	a3,ra
  mv x14, x1
  102124:	00008713          	mv	a4,ra
  mv x15, x1
  102128:	00008793          	mv	a5,ra
  mv x16, x1
  10212c:	00008813          	mv	a6,ra
  mv x17, x1
  102130:	00008893          	mv	a7,ra
  mv x18, x1
  102134:	00008913          	mv	s2,ra
  mv x19, x1
  102138:	00008993          	mv	s3,ra
  mv x20, x1
  10213c:	00008a13          	mv	s4,ra
  mv x21, x1
  102140:	00008a93          	mv	s5,ra
  mv x22, x1
  102144:	00008b13          	mv	s6,ra
  mv x23, x1
  102148:	00008b93          	mv	s7,ra
  mv x24, x1
  10214c:	00008c13          	mv	s8,ra
  mv x25, x1
  102150:	00008c93          	mv	s9,ra
  mv x26, x1
  102154:	00008d13          	mv	s10,ra
  mv x27, x1
  102158:	00008d93          	mv	s11,ra
  mv x28, x1
  10215c:	00008e13          	mv	t3,ra
  mv x29, x1
  102160:	00008e93          	mv	t4,ra
  mv x30, x1
  102164:	00008f13          	mv	t5,ra
  mv x31, x1
  102168:	00008f93          	mv	t6,ra
  la   x2, _stack_start
  10216c:	000fe117          	auipc	sp,0xfe
  102170:	e9410113          	addi	sp,sp,-364 # 200000 <_stack_start>

00102174 <_start>:
  la x26, _bss_start
  102174:	00000d17          	auipc	s10,0x0
  102178:	694d0d13          	addi	s10,s10,1684 # 102808 <time_elapsed>
  la x27, _bss_end
  10217c:	00000d97          	auipc	s11,0x0
  102180:	68cd8d93          	addi	s11,s11,1676 # 102808 <time_elapsed>
  bge x26, x27, zero_loop_end
  102184:	01bd5863          	bge	s10,s11,102194 <main_entry>

00102188 <zero_loop>:
  sw x0, 0(x26)
  102188:	000d2023          	sw	zero,0(s10)
  addi x26, x26, 4
  10218c:	004d0d13          	addi	s10,s10,4
  ble x26, x27, zero_loop
  102190:	ffaddce3          	bge	s11,s10,102188 <zero_loop>

00102194 <main_entry>:
  addi x10, x0, 0
  102194:	00000513          	li	a0,0
  addi x11, x0, 0
  102198:	00000593          	li	a1,0
  jal x1, main
  10219c:	cc8fe0ef          	jal	ra,100664 <main>
  li x5, SIM_CTRL_BASE + SIM_CTRL_CTRL
  1021a0:	000202b7          	lui	t0,0x20
  1021a4:	00428293          	addi	t0,t0,4 # 20004 <_stack_len+0x18004>
  li x6, 1
  1021a8:	00100313          	li	t1,1
  sw x6, 0(x5)
  1021ac:	0062a023          	sw	t1,0(t0)

001021b0 <sleep_loop>:
  wfi
  1021b0:	10500073          	wfi
  j sleep_loop
  1021b4:	ffdff06f          	j	1021b0 <sleep_loop>

001021b8 <memcpy>:

#undef memcpy

void *
memcpy (void *dstpp, const void *srcpp, size_t len)
{
  1021b8:	1101                	addi	sp,sp,-32
  1021ba:	cc22                	sw	s0,24(sp)
  1021bc:	c84a                	sw	s2,16(sp)
  1021be:	ce06                	sw	ra,28(sp)
  1021c0:	ca26                	sw	s1,20(sp)
  1021c2:	c64e                	sw	s3,12(sp)
  unsigned long int srcp = (long int) srcpp;

  /* Copy from the beginning to the end.  */

  /* If there not too few bytes to copy, use word copy.  */
  if (len >= OP_T_THRES)
  1021c4:	47bd                	li	a5,15
{
  1021c6:	892a                	mv	s2,a0
  unsigned long int dstp = (long int) dstpp;
  1021c8:	872a                	mv	a4,a0
  unsigned long int srcp = (long int) srcpp;
  1021ca:	842e                	mv	s0,a1
  if (len >= OP_T_THRES)
  1021cc:	04c7f463          	bgeu	a5,a2,102214 <memcpy+0x5c>
    {
      /* Copy just a few bytes to make DSTP aligned.  */
      len -= (-dstp) % OPSIZ;
  1021d0:	40a006b3          	neg	a3,a0
  1021d4:	8a8d                	andi	a3,a3,3
  1021d6:	40d604b3          	sub	s1,a2,a3
  unsigned long int dstp = (long int) dstpp;
  1021da:	89aa                	mv	s3,a0
      BYTE_COPY_FWD (dstp, srcp, (-dstp) % OPSIZ);
  1021dc:	ce91                	beqz	a3,1021f8 <memcpy+0x40>
  1021de:	00a689b3          	add	s3,a3,a0
  unsigned long int srcp = (long int) srcpp;
  1021e2:	87ae                	mv	a5,a1
      BYTE_COPY_FWD (dstp, srcp, (-dstp) % OPSIZ);
  1021e4:	0007c603          	lbu	a2,0(a5)
  1021e8:	0705                	addi	a4,a4,1
  1021ea:	0785                	addi	a5,a5,1
  1021ec:	fec70fa3          	sb	a2,-1(a4)
  1021f0:	fee99ae3          	bne	s3,a4,1021e4 <memcpy+0x2c>
  1021f4:	00d58433          	add	s0,a1,a3

      /* Copy from SRCP to DSTP taking advantage of the known alignment of
	 DSTP.  Number of bytes remaining is put in the third argument,
	 i.e. in LEN.  This number may vary from machine to machine.  */

      WORD_COPY_FWD (dstp, srcp, len, len);
  1021f8:	00347793          	andi	a5,s0,3
  1021fc:	0024d613          	srli	a2,s1,0x2
  102200:	85a2                	mv	a1,s0
  102202:	854e                	mv	a0,s3
  102204:	cf9d                	beqz	a5,102242 <memcpy+0x8a>
  102206:	2a31                	jal	102322 <_wordcopy_fwd_dest_aligned>
  102208:	ffc4f713          	andi	a4,s1,-4
  10220c:	943a                	add	s0,s0,a4
  10220e:	0034f613          	andi	a2,s1,3
  102212:	974e                	add	a4,a4,s3

      /* Fall out and copy the tail.  */
    }

  /* There are just a few bytes to copy.  Use byte memory operations.  */
  BYTE_COPY_FWD (dstp, srcp, len);
  102214:	177d                	addi	a4,a4,-1
  102216:	87a2                	mv	a5,s0
  102218:	008605b3          	add	a1,a2,s0
  10221c:	8f01                	sub	a4,a4,s0
  10221e:	ca11                	beqz	a2,102232 <memcpy+0x7a>
  102220:	0007c603          	lbu	a2,0(a5)
  102224:	0785                	addi	a5,a5,1
  102226:	00f706b3          	add	a3,a4,a5
  10222a:	00c68023          	sb	a2,0(a3)
  10222e:	fef599e3          	bne	a1,a5,102220 <memcpy+0x68>

  return dstpp;
}
  102232:	40f2                	lw	ra,28(sp)
  102234:	4462                	lw	s0,24(sp)
  102236:	44d2                	lw	s1,20(sp)
  102238:	49b2                	lw	s3,12(sp)
  10223a:	854a                	mv	a0,s2
  10223c:	4942                	lw	s2,16(sp)
  10223e:	6105                	addi	sp,sp,32
  102240:	8082                	ret
      WORD_COPY_FWD (dstp, srcp, len, len);
  102242:	2011                	jal	102246 <_wordcopy_fwd_aligned>
  102244:	b7d1                	j	102208 <memcpy+0x50>

00102246 <_wordcopy_fwd_aligned>:
void
WORDCOPY_FWD_ALIGNED (long int dstp, long int srcp, size_t len)
{
  op_t a0, a1;

  switch (len % 8)
  102246:	00767793          	andi	a5,a2,7
  10224a:	00102737          	lui	a4,0x102
  10224e:	7a870713          	addi	a4,a4,1960 # 1027a8 <Rcon+0xc>
  102252:	078a                	slli	a5,a5,0x2
  102254:	97ba                	add	a5,a5,a4
  102256:	4394                	lw	a3,0(a5)
    {
    case 2:
      a0 = ((op_t *) srcp)[0];
  102258:	0005a803          	lw	a6,0(a1)
      srcp -= 6 * OPSIZ;
  10225c:	872e                	mv	a4,a1
      dstp -= 7 * OPSIZ;
  10225e:	87aa                	mv	a5,a0
  102260:	8682                	jr	a3
      dstp -= 3 * OPSIZ;
      len += 2;
      goto do5;
    case 7:
      a1 = ((op_t *) srcp)[0];
      srcp -= 1 * OPSIZ;
  102262:	ffc58713          	addi	a4,a1,-4
      dstp -= 2 * OPSIZ;
  102266:	ff850693          	addi	a3,a0,-8
      len += 1;
  10226a:	0605                	addi	a2,a2,1
      goto do6;
  10226c:	a831                	j	102288 <_wordcopy_fwd_aligned+0x42>
      ((op_t *) dstp)[6] = a1;
    do1:
      a1 = ((op_t *) srcp)[7];
      ((op_t *) dstp)[7] = a0;

      srcp += 8 * OPSIZ;
  10226e:	02070713          	addi	a4,a4,32
      dstp += 8 * OPSIZ;
  102272:	8536                	mv	a0,a3
      a0 = ((op_t *) srcp)[0];
  102274:	430c                	lw	a1,0(a4)
      ((op_t *) dstp)[1] = a0;
  102276:	00468793          	addi	a5,a3,4
      ((op_t *) dstp)[0] = a1;
  10227a:	01052023          	sw	a6,0(a0)
      a1 = ((op_t *) srcp)[1];
  10227e:	00472803          	lw	a6,4(a4)
      ((op_t *) dstp)[1] = a0;
  102282:	c38c                	sw	a1,0(a5)
      ((op_t *) dstp)[2] = a1;
  102284:	00868793          	addi	a5,a3,8
      a0 = ((op_t *) srcp)[2];
  102288:	470c                	lw	a1,8(a4)
      ((op_t *) dstp)[2] = a1;
  10228a:	0107a023          	sw	a6,0(a5)
      ((op_t *) dstp)[3] = a0;
  10228e:	00c68793          	addi	a5,a3,12
      a0 = ((op_t *) srcp)[2];
  102292:	882e                	mv	a6,a1
      a1 = ((op_t *) srcp)[3];
  102294:	474c                	lw	a1,12(a4)
      ((op_t *) dstp)[3] = a0;
  102296:	0107a023          	sw	a6,0(a5)
      ((op_t *) dstp)[4] = a1;
  10229a:	01068793          	addi	a5,a3,16
      a0 = ((op_t *) srcp)[4];
  10229e:	01072803          	lw	a6,16(a4)
      ((op_t *) dstp)[4] = a1;
  1022a2:	c38c                	sw	a1,0(a5)
      ((op_t *) dstp)[5] = a0;
  1022a4:	01468793          	addi	a5,a3,20
      a1 = ((op_t *) srcp)[5];
  1022a8:	4b48                	lw	a0,20(a4)
      ((op_t *) dstp)[5] = a0;
  1022aa:	0107a023          	sw	a6,0(a5)
      ((op_t *) dstp)[6] = a1;
  1022ae:	01868793          	addi	a5,a3,24
      a0 = ((op_t *) srcp)[6];
  1022b2:	4f0c                	lw	a1,24(a4)
      ((op_t *) dstp)[6] = a1;
  1022b4:	c388                	sw	a0,0(a5)
      ((op_t *) dstp)[7] = a0;
  1022b6:	01c68793          	addi	a5,a3,28
      a1 = ((op_t *) srcp)[7];
  1022ba:	01c72803          	lw	a6,28(a4)
      len -= 8;
  1022be:	1661                	addi	a2,a2,-8
      ((op_t *) dstp)[7] = a0;
  1022c0:	c38c                	sw	a1,0(a5)
      dstp += 8 * OPSIZ;
  1022c2:	02068693          	addi	a3,a3,32
    }
  while (len != 0);
  1022c6:	f645                	bnez	a2,10226e <_wordcopy_fwd_aligned+0x28>

  /* This is the right position for do0.  Please don't move
     it into the loop.  */
 do0:
  ((op_t *) dstp)[0] = a1;
  1022c8:	0106a023          	sw	a6,0(a3)
}
  1022cc:	8082                	ret
      srcp -=-1 * OPSIZ;
  1022ce:	00458713          	addi	a4,a1,4
      len -= 1;
  1022d2:	167d                	addi	a2,a2,-1
      goto do8;			/* No-op.  */
  1022d4:	86aa                	mv	a3,a0
  1022d6:	bf79                	j	102274 <_wordcopy_fwd_aligned+0x2e>
      srcp -= 6 * OPSIZ;
  1022d8:	fe858713          	addi	a4,a1,-24
      dstp -= 7 * OPSIZ;
  1022dc:	fe450693          	addi	a3,a0,-28
      len += 6;
  1022e0:	0619                	addi	a2,a2,6
      a0 = ((op_t *) srcp)[0];
  1022e2:	85c2                	mv	a1,a6
      goto do1;
  1022e4:	bfd9                	j	1022ba <_wordcopy_fwd_aligned+0x74>
      dstp -= 6 * OPSIZ;
  1022e6:	fe850693          	addi	a3,a0,-24
      srcp -= 5 * OPSIZ;
  1022ea:	fec58713          	addi	a4,a1,-20
      len += 5;
  1022ee:	0615                	addi	a2,a2,5
      a1 = ((op_t *) srcp)[0];
  1022f0:	8542                	mv	a0,a6
      goto do2;
  1022f2:	b7c1                	j	1022b2 <_wordcopy_fwd_aligned+0x6c>
      srcp -= 4 * OPSIZ;
  1022f4:	ff058713          	addi	a4,a1,-16
      dstp -= 5 * OPSIZ;
  1022f8:	fec50693          	addi	a3,a0,-20
      len += 4;
  1022fc:	0611                	addi	a2,a2,4
      goto do3;
  1022fe:	b76d                	j	1022a8 <_wordcopy_fwd_aligned+0x62>
      srcp -= 3 * OPSIZ;
  102300:	ff458713          	addi	a4,a1,-12
      dstp -= 4 * OPSIZ;
  102304:	ff050693          	addi	a3,a0,-16
      len += 3;
  102308:	060d                	addi	a2,a2,3
      a1 = ((op_t *) srcp)[0];
  10230a:	85c2                	mv	a1,a6
      goto do4;
  10230c:	bf49                	j	10229e <_wordcopy_fwd_aligned+0x58>
      srcp -= 2 * OPSIZ;
  10230e:	ff858713          	addi	a4,a1,-8
      dstp -= 3 * OPSIZ;
  102312:	ff450693          	addi	a3,a0,-12
      len += 2;
  102316:	0609                	addi	a2,a2,2
      goto do5;
  102318:	bfb5                	j	102294 <_wordcopy_fwd_aligned+0x4e>
      dstp -= 1 * OPSIZ;
  10231a:	ffc50693          	addi	a3,a0,-4
      a0 = ((op_t *) srcp)[0];
  10231e:	85c2                	mv	a1,a6
      goto do7;
  102320:	bfb9                	j	10227e <_wordcopy_fwd_aligned+0x38>

00102322 <_wordcopy_fwd_dest_aligned>:
  sh_1 = 8 * (srcp % OPSIZ);
  sh_2 = 8 * OPSIZ - sh_1;

  /* Make SRCP aligned by rounding it down to the beginning of the `op_t'
     it points in the middle of.  */
  srcp &= -OPSIZ;
  102322:	ffc5f893          	andi	a7,a1,-4

  switch (len % 4)
    {
    case 2:
      a1 = ((op_t *) srcp)[0];
      a2 = ((op_t *) srcp)[1];
  102326:	0048a703          	lw	a4,4(a7)

  do
    {
    do4:
      a0 = ((op_t *) srcp)[0];
      ((op_t *) dstp)[0] = MERGE (a2, sh_1, a3, sh_2);
  10232a:	0008a783          	lw	a5,0(a7)
  sh_1 = 8 * (srcp % OPSIZ);
  10232e:	898d                	andi	a1,a1,3
  102330:	058e                	slli	a1,a1,0x3
  sh_2 = 8 * OPSIZ - sh_1;
  102332:	02000693          	li	a3,32
  102336:	8e8d                	sub	a3,a3,a1
      ((op_t *) dstp)[0] = MERGE (a2, sh_1, a3, sh_2);
  102338:	00b7d7b3          	srl	a5,a5,a1
  10233c:	00d71f33          	sll	t5,a4,a3
  switch (len % 4)
  102340:	00367e13          	andi	t3,a2,3
  102344:	4e89                	li	t4,2
      a2 = ((op_t *) srcp)[1];
  102346:	00488313          	addi	t1,a7,4
      dstp -= 3 * OPSIZ;
  10234a:	882a                	mv	a6,a0
      ((op_t *) dstp)[0] = MERGE (a2, sh_1, a3, sh_2);
  10234c:	01e7e7b3          	or	a5,a5,t5
  switch (len % 4)
  102350:	09de0a63          	beq	t3,t4,1023e4 <_wordcopy_fwd_dest_aligned+0xc2>
  102354:	4e8d                	li	t4,3
  102356:	09de0263          	beq	t3,t4,1023da <_wordcopy_fwd_dest_aligned+0xb8>
  10235a:	4e85                	li	t4,1
  10235c:	07de0a63          	beq	t3,t4,1023d0 <_wordcopy_fwd_dest_aligned+0xae>
      dstp -= 1 * OPSIZ;
  102360:	ffc50e13          	addi	t3,a0,-4
      a0 = ((op_t *) srcp)[1];
  102364:	88ba                	mv	a7,a4
    do3:
      a1 = ((op_t *) srcp)[1];
  102366:	00432703          	lw	a4,4(t1)
      ((op_t *) dstp)[1] = MERGE (a3, sh_1, a0, sh_2);
    do2:
      a2 = ((op_t *) srcp)[2];
      ((op_t *) dstp)[2] = MERGE (a0, sh_1, a1, sh_2);
  10236a:	00b8d8b3          	srl	a7,a7,a1
      ((op_t *) dstp)[1] = MERGE (a3, sh_1, a0, sh_2);
  10236e:	00f82023          	sw	a5,0(a6)
      ((op_t *) dstp)[2] = MERGE (a0, sh_1, a1, sh_2);
  102372:	00d717b3          	sll	a5,a4,a3
  102376:	008e0813          	addi	a6,t3,8
  10237a:	00f8e7b3          	or	a5,a7,a5
      a2 = ((op_t *) srcp)[2];
  10237e:	00832503          	lw	a0,8(t1)
      ((op_t *) dstp)[2] = MERGE (a0, sh_1, a1, sh_2);
  102382:	00f82023          	sw	a5,0(a6)
    do1:
      a3 = ((op_t *) srcp)[3];
  102386:	00c32883          	lw	a7,12(t1)
      ((op_t *) dstp)[3] = MERGE (a1, sh_1, a2, sh_2);
  10238a:	00b75733          	srl	a4,a4,a1
  10238e:	00d517b3          	sll	a5,a0,a3
  102392:	8fd9                	or	a5,a5,a4
      a2 = ((op_t *) srcp)[2];
  102394:	872a                	mv	a4,a0
  while (len != 0);

  /* This is the right position for do0.  Please don't move
     it into the loop.  */
 do0:
  ((op_t *) dstp)[0] = MERGE (a2, sh_1, a3, sh_2);
  102396:	00b75733          	srl	a4,a4,a1
      ((op_t *) dstp)[3] = MERGE (a1, sh_1, a2, sh_2);
  10239a:	00fe2623          	sw	a5,12(t3)
      len -= 4;
  10239e:	1671                	addi	a2,a2,-4
  ((op_t *) dstp)[0] = MERGE (a2, sh_1, a3, sh_2);
  1023a0:	00d897b3          	sll	a5,a7,a3
      ((op_t *) dstp)[3] = MERGE (a1, sh_1, a2, sh_2);
  1023a4:	00ce0813          	addi	a6,t3,12
  ((op_t *) dstp)[0] = MERGE (a2, sh_1, a3, sh_2);
  1023a8:	8fd9                	or	a5,a5,a4
      dstp += 4 * OPSIZ;
  1023aa:	0e41                	addi	t3,t3,16
  while (len != 0);
  1023ac:	ce19                	beqz	a2,1023ca <_wordcopy_fwd_dest_aligned+0xa8>
      srcp += 4 * OPSIZ;
  1023ae:	0341                	addi	t1,t1,16
      dstp += 4 * OPSIZ;
  1023b0:	8572                	mv	a0,t3
      a3 = ((op_t *) srcp)[3];
  1023b2:	8746                	mv	a4,a7
      a0 = ((op_t *) srcp)[0];
  1023b4:	00032883          	lw	a7,0(t1)
      ((op_t *) dstp)[1] = MERGE (a3, sh_1, a0, sh_2);
  1023b8:	00b75733          	srl	a4,a4,a1
      ((op_t *) dstp)[0] = MERGE (a2, sh_1, a3, sh_2);
  1023bc:	c11c                	sw	a5,0(a0)
      ((op_t *) dstp)[1] = MERGE (a3, sh_1, a0, sh_2);
  1023be:	00d897b3          	sll	a5,a7,a3
  1023c2:	004e0813          	addi	a6,t3,4
  1023c6:	8fd9                	or	a5,a5,a4
  1023c8:	bf79                	j	102366 <_wordcopy_fwd_dest_aligned+0x44>
  ((op_t *) dstp)[0] = MERGE (a2, sh_1, a3, sh_2);
  1023ca:	00fe2023          	sw	a5,0(t3)
}
  1023ce:	8082                	ret
      srcp -=-2 * OPSIZ;
  1023d0:	00888313          	addi	t1,a7,8
      len -= 1;
  1023d4:	167d                	addi	a2,a2,-1
      goto do4;			/* No-op.  */
  1023d6:	8e2a                	mv	t3,a0
  1023d8:	bff1                	j	1023b4 <_wordcopy_fwd_dest_aligned+0x92>
      dstp -= 2 * OPSIZ;
  1023da:	ff850e13          	addi	t3,a0,-8
      len += 1;
  1023de:	0605                	addi	a2,a2,1
      goto do2;
  1023e0:	8346                	mv	t1,a7
  1023e2:	bf71                	j	10237e <_wordcopy_fwd_dest_aligned+0x5c>
      srcp -= 1 * OPSIZ;
  1023e4:	ffc88313          	addi	t1,a7,-4
      a3 = ((op_t *) srcp)[3];
  1023e8:	00c32883          	lw	a7,12(t1)
      len += 2;
  1023ec:	0609                	addi	a2,a2,2
      dstp -= 3 * OPSIZ;
  1023ee:	ff450e13          	addi	t3,a0,-12
  ((op_t *) dstp)[0] = MERGE (a2, sh_1, a3, sh_2);
  1023f2:	00b75733          	srl	a4,a4,a1
      ((op_t *) dstp)[3] = MERGE (a1, sh_1, a2, sh_2);
  1023f6:	00f82023          	sw	a5,0(a6)
      len -= 4;
  1023fa:	1671                	addi	a2,a2,-4
  ((op_t *) dstp)[0] = MERGE (a2, sh_1, a3, sh_2);
  1023fc:	00d897b3          	sll	a5,a7,a3
      dstp += 4 * OPSIZ;
  102400:	0e41                	addi	t3,t3,16
  ((op_t *) dstp)[0] = MERGE (a2, sh_1, a3, sh_2);
  102402:	8fd9                	or	a5,a5,a4
  while (len != 0);
  102404:	d279                	beqz	a2,1023ca <_wordcopy_fwd_dest_aligned+0xa8>
  102406:	b765                	j	1023ae <_wordcopy_fwd_dest_aligned+0x8c>

00102408 <_wordcopy_bwd_aligned>:
void
WORDCOPY_BWD_ALIGNED (long int dstp, long int srcp, size_t len)
{
  op_t a0, a1;

  switch (len % 8)
  102408:	00767793          	andi	a5,a2,7
  10240c:	00102737          	lui	a4,0x102
  102410:	7c870713          	addi	a4,a4,1992 # 1027c8 <Rcon+0x2c>
  102414:	078a                	slli	a5,a5,0x2
  102416:	97ba                	add	a5,a5,a4
  102418:	4398                	lw	a4,0(a5)
    {
    case 2:
      srcp -= 2 * OPSIZ;
      dstp -= 1 * OPSIZ;
      a0 = ((op_t *) srcp)[1];
  10241a:	ffc5a783          	lw	a5,-4(a1)
  switch (len % 8)
  10241e:	8702                	jr	a4
      dstp -= 5 * OPSIZ;
      a0 = ((op_t *) srcp)[5];
      len += 2;
      goto do5;
    case 7:
      srcp -= 7 * OPSIZ;
  102420:	1591                	addi	a1,a1,-28
      dstp -= 6 * OPSIZ;
  102422:	1521                	addi	a0,a0,-24
      a1 = ((op_t *) srcp)[6];
      len += 1;
  102424:	0605                	addi	a2,a2,1
      goto do6;
  102426:	a039                	j	102434 <_wordcopy_bwd_aligned+0x2c>
      ((op_t *) dstp)[1] = a1;
    do1:
      a1 = ((op_t *) srcp)[0];
      ((op_t *) dstp)[0] = a0;

      srcp -= 8 * OPSIZ;
  102428:	1581                	addi	a1,a1,-32
      dstp -= 8 * OPSIZ;
  10242a:	1501                	addi	a0,a0,-32
      a0 = ((op_t *) srcp)[7];
  10242c:	4dd8                	lw	a4,28(a1)
      ((op_t *) dstp)[7] = a1;
  10242e:	cd5c                	sw	a5,28(a0)
      a1 = ((op_t *) srcp)[6];
  102430:	4d9c                	lw	a5,24(a1)
      ((op_t *) dstp)[6] = a0;
  102432:	cd18                	sw	a4,24(a0)
      a0 = ((op_t *) srcp)[5];
  102434:	49d8                	lw	a4,20(a1)
      ((op_t *) dstp)[5] = a1;
  102436:	c95c                	sw	a5,20(a0)
      a0 = ((op_t *) srcp)[5];
  102438:	87ba                	mv	a5,a4
      a1 = ((op_t *) srcp)[4];
  10243a:	4998                	lw	a4,16(a1)
      ((op_t *) dstp)[4] = a0;
  10243c:	c91c                	sw	a5,16(a0)
      a0 = ((op_t *) srcp)[3];
  10243e:	45dc                	lw	a5,12(a1)
      ((op_t *) dstp)[3] = a1;
  102440:	c558                	sw	a4,12(a0)
      a1 = ((op_t *) srcp)[2];
  102442:	4594                	lw	a3,8(a1)
      ((op_t *) dstp)[2] = a0;
  102444:	c51c                	sw	a5,8(a0)
      a0 = ((op_t *) srcp)[1];
  102446:	41d8                	lw	a4,4(a1)
      ((op_t *) dstp)[1] = a1;
  102448:	c154                	sw	a3,4(a0)
      a1 = ((op_t *) srcp)[0];
  10244a:	419c                	lw	a5,0(a1)
      len -= 8;
  10244c:	1661                	addi	a2,a2,-8
      ((op_t *) dstp)[0] = a0;
  10244e:	c118                	sw	a4,0(a0)
    }
  while (len != 0);
  102450:	fe61                	bnez	a2,102428 <_wordcopy_bwd_aligned+0x20>

  /* This is the right position for do0.  Please don't move
     it into the loop.  */
 do0:
  ((op_t *) dstp)[7] = a1;
  102452:	fef52e23          	sw	a5,-4(a0)
}
  102456:	8082                	ret
      srcp -= 9 * OPSIZ;
  102458:	fdc58593          	addi	a1,a1,-36
      dstp -= 8 * OPSIZ;
  10245c:	1501                	addi	a0,a0,-32
      len -= 1;
  10245e:	167d                	addi	a2,a2,-1
      goto do8;			/* No-op.  */
  102460:	b7f1                	j	10242c <_wordcopy_bwd_aligned+0x24>
      srcp -= 2 * OPSIZ;
  102462:	15e1                	addi	a1,a1,-8
      dstp -= 1 * OPSIZ;
  102464:	1571                	addi	a0,a0,-4
      len += 6;
  102466:	0619                	addi	a2,a2,6
      a0 = ((op_t *) srcp)[1];
  102468:	873e                	mv	a4,a5
      goto do1;
  10246a:	b7c5                	j	10244a <_wordcopy_bwd_aligned+0x42>
      srcp -= 3 * OPSIZ;
  10246c:	15d1                	addi	a1,a1,-12
      dstp -= 2 * OPSIZ;
  10246e:	1561                	addi	a0,a0,-8
      len += 5;
  102470:	0615                	addi	a2,a2,5
      a1 = ((op_t *) srcp)[2];
  102472:	86be                	mv	a3,a5
      goto do2;
  102474:	bfc9                	j	102446 <_wordcopy_bwd_aligned+0x3e>
      srcp -= 4 * OPSIZ;
  102476:	15c1                	addi	a1,a1,-16
      dstp -= 3 * OPSIZ;
  102478:	1551                	addi	a0,a0,-12
      len += 4;
  10247a:	0611                	addi	a2,a2,4
      goto do3;
  10247c:	b7d9                	j	102442 <_wordcopy_bwd_aligned+0x3a>
      srcp -= 5 * OPSIZ;
  10247e:	15b1                	addi	a1,a1,-20
      dstp -= 4 * OPSIZ;
  102480:	1541                	addi	a0,a0,-16
      len += 3;
  102482:	060d                	addi	a2,a2,3
      a1 = ((op_t *) srcp)[4];
  102484:	873e                	mv	a4,a5
      goto do4;
  102486:	bf65                	j	10243e <_wordcopy_bwd_aligned+0x36>
      srcp -= 6 * OPSIZ;
  102488:	15a1                	addi	a1,a1,-24
      dstp -= 5 * OPSIZ;
  10248a:	1531                	addi	a0,a0,-20
      len += 2;
  10248c:	0609                	addi	a2,a2,2
      goto do5;
  10248e:	b775                	j	10243a <_wordcopy_bwd_aligned+0x32>
      srcp -= 8 * OPSIZ;
  102490:	1581                	addi	a1,a1,-32
      dstp -= 7 * OPSIZ;
  102492:	1511                	addi	a0,a0,-28
      a0 = ((op_t *) srcp)[7];
  102494:	873e                	mv	a4,a5
      goto do7;
  102496:	bf69                	j	102430 <_wordcopy_bwd_aligned+0x28>

00102498 <_wordcopy_bwd_dest_aligned>:
  sh_1 = 8 * (srcp % OPSIZ);
  sh_2 = 8 * OPSIZ - sh_1;

  /* Make srcp aligned by rounding it down to the beginning of the op_t
     it points in the middle of.  */
  srcp &= -OPSIZ;
  102498:	ffc5f693          	andi	a3,a1,-4
    {
    case 2:
      srcp -= 3 * OPSIZ;
      dstp -= 1 * OPSIZ;
      a2 = ((op_t *) srcp)[2];
      a1 = ((op_t *) srcp)[1];
  10249c:	ffc6a703          	lw	a4,-4(a3)

  do
    {
    do4:
      a3 = ((op_t *) srcp)[3];
      ((op_t *) dstp)[3] = MERGE (a0, sh_1, a1, sh_2);
  1024a0:	429c                	lw	a5,0(a3)
  sh_1 = 8 * (srcp % OPSIZ);
  1024a2:	898d                	andi	a1,a1,3
  1024a4:	058e                	slli	a1,a1,0x3
  sh_2 = 8 * OPSIZ - sh_1;
  1024a6:	02000813          	li	a6,32
  1024aa:	40b80833          	sub	a6,a6,a1
      ((op_t *) dstp)[3] = MERGE (a0, sh_1, a1, sh_2);
  1024ae:	010797b3          	sll	a5,a5,a6
  1024b2:	00b75e33          	srl	t3,a4,a1
  switch (len % 4)
  1024b6:	00367893          	andi	a7,a2,3
  1024ba:	4309                	li	t1,2
      ((op_t *) dstp)[3] = MERGE (a0, sh_1, a1, sh_2);
  1024bc:	01c7e7b3          	or	a5,a5,t3
  switch (len % 4)
  1024c0:	06688d63          	beq	a7,t1,10253a <_wordcopy_bwd_dest_aligned+0xa2>
  1024c4:	430d                	li	t1,3
  1024c6:	06688663          	beq	a7,t1,102532 <_wordcopy_bwd_dest_aligned+0x9a>
  1024ca:	4305                	li	t1,1
  1024cc:	04688f63          	beq	a7,t1,10252a <_wordcopy_bwd_dest_aligned+0x92>
      srcp -= 5 * OPSIZ;
  1024d0:	16c1                	addi	a3,a3,-16
      dstp -= 3 * OPSIZ;
  1024d2:	1551                	addi	a0,a0,-12
      a3 = ((op_t *) srcp)[3];
  1024d4:	88ba                	mv	a7,a4
    do3:
      a2 = ((op_t *) srcp)[2];
  1024d6:	4698                	lw	a4,8(a3)
      ((op_t *) dstp)[2] = MERGE (a3, sh_1, a0, sh_2);
    do2:
      a1 = ((op_t *) srcp)[1];
      ((op_t *) dstp)[1] = MERGE (a2, sh_1, a3, sh_2);
  1024d8:	010898b3          	sll	a7,a7,a6
      ((op_t *) dstp)[2] = MERGE (a3, sh_1, a0, sh_2);
  1024dc:	c51c                	sw	a5,8(a0)
      ((op_t *) dstp)[1] = MERGE (a2, sh_1, a3, sh_2);
  1024de:	00b757b3          	srl	a5,a4,a1
  1024e2:	0117e7b3          	or	a5,a5,a7
      a1 = ((op_t *) srcp)[1];
  1024e6:	0046a883          	lw	a7,4(a3)
    do1:
      a0 = ((op_t *) srcp)[0];
      ((op_t *) dstp)[0] = MERGE (a1, sh_1, a2, sh_2);
  1024ea:	01071733          	sll	a4,a4,a6
      ((op_t *) dstp)[1] = MERGE (a2, sh_1, a3, sh_2);
  1024ee:	c15c                	sw	a5,4(a0)
      ((op_t *) dstp)[0] = MERGE (a1, sh_1, a2, sh_2);
  1024f0:	00b8d7b3          	srl	a5,a7,a1
  1024f4:	8fd9                	or	a5,a5,a4
      a1 = ((op_t *) srcp)[1];
  1024f6:	8746                	mv	a4,a7
      a0 = ((op_t *) srcp)[0];
  1024f8:	0006a883          	lw	a7,0(a3)
  while (len != 0);

  /* This is the right position for do0.  Please don't move
     it into the loop.  */
 do0:
  ((op_t *) dstp)[3] = MERGE (a0, sh_1, a1, sh_2);
  1024fc:	01071733          	sll	a4,a4,a6
      ((op_t *) dstp)[0] = MERGE (a1, sh_1, a2, sh_2);
  102500:	c11c                	sw	a5,0(a0)
      len -= 4;
  102502:	1671                	addi	a2,a2,-4
  ((op_t *) dstp)[3] = MERGE (a0, sh_1, a1, sh_2);
  102504:	00b8d7b3          	srl	a5,a7,a1
  102508:	8fd9                	or	a5,a5,a4
  while (len != 0);
  10250a:	ce09                	beqz	a2,102524 <_wordcopy_bwd_dest_aligned+0x8c>
      srcp -= 4 * OPSIZ;
  10250c:	16c1                	addi	a3,a3,-16
      dstp -= 4 * OPSIZ;
  10250e:	1541                	addi	a0,a0,-16
      a0 = ((op_t *) srcp)[0];
  102510:	8746                	mv	a4,a7
      a3 = ((op_t *) srcp)[3];
  102512:	00c6a883          	lw	a7,12(a3)
      ((op_t *) dstp)[2] = MERGE (a3, sh_1, a0, sh_2);
  102516:	01071733          	sll	a4,a4,a6
      ((op_t *) dstp)[3] = MERGE (a0, sh_1, a1, sh_2);
  10251a:	c55c                	sw	a5,12(a0)
      ((op_t *) dstp)[2] = MERGE (a3, sh_1, a0, sh_2);
  10251c:	00b8d7b3          	srl	a5,a7,a1
  102520:	8fd9                	or	a5,a5,a4
  102522:	bf55                	j	1024d6 <_wordcopy_bwd_dest_aligned+0x3e>
  ((op_t *) dstp)[3] = MERGE (a0, sh_1, a1, sh_2);
  102524:	fef52e23          	sw	a5,-4(a0)
}
  102528:	8082                	ret
      srcp -= 6 * OPSIZ;
  10252a:	16b1                	addi	a3,a3,-20
      dstp -= 4 * OPSIZ;
  10252c:	1541                	addi	a0,a0,-16
      len -= 1;
  10252e:	167d                	addi	a2,a2,-1
      goto do4;			/* No-op.  */
  102530:	b7cd                	j	102512 <_wordcopy_bwd_dest_aligned+0x7a>
      srcp -= 4 * OPSIZ;
  102532:	16d1                	addi	a3,a3,-12
      dstp -= 2 * OPSIZ;
  102534:	1561                	addi	a0,a0,-8
      len += 1;
  102536:	0605                	addi	a2,a2,1
      goto do2;
  102538:	b77d                	j	1024e6 <_wordcopy_bwd_dest_aligned+0x4e>
      a0 = ((op_t *) srcp)[0];
  10253a:	ff86a883          	lw	a7,-8(a3)
      len += 2;
  10253e:	0609                	addi	a2,a2,2
  ((op_t *) dstp)[3] = MERGE (a0, sh_1, a1, sh_2);
  102540:	01071733          	sll	a4,a4,a6
      ((op_t *) dstp)[0] = MERGE (a1, sh_1, a2, sh_2);
  102544:	fef52e23          	sw	a5,-4(a0)
      len -= 4;
  102548:	1671                	addi	a2,a2,-4
  ((op_t *) dstp)[3] = MERGE (a0, sh_1, a1, sh_2);
  10254a:	00b8d7b3          	srl	a5,a7,a1
      srcp -= 3 * OPSIZ;
  10254e:	16e1                	addi	a3,a3,-8
      dstp -= 1 * OPSIZ;
  102550:	1571                	addi	a0,a0,-4
  ((op_t *) dstp)[3] = MERGE (a0, sh_1, a1, sh_2);
  102552:	8fd9                	or	a5,a5,a4
  while (len != 0);
  102554:	da61                	beqz	a2,102524 <_wordcopy_bwd_dest_aligned+0x8c>
  102556:	bf5d                	j	10250c <_wordcopy_bwd_dest_aligned+0x74>

Disassembly of section .rodata:

00102558 <sbox-0x44>:
  102558:	5845                	li	a6,-15
  10255a:	54504543          	0x54504543
  10255e:	4f49                	li	t5,18
  102560:	214e                	fld	ft2,208(sp)
  102562:	2121                	jal	10296a <time_increment+0x15a>
  102564:	000a                	c.slli	zero,0x2
  102566:	0000                	unimp
  102568:	3d3d                	jal	1023a6 <_wordcopy_fwd_dest_aligned+0x84>
  10256a:	3d3d                	jal	1023a8 <_wordcopy_fwd_dest_aligned+0x86>
  10256c:	3d3d                	jal	1023aa <_wordcopy_fwd_dest_aligned+0x88>
  10256e:	3d3d                	jal	1023ac <_wordcopy_fwd_dest_aligned+0x8a>
  102570:	3d3d                	jal	1023ae <_wordcopy_fwd_dest_aligned+0x8c>
  102572:	3d3d                	jal	1023b0 <_wordcopy_fwd_dest_aligned+0x8e>
  102574:	000a                	c.slli	zero,0x2
  102576:	0000                	unimp
  102578:	454d                	li	a0,19
  10257a:	4350                	lw	a2,4(a4)
  10257c:	203a                	fld	ft0,392(sp)
  10257e:	2020                	fld	fs0,64(s0)
  102580:	7830                	flw	fa2,112(s0)
  102582:	0000                	unimp
  102584:	4d0a                	lw	s10,128(sp)
  102586:	53554143          	fmadd.d	ft2,fa0,fs5,fa0,rmm
  10258a:	3a45                	jal	101f3a <AES_CBC_decrypt_buffer+0x46>
  10258c:	3020                	fld	fs0,96(s0)
  10258e:	0078                	addi	a4,sp,12
  102590:	4d0a                	lw	s10,128(sp)
  102592:	5654                	lw	a3,44(a2)
  102594:	4c41                	li	s8,16
  102596:	203a                	fld	ft0,392(sp)
  102598:	3020                	fld	fs0,96(s0)
  10259a:	0078                	addi	a4,sp,12

0010259c <sbox>:
static const uint8_t sbox[256] = {
  10259c:	7b777c63          	bgeu	a4,s7,102d54 <time_increment+0x544>
  1025a0:	6bf2                	flw	fs7,28(sp)
  1025a2:	0130c56f          	jal	a0,10edb4 <time_increment+0xc5a4>
  1025a6:	d7fe2b67          	0xd7fe2b67
  1025aa:	82ca76ab          	0x82ca76ab
  1025ae:	7dc9                	lui	s11,0xffff2
  1025b0:	59fa                	lw	s3,188(sp)
  1025b2:	d4adf047          	0xd4adf047
  1025b6:	afa2                	fsd	fs0,472(sp)
  1025b8:	a49c                	fsd	fa5,8(s1)
  1025ba:	c072                	sw	t3,0(sp)
  1025bc:	2693fdb7          	lui	s11,0x2693f
  1025c0:	3f36                	fld	ft10,360(sp)
  1025c2:	a534ccf7          	0xa534ccf7
  1025c6:	f1e5                	bnez	a1,1025a6 <sbox+0xa>
  1025c8:	d871                	beqz	s0,10259c <sbox>
  1025ca:	1531                	addi	a0,a0,-20
  1025cc:	c704                	sw	s1,8(a4)
  1025ce:	9618c323          	0x9618c323
  1025d2:	9a05                	andi	a2,a2,-31
  1025d4:	e2801207          	0xe2801207
  1025d8:	75b227eb          	0x75b227eb
  1025dc:	8309                	srli	a4,a4,0x2
  1025de:	1a2c                	addi	a1,sp,312
  1025e0:	a05a6e1b          	0xa05a6e1b
  1025e4:	3b52                	fld	fs6,304(sp)
  1025e6:	b3d6                	fsd	fs5,480(sp)
  1025e8:	e329                	bnez	a4,10262a <sbox+0x8e>
  1025ea:	d153842f          	0xd153842f
  1025ee:	ed00                	fsw	fs0,24(a0)
  1025f0:	fc20                	fsw	fs0,120(s0)
  1025f2:	5bb1                	li	s7,-20
  1025f4:	cb6a                	sw	s10,148(sp)
  1025f6:	39be                	fld	fs3,488(sp)
  1025f8:	4c4a                	lw	s8,144(sp)
  1025fa:	cf58                	sw	a4,28(a4)
  1025fc:	efd0                	fsw	fa2,28(a5)
  1025fe:	fbaa                	fsw	fa0,244(sp)
  102600:	85334d43          	0x85334d43
  102604:	f945                	bnez	a0,1025b4 <sbox+0x18>
  102606:	7f02                	flw	ft10,32(sp)
  102608:	3c50                	fld	fa2,184(s0)
  10260a:	a89f a351 8f40      	0x8f40a351a89f
  102610:	9d92                	add	s11,s11,tp
  102612:	f538                	fsw	fa4,104(a0)
  102614:	b6bc                	fsd	fa5,104(a3)
  102616:	21da                	fld	ft3,400(sp)
  102618:	ff10                	fsw	fa2,56(a4)
  10261a:	0ccdd2f3          	csrrwi	t0,0xcc,27
  10261e:	975fec13          	ori	s8,t6,-1675
  102622:	1744                	addi	s1,sp,932
  102624:	a7c4                	fsd	fs1,136(a5)
  102626:	3d7e                	fld	fs10,504(sp)
  102628:	5d64                	lw	s1,124(a0)
  10262a:	7319                	lui	t1,0xfffe6
  10262c:	8160                	0x8160
  10262e:	2a22dc4f          	fnmadd.d	fs8,ft5,ft2,ft5,unknown
  102632:	8890                	0x8890
  102634:	ee46                	fsw	fa7,28(sp)
  102636:	14b8                	addi	a4,sp,616
  102638:	5ede                	lw	t4,244(sp)
  10263a:	32e0db0b          	0x32e0db0b
  10263e:	0a3a                	slli	s4,s4,0xe
  102640:	0649                	addi	a2,a2,18
  102642:	5c24                	lw	s1,120(s0)
  102644:	d3c2                	sw	a6,228(sp)
  102646:	62ac                	flw	fa1,64(a3)
  102648:	9591                	srai	a1,a1,0x24
  10264a:	79e4                	flw	fs1,116(a1)
  10264c:	6d37c8e7          	0x6d37c8e7
  102650:	d58d                	beqz	a1,10257a <_wordcopy_bwd_dest_aligned+0xe2>
  102652:	a94e                	fsd	fs3,144(sp)
  102654:	566c                	lw	a1,108(a2)
  102656:	eaf4                	fsw	fa3,84(a3)
  102658:	7a65                	lui	s4,0xffff9
  10265a:	08ae                	slli	a7,a7,0xb
  10265c:	78ba                	flw	fa7,172(sp)
  10265e:	2e25                	jal	102996 <time_increment+0x186>
  102660:	a61c                	fsd	fa5,8(a2)
  102662:	c6b4                	sw	a3,72(a3)
  102664:	dde8                	sw	a0,124(a1)
  102666:	1f74                	addi	a3,sp,956
  102668:	8a8bbd4b          	fnmsub.d	fs10,fs7,fs0,fa7,rup
  10266c:	3e70                	fld	fa2,248(a2)
  10266e:	66b5                	lui	a3,0xd
  102670:	0348                	addi	a0,sp,388
  102672:	0ef6                	slli	t4,t4,0x1d
  102674:	3561                	jal	1024fc <_wordcopy_bwd_dest_aligned+0x64>
  102676:	c186b957          	0xc186b957
  10267a:	9e1d                	0x9e1d
  10267c:	f8e1                	bnez	s1,10264c <sbox+0xb0>
  10267e:	1198                	addi	a4,sp,224
  102680:	d969                	beqz	a0,102652 <sbox+0xb6>
  102682:	948e                	add	s1,s1,gp
  102684:	e9871e9b          	0xe9871e9b
  102688:	55ce                	lw	a1,240(sp)
  10268a:	df28                	sw	a0,120(a4)
  10268c:	a18c                	fsd	fa1,0(a1)
  10268e:	0d89                	addi	s11,s11,2
  102690:	6842e6bf 0f2d9941 	0xf2d99416842e6bf
  102698:	54b0                	lw	a2,104(s1)
  10269a:	          	0x95216bb

0010269c <rsbox>:
static const uint8_t rsbox[256] = {
  10269c:	0952                	slli	s2,s2,0x14
  10269e:	d56a                	sw	s10,168(sp)
  1026a0:	3630                	fld	fa2,104(a2)
  1026a2:	38a5                	jal	101f1a <AES_CBC_decrypt_buffer+0x26>
  1026a4:	9ea340bf fbd7f381 	0xfbd7f3819ea340bf
  1026ac:	e37c                	fsw	fa5,68(a4)
  1026ae:	8239                	srli	a2,a2,0xe
  1026b0:	87ff2f9b          	0x87ff2f9b
  1026b4:	8e34                	0x8e34
  1026b6:	dec44443          	fmadd.q	fs0,fs0,fa2,fs11,rmm
  1026ba:	cbe9                	beqz	a5,10278c <rsbox+0xf0>
  1026bc:	7b54                	flw	fa3,52(a4)
  1026be:	3294                	fld	fa3,32(a3)
  1026c0:	c2a6                	sw	s1,68(sp)
  1026c2:	4cee3d23          	0x4cee3d23
  1026c6:	0b95                	addi	s7,s7,5
  1026c8:	fa42                	fsw	fa6,52(sp)
  1026ca:	2e084ec3          	fmadd.q	ft9,fa6,ft0,ft5,rmm
  1026ce:	66a1                	lui	a3,0x8
  1026d0:	d928                	sw	a0,112(a0)
  1026d2:	b224                	fsd	fs1,96(a2)
  1026d4:	5b76                	lw	s6,124(sp)
  1026d6:	49a2                	lw	s3,8(sp)
  1026d8:	8b6d                	andi	a4,a4,27
  1026da:	25d1                	jal	102d9e <time_increment+0x58e>
  1026dc:	f872                	fsw	ft8,48(sp)
  1026de:	64f6                	flw	fs1,92(sp)
  1026e0:	6886                	flw	fa7,64(sp)
  1026e2:	1698                	addi	a4,sp,864
  1026e4:	a4d4                	fsd	fa3,136(s1)
  1026e6:	cc5c                	sw	a5,28(s0)
  1026e8:	655d                	lui	a0,0x17
  1026ea:	92b6                	add	t0,t0,a3
  1026ec:	706c                	flw	fa1,100(s0)
  1026ee:	5048                	lw	a0,36(s0)
  1026f0:	edfd                	bnez	a1,1027ee <key+0x6>
  1026f2:	dab9                	beqz	a3,102648 <sbox+0xac>
  1026f4:	155e                	slli	a0,a0,0x37
  1026f6:	5746                	lw	a4,112(sp)
  1026f8:	849d8da7          	0x849d8da7
  1026fc:	d890                	sw	a2,48(s1)
  1026fe:	bc8c00ab          	0xbc8c00ab
  102702:	e4f70ad3          	0xe4f70ad3
  102706:	0558                	addi	a4,sp,644
  102708:	b3b8                	fsd	fa4,96(a5)
  10270a:	0645                	addi	a2,a2,17
  10270c:	2cd0                	fld	fa2,152(s1)
  10270e:	8f1e                	mv	t5,t2
  102710:	3fca                	fld	ft11,176(sp)
  102712:	afc1020f          	0xafc1020f
  102716:	03bd                	addi	t2,t2,15
  102718:	1301                	addi	t1,t1,-32
  10271a:	6b8a                	flw	fs7,128(sp)
  10271c:	913a                	add	sp,sp,a4
  10271e:	4111                	li	sp,4
  102720:	eadc674f          	fnmadd.d	fa4,fs8,fa3,ft9,unknown
  102724:	cecff297          	auipc	t0,0xcecff
  102728:	b4f0                	fsd	fa2,232(s1)
  10272a:	73e6                	flw	ft7,120(sp)
  10272c:	ac96                	fsd	ft5,88(sp)
  10272e:	2274                	fld	fa3,192(a2)
  102730:	8535ade7          	0x8535ade7
  102734:	f9e2                	fsw	fs8,240(sp)
  102736:	751ce837          	lui	a6,0x751ce
  10273a:	6edf f147 711a      	0x711af1476edf
  102740:	291d                	jal	102b76 <time_increment+0x366>
  102742:	89c5                	andi	a1,a1,17
  102744:	0e62b76f          	jal	a4,12d82a <time_increment+0x2b01a>
  102748:	18aa                	slli	a7,a7,0x2a
  10274a:	1bbe                	slli	s7,s7,0x2f
  10274c:	56fc                	lw	a5,108(a3)
  10274e:	4b3e                	lw	s6,204(sp)
  102750:	d2c6                	sw	a7,100(sp)
  102752:	2079                	jal	1027e0 <Rcon+0x44>
  102754:	db9a                	sw	t1,244(sp)
  102756:	fec0                	fsw	fs0,60(a3)
  102758:	cd78                	sw	a4,92(a0)
  10275a:	f45a                	fsw	fs6,40(sp)
  10275c:	dd1f 33a8 0788      	0x78833a8dd1f
  102762:	12b131c7          	fmsub.d	ft3,ft2,fa1,ft2,rup
  102766:	5910                	lw	a2,48(a0)
  102768:	5fec8027          	0x5fec8027
  10276c:	5160                	lw	s0,100(a0)
  10276e:	a97f                	0xa97f
  102770:	b519                	j	102576 <_wordcopy_bwd_dest_aligned+0xde>
  102772:	0d4a                	slli	s10,s10,0x12
  102774:	e52d                	bnez	a0,1027de <Rcon+0x42>
  102776:	9f7a                	add	t5,t5,t5
  102778:	ef9cc993          	xori	s3,s9,-263
  10277c:	e0a0                	fsw	fs0,64(s1)
  10277e:	2aae4d3b          	0x2aae4d3b
  102782:	b0f5                	j	10206e <AES_CTR_xcrypt_buffer+0xd2>
  102784:	ebc8                	fsw	fa0,20(a5)
  102786:	53833cbb          	0x53833cbb
  10278a:	6199                	lui	gp,0x6
  10278c:	7e042b17          	auipc	s6,0x7e042
  102790:	77ba                	flw	fa5,172(sp)
  102792:	26d6                	fld	fa3,336(sp)
  102794:	69e1                	lui	s3,0x18
  102796:	6314                	flw	fa3,0(a4)
  102798:	2155                	jal	102c3c <time_increment+0x42c>
  10279a:	7d0c                	flw	fa1,56(a0)

0010279c <Rcon>:
static const uint8_t Rcon[11] = {
  10279c:	018d                	addi	gp,gp,3
  10279e:	0402                	c.slli64	s0
  1027a0:	1008                	addi	a0,sp,32
  1027a2:	4020                	lw	s0,64(s0)
  1027a4:	1b80                	addi	s0,sp,496
  1027a6:	0036                	c.slli	zero,0xd
  1027a8:	231a                	fld	ft6,384(sp)
  1027aa:	0010                	0x10
  1027ac:	22ce                	fld	ft5,208(sp)
  1027ae:	0010                	0x10
  1027b0:	22d8                	fld	fa4,128(a3)
  1027b2:	0010                	0x10
  1027b4:	22e6                	fld	ft5,88(sp)
  1027b6:	0010                	0x10
  1027b8:	22f4                	fld	fa3,192(a3)
  1027ba:	0010                	0x10
  1027bc:	2300                	fld	fs0,0(a4)
  1027be:	0010                	0x10
  1027c0:	230e                	fld	ft6,192(sp)
  1027c2:	0010                	0x10
  1027c4:	2262                	fld	ft4,24(sp)
  1027c6:	0010                	0x10
  1027c8:	2490                	fld	fa2,8(s1)
  1027ca:	0010                	0x10
  1027cc:	2458                	fld	fa4,136(s0)
  1027ce:	0010                	0x10
  1027d0:	2462                	fld	fs0,24(sp)
  1027d2:	0010                	0x10
  1027d4:	246c                	fld	fa1,200(s0)
  1027d6:	0010                	0x10
  1027d8:	2476                	fld	fs0,344(sp)
  1027da:	0010                	0x10
  1027dc:	247e                	fld	fs0,472(sp)
  1027de:	0010                	0x10
  1027e0:	2488                	fld	fa0,8(s1)
  1027e2:	0010                	0x10
  1027e4:	2420                	fld	fs0,72(s0)
  1027e6:	0010                	0x10

Disassembly of section .data:

001027e8 <key>:
uint8_t key[16] = "0123456789abcdef";
  1027e8:	3130                	fld	fa2,96(a0)
  1027ea:	3332                	fld	ft6,296(sp)
  1027ec:	3534                	fld	fa3,104(a0)
  1027ee:	3736                	fld	fa4,360(sp)
  1027f0:	3938                	fld	fa4,112(a0)
  1027f2:	6261                	lui	tp,0x18
  1027f4:	66656463          	bltu	a0,t1,102e5c <time_increment+0x64c>

001027f8 <cipher>:
uint8_t cipher[16] = {0x63, 0x76, 0x33, 0x32,
  1027f8:	32337663          	bgeu	t1,gp,102b24 <time_increment+0x314>
  1027fc:	3465                	jal	1022a4 <_wordcopy_fwd_aligned+0x5e>
  1027fe:	7030                	flw	fa2,96(s0)
  102800:	6420                	flw	fs0,72(s0)
  102802:	6166                	flw	ft2,88(sp)
  102804:	6120                	flw	fs0,64(a0)
  102806:	7365                	lui	t1,0xffff9

Disassembly of section .sbss:

00102808 <time_elapsed>:
	...

00102810 <time_increment>:
	...

Disassembly of section .stack:

001f8000 <_stack-0x2000>:
	...

Disassembly of section .debug_info:

00000000 <.debug_info>:
       0:	0331                	addi	t1,t1,12
       2:	0000                	unimp
       4:	0004                	0x4
       6:	0000                	unimp
       8:	0000                	unimp
       a:	0104                	addi	s1,sp,128
       c:	01b5                	addi	gp,gp,13
       e:	0000                	unimp
      10:	190c                	addi	a1,sp,176
      12:	0001                	nop
      14:	3900                	fld	fs0,48(a0)
      16:	0000                	unimp
      18:	8400                	0x8400
      1a:	1000                	addi	s0,sp,32
      1c:	e000                	fsw	fs0,0(s0)
      1e:	0005                	c.nop	1
      20:	0000                	unimp
      22:	0000                	unimp
      24:	0200                	addi	s0,sp,256
      26:	0601                	addi	a2,a2,0
      28:	00bc                	addi	a5,sp,72
      2a:	0000                	unimp
      2c:	0202                	c.slli64	tp
      2e:	9305                	srli	a4,a4,0x21
      30:	0002                	c.slli64	zero
      32:	0300                	addi	s0,sp,384
      34:	0504                	addi	s1,sp,640
      36:	6e69                	lui	t3,0x1a
      38:	0074                	addi	a3,sp,12
      3a:	0802                	c.slli64	a6
      3c:	6405                	lui	s0,0x1
      3e:	0002                	c.slli64	zero
      40:	0200                	addi	s0,sp,256
      42:	0801                	addi	a6,a6,0
      44:	00ba                	slli	ra,ra,0xe
      46:	0000                	unimp
      48:	0202                	c.slli64	tp
      4a:	0000c807          	flq	fa6,0(ra)
      4e:	0400                	addi	s0,sp,512
      50:	02b8                	addi	a4,sp,328
      52:	0000                	unimp
      54:	3402                	fld	fs0,32(sp)
      56:	5b19                	li	s6,-26
      58:	0000                	unimp
      5a:	0200                	addi	s0,sp,256
      5c:	0704                	addi	s1,sp,896
      5e:	01a1                	addi	gp,gp,8
      60:	0000                	unimp
      62:	9c04                	0x9c04
      64:	0000                	unimp
      66:	0200                	addi	s0,sp,256
      68:	00731937          	lui	s2,0x731
      6c:	0000                	unimp
      6e:	6205                	lui	tp,0x1
      70:	0000                	unimp
      72:	0200                	addi	s0,sp,256
      74:	0708                	addi	a0,sp,896
      76:	00000197          	auipc	gp,0x0
      7a:	7206                	flw	ft4,96(sp)
      7c:	0002                	c.slli64	zero
      7e:	0100                	addi	s0,sp,128
      80:	1396                	slli	t2,t2,0x25
      82:	006e                	c.slli	zero,0x1b
      84:	0000                	unimp
      86:	0305                	addi	t1,t1,1
      88:	2808                	fld	fa0,16(s0)
      8a:	0010                	0x10
      8c:	5506                	lw	a0,96(sp)
      8e:	0002                	c.slli64	zero
      90:	0100                	addi	s0,sp,128
      92:	00620a97          	auipc	s5,0x620
      96:	0000                	unimp
      98:	0305                	addi	t1,t1,1
      9a:	2810                	fld	fa2,16(s0)
      9c:	0010                	0x10
      9e:	0002d907          	0x2d907
      a2:	0100                	addi	s0,sp,128
      a4:	06c2                	slli	a3,a3,0x10
      a6:	0570                	addi	a2,sp,652
      a8:	0010                	0x10
      aa:	00f4                	addi	a3,sp,76
      ac:	0000                	unimp
      ae:	9c01                	0x9c01
      b0:	9d08                	0x9d08
      b2:	0002                	c.slli64	zero
      b4:	0100                	addi	s0,sp,128
      b6:	0abe                	slli	s5,s5,0xf
      b8:	0062                	c.slli	zero,0x18
      ba:	0000                	unimp
      bc:	0554                	addi	a3,sp,644
      be:	0010                	0x10
      c0:	001c                	0x1c
      c2:	0000                	unimp
      c4:	9c01                	0x9c01
      c6:	e309                	bnez	a4,c8 <_min_stack-0x1f38>
      c8:	0000                	unimp
      ca:	0100                	addi	s0,sp,128
      cc:	06b8                	addi	a4,sp,840
      ce:	0500                	addi	s0,sp,640
      d0:	0010                	0x10
      d2:	0054                	addi	a3,sp,4
      d4:	0000                	unimp
      d6:	9c01                	0x9c01
      d8:	00ec                	addi	a1,sp,76
      da:	0000                	unimp
      dc:	8a0a                	mv	s4,sp
      de:	0002                	c.slli64	zero
      e0:	0100                	addi	s0,sp,128
      e2:	1eb8                	addi	a4,sp,888
      e4:	0062                	c.slli	zero,0x18
      e6:	0000                	unimp
      e8:	9102                	jalr	sp
      ea:	0078                	addi	a4,sp,12
      ec:	00027f0b          	0x27f0b
      f0:	0100                	addi	s0,sp,128
      f2:	0aac                	addi	a1,sp,344
      f4:	0062                	c.slli	zero,0x18
      f6:	0000                	unimp
      f8:	0484                	addi	s1,sp,576
      fa:	0010                	0x10
      fc:	007c                	addi	a5,sp,12
      fe:	0000                	unimp
     100:	9c01                	0x9c01
     102:	0134                	addi	a3,sp,136
     104:	0000                	unimp
     106:	890c                	0x890c
     108:	0001                	nop
     10a:	0100                	addi	s0,sp,128
     10c:	0cad                	addi	s9,s9,11
     10e:	0000004f          	fnmadd.s	ft0,ft0,ft0,ft0,rne
     112:	9102                	jalr	sp
     114:	0c7c                	addi	a5,sp,540
     116:	002c                	addi	a1,sp,8
     118:	0000                	unimp
     11a:	ae01                	j	42a <_min_stack-0x1bd6>
     11c:	4f0c                	lw	a1,24(a4)
     11e:	0000                	unimp
     120:	0200                	addi	s0,sp,256
     122:	7891                	lui	a7,0xfffe4
     124:	f20c                	fsw	fa1,32(a2)
     126:	0000                	unimp
     128:	0100                	addi	s0,sp,128
     12a:	0cb4                	addi	a3,sp,600
     12c:	0062                	c.slli	zero,0x18
     12e:	0000                	unimp
     130:	9102                	jalr	sp
     132:	0070                	addi	a2,sp,12
     134:	470d                	li	a4,3
     136:	0002                	c.slli64	zero
     138:	0100                	addi	s0,sp,128
     13a:	06aa                	slli	a3,a3,0xa
     13c:	0474                	addi	a3,sp,524
     13e:	0010                	0x10
     140:	0010                	0x10
     142:	0000                	unimp
     144:	9c01                	0x9c01
     146:	8f0e                	mv	t5,gp
     148:	0000                	unimp
     14a:	0100                	addi	s0,sp,128
     14c:	069f 0408 0010      	0x100408069f
     152:	006c                	addi	a1,sp,12
     154:	0000                	unimp
     156:	9c01                	0x9c01
     158:	016c                	addi	a1,sp,140
     15a:	0000                	unimp
     15c:	0f0a                	slli	t5,t5,0x2
     15e:	0001                	nop
     160:	0100                	addi	s0,sp,128
     162:	1c9f 0062 0000      	0x621c9f
     168:	9102                	jalr	sp
     16a:	0068                	addi	a0,sp,12
     16c:	0000fd0f          	0xfd0f
     170:	0100                	addi	s0,sp,128
     172:	1499                	addi	s1,s1,-26
     174:	03a0                	addi	s0,sp,456
     176:	0010                	0x10
     178:	0068                	addi	a0,sp,12
     17a:	0000                	unimp
     17c:	9c01                	0x9c01
     17e:	01a1                	addi	gp,gp,8
     180:	0000                	unimp
     182:	0f0a                	slli	t5,t5,0x2
     184:	0001                	nop
     186:	0100                	addi	s0,sp,128
     188:	2f99                	jal	8de <_min_stack-0x1722>
     18a:	0062                	c.slli	zero,0x18
     18c:	0000                	unimp
     18e:	9102                	jalr	sp
     190:	0c58                	addi	a4,sp,532
     192:	002c                	addi	a1,sp,8
     194:	0000                	unimp
     196:	9a01                	andi	a2,a2,-32
     198:	620c                	flw	fa1,0(a2)
     19a:	0000                	unimp
     19c:	0200                	addi	s0,sp,256
     19e:	6891                	lui	a7,0x4
     1a0:	0700                	addi	s0,sp,896
     1a2:	0000000b          	0xb
     1a6:	8701                	c.srai64	a4
     1a8:	1c06                	slli	s8,s8,0x21
     1aa:	84001003          	lh	zero,-1984(zero) # fffff840 <_stack_start+0xffdff840>
     1ae:	0000                	unimp
     1b0:	0100                	addi	s0,sp,128
     1b2:	109c                	addi	a5,sp,96
     1b4:	000002cf          	fnmadd.s	ft5,ft0,ft0,ft0,rne
     1b8:	8101                	c.srli64	a0
     1ba:	5b0e                	lw	s6,224(sp)
     1bc:	0000                	unimp
     1be:	0000                	unimp
     1c0:	1c001003          	lh	zero,448(zero) # 1c0 <_min_stack-0x1e40>
     1c4:	0000                	unimp
     1c6:	0100                	addi	s0,sp,128
     1c8:	dd9c                	sw	a5,56(a1)
     1ca:	0001                	nop
     1cc:	0c00                	addi	s0,sp,528
     1ce:	01ae                	slli	gp,gp,0xb
     1d0:	0000                	unimp
     1d2:	8201                	c.srli64	a2
     1d4:	4f0c                	lw	a1,24(a4)
     1d6:	0000                	unimp
     1d8:	0200                	addi	s0,sp,256
     1da:	7c91                	lui	s9,0xfffe4
     1dc:	1000                	addi	s0,sp,32
     1de:	0000                	unimp
     1e0:	0000                	unimp
     1e2:	7b01                	lui	s6,0xfffe0
     1e4:	5b0e                	lw	s6,224(sp)
     1e6:	0000                	unimp
     1e8:	e400                	fsw	fs0,8(s0)
     1ea:	1002                	c.slli	zero,0x20
     1ec:	1c00                	addi	s0,sp,560
     1ee:	0000                	unimp
     1f0:	0100                	addi	s0,sp,128
     1f2:	079c                	addi	a5,sp,960
     1f4:	0002                	c.slli64	zero
     1f6:	0c00                	addi	s0,sp,528
     1f8:	01ae                	slli	gp,gp,0xb
     1fa:	0000                	unimp
     1fc:	7c01                	lui	s8,0xfffe0
     1fe:	4f0c                	lw	a1,24(a4)
     200:	0000                	unimp
     202:	0200                	addi	s0,sp,256
     204:	7c91                	lui	s9,0xfffe4
     206:	1000                	addi	s0,sp,32
     208:	02c1                	addi	t0,t0,16
     20a:	0000                	unimp
     20c:	7501                	lui	a0,0xfffe0
     20e:	5b0e                	lw	s6,224(sp)
     210:	0000                	unimp
     212:	c800                	sw	s0,16(s0)
     214:	1002                	c.slli	zero,0x20
     216:	1c00                	addi	s0,sp,560
     218:	0000                	unimp
     21a:	0100                	addi	s0,sp,128
     21c:	319c                	fld	fa5,32(a1)
     21e:	0002                	c.slli64	zero
     220:	0c00                	addi	s0,sp,528
     222:	01ae                	slli	gp,gp,0xb
     224:	0000                	unimp
     226:	7601                	lui	a2,0xfffe0
     228:	4f0c                	lw	a1,24(a4)
     22a:	0000                	unimp
     22c:	0200                	addi	s0,sp,256
     22e:	7c91                	lui	s9,0xfffe4
     230:	0900                	addi	s0,sp,144
     232:	001e                	c.slli	zero,0x7
     234:	0000                	unimp
     236:	6901                	0x6901
     238:	9406                	add	s0,s0,ra
     23a:	1002                	c.slli	zero,0x20
     23c:	3400                	fld	fs0,40(s0)
     23e:	0000                	unimp
     240:	0100                	addi	s0,sp,128
     242:	669c                	flw	fa5,8(a3)
     244:	0002                	c.slli64	zero
     246:	0a00                	addi	s0,sp,272
     248:	0095                	addi	ra,ra,5
     24a:	0000                	unimp
     24c:	6901                	0x6901
     24e:	3318                	fld	fa4,32(a4)
     250:	0000                	unimp
     252:	0200                	addi	s0,sp,256
     254:	6c91                	lui	s9,0x4
     256:	ae0c                	fsd	fa1,24(a2)
     258:	0000                	unimp
     25a:	0100                	addi	s0,sp,128
     25c:	005b106b          	0x5b106b
     260:	0000                	unimp
     262:	9102                	jalr	sp
     264:	007c                	addi	a5,sp,12
     266:	ee11                	bnez	a2,282 <_min_stack-0x1d7e>
     268:	0002                	c.slli64	zero
     26a:	0100                	addi	s0,sp,128
     26c:	01940627          	0x1940627
     270:	0010                	0x10
     272:	0100                	addi	s0,sp,128
     274:	0000                	unimp
     276:	9c01                	0x9c01
     278:	a511                	j	87c <_min_stack-0x1784>
     27a:	0000                	unimp
     27c:	0100                	addi	s0,sp,128
     27e:	0625                	addi	a2,a2,9
     280:	017c                	addi	a5,sp,140
     282:	0010                	0x10
     284:	0018                	0x18
     286:	0000                	unimp
     288:	9c01                	0x9c01
     28a:	fb0e                	fsw	ft3,180(sp)
     28c:	0002                	c.slli64	zero
     28e:	0100                	addi	s0,sp,128
     290:	0615                	addi	a2,a2,5
     292:	00f4                	addi	a3,sp,76
     294:	0010                	0x10
     296:	0088                	addi	a0,sp,64
     298:	0000                	unimp
     29a:	9c01                	0x9c01
     29c:	02d4                	addi	a3,sp,324
     29e:	0000                	unimp
     2a0:	6812                	flw	fa6,4(sp)
     2a2:	0100                	addi	s0,sp,128
     2a4:	1615                	addi	a2,a2,-27
     2a6:	0000004f          	fnmadd.s	ft0,ft0,ft0,ft0,rne
     2aa:	9102                	jalr	sp
     2ac:	0c5c                	addi	a5,sp,532
     2ae:	02ae                	slli	t0,t0,0xb
     2b0:	0000                	unimp
     2b2:	1601                	addi	a2,a2,-32
     2b4:	00003307          	fld	ft6,0(zero) # 0 <_min_stack-0x2000>
     2b8:	0200                	addi	s0,sp,256
     2ba:	6891                	lui	a7,0x4
     2bc:	10010013          	addi	zero,sp,256
     2c0:	6800                	flw	fs0,16(s0)
     2c2:	0000                	unimp
     2c4:	1400                	addi	s0,sp,544
     2c6:	0069                	c.nop	26
     2c8:	1901                	addi	s2,s2,-32
     2ca:	330c                	fld	fa1,32(a4)
     2cc:	0000                	unimp
     2ce:	0200                	addi	s0,sp,256
     2d0:	6c91                	lui	s9,0x4
     2d2:	0000                	unimp
     2d4:	ca15                	beqz	a2,308 <_min_stack-0x1cf8>
     2d6:	0002                	c.slli64	zero
     2d8:	0100                	addi	s0,sp,128
     2da:	050d                	addi	a0,a0,3
     2dc:	00000033          	add	zero,zero,zero
     2e0:	00ac                	addi	a1,sp,72
     2e2:	0010                	0x10
     2e4:	0048                	addi	a0,sp,4
     2e6:	0000                	unimp
     2e8:	9c01                	0x9c01
     2ea:	02fe                	slli	t0,t0,0x1f
     2ec:	0000                	unimp
     2ee:	7312                	flw	ft6,36(sp)
     2f0:	7274                	flw	fa3,100(a2)
     2f2:	0100                	addi	s0,sp,128
     2f4:	160d                	addi	a2,a2,-29
     2f6:	02fe                	slli	t0,t0,0x1f
     2f8:	0000                	unimp
     2fa:	9102                	jalr	sp
     2fc:	006c                	addi	a1,sp,12
     2fe:	0416                	slli	s0,s0,0x5
     300:	0000030b          	0x30b
     304:	0102                	c.slli64	sp
     306:	c308                	sw	a0,0(a4)
     308:	0000                	unimp
     30a:	1700                	addi	s0,sp,928
     30c:	0304                	addi	s1,sp,384
     30e:	0000                	unimp
     310:	db18                	sw	a4,48(a4)
     312:	0000                	unimp
     314:	0100                	addi	s0,sp,128
     316:	00330507          	0x330507
     31a:	0000                	unimp
     31c:	0084                	addi	s1,sp,64
     31e:	0010                	0x10
     320:	0028                	addi	a0,sp,8
     322:	0000                	unimp
     324:	9c01                	0x9c01
     326:	6312                	flw	ft6,4(sp)
     328:	0100                	addi	s0,sp,128
     32a:	00331107          	0x331107
     32e:	0000                	unimp
     330:	9102                	jalr	sp
     332:	007c                	addi	a5,sp,12
     334:	3d00                	fld	fs0,56(a0)
     336:	0001                	nop
     338:	0400                	addi	s0,sp,512
     33a:	de00                	sw	s0,56(a2)
     33c:	0001                	nop
     33e:	0400                	addi	s0,sp,512
     340:	b501                	j	140 <_min_stack-0x1ec0>
     342:	0001                	nop
     344:	0c00                	addi	s0,sp,528
     346:	0309                	addi	t1,t1,2
     348:	0000                	unimp
     34a:	0039                	c.nop	14
     34c:	0000                	unimp
     34e:	0664                	addi	s1,sp,780
     350:	0010                	0x10
     352:	004c                	addi	a1,sp,4
     354:	0000                	unimp
     356:	0430                	addi	a2,sp,520
     358:	0000                	unimp
     35a:	0402                	c.slli64	s0
     35c:	0001a107          	flw	ft2,0(gp) # 76 <_min_stack-0x1f8a>
     360:	0200                	addi	s0,sp,256
     362:	0801                	addi	a6,a6,0
     364:	00ba                	slli	ra,ra,0xe
     366:	0000                	unimp
     368:	0202                	c.slli64	tp
     36a:	0000c807          	flq	fa6,0(ra)
     36e:	0200                	addi	s0,sp,256
     370:	0704                	addi	s1,sp,896
     372:	019c                	addi	a5,sp,192
     374:	0000                	unimp
     376:	0102                	c.slli64	sp
     378:	bc06                	fsd	ft1,56(sp)
     37a:	0000                	unimp
     37c:	0200                	addi	s0,sp,256
     37e:	0502                	c.slli64	a0
     380:	00000293          	li	t0,0
     384:	69050403          	lb	s0,1680(a0) # fffe0690 <_stack_start+0xffde0690>
     388:	746e                	flw	fs0,248(sp)
     38a:	0200                	addi	s0,sp,256
     38c:	0508                	addi	a0,sp,640
     38e:	0264                	addi	s1,sp,268
     390:	0000                	unimp
     392:	0802                	c.slli64	a6
     394:	00019707          	0x19707
     398:	0200                	addi	s0,sp,256
     39a:	0504                	addi	s1,sp,640
     39c:	0269                	addi	tp,tp,26
     39e:	0000                	unimp
     3a0:	0404                	addi	s1,sp,512
     3a2:	0071                	c.nop	28
     3a4:	0000                	unimp
     3a6:	0102                	c.slli64	sp
     3a8:	c308                	sw	a0,0(a4)
     3aa:	0000                	unimp
     3ac:	0500                	addi	s0,sp,640
     3ae:	0315                	addi	t1,t1,5
     3b0:	0000                	unimp
     3b2:	2e02                	fld	ft8,0(sp)
     3b4:	2c18                	fld	fa4,24(s0)
     3b6:	0000                	unimp
     3b8:	0600                	addi	s0,sp,768
     3ba:	00000327          	0x327
     3be:	03c0                	addi	s0,sp,452
     3c0:	00ab082b          	0xab082b
     3c4:	0000                	unimp
     3c6:	0003ed07          	0x3ed07
     3ca:	0300                	addi	s0,sp,384
     3cc:	0b2d                	addi	s6,s6,11
     3ce:	000000ab          	0xab
     3d2:	0800                	addi	s0,sp,16
     3d4:	7649                	lui	a2,0xffff2
     3d6:	0300                	addi	s0,sp,384
     3d8:	00bb0b2f          	0xbb0b2f
     3dc:	0000                	unimp
     3de:	00b0                	addi	a2,sp,72
     3e0:	7809                	lui	a6,0xfffe2
     3e2:	0000                	unimp
     3e4:	bb00                	fsd	fs0,48(a4)
     3e6:	0000                	unimp
     3e8:	0a00                	addi	s0,sp,272
     3ea:	0025                	c.nop	9
     3ec:	0000                	unimp
     3ee:	780900af          	0x780900af
     3f2:	0000                	unimp
     3f4:	cb00                	sw	s0,16(a4)
     3f6:	0000                	unimp
     3f8:	0a00                	addi	s0,sp,272
     3fa:	0025                	c.nop	9
     3fc:	0000                	unimp
     3fe:	6b0b000f          	0x6b0b000f
     402:	7965                	lui	s2,0xffff9
     404:	0100                	addi	s0,sp,128
     406:	0906                	slli	s2,s2,0x1
     408:	000000bb          	0xbb
     40c:	0305                	addi	t1,t1,1
     40e:	27e8                	fld	fa0,200(a5)
     410:	0010                	0x10
     412:	020c                	addi	a1,sp,256
     414:	01000003          	lb	zero,16(zero) # 10 <_min_stack-0x1ff0>
     418:	090c                	addi	a1,sp,144
     41a:	000000bb          	0xbb
     41e:	0305                	addi	t1,t1,1
     420:	27f8                	fld	fa4,200(a5)
     422:	0010                	0x10
     424:	100d                	c.nop	-29
     426:	01000003          	lb	zero,16(zero) # 10 <_min_stack-0x1ff0>
     42a:	0511                	addi	a0,a0,4
     42c:	0000004f          	fnmadd.s	ft0,ft0,ft0,ft0,rne
     430:	0664                	addi	s1,sp,780
     432:	0010                	0x10
     434:	004c                	addi	a1,sp,4
     436:	0000                	unimp
     438:	9c01                	0x9c01
     43a:	013a                	slli	sp,sp,0xe
     43c:	0000                	unimp
     43e:	1d0e                	slli	s10,s10,0x23
     440:	01000003          	lb	zero,16(zero) # 10 <_min_stack-0x1ff0>
     444:	0e11                	addi	t3,t3,4
     446:	0000004f          	fnmadd.s	ft0,ft0,ft0,ft0,rne
     44a:	7eac9103          	lh	sp,2026(s9) # 47ea <_min_stack+0x27ea>
     44e:	220e                	fld	ft4,192(sp)
     450:	01000003          	lb	zero,16(zero) # 10 <_min_stack-0x1ff0>
     454:	1a11                	addi	s4,s4,-28
     456:	013a                	slli	sp,sp,0xe
     458:	0000                	unimp
     45a:	7ea89103          	lh	sp,2026(a7) # 47ea <_min_stack+0x27ea>
     45e:	7874630f          	0x7874630f
     462:	0100                	addi	s0,sp,128
     464:	00841413          	slli	s0,s0,0x8
     468:	0000                	unimp
     46a:	7eb09103          	lh	sp,2027(ra)
     46e:	0400                	addi	s0,sp,512
     470:	6b04                	flw	fs1,16(a4)
     472:	0000                	unimp
     474:	0000                	unimp
     476:	0786                	slli	a5,a5,0x1
     478:	0000                	unimp
     47a:	0004                	0x4
     47c:	000002cb          	fnmsub.s	ft5,ft0,ft0,ft0,rne
     480:	0104                	addi	s1,sp,128
     482:	01b5                	addi	gp,gp,13
     484:	0000                	unimp
     486:	260c                	fld	fa1,8(a2)
     488:	0004                	0x4
     48a:	3900                	fld	fs0,48(a0)
     48c:	0000                	unimp
     48e:	b000                	fsd	fs0,32(s0)
     490:	1006                	c.slli	zero,0x21
     492:	3800                	fld	fs0,48(s0)
     494:	001a                	c.slli	zero,0x6
     496:	dc00                	sw	s0,56(s0)
     498:	0004                	0x4
     49a:	0200                	addi	s0,sp,256
     49c:	0704                	addi	s1,sp,896
     49e:	01a1                	addi	gp,gp,8
     4a0:	0000                	unimp
     4a2:	0202                	c.slli64	tp
     4a4:	0000c807          	flq	fa6,0(ra)
     4a8:	0300                	addi	s0,sp,384
     4aa:	0504                	addi	s1,sp,640
     4ac:	6e69                	lui	t3,0x1a
     4ae:	0074                	addi	a3,sp,12
     4b0:	0102                	c.slli64	sp
     4b2:	c308                	sw	a0,0(a4)
     4b4:	0000                	unimp
     4b6:	0200                	addi	s0,sp,256
     4b8:	0601                	addi	a2,a2,0
     4ba:	00bc                	addi	a5,sp,72
     4bc:	0000                	unimp
     4be:	0202                	c.slli64	tp
     4c0:	9305                	srli	a4,a4,0x21
     4c2:	0002                	c.slli64	zero
     4c4:	0200                	addi	s0,sp,256
     4c6:	0508                	addi	a0,sp,640
     4c8:	0264                	addi	s1,sp,268
     4ca:	0000                	unimp
     4cc:	1504                	addi	s1,sp,672
     4ce:	02000003          	lb	zero,32(zero) # 20 <_min_stack-0x1fe0>
     4d2:	182e                	slli	a6,a6,0x2b
     4d4:	00000067          	jr	zero # 0 <_min_stack-0x2000>
     4d8:	5605                	li	a2,-31
     4da:	0000                	unimp
     4dc:	0200                	addi	s0,sp,256
     4de:	0801                	addi	a6,a6,0
     4e0:	00ba                	slli	ra,ra,0xe
     4e2:	0000                	unimp
     4e4:	b804                	fsd	fs1,48(s0)
     4e6:	0002                	c.slli64	zero
     4e8:	0200                	addi	s0,sp,256
     4ea:	1934                	addi	a3,sp,184
     4ec:	0025                	c.nop	9
     4ee:	0000                	unimp
     4f0:	0802                	c.slli64	a6
     4f2:	00019707          	0x19707
     4f6:	0400                	addi	s0,sp,512
     4f8:	039f 0000 5602      	0x56020000039f
     4fe:	251a                	fld	fa0,384(sp)
     500:	0000                	unimp
     502:	0600                	addi	s0,sp,768
     504:	00000327          	0x327
     508:	03c0                	addi	s0,sp,452
     50a:	00b4082b          	0xb4082b
     50e:	0000                	unimp
     510:	0003ed07          	0x3ed07
     514:	0300                	addi	s0,sp,384
     516:	0b2d                	addi	s6,s6,11
     518:	00b9                	addi	ra,ra,14
     51a:	0000                	unimp
     51c:	0800                	addi	s0,sp,16
     51e:	7649                	lui	a2,0xffff2
     520:	0300                	addi	s0,sp,384
     522:	00c90b2f          	0xc90b2f
     526:	0000                	unimp
     528:	00b0                	addi	a2,sp,72
     52a:	8d05                	sub	a0,a0,s1
     52c:	0000                	unimp
     52e:	0900                	addi	s0,sp,144
     530:	0056                	c.slli	zero,0x15
     532:	0000                	unimp
     534:	00c9                	addi	ra,ra,18
     536:	0000                	unimp
     538:	250a                	fld	fa0,128(sp)
     53a:	0000                	unimp
     53c:	af00                	fsd	fs0,24(a4)
     53e:	0900                	addi	s0,sp,144
     540:	0056                	c.slli	zero,0x15
     542:	0000                	unimp
     544:	00d9                	addi	ra,ra,22
     546:	0000                	unimp
     548:	250a                	fld	fa0,128(sp)
     54a:	0000                	unimp
     54c:	0f00                	addi	s0,sp,912
     54e:	0400                	addi	s0,sp,512
     550:	03a9                	addi	t2,t2,10
     552:	0000                	unimp
     554:	4801                	li	a6,0
     556:	e511                	bnez	a0,562 <_min_stack-0x1a9e>
     558:	0000                	unimp
     55a:	0900                	addi	s0,sp,144
     55c:	0056                	c.slli	zero,0x15
     55e:	0000                	unimp
     560:	000000fb          	0xfb
     564:	250a                	fld	fa0,128(sp)
     566:	0000                	unimp
     568:	0300                	addi	s0,sp,384
     56a:	250a                	fld	fa0,128(sp)
     56c:	0000                	unimp
     56e:	0300                	addi	s0,sp,384
     570:	0900                	addi	s0,sp,144
     572:	0062                	c.slli	zero,0x18
     574:	0000                	unimp
     576:	0000010b          	0x10b
     57a:	250a                	fld	fa0,128(sp)
     57c:	0000                	unimp
     57e:	ff00                	fsw	fs0,56(a4)
     580:	0500                	addi	s0,sp,640
     582:	000000fb          	0xfb
     586:	0003630b          	0x3630b
     58a:	0100                	addi	s0,sp,128
     58c:	010b164f          	fnmadd.s	fa2,fs6,fa6,ft0,rtz
     590:	0000                	unimp
     592:	0305                	addi	t1,t1,1
     594:	259c                	fld	fa5,8(a1)
     596:	0010                	0x10
     598:	0003620b          	0x3620b
     59c:	0100                	addi	s0,sp,128
     59e:	1662                	slli	a2,a2,0x38
     5a0:	0000010b          	0x10b
     5a4:	0305                	addi	t1,t1,1
     5a6:	269c                	fld	fa5,8(a3)
     5a8:	0010                	0x10
     5aa:	6209                	lui	tp,0x2
     5ac:	0000                	unimp
     5ae:	4400                	lw	s0,8(s0)
     5b0:	0001                	nop
     5b2:	0a00                	addi	s0,sp,272
     5b4:	0025                	c.nop	9
     5b6:	0000                	unimp
     5b8:	000a                	c.slli	zero,0x2
     5ba:	3405                	jal	ffffffda <_stack_start+0xffdfffda>
     5bc:	0001                	nop
     5be:	0b00                	addi	s0,sp,400
     5c0:	0412                	slli	s0,s0,0x4
     5c2:	0000                	unimp
     5c4:	7601                	lui	a2,0xfffe0
     5c6:	4416                	lw	s0,68(sp)
     5c8:	0001                	nop
     5ca:	0500                	addi	s0,sp,640
     5cc:	10279c03          	lh	s8,258(a5)
     5d0:	0c00                	addi	s0,sp,528
     5d2:	03f6                	slli	t2,t2,0x1d
     5d4:	0000                	unimp
     5d6:	1701                	addi	a4,a4,-32
     5d8:	0602                	c.slli64	a2
     5da:	1f9c                	addi	a5,sp,1008
     5dc:	0010                	0x10
     5de:	014c                	addi	a1,sp,132
     5e0:	0000                	unimp
     5e2:	9c01                	0x9c01
     5e4:	01d0                	addi	a2,sp,196
     5e6:	0000                	unimp
     5e8:	630d                	lui	t1,0x3
     5ea:	7874                	flw	fa3,116(s0)
     5ec:	0100                	addi	s0,sp,128
     5ee:	d02c0217          	auipc	tp,0xd02c0
     5f2:	0001                	nop
     5f4:	0200                	addi	s0,sp,256
     5f6:	4c91                	li	s9,4
     5f8:	620d                	lui	tp,0x3
     5fa:	6675                	lui	a2,0x1d
     5fc:	0100                	addi	s0,sp,128
     5fe:	d63a0217          	auipc	tp,0xd63a0
     602:	0001                	nop
     604:	0200                	addi	s0,sp,256
     606:	4891                	li	a7,4
     608:	e30e                	fsw	ft3,132(sp)
     60a:	01000003          	lb	zero,16(zero) # 10 <_min_stack-0x1ff0>
     60e:	6e480217          	auipc	tp,0x6e480
     612:	0000                	unimp
     614:	0200                	addi	s0,sp,256
     616:	4491                	li	s1,4
     618:	0003ce0f          	0x3ce0f
     61c:	0100                	addi	s0,sp,128
     61e:	0219                	addi	tp,tp,6
     620:	0000c90b          	0xc90b
     624:	0200                	addi	s0,sp,256
     626:	5891                	li	a7,-28
     628:	6910                	flw	fa2,16(a0)
     62a:	0100                	addi	s0,sp,128
     62c:	250c021b          	0x250c021b
     630:	0000                	unimp
     632:	0200                	addi	s0,sp,256
     634:	6c91                	lui	s9,0x4
     636:	6210                	flw	fa2,0(a2)
     638:	0069                	c.nop	26
     63a:	1c01                	addi	s8,s8,-32
     63c:	0702                	c.slli64	a4
     63e:	00000033          	add	zero,zero,zero
     642:	9102                	jalr	sp
     644:	0068                	addi	a0,sp,12
     646:	0411                	addi	s0,s0,4
     648:	008d                	addi	ra,ra,3
     64a:	0000                	unimp
     64c:	0411                	addi	s0,s0,4
     64e:	0056                	c.slli	zero,0x15
     650:	0000                	unimp
     652:	be0c                	fsd	fa1,56(a2)
     654:	01000003          	lb	zero,16(zero) # 10 <_min_stack-0x1ff0>
     658:	0201                	addi	tp,tp,0
     65a:	f406                	fsw	ft1,40(sp)
     65c:	101e                	c.slli	zero,0x27
     65e:	a800                	fsd	fs0,16(s0)
     660:	0000                	unimp
     662:	0100                	addi	s0,sp,128
     664:	429c                	lw	a5,0(a3)
     666:	0002                	c.slli64	zero
     668:	0d00                	addi	s0,sp,656
     66a:	00787463          	bgeu	a6,t2,672 <_min_stack-0x198e>
     66e:	0101                	addi	sp,sp,0
     670:	2d02                	fld	fs10,0(sp)
     672:	01d0                	addi	a2,sp,196
     674:	0000                	unimp
     676:	9102                	jalr	sp
     678:	0d4c                	addi	a1,sp,660
     67a:	7562                	flw	fa0,56(sp)
     67c:	0066                	c.slli	zero,0x19
     67e:	0101                	addi	sp,sp,0
     680:	3b02                	fld	fs6,32(sp)
     682:	01d6                	slli	gp,gp,0x15
     684:	0000                	unimp
     686:	9102                	jalr	sp
     688:	0e48                	addi	a0,sp,788
     68a:	000003e3          	beqz	zero,e90 <_min_stack-0x1170>
     68e:	0101                	addi	sp,sp,0
     690:	4a02                	lw	s4,0(sp)
     692:	006e                	c.slli	zero,0x1b
     694:	0000                	unimp
     696:	9102                	jalr	sp
     698:	1044                	addi	s1,sp,36
     69a:	0069                	c.nop	26
     69c:	0301                	addi	t1,t1,0
     69e:	0d02                	c.slli64	s10
     6a0:	0081                	addi	ra,ra,0
     6a2:	0000                	unimp
     6a4:	9102                	jalr	sp
     6a6:	0f6c                	addi	a1,sp,924
     6a8:	0356                	slli	t1,t1,0x15
     6aa:	0000                	unimp
     6ac:	0401                	addi	s0,s0,0
     6ae:	0b02                	c.slli64	s6
     6b0:	00c9                	addi	ra,ra,18
     6b2:	0000                	unimp
     6b4:	9102                	jalr	sp
     6b6:	005c                	addi	a5,sp,4
     6b8:	680c                	flw	fa1,16(s0)
     6ba:	01000003          	lb	zero,16(zero) # 10 <_min_stack-0x1ff0>
     6be:	01f1                	addi	gp,gp,28
     6c0:	5c06                	lw	s8,96(sp)
     6c2:	101e                	c.slli	zero,0x27
     6c4:	9800                	0x9800
     6c6:	0000                	unimp
     6c8:	0100                	addi	s0,sp,128
     6ca:	a79c                	fsd	fa5,8(a5)
     6cc:	0002                	c.slli64	zero
     6ce:	0d00                	addi	s0,sp,656
     6d0:	00787463          	bgeu	a6,t2,6d8 <_min_stack-0x1928>
     6d4:	f101                	bnez	a0,5d4 <_min_stack-0x1a2c>
     6d6:	2d01                	jal	ce6 <_min_stack-0x131a>
     6d8:	01d0                	addi	a2,sp,196
     6da:	0000                	unimp
     6dc:	9102                	jalr	sp
     6de:	0d5c                	addi	a5,sp,660
     6e0:	7562                	flw	fa0,56(sp)
     6e2:	0066                	c.slli	zero,0x19
     6e4:	f101                	bnez	a0,5e4 <_min_stack-0x1a1c>
     6e6:	3b01                	jal	3f6 <_min_stack-0x1c0a>
     6e8:	01d6                	slli	gp,gp,0x15
     6ea:	0000                	unimp
     6ec:	9102                	jalr	sp
     6ee:	0e58                	addi	a4,sp,788
     6f0:	000003e3          	beqz	zero,ef6 <_min_stack-0x110a>
     6f4:	f101                	bnez	a0,5f4 <_min_stack-0x1a0c>
     6f6:	4901                	li	s2,0
     6f8:	006e                	c.slli	zero,0x1b
     6fa:	0000                	unimp
     6fc:	9102                	jalr	sp
     6fe:	1054                	addi	a3,sp,36
     700:	0069                	c.nop	26
     702:	f301                	bnez	a4,602 <_min_stack-0x19fe>
     704:	0d01                	addi	s10,s10,0
     706:	0081                	addi	ra,ra,0
     708:	0000                	unimp
     70a:	9102                	jalr	sp
     70c:	106c                	addi	a1,sp,44
     70e:	7649                	lui	a2,0xffff2
     710:	0100                	addi	s0,sp,128
     712:	01f4                	addi	a3,sp,204
     714:	d60c                	sw	a1,40(a2)
     716:	0001                	nop
     718:	0200                	addi	s0,sp,256
     71a:	6891                	lui	a7,0x4
     71c:	1200                	addi	s0,sp,288
     71e:	0462                	slli	s0,s0,0x18
     720:	0000                	unimp
     722:	e801                	bnez	s0,732 <_min_stack-0x18ce>
     724:	0d01                	addi	s10,s10,0
     726:	1de8                	addi	a0,sp,764
     728:	0010                	0x10
     72a:	0074                	addi	a3,sp,12
     72c:	0000                	unimp
     72e:	9c01                	0x9c01
     730:	02ec                	addi	a1,sp,332
     732:	0000                	unimp
     734:	620d                	lui	tp,0x3
     736:	6675                	lui	a2,0x1d
     738:	0100                	addi	s0,sp,128
     73a:	01e8                	addi	a0,sp,204
     73c:	d620                	sw	s0,104(a2)
     73e:	0001                	nop
     740:	0200                	addi	s0,sp,256
     742:	6c91                	lui	s9,0x4
     744:	490d                	li	s2,3
     746:	0076                	c.slli	zero,0x1d
     748:	e801                	bnez	s0,758 <_min_stack-0x18a8>
     74a:	3401                	jal	14a <_min_stack-0x1eb6>
     74c:	02ec                	addi	a1,sp,332
     74e:	0000                	unimp
     750:	9102                	jalr	sp
     752:	1068                	addi	a0,sp,44
     754:	0069                	c.nop	26
     756:	ea01                	bnez	a2,766 <_min_stack-0x189a>
     758:	0b01                	addi	s6,s6,0
     75a:	0056                	c.slli	zero,0x15
     75c:	0000                	unimp
     75e:	9102                	jalr	sp
     760:	007f                	0x7f
     762:	0411                	addi	s0,s0,4
     764:	0062                	c.slli	zero,0x18
     766:	0000                	unimp
     768:	7f0c                	flw	fa1,56(a4)
     76a:	01000003          	lb	zero,16(zero) # 10 <_min_stack-0x1ff0>
     76e:	01d8                	addi	a4,sp,196
     770:	b806                	fsd	ft1,48(sp)
     772:	101d                	c.nop	-25
     774:	3000                	fld	fs0,32(s0)
     776:	0000                	unimp
     778:	0100                	addi	s0,sp,128
     77a:	2a9c                	fld	fa5,16(a3)
     77c:	0d000003          	lb	zero,208(zero) # d0 <_min_stack-0x1f30>
     780:	00787463          	bgeu	a6,t2,788 <_min_stack-0x1878>
     784:	d801                	beqz	s0,694 <_min_stack-0x196c>
     786:	2c01                	jal	996 <_min_stack-0x166a>
     788:	032a                	slli	t1,t1,0xa
     78a:	0000                	unimp
     78c:	9102                	jalr	sp
     78e:	0d6c                	addi	a1,sp,668
     790:	7562                	flw	fa0,56(sp)
     792:	0066                	c.slli	zero,0x19
     794:	d801                	beqz	s0,6a4 <_min_stack-0x195c>
     796:	3a01                	jal	a6 <_min_stack-0x1f5a>
     798:	01d6                	slli	gp,gp,0x15
     79a:	0000                	unimp
     79c:	9102                	jalr	sp
     79e:	0068                	addi	a0,sp,12
     7a0:	0411                	addi	s0,s0,4
     7a2:	00b4                	addi	a3,sp,72
     7a4:	0000                	unimp
     7a6:	2c0c                	fld	fa1,24(s0)
     7a8:	0004                	0x4
     7aa:	0100                	addi	s0,sp,128
     7ac:	01d2                	slli	gp,gp,0x14
     7ae:	8806                	mv	a6,ra
     7b0:	101d                	c.nop	-25
     7b2:	3000                	fld	fs0,32(s0)
     7b4:	0000                	unimp
     7b6:	0100                	addi	s0,sp,128
     7b8:	689c                	flw	fa5,16(s1)
     7ba:	0d000003          	lb	zero,208(zero) # d0 <_min_stack-0x1f30>
     7be:	00787463          	bgeu	a6,t2,7c6 <_min_stack-0x183a>
     7c2:	d201                	beqz	a2,6c2 <_min_stack-0x193e>
     7c4:	2c01                	jal	9d4 <_min_stack-0x162c>
     7c6:	032a                	slli	t1,t1,0xa
     7c8:	0000                	unimp
     7ca:	9102                	jalr	sp
     7cc:	0d6c                	addi	a1,sp,668
     7ce:	7562                	flw	fa0,56(sp)
     7d0:	0066                	c.slli	zero,0x19
     7d2:	d201                	beqz	a2,6d2 <_min_stack-0x192e>
     7d4:	3a01                	jal	e4 <_min_stack-0x1f1c>
     7d6:	01d6                	slli	gp,gp,0x15
     7d8:	0000                	unimp
     7da:	9102                	jalr	sp
     7dc:	0068                	addi	a0,sp,12
     7de:	00038f13          	mv	t5,t2
     7e2:	0100                	addi	s0,sp,128
     7e4:	040d01b3          	0x40d01b3
     7e8:	101d                	c.nop	-25
     7ea:	8400                	0x8400
     7ec:	0000                	unimp
     7ee:	0100                	addi	s0,sp,128
     7f0:	b09c                	fsd	fa5,32(s1)
     7f2:	0e000003          	lb	zero,224(zero) # e0 <_min_stack-0x1f20>
     7f6:	0000034b          	fnmsub.s	ft6,ft0,ft0,ft0,rne
     7fa:	b301                	j	4fa <_min_stack-0x1b06>
     7fc:	2001                	jal	7fc <_min_stack-0x1804>
     7fe:	03b0                	addi	a2,sp,456
     800:	0000                	unimp
     802:	9102                	jalr	sp
     804:	0e5c                	addi	a5,sp,788
     806:	03ed                	addi	t2,t2,27
     808:	0000                	unimp
     80a:	b301                	j	50a <_min_stack-0x1af6>
     80c:	3601                	jal	30c <_min_stack-0x1cf4>
     80e:	02ec                	addi	a1,sp,332
     810:	0000                	unimp
     812:	9102                	jalr	sp
     814:	0f58                	addi	a4,sp,916
     816:	040c                	addi	a1,sp,512
     818:	0000                	unimp
     81a:	b501                	j	61a <_min_stack-0x19e6>
     81c:	0b01                	addi	s6,s6,0
     81e:	0056                	c.slli	zero,0x15
     820:	0000                	unimp
     822:	9102                	jalr	sp
     824:	0411006f          	j	11064 <_stack_len+0x9064>
     828:	00d9                	addi	ra,ra,22
     82a:	0000                	unimp
     82c:	00039213          	slli	tp,t2,0x0
     830:	0100                	addi	s0,sp,128
     832:	0199                	addi	gp,gp,6
     834:	6c0d                	lui	s8,0x3
     836:	101c                	addi	a5,sp,32
     838:	9800                	0x9800
     83a:	0000                	unimp
     83c:	0100                	addi	s0,sp,128
     83e:	fe9c                	fsw	fa5,56(a3)
     840:	0e000003          	lb	zero,224(zero) # e0 <_min_stack-0x1f20>
     844:	0000034b          	fnmsub.s	ft6,ft0,ft0,ft0,rne
     848:	9901                	andi	a0,a0,-32
     84a:	1d01                	addi	s10,s10,-32
     84c:	03b0                	addi	a2,sp,456
     84e:	0000                	unimp
     850:	9102                	jalr	sp
     852:	0e5c                	addi	a5,sp,788
     854:	03ed                	addi	t2,t2,27
     856:	0000                	unimp
     858:	9901                	andi	a0,a0,-32
     85a:	3301                	jal	55a <_min_stack-0x1aa6>
     85c:	02ec                	addi	a1,sp,332
     85e:	0000                	unimp
     860:	9102                	jalr	sp
     862:	0f58                	addi	a4,sp,916
     864:	040c                	addi	a1,sp,512
     866:	0000                	unimp
     868:	9b01                	andi	a4,a4,-32
     86a:	0b01                	addi	s6,s6,0
     86c:	0056                	c.slli	zero,0x15
     86e:	0000                	unimp
     870:	9102                	jalr	sp
     872:	b112006f          	j	fff21382 <_stack_start+0xffd21382>
     876:	01000003          	lb	zero,16(zero) # 10 <_min_stack-0x1ff0>
     87a:	780d017b          	0x780d017b
     87e:	f400101b          	0xf400101b
     882:	0000                	unimp
     884:	0100                	addi	s0,sp,128
     886:	369c                	fld	fa5,40(a3)
     888:	0004                	0x4
     88a:	0e00                	addi	s0,sp,784
     88c:	0000034b          	fnmsub.s	ft6,ft0,ft0,ft0,rne
     890:	7b01                	lui	s6,0xfffe0
     892:	2301                	jal	d92 <_min_stack-0x126e>
     894:	03b0                	addi	a2,sp,456
     896:	0000                	unimp
     898:	9102                	jalr	sp
     89a:	0f6c                	addi	a1,sp,924
     89c:	0351                	addi	t1,t1,20
     89e:	0000                	unimp
     8a0:	7d01                	lui	s10,0xfffe0
     8a2:	0b01                	addi	s6,s6,0
     8a4:	0056                	c.slli	zero,0x15
     8a6:	0000                	unimp
     8a8:	9102                	jalr	sp
     8aa:	007f                	0x7f
     8ac:	4912                	lw	s2,4(sp)
     8ae:	0004                	0x4
     8b0:	0100                	addi	s0,sp,128
     8b2:	d40d016f          	jal	sp,fffd0df2 <_stack_start+0xffdd0df2>
     8b6:	101a                	c.slli	zero,0x26
     8b8:	a400                	fsd	fs0,8(s0)
     8ba:	0000                	unimp
     8bc:	0100                	addi	s0,sp,128
     8be:	7a9c                	flw	fa5,48(a3)
     8c0:	0004                	0x4
     8c2:	0e00                	addi	s0,sp,784
     8c4:	0000034b          	fnmsub.s	ft6,ft0,ft0,ft0,rne
     8c8:	6f01                	0x6f01
     8ca:	2201                	jal	9ca <_min_stack-0x1636>
     8cc:	03b0                	addi	a2,sp,456
     8ce:	0000                	unimp
     8d0:	9102                	jalr	sp
     8d2:	106c                	addi	a1,sp,44
     8d4:	0069                	c.nop	26
     8d6:	7101                	addi	sp,sp,-512
     8d8:	0b01                	addi	s6,s6,0
     8da:	0056                	c.slli	zero,0x15
     8dc:	0000                	unimp
     8de:	9102                	jalr	sp
     8e0:	107f                	0x107f
     8e2:	006a                	c.slli	zero,0x1a
     8e4:	7101                	addi	sp,sp,-512
     8e6:	0e01                	addi	t3,t3,0
     8e8:	0056                	c.slli	zero,0x15
     8ea:	0000                	unimp
     8ec:	9102                	jalr	sp
     8ee:	007e                	c.slli	zero,0x1f
     8f0:	0003d513          	srli	a0,t2,0x0
     8f4:	0100                	addi	s0,sp,128
     8f6:	015a                	slli	sp,sp,0x16
     8f8:	240d                	jal	b1a <_min_stack-0x14e6>
     8fa:	1010                	addi	a2,sp,32
     8fc:	b000                	fsd	fs0,32(s0)
     8fe:	000a                	c.slli	zero,0x2
     900:	0100                	addi	s0,sp,128
     902:	e89c                	fsw	fa5,16(s1)
     904:	0004                	0x4
     906:	0e00                	addi	s0,sp,784
     908:	0000034b          	fnmsub.s	ft6,ft0,ft0,ft0,rne
     90c:	5a01                	li	s4,-32
     90e:	2401                	jal	b0e <_min_stack-0x14f2>
     910:	03b0                	addi	a2,sp,456
     912:	0000                	unimp
     914:	9102                	jalr	sp
     916:	105c                	addi	a5,sp,36
     918:	0069                	c.nop	26
     91a:	5c01                	li	s8,-32
     91c:	0701                	addi	a4,a4,0
     91e:	00000033          	add	zero,zero,zero
     922:	9102                	jalr	sp
     924:	106c                	addi	a1,sp,44
     926:	0061                	c.nop	24
     928:	5d01                	li	s10,-32
     92a:	0b01                	addi	s6,s6,0
     92c:	0056                	c.slli	zero,0x15
     92e:	0000                	unimp
     930:	9102                	jalr	sp
     932:	0062106b          	0x62106b
     936:	5d01                	li	s10,-32
     938:	0e01                	addi	t3,t3,0
     93a:	0056                	c.slli	zero,0x15
     93c:	0000                	unimp
     93e:	9102                	jalr	sp
     940:	106a                	c.slli	zero,0x3a
     942:	5d010063          	beq	sp,a6,f02 <_min_stack-0x10fe>
     946:	1101                	addi	sp,sp,-32
     948:	0056                	c.slli	zero,0x15
     94a:	0000                	unimp
     94c:	9102                	jalr	sp
     94e:	1069                	c.nop	-6
     950:	0064                	addi	s1,sp,12
     952:	5d01                	li	s10,-32
     954:	1401                	addi	s0,s0,-32
     956:	0056                	c.slli	zero,0x15
     958:	0000                	unimp
     95a:	9102                	jalr	sp
     95c:	0068                	addi	a0,sp,12
     95e:	0003d813          	srli	a6,t2,0x0
     962:	0100                	addi	s0,sp,128
     964:	0130                	addi	a2,sp,136
     966:	640d                	lui	s0,0x3
     968:	100d                	c.nop	-29
     96a:	c000                	sw	s0,0(s0)
     96c:	0002                	c.slli64	zero
     96e:	0100                	addi	s0,sp,128
     970:	4b9c                	lw	a5,16(a5)
     972:	0005                	c.nop	1
     974:	0e00                	addi	s0,sp,784
     976:	0000034b          	fnmsub.s	ft6,ft0,ft0,ft0,rne
     97a:	3001                	jal	17a <_min_stack-0x1e86>
     97c:	2101                	jal	d7c <_min_stack-0x1284>
     97e:	03b0                	addi	a2,sp,456
     980:	0000                	unimp
     982:	9102                	jalr	sp
     984:	105c                	addi	a5,sp,36
     986:	0069                	c.nop	26
     988:	3201                	jal	288 <_min_stack-0x1d78>
     98a:	0b01                	addi	s6,s6,0
     98c:	0056                	c.slli	zero,0x15
     98e:	0000                	unimp
     990:	9102                	jalr	sp
     992:	6d54106f          	j	42866 <_stack_len+0x3a866>
     996:	0070                	addi	a2,sp,12
     998:	3301                	jal	698 <_min_stack-0x1968>
     99a:	0b01                	addi	s6,s6,0
     99c:	0056                	c.slli	zero,0x15
     99e:	0000                	unimp
     9a0:	9102                	jalr	sp
     9a2:	106d                	c.nop	-5
     9a4:	6d54                	flw	fa3,28(a0)
     9a6:	0100                	addi	s0,sp,128
     9a8:	56100133          	0x56100133
     9ac:	0000                	unimp
     9ae:	0200                	addi	s0,sp,256
     9b0:	6c91                	lui	s9,0x4
     9b2:	7410                	flw	fa2,40(s0)
     9b4:	0100                	addi	s0,sp,128
     9b6:	56140133          	0x56140133
     9ba:	0000                	unimp
     9bc:	0200                	addi	s0,sp,256
     9be:	6e91                	lui	t4,0x4
     9c0:	1400                	addi	s0,sp,544
     9c2:	0000033f 10012a01 	0x10012a010000033f
     9ca:	0056                	c.slli	zero,0x15
     9cc:	0000                	unimp
     9ce:	0d00                	addi	s0,sp,656
     9d0:	0010                	0x10
     9d2:	0064                	addi	s1,sp,12
     9d4:	0000                	unimp
     9d6:	9c01                	0x9c01
     9d8:	0575                	addi	a0,a0,29
     9da:	0000                	unimp
     9dc:	780d                	lui	a6,0xfffe3
     9de:	0100                	addi	s0,sp,128
     9e0:	012a                	slli	sp,sp,0xa
     9e2:	561e                	lw	a2,228(sp)
     9e4:	0000                	unimp
     9e6:	0200                	addi	s0,sp,256
     9e8:	7f91                	lui	t6,0xfffe4
     9ea:	1200                	addi	s0,sp,288
     9ec:	03b4                	addi	a3,sp,456
     9ee:	0000                	unimp
     9f0:	0e01                	addi	t3,t3,0
     9f2:	0d01                	addi	s10,s10,0
     9f4:	0c0c                	addi	a1,sp,528
     9f6:	0010                	0x10
     9f8:	00f4                	addi	a3,sp,76
     9fa:	0000                	unimp
     9fc:	9c01                	0x9c01
     9fe:	05ad                	addi	a1,a1,11
     a00:	0000                	unimp
     a02:	4b0e                	lw	s6,192(sp)
     a04:	01000003          	lb	zero,16(zero) # 10 <_min_stack-0x1ff0>
     a08:	010e                	slli	sp,sp,0x3
     a0a:	b020                	fsd	fs0,96(s0)
     a0c:	02000003          	lb	zero,32(zero) # 20 <_min_stack-0x1fe0>
     a10:	6c91                	lui	s9,0x4
     a12:	0003510f          	0x3510f
     a16:	0100                	addi	s0,sp,128
     a18:	0110                	addi	a2,sp,128
     a1a:	0000560b          	0x560b
     a1e:	0200                	addi	s0,sp,256
     a20:	7f91                	lui	t6,0xfffe4
     a22:	1500                	addi	s0,sp,672
     a24:	044c                	addi	a1,sp,516
     a26:	0000                	unimp
     a28:	ff01                	bnez	a4,940 <_min_stack-0x16c0>
     a2a:	680d                	lui	a6,0x3
     a2c:	a400100b          	0xa400100b
     a30:	0000                	unimp
     a32:	0100                	addi	s0,sp,128
     a34:	ef9c                	fsw	fa5,24(a5)
     a36:	0005                	c.nop	1
     a38:	1600                	addi	s0,sp,800
     a3a:	0000034b          	fnmsub.s	ft6,ft0,ft0,ft0,rne
     a3e:	ff01                	bnez	a4,956 <_min_stack-0x16aa>
     a40:	b01f 0003 0200      	0x2000003b01f
     a46:	6c91                	lui	s9,0x4
     a48:	6910                	flw	fa2,16(a0)
     a4a:	0100                	addi	s0,sp,128
     a4c:	0101                	addi	sp,sp,0
     a4e:	0000560b          	0x560b
     a52:	0200                	addi	s0,sp,256
     a54:	7f91                	lui	t6,0xfffe4
     a56:	6a10                	flw	fa2,16(a2)
     a58:	0100                	addi	s0,sp,128
     a5a:	0101                	addi	sp,sp,0
     a5c:	560e                	lw	a2,224(sp)
     a5e:	0000                	unimp
     a60:	0200                	addi	s0,sp,256
     a62:	7e91                	lui	t4,0xfffe4
     a64:	1500                	addi	s0,sp,672
     a66:	03ea                	slli	t2,t2,0x1a
     a68:	0000                	unimp
     a6a:	f101                	bnez	a0,96a <_min_stack-0x1696>
     a6c:	980d                	andi	s0,s0,-29
     a6e:	100a                	c.slli	zero,0x22
     a70:	d000                	sw	s0,32(s0)
     a72:	0000                	unimp
     a74:	0100                	addi	s0,sp,128
     a76:	4d9c                	lw	a5,24(a1)
     a78:	0006                	c.slli	zero,0x1
     a7a:	1600                	addi	s0,sp,800
     a7c:	040c                	addi	a1,sp,512
     a7e:	0000                	unimp
     a80:	f101                	bnez	a0,980 <_min_stack-0x1680>
     a82:	5621                	li	a2,-24
     a84:	0000                	unimp
     a86:	0200                	addi	s0,sp,256
     a88:	6f91                	lui	t6,0x4
     a8a:	4b16                	lw	s6,68(sp)
     a8c:	01000003          	lb	zero,16(zero) # 10 <_min_stack-0x1ff0>
     a90:	31f1                	jal	75c <_min_stack-0x18a4>
     a92:	03b0                	addi	a2,sp,456
     a94:	0000                	unimp
     a96:	9102                	jalr	sp
     a98:	1668                	addi	a0,sp,812
     a9a:	03ed                	addi	t2,t2,27
     a9c:	0000                	unimp
     a9e:	f101                	bnez	a0,99e <_min_stack-0x1662>
     aa0:	0002ec47          	fmsub.s	fs8,ft5,ft0,ft0,unknown
     aa4:	0200                	addi	s0,sp,256
     aa6:	6491                	lui	s1,0x4
     aa8:	01006917          	auipc	s2,0x1006
     aac:	00560bf3          	0x560bf3
     ab0:	0000                	unimp
     ab2:	9102                	jalr	sp
     ab4:	177f                	0x177f
     ab6:	006a                	c.slli	zero,0x1a
     ab8:	f301                	bnez	a4,9b8 <_min_stack-0x1648>
     aba:	560d                	li	a2,-29
     abc:	0000                	unimp
     abe:	0200                	addi	s0,sp,256
     ac0:	7e91                	lui	t4,0xfffe4
     ac2:	1800                	addi	s0,sp,48
     ac4:	00000417          	auipc	s0,0x0
     ac8:	e901                	bnez	a0,ad8 <_min_stack-0x1528>
     aca:	6006                	flw	ft0,64(sp)
     acc:	100a                	c.slli	zero,0x22
     ace:	3800                	fld	fs0,48(s0)
     ad0:	0000                	unimp
     ad2:	0100                	addi	s0,sp,128
     ad4:	819c                	0x819c
     ad6:	0006                	c.slli	zero,0x1
     ad8:	1900                	addi	s0,sp,176
     ada:	00787463          	bgeu	a6,t2,ae2 <_min_stack-0x151e>
     ade:	e901                	bnez	a0,aee <_min_stack-0x1512>
     ae0:	d025                	beqz	s0,a40 <_min_stack-0x15c0>
     ae2:	0001                	nop
     ae4:	0200                	addi	s0,sp,256
     ae6:	6c91                	lui	s9,0x4
     ae8:	6919                	lui	s2,0x6
     aea:	0076                	c.slli	zero,0x1d
     aec:	e901                	bnez	a0,afc <_min_stack-0x1504>
     aee:	ec39                	bnez	s0,b4c <_min_stack-0x14b4>
     af0:	0002                	c.slli64	zero
     af2:	0200                	addi	s0,sp,256
     af4:	6891                	lui	a7,0x4
     af6:	1800                	addi	s0,sp,48
     af8:	0000032f          	0x32f
     afc:	e401                	bnez	s0,b04 <_min_stack-0x14fc>
     afe:	1406                	slli	s0,s0,0x21
     b00:	100a                	c.slli	zero,0x22
     b02:	4c00                	lw	s0,24(s0)
     b04:	0000                	unimp
     b06:	0100                	addi	s0,sp,128
     b08:	c49c                	sw	a5,8(s1)
     b0a:	0006                	c.slli	zero,0x1
     b0c:	1900                	addi	s0,sp,176
     b0e:	00787463          	bgeu	a6,t2,b16 <_min_stack-0x14ea>
     b12:	e401                	bnez	s0,b1a <_min_stack-0x14e6>
     b14:	d026                	sw	s1,32(sp)
     b16:	0001                	nop
     b18:	0200                	addi	s0,sp,256
     b1a:	6c91                	lui	s9,0x4
     b1c:	6b19                	lui	s6,0x6
     b1e:	7965                	lui	s2,0xffff9
     b20:	0100                	addi	s0,sp,128
     b22:	3ae4                	fld	fs1,240(a3)
     b24:	02ec                	addi	a1,sp,332
     b26:	0000                	unimp
     b28:	9102                	jalr	sp
     b2a:	1968                	addi	a0,sp,188
     b2c:	7669                	lui	a2,0xffffa
     b2e:	0100                	addi	s0,sp,128
     b30:	4ee4                	lw	s1,92(a3)
     b32:	02ec                	addi	a1,sp,332
     b34:	0000                	unimp
     b36:	9102                	jalr	sp
     b38:	0064                	addi	s1,sp,12
     b3a:	5518                	lw	a4,40(a0)
     b3c:	0004                	0x4
     b3e:	0100                	addi	s0,sp,128
     b40:	06df 09e4 0010      	0x1009e406df
     b46:	0030                	addi	a2,sp,8
     b48:	0000                	unimp
     b4a:	9c01                	0x9c01
     b4c:	06f9                	addi	a3,a3,30
     b4e:	0000                	unimp
     b50:	6319                	lui	t1,0x6
     b52:	7874                	flw	fa3,116(s0)
     b54:	0100                	addi	s0,sp,128
     b56:	23df 01d0 0000      	0x1d023df
     b5c:	9102                	jalr	sp
     b5e:	196c                	addi	a1,sp,188
     b60:	0079656b          	0x79656b
     b64:	df01                	beqz	a4,a7c <_min_stack-0x1584>
     b66:	0002ec37          	lui	s8,0x2e
     b6a:	0200                	addi	s0,sp,256
     b6c:	6891                	lui	a7,0x4
     b6e:	1500                	addi	s0,sp,672
     b70:	043c                	addi	a5,sp,520
     b72:	0000                	unimp
     b74:	9601                	srai	a2,a2,0x20
     b76:	b00d                	j	398 <_min_stack-0x1c68>
     b78:	1006                	c.slli	zero,0x21
     b7a:	3400                	fld	fs0,40(s0)
     b7c:	01000003          	lb	zero,16(zero) # 10 <_min_stack-0x1ff0>
     b80:	7d9c                	flw	fa5,56(a1)
     b82:	16000007          	0x16000007
     b86:	03ed                	addi	t2,t2,27
     b88:	0000                	unimp
     b8a:	9601                	srai	a2,a2,0x20
     b8c:	0001d623          	0x1d623
     b90:	0200                	addi	s0,sp,256
     b92:	5c91                	li	s9,-28
     b94:	4b19                	li	s6,6
     b96:	7965                	lui	s2,0xffff9
     b98:	0100                	addi	s0,sp,128
     b9a:	3c96                	fld	fs9,352(sp)
     b9c:	02ec                	addi	a1,sp,332
     b9e:	0000                	unimp
     ba0:	9102                	jalr	sp
     ba2:	1758                	addi	a4,sp,932
     ba4:	0069                	c.nop	26
     ba6:	9801                	andi	s0,s0,-32
     ba8:	250c                	fld	fa1,8(a0)
     baa:	0000                	unimp
     bac:	0200                	addi	s0,sp,256
     bae:	7c91                	lui	s9,0xfffe4
     bb0:	01006a17          	auipc	s4,0x1006
     bb4:	0f98                	addi	a4,sp,976
     bb6:	0025                	c.nop	9
     bb8:	0000                	unimp
     bba:	9102                	jalr	sp
     bbc:	1770                	addi	a2,sp,940
     bbe:	9801006b          	0x9801006b
     bc2:	2512                	fld	fa0,256(sp)
     bc4:	0000                	unimp
     bc6:	0200                	addi	s0,sp,256
     bc8:	7891                	lui	a7,0xfffe4
     bca:	0003450b          	0x3450b
     bce:	0100                	addi	s0,sp,128
     bd0:	0b99                	addi	s7,s7,6
     bd2:	077d                	addi	a4,a4,31
     bd4:	0000                	unimp
     bd6:	9102                	jalr	sp
     bd8:	1a6c                	addi	a1,sp,316
     bda:	0818                	addi	a4,sp,16
     bdc:	0010                	0x10
     bde:	0028                	addi	a0,sp,8
     be0:	0000                	unimp
     be2:	0003990b          	0x3990b
     be6:	0100                	addi	s0,sp,128
     be8:	006217b7          	lui	a5,0x621
     bec:	0000                	unimp
     bee:	9102                	jalr	sp
     bf0:	1b000077          	0x1b000077
     bf4:	0056                	c.slli	zero,0x15
     bf6:	0000                	unimp
     bf8:	250a                	fld	fa0,128(sp)
     bfa:	0000                	unimp
     bfc:	0300                	addi	s0,sp,384
     bfe:	0000                	unimp
     c00:	001e                	c.slli	zero,0x7
     c02:	0000                	unimp
     c04:	0002                	c.slli64	zero
     c06:	00000493          	li	s1,0
     c0a:	0104                	addi	s1,sp,128
     c0c:	1426                	slli	s0,s0,0x29
     c0e:	0000                	unimp
     c10:	0000                	unimp
     c12:	0000                	unimp
     c14:	046c                	addi	a1,sp,524
     c16:	0000                	unimp
     c18:	0039                	c.nop	14
     c1a:	0000                	unimp
     c1c:	04cc                	addi	a1,sp,580
     c1e:	0000                	unimp
     c20:	8001                	c.srli64	s0
     c22:	019e                	slli	gp,gp,0x7
     c24:	0000                	unimp
     c26:	0004                	0x4
     c28:	04a5                	addi	s1,s1,9
     c2a:	0000                	unimp
     c2c:	0104                	addi	s1,sp,128
     c2e:	04e8                	addi	a0,sp,588
     c30:	0000                	unimp
     c32:	300c                	fld	fa1,32(s0)
     c34:	0006                	c.slli	zero,0x1
     c36:	4b00                	lw	s0,16(a4)
     c38:	0006                	c.slli	zero,0x1
     c3a:	b800                	fsd	fs0,48(s0)
     c3c:	1021                	c.nop	-24
     c3e:	8e00                	0x8e00
     c40:	0000                	unimp
     c42:	f300                	fsw	fs0,32(a4)
     c44:	0015                	c.nop	5
     c46:	0200                	addi	s0,sp,256
     c48:	0801                	addi	a6,a6,0
     c4a:	00ba                	slli	ra,ra,0xe
     c4c:	0000                	unimp
     c4e:	0202                	c.slli64	tp
     c50:	0000c807          	flq	fa6,0(ra)
     c54:	0200                	addi	s0,sp,256
     c56:	0704                	addi	s1,sp,896
     c58:	01a1                	addi	gp,gp,8
     c5a:	0000                	unimp
     c5c:	0402                	c.slli64	s0
     c5e:	00019c07          	0x19c07
     c62:	0200                	addi	s0,sp,256
     c64:	0601                	addi	a2,a2,0
     c66:	00bc                	addi	a5,sp,72
     c68:	0000                	unimp
     c6a:	0202                	c.slli64	tp
     c6c:	9305                	srli	a4,a4,0x21
     c6e:	0002                	c.slli64	zero
     c70:	0300                	addi	s0,sp,384
     c72:	0504                	addi	s1,sp,640
     c74:	6e69                	lui	t3,0x1a
     c76:	0074                	addi	a3,sp,12
     c78:	0802                	c.slli64	a6
     c7a:	6405                	lui	s0,0x1
     c7c:	0002                	c.slli64	zero
     c7e:	0200                	addi	s0,sp,256
     c80:	0708                	addi	a0,sp,896
     c82:	00000197          	auipc	gp,0x0
     c86:	0402                	c.slli64	s0
     c88:	6905                	lui	s2,0x1
     c8a:	0002                	c.slli64	zero
     c8c:	0400                	addi	s0,sp,512
     c8e:	0204                	addi	s1,sp,256
     c90:	0801                	addi	a6,a6,0
     c92:	000000c3          	fmadd.s	ft1,ft0,ft0,ft0,rne
     c96:	d805                	beqz	s0,bc6 <_min_stack-0x143a>
     c98:	0004                	0x4
     c9a:	0200                	addi	s0,sp,256
     c9c:	17d1                	addi	a5,a5,-12
     c9e:	00000033          	add	zero,zero,zero
     ca2:	4005                	c.li	zero,1
     ca4:	0006                	c.slli	zero,0x1
     ca6:	0300                	addi	s0,sp,384
     ca8:	1742                	slli	a4,a4,0x30
     caa:	0025                	c.nop	9
     cac:	0000                	unimp
     cae:	3906                	fld	fs2,96(sp)
     cb0:	0006                	c.slli	zero,0x1
     cb2:	0100                	addi	s0,sp,128
     cb4:	006b011b          	0x6b011b
     cb8:	0000                	unimp
     cba:	21b8                	fld	fa4,64(a1)
     cbc:	0010                	0x10
     cbe:	008e                	slli	ra,ra,0x3
     cc0:	0000                	unimp
     cc2:	9c01                	0x9c01
     cc4:	0182                	c.slli64	gp
     cc6:	0000                	unimp
     cc8:	00062a07          	flw	fs4,0(a2) # ffffa000 <_stack_start+0xffdfa000>
     ccc:	0100                	addi	s0,sp,128
     cce:	006b0f1b          	0x6b0f1b
     cd2:	0000                	unimp
     cd4:	0000                	unimp
     cd6:	0000                	unimp
     cd8:	00064507          	flq	fa0,0(a2)
     cdc:	0100                	addi	s0,sp,128
     cde:	0182221b          	0x182221b
     ce2:	0000                	unimp
     ce4:	0034                	addi	a3,sp,8
     ce6:	0000                	unimp
     ce8:	6c08                	flw	fa0,24(s0)
     cea:	6e65                	lui	t3,0x19
     cec:	0100                	addi	s0,sp,128
     cee:	0074301b          	0x74301b
     cf2:	0000                	unimp
     cf4:	0000006b          	0x6b
     cf8:	2509                	jal	12fa <_min_stack-0xd06>
     cfa:	0006                	c.slli	zero,0x1
     cfc:	0100                	addi	s0,sp,128
     cfe:	151d                	addi	a0,a0,-25
     d00:	003a                	c.slli	zero,0xe
     d02:	0000                	unimp
     d04:	0094                	addi	a3,sp,64
     d06:	0000                	unimp
     d08:	2009                	jal	d0a <_min_stack-0x12f6>
     d0a:	0006                	c.slli	zero,0x1
     d0c:	0100                	addi	s0,sp,128
     d0e:	151e                	slli	a0,a0,0x27
     d10:	003a                	c.slli	zero,0xe
     d12:	0000                	unimp
     d14:	000000bf 0000200a 	0x200a000000bf
     d1c:	2600                	fld	fs0,8(a2)
     d1e:	0001                	nop
     d20:	0900                	addi	s0,sp,144
     d22:	04df 0000 2701      	0x2701000004df
     d28:	00007407          	0x7407
     d2c:	f300                	fsw	fs0,32(a4)
     d2e:	0000                	unimp
     d30:	0b00                	addi	s0,sp,400
     d32:	0040                	addi	s0,sp,4
     d34:	0000                	unimp
     d36:	5f0c                	lw	a1,56(a4)
     d38:	785f 0100 0727      	0x7270100785f
     d3e:	0080                	addi	s0,sp,64
     d40:	0000                	unimp
     d42:	0119                	addi	sp,sp,6
     d44:	0000                	unimp
     d46:	0000                	unimp
     d48:	140d                	addi	s0,s0,-29
     d4a:	1022                	c.slli	zero,0x28
     d4c:	1e00                	addi	s0,sp,816
     d4e:	0000                	unimp
     d50:	5600                	lw	s0,40(a2)
     d52:	0001                	nop
     d54:	0e00                	addi	s0,sp,784
     d56:	04df 0000 3801      	0x3801000004df
     d5c:	00007403          	0x7403
     d60:	0b00                	addi	s0,sp,400
     d62:	0058                	addi	a4,sp,4
     d64:	0000                	unimp
     d66:	5f0c                	lw	a1,56(a4)
     d68:	785f 0100 0338      	0x3380100785f
     d6e:	0080                	addi	s0,sp,64
     d70:	0000                	unimp
     d72:	012c                	addi	a1,sp,136
     d74:	0000                	unimp
     d76:	0000                	unimp
     d78:	1022080f          	0x1022080f
     d7c:	8900                	0x8900
     d7e:	0001                	nop
     d80:	7800                	flw	fs0,48(s0)
     d82:	0001                	nop
     d84:	1000                	addi	s0,sp,32
     d86:	5a01                	li	s4,-32
     d88:	8302                	jr	t1
     d8a:	1000                	addi	s0,sp,32
     d8c:	5b01                	li	s6,-32
     d8e:	7802                	flw	fa6,32(sp)
     d90:	1000                	addi	s0,sp,32
     d92:	5c01                	li	s8,-32
     d94:	7904                	flw	fs1,48(a0)
     d96:	3200                	fld	fs0,32(a2)
     d98:	0025                	c.nop	9
     d9a:	4411                	li	s0,4
     d9c:	1022                	c.slli	zero,0x28
     d9e:	9500                	0x9500
     da0:	0001                	nop
     da2:	0000                	unimp
     da4:	0412                	slli	s0,s0,0x4
     da6:	0188                	addi	a0,sp,192
     da8:	0000                	unimp
     daa:	05ef1413          	0x5ef1413
     dae:	0000                	unimp
     db0:	000005ef          	jal	a1,db0 <_min_stack-0x1250>
     db4:	140d7403          	0x140d7403
     db8:	060a                	slli	a2,a2,0x2
     dba:	0000                	unimp
     dbc:	060a                	slli	a2,a2,0x2
     dbe:	0000                	unimp
     dc0:	000d7203          	0xd7203
     dc4:	03ee                	slli	t2,t2,0x1b
     dc6:	0000                	unimp
     dc8:	0004                	0x4
     dca:	05b6                	slli	a1,a1,0xd
     dcc:	0000                	unimp
     dce:	0104                	addi	s1,sp,128
     dd0:	04e8                	addi	a0,sp,588
     dd2:	0000                	unimp
     dd4:	ee0c                	fsw	fa1,24(a2)
     dd6:	0006                	c.slli	zero,0x1
     dd8:	4b00                	lw	s0,16(a4)
     dda:	0006                	c.slli	zero,0x1
     ddc:	4600                	lw	s0,8(a2)
     dde:	1022                	c.slli	zero,0x28
     de0:	1200                	addi	s0,sp,288
     de2:	2c000003          	lb	zero,704(zero) # 2c0 <_min_stack-0x1d40>
     de6:	0018                	0x18
     de8:	0200                	addi	s0,sp,256
     dea:	0504                	addi	s1,sp,640
     dec:	6e69                	lui	t3,0x1a
     dee:	0074                	addi	a3,sp,12
     df0:	0004d803          	lhu	a6,0(s1) # 4000 <_min_stack+0x2000>
     df4:	0200                	addi	s0,sp,256
     df6:	17d1                	addi	a5,a5,-12
     df8:	0038                	addi	a4,sp,8
     dfa:	0000                	unimp
     dfc:	0404                	addi	s1,sp,512
     dfe:	0001a107          	flw	ft2,0(gp) # c82 <_min_stack-0x137e>
     e02:	0400                	addi	s0,sp,512
     e04:	0508                	addi	a0,sp,640
     e06:	0264                	addi	s1,sp,268
     e08:	0000                	unimp
     e0a:	1004                	addi	s1,sp,32
     e0c:	c204                	sw	s1,0(a2)
     e0e:	0006                	c.slli	zero,0x1
     e10:	0400                	addi	s0,sp,512
     e12:	0801                	addi	a6,a6,0
     e14:	00ba                	slli	ra,ra,0xe
     e16:	0000                	unimp
     e18:	0204                	addi	s1,sp,256
     e1a:	0000c807          	flq	fa6,0(ra)
     e1e:	0400                	addi	s0,sp,512
     e20:	0704                	addi	s1,sp,896
     e22:	019c                	addi	a5,sp,192
     e24:	0000                	unimp
     e26:	0104                	addi	s1,sp,128
     e28:	bc06                	fsd	ft1,56(sp)
     e2a:	0000                	unimp
     e2c:	0400                	addi	s0,sp,512
     e2e:	0502                	c.slli64	a0
     e30:	00000293          	li	t0,0
     e34:	0804                	addi	s1,sp,16
     e36:	00019707          	0x19707
     e3a:	0400                	addi	s0,sp,512
     e3c:	0504                	addi	s1,sp,640
     e3e:	0269                	addi	tp,tp,26
     e40:	0000                	unimp
     e42:	0104                	addi	s1,sp,128
     e44:	c308                	sw	a0,0(a4)
     e46:	0000                	unimp
     e48:	0500                	addi	s0,sp,640
     e4a:	000006a7          	0x6a7
     e4e:	5401                	li	s0,-32
     e50:	0101                	addi	sp,sp,0
     e52:	2498                	fld	fa4,8(s1)
     e54:	0010                	0x10
     e56:	00c0                	addi	s0,sp,68
     e58:	0000                	unimp
     e5a:	9c01                	0x9c01
     e5c:	0000016f          	jal	sp,e5c <_min_stack-0x11a4>
     e60:	2506                	fld	fa0,64(sp)
     e62:	0006                	c.slli	zero,0x1
     e64:	0100                	addi	s0,sp,128
     e66:	0154                	addi	a3,sp,132
     e68:	7725                	lui	a4,0xfffe9
     e6a:	0000                	unimp
     e6c:	3f00                	fld	fs0,56(a4)
     e6e:	0001                	nop
     e70:	0600                	addi	s0,sp,768
     e72:	0620                	addi	s0,sp,776
     e74:	0000                	unimp
     e76:	5401                	li	s0,-32
     e78:	3401                	jal	878 <_min_stack-0x1788>
     e7a:	00000077          	0x77
     e7e:	018d                	addi	gp,gp,3
     e80:	0000                	unimp
     e82:	6e656c07          	0x6e656c07
     e86:	0100                	addi	s0,sp,128
     e88:	0154                	addi	a3,sp,132
     e8a:	2c41                	jal	111a <_min_stack-0xee6>
     e8c:	0000                	unimp
     e8e:	3300                	fld	fs0,32(a4)
     e90:	0002                	c.slli64	zero
     e92:	0800                	addi	s0,sp,16
     e94:	3061                	jal	71c <_min_stack-0x18e4>
     e96:	0100                	addi	s0,sp,128
     e98:	0156                	slli	sp,sp,0x15
     e9a:	5b08                	lw	a0,48(a4)
     e9c:	0000                	unimp
     e9e:	7600                	flw	fs0,40(a2)
     ea0:	0002                	c.slli64	zero
     ea2:	0800                	addi	s0,sp,16
     ea4:	3161                	jal	b2c <_min_stack-0x14d4>
     ea6:	0100                	addi	s0,sp,128
     ea8:	0156                	slli	sp,sp,0x15
     eaa:	5b0c                	lw	a1,48(a4)
     eac:	0000                	unimp
     eae:	c600                	sw	s0,8(a2)
     eb0:	0002                	c.slli64	zero
     eb2:	0800                	addi	s0,sp,16
     eb4:	3261                	jal	83c <_min_stack-0x17c4>
     eb6:	0100                	addi	s0,sp,128
     eb8:	0156                	slli	sp,sp,0x15
     eba:	5b10                	lw	a2,48(a4)
     ebc:	0000                	unimp
     ebe:	f400                	fsw	fs0,40(s0)
     ec0:	0002                	c.slli64	zero
     ec2:	0800                	addi	s0,sp,16
     ec4:	3361                	jal	c4c <_min_stack-0x13b4>
     ec6:	0100                	addi	s0,sp,128
     ec8:	0156                	slli	sp,sp,0x15
     eca:	5b14                	lw	a3,48(a4)
     ecc:	0000                	unimp
     ece:	1300                	addi	s0,sp,416
     ed0:	09000003          	lb	zero,144(zero) # 90 <_min_stack-0x1f70>
     ed4:	06ce                	slli	a3,a3,0x13
     ed6:	0000                	unimp
     ed8:	5701                	li	a4,-32
     eda:	0701                	addi	a4,a4,0
     edc:	0025                	c.nop	9
     ede:	0000                	unimp
     ee0:	5b01                	li	s6,-32
     ee2:	d309                	beqz	a4,de4 <_min_stack-0x121c>
     ee4:	0006                	c.slli	zero,0x1
     ee6:	0100                	addi	s0,sp,128
     ee8:	250d0157          	0x250d0157
     eec:	0000                	unimp
     eee:	0100                	addi	s0,sp,128
     ef0:	0a60                	addi	s0,sp,284
     ef2:	6f64                	flw	fs1,92(a4)
     ef4:	0031                	c.nop	12
     ef6:	9201                	srli	a2,a2,0x20
     ef8:	0501                	addi	a0,a0,0
     efa:	24e6                	fld	fs1,88(sp)
     efc:	0010                	0x10
     efe:	640a                	flw	fs0,128(sp)
     f00:	0100326f          	jal	tp,3f10 <_min_stack+0x1f10>
     f04:	e605018f          	0xe605018f
     f08:	1024                	addi	s1,sp,40
     f0a:	0a00                	addi	s0,sp,272
     f0c:	6f64                	flw	fs1,92(a4)
     f0e:	8c010033          	0x8c010033
     f12:	0501                	addi	a0,a0,0
     f14:	24d6                	fld	fs1,336(sp)
     f16:	0010                	0x10
     f18:	640a                	flw	fs0,128(sp)
     f1a:	0100306f          	j	3f2a <_min_stack+0x1f2a>
     f1e:	019e                	slli	gp,gp,0x7
     f20:	2402                	fld	fs0,0(sp)
     f22:	1025                	c.nop	-23
     f24:	0a00                	addi	s0,sp,272
     f26:	6f64                	flw	fs1,92(a4)
     f28:	0034                	addi	a3,sp,8
     f2a:	8901                	andi	a0,a0,0
     f2c:	0501                	addi	a0,a0,0
     f2e:	2512                	fld	fa0,256(sp)
     f30:	0010                	0x10
     f32:	0b00                	addi	s0,sp,400
     f34:	06d8                	addi	a4,sp,836
     f36:	0000                	unimp
     f38:	e701                	bnez	a4,f40 <_min_stack-0x10c0>
     f3a:	0801                	addi	a6,a6,0
     f3c:	1024                	addi	s1,sp,40
     f3e:	9000                	0x9000
     f40:	0000                	unimp
     f42:	0100                	addi	s0,sp,128
     f44:	499c                	lw	a5,16(a1)
     f46:	0002                	c.slli64	zero
     f48:	0c00                	addi	s0,sp,528
     f4a:	0625                	addi	a2,a2,9
     f4c:	0000                	unimp
     f4e:	e701                	bnez	a4,f56 <_min_stack-0x10aa>
     f50:	7720                	flw	fs0,104(a4)
     f52:	0000                	unimp
     f54:	4d00                	lw	s0,24(a0)
     f56:	0c000003          	lb	zero,192(zero) # c0 <_min_stack-0x1f40>
     f5a:	0620                	addi	s0,sp,776
     f5c:	0000                	unimp
     f5e:	e701                	bnez	a4,f66 <_min_stack-0x109a>
     f60:	0000772f          	0x772f
     f64:	9b00                	0x9b00
     f66:	0d000003          	lb	zero,208(zero) # d0 <_min_stack-0x1f30>
     f6a:	656c                	flw	fa1,76(a0)
     f6c:	006e                	c.slli	zero,0x1b
     f6e:	e701                	bnez	a4,f76 <_min_stack-0x108a>
     f70:	2c3c                	fld	fa5,88(s0)
     f72:	0000                	unimp
     f74:	e900                	fsw	fs0,16(a0)
     f76:	0e000003          	lb	zero,224(zero) # e0 <_min_stack-0x1f20>
     f7a:	3061                	jal	802 <_min_stack-0x17fe>
     f7c:	0100                	addi	s0,sp,128
     f7e:	08e9                	addi	a7,a7,26
     f80:	0000005b          	0x5b
     f84:	041f 0000 610e      	0x610e0000041f
     f8a:	0031                	c.nop	12
     f8c:	e901                	bnez	a0,f9c <_min_stack-0x1064>
     f8e:	5b0c                	lw	a1,48(a4)
     f90:	0000                	unimp
     f92:	9900                	0x9900
     f94:	0004                	0x4
     f96:	0a00                	addi	s0,sp,272
     f98:	6f64                	flw	fs1,92(a4)
     f9a:	0031                	c.nop	12
     f9c:	3a01                	jal	8ac <_min_stack-0x1754>
     f9e:	0501                	addi	a0,a0,0
     fa0:	244a                	fld	fs0,144(sp)
     fa2:	0010                	0x10
     fa4:	640a                	flw	fs0,128(sp)
     fa6:	0100326f          	jal	tp,3fb6 <_min_stack+0x1fb6>
     faa:	46050137          	lui	sp,0x46050
     fae:	1024                	addi	s1,sp,40
     fb0:	0a00                	addi	s0,sp,272
     fb2:	6f64                	flw	fs1,92(a4)
     fb4:	34010033          	0x34010033
     fb8:	0501                	addi	a0,a0,0
     fba:	2442                	fld	fs0,16(sp)
     fbc:	0010                	0x10
     fbe:	640a                	flw	fs0,128(sp)
     fc0:	0100346f          	jal	s0,3fd0 <_min_stack+0x1fd0>
     fc4:	0131                	addi	sp,sp,12
     fc6:	3e05                	jal	af6 <_min_stack-0x150a>
     fc8:	1024                	addi	s1,sp,40
     fca:	0a00                	addi	s0,sp,272
     fcc:	6f64                	flw	fs1,92(a4)
     fce:	0035                	c.nop	13
     fd0:	2e01                	jal	12e0 <_min_stack-0xd20>
     fd2:	0501                	addi	a0,a0,0
     fd4:	243a                	fld	fs0,392(sp)
     fd6:	0010                	0x10
     fd8:	640a                	flw	fs0,128(sp)
     fda:	0100366f          	jal	a2,3fea <_min_stack+0x1fea>
     fde:	3405012b          	0x3405012b
     fe2:	1024                	addi	s1,sp,40
     fe4:	0a00                	addi	s0,sp,272
     fe6:	6f64                	flw	fs1,92(a4)
     fe8:	28010037          	lui	zero,0x28010
     fec:	0501                	addi	a0,a0,0
     fee:	2430                	fld	fa2,72(s0)
     ff0:	0010                	0x10
     ff2:	640a                	flw	fs0,128(sp)
     ff4:	0100306f          	j	4004 <_min_stack+0x2004>
     ff8:	0146                	slli	sp,sp,0x11
     ffa:	5202                	lw	tp,32(sp)
     ffc:	1024                	addi	s1,sp,40
     ffe:	0a00                	addi	s0,sp,272
    1000:	6f64                	flw	fs1,92(a4)
    1002:	0038                	addi	a4,sp,8
    1004:	2501                	jal	1604 <_min_stack-0x9fc>
    1006:	0501                	addi	a0,a0,0
    1008:	242c                	fld	fa1,72(s0)
    100a:	0010                	0x10
    100c:	0b00                	addi	s0,sp,400
    100e:	000005ef          	jal	a1,100e <_min_stack-0xff2>
    1012:	8f01                	sub	a4,a4,s0
    1014:	2201                	jal	1114 <_min_stack-0xeec>
    1016:	e6001023          	sh	zero,-416(zero) # fffffe60 <_stack_start+0xffdffe60>
    101a:	0000                	unimp
    101c:	0100                	addi	s0,sp,128
    101e:	249c                	fld	fa5,8(s1)
    1020:	0c000003          	lb	zero,192(zero) # c0 <_min_stack-0x1f40>
    1024:	0625                	addi	a2,a2,9
    1026:	0000                	unimp
    1028:	8f01                	sub	a4,a4,s0
    102a:	7725                	lui	a4,0xfffe9
    102c:	0000                	unimp
    102e:	0800                	addi	s0,sp,16
    1030:	0005                	c.nop	1
    1032:	0c00                	addi	s0,sp,528
    1034:	0620                	addi	s0,sp,776
    1036:	0000                	unimp
    1038:	8f01                	sub	a4,a4,s0
    103a:	7734                	flw	fa3,104(a4)
    103c:	0000                	unimp
    103e:	7300                	flw	fs0,32(a4)
    1040:	0005                	c.nop	1
    1042:	0d00                	addi	s0,sp,656
    1044:	656c                	flw	fa1,76(a0)
    1046:	006e                	c.slli	zero,0x1b
    1048:	8f01                	sub	a4,a4,s0
    104a:	2c41                	jal	12da <_min_stack-0xd26>
    104c:	0000                	unimp
    104e:	0d00                	addi	s0,sp,656
    1050:	0006                	c.slli	zero,0x1
    1052:	0e00                	addi	s0,sp,784
    1054:	3061                	jal	8dc <_min_stack-0x1724>
    1056:	0100                	addi	s0,sp,128
    1058:	0891                	addi	a7,a7,4
    105a:	0000005b          	0x5b
    105e:	0668                	addi	a0,sp,780
    1060:	0000                	unimp
    1062:	610e                	flw	ft2,192(sp)
    1064:	0031                	c.nop	12
    1066:	9101                	srli	a0,a0,0x20
    1068:	5b0c                	lw	a1,48(a4)
    106a:	0000                	unimp
    106c:	a800                	fsd	fs0,16(s0)
    106e:	0006                	c.slli	zero,0x1
    1070:	0e00                	addi	s0,sp,784
    1072:	3261                	jal	9fa <_min_stack-0x1606>
    1074:	0100                	addi	s0,sp,128
    1076:	1091                	addi	ra,ra,-28
    1078:	0000005b          	0x5b
    107c:	06dd                	addi	a3,a3,23
    107e:	0000                	unimp
    1080:	610e                	flw	ft2,192(sp)
    1082:	91010033          	0x91010033
    1086:	5b14                	lw	a3,48(a4)
    1088:	0000                	unimp
    108a:	2900                	fld	fs0,16(a0)
    108c:	0f000007          	0xf000007
    1090:	06ce                	slli	a3,a3,0x13
    1092:	0000                	unimp
    1094:	9201                	srli	a2,a2,0x20
    1096:	00002507          	flw	fa0,0(zero) # 0 <_min_stack-0x2000>
    109a:	0100                	addi	s0,sp,128
    109c:	06d30f5b          	0x6d30f5b
    10a0:	0000                	unimp
    10a2:	9201                	srli	a2,a2,0x20
    10a4:	250d                	jal	16c6 <_min_stack-0x93a>
    10a6:	0000                	unimp
    10a8:	0100                	addi	s0,sp,128
    10aa:	105d                	c.nop	-9
    10ac:	6f64                	flw	fs1,92(a4)
    10ae:	0031                	c.nop	12
    10b0:	cd01                	beqz	a0,10c8 <_min_stack-0xf38>
    10b2:	7e05                	lui	t3,0xfffe1
    10b4:	10001023          	sh	zero,256(zero) # 100 <_min_stack-0x1f00>
    10b8:	6f64                	flw	fs1,92(a4)
    10ba:	0032                	c.slli	zero,0xc
    10bc:	ca01                	beqz	a2,10cc <_min_stack-0xf34>
    10be:	7e05                	lui	t3,0xfffe1
    10c0:	10001023          	sh	zero,256(zero) # 100 <_min_stack-0x1f00>
    10c4:	6f64                	flw	fs1,92(a4)
    10c6:	c7010033          	0xc7010033
    10ca:	6605                	lui	a2,0x1
    10cc:	10001023          	sh	zero,256(zero) # 100 <_min_stack-0x1f00>
    10d0:	6f64                	flw	fs1,92(a4)
    10d2:	0030                	addi	a2,sp,8
    10d4:	d901                	beqz	a0,fe4 <_min_stack-0x101c>
    10d6:	ca02                	sw	zero,20(sp)
    10d8:	10001023          	sh	zero,256(zero) # 100 <_min_stack-0x1f00>
    10dc:	6f64                	flw	fs1,92(a4)
    10de:	0034                	addi	a3,sp,8
    10e0:	c401                	beqz	s0,10e8 <_min_stack-0xf18>
    10e2:	b405                	j	b02 <_min_stack-0x14fe>
    10e4:	00001023          	sh	zero,0(zero) # 0 <_min_stack-0x2000>
    10e8:	0a11                	addi	s4,s4,4
    10ea:	0006                	c.slli	zero,0x1
    10ec:	0100                	addi	s0,sp,128
    10ee:	0122                	slli	sp,sp,0x8
    10f0:	2246                	fld	ft4,80(sp)
    10f2:	0010                	0x10
    10f4:	00dc                	addi	a5,sp,68
    10f6:	0000                	unimp
    10f8:	9c01                	0x9c01
    10fa:	250c                	fld	fa1,8(a0)
    10fc:	0006                	c.slli	zero,0x1
    10fe:	0100                	addi	s0,sp,128
    1100:	2022                	fld	ft0,8(sp)
    1102:	00000077          	0x77
    1106:	077f                	0x77f
    1108:	0000                	unimp
    110a:	200c                	fld	fa1,0(s0)
    110c:	0006                	c.slli	zero,0x1
    110e:	0100                	addi	s0,sp,128
    1110:	2f22                	fld	ft10,8(sp)
    1112:	00000077          	0x77
    1116:	00000837          	lui	a6,0x0
    111a:	6c0d                	lui	s8,0x3
    111c:	6e65                	lui	t3,0x19
    111e:	0100                	addi	s0,sp,128
    1120:	3c22                	fld	fs8,40(sp)
    1122:	002c                	addi	a1,sp,8
    1124:	0000                	unimp
    1126:	0914                	addi	a3,sp,144
    1128:	0000                	unimp
    112a:	610e                	flw	ft2,192(sp)
    112c:	0030                	addi	a2,sp,8
    112e:	2401                	jal	132e <_min_stack-0xcd2>
    1130:	5b08                	lw	a0,48(a4)
    1132:	0000                	unimp
    1134:	4a00                	lw	s0,16(a2)
    1136:	0009                	c.nop	2
    1138:	0e00                	addi	s0,sp,784
    113a:	3161                	jal	dc2 <_min_stack-0x123e>
    113c:	0100                	addi	s0,sp,128
    113e:	0c24                	addi	s1,sp,536
    1140:	0000005b          	0x5b
    1144:	09d0                	addi	a2,sp,212
    1146:	0000                	unimp
    1148:	6410                	flw	fa2,8(s0)
    114a:	0100316f          	jal	sp,415a <_min_stack+0x215a>
    114e:	0575                	addi	a0,a0,29
    1150:	22ba                	fld	ft5,392(sp)
    1152:	0010                	0x10
    1154:	6410                	flw	fa2,8(s0)
    1156:	0100326f          	jal	tp,4166 <_min_stack+0x2166>
    115a:	0572                	slli	a0,a0,0x1c
    115c:	22b2                	fld	ft5,264(sp)
    115e:	0010                	0x10
    1160:	6410                	flw	fa2,8(s0)
    1162:	0100336f          	jal	t1,4172 <_min_stack+0x2172>
    1166:	22a8056f          	jal	a0,81390 <_stack_len+0x79390>
    116a:	0010                	0x10
    116c:	6410                	flw	fa2,8(s0)
    116e:	0100346f          	jal	s0,417e <_min_stack+0x217e>
    1172:	056c                	addi	a1,sp,652
    1174:	229e                	fld	ft5,448(sp)
    1176:	0010                	0x10
    1178:	6410                	flw	fa2,8(s0)
    117a:	0100356f          	jal	a0,418a <_min_stack+0x218a>
    117e:	0569                	addi	a0,a0,26
    1180:	2294                	fld	fa3,0(a3)
    1182:	0010                	0x10
    1184:	6410                	flw	fa2,8(s0)
    1186:	0100366f          	jal	a2,4196 <_min_stack+0x2196>
    118a:	0566                	slli	a0,a0,0x19
    118c:	2288                	fld	fa0,0(a3)
    118e:	0010                	0x10
    1190:	6410                	flw	fa2,8(s0)
    1192:	0100376f          	jal	a4,41a2 <_min_stack+0x21a2>
    1196:	227e0563          	beq	t3,t2,13c0 <_min_stack-0xc40>
    119a:	0010                	0x10
    119c:	6410                	flw	fa2,8(s0)
    119e:	0100306f          	j	41ae <_min_stack+0x21ae>
    11a2:	0281                	addi	t0,t0,0
    11a4:	22c8                	fld	fa0,128(a3)
    11a6:	0010                	0x10
    11a8:	6410                	flw	fa2,8(s0)
    11aa:	0100386f          	jal	a6,41ba <_min_stack+0x21ba>
    11ae:	0560                	addi	s0,sp,652
    11b0:	2274                	fld	fa3,192(a2)
    11b2:	0010                	0x10
	...

Disassembly of section .debug_abbrev:

00000000 <.debug_abbrev>:
   0:	1101                	addi	sp,sp,-32
   2:	2501                	jal	602 <_min_stack-0x19fe>
   4:	130e                	slli	t1,t1,0x23
   6:	1b0e030b          	0x1b0e030b
   a:	110e                	slli	sp,sp,0x23
   c:	1201                	addi	tp,tp,-32
   e:	1006                	c.slli	zero,0x21
  10:	02000017          	auipc	zero,0x2000
  14:	0024                	addi	s1,sp,8
  16:	0b3e0b0b          	0xb3e0b0b
  1a:	00000e03          	lb	t3,0(zero) # 0 <_min_stack-0x2000>
  1e:	0b002403          	lw	s0,176(zero) # b0 <_min_stack-0x1f50>
  22:	030b3e0b          	0x30b3e0b
  26:	0008                	0x8
  28:	0400                	addi	s0,sp,512
  2a:	0016                	c.slli	zero,0x5
  2c:	0b3a0e03          	lb	t3,179(s4) # 1006c63 <_stack_start+0xe06c63>
  30:	0b390b3b          	0xb390b3b
  34:	1349                	addi	t1,t1,-14
  36:	0000                	unimp
  38:	3505                	jal	fffffe58 <_stack_start+0xffdffe58>
  3a:	4900                	lw	s0,16(a0)
  3c:	06000013          	li	zero,96
  40:	0034                	addi	a3,sp,8
  42:	0b3a0e03          	lb	t3,179(s4)
  46:	0b390b3b          	0xb390b3b
  4a:	1349                	addi	t1,t1,-14
  4c:	1802193f 2e070000 	0x2e0700001802193f
  54:	3f00                	fld	fs0,56(a4)
  56:	0319                	addi	t1,t1,6
  58:	3a0e                	fld	fs4,224(sp)
  5a:	390b3b0b          	0x390b3b0b
  5e:	1119270b          	0x1119270b
  62:	1201                	addi	tp,tp,-32
  64:	4006                	0x4006
  66:	9618                	0x9618
  68:	1942                	slli	s2,s2,0x30
  6a:	0000                	unimp
  6c:	2e08                	fld	fa0,24(a2)
  6e:	3f00                	fld	fs0,56(a4)
  70:	0319                	addi	t1,t1,6
  72:	3a0e                	fld	fs4,224(sp)
  74:	390b3b0b          	0x390b3b0b
  78:	4919270b          	0x4919270b
  7c:	12011113          	0x12011113
  80:	4006                	0x4006
  82:	9718                	0x9718
  84:	1942                	slli	s2,s2,0x30
  86:	0000                	unimp
  88:	2e09                	jal	39a <_min_stack-0x1c66>
  8a:	3f01                	jal	ffffff9a <_stack_start+0xffdfff9a>
  8c:	0319                	addi	t1,t1,6
  8e:	3a0e                	fld	fs4,224(sp)
  90:	390b3b0b          	0x390b3b0b
  94:	1119270b          	0x1119270b
  98:	1201                	addi	tp,tp,-32
  9a:	4006                	0x4006
  9c:	9718                	0x9718
  9e:	1942                	slli	s2,s2,0x30
  a0:	1301                	addi	t1,t1,-32
  a2:	0000                	unimp
  a4:	050a                	slli	a0,a0,0x2
  a6:	0300                	addi	s0,sp,384
  a8:	3a0e                	fld	fs4,224(sp)
  aa:	390b3b0b          	0x390b3b0b
  ae:	0213490b          	0x213490b
  b2:	0018                	0x18
  b4:	0b00                	addi	s0,sp,400
  b6:	012e                	slli	sp,sp,0xb
  b8:	0e03193f 0b3b0b3a 	0xb3b0b3a0e03193f
  c0:	0b39                	addi	s6,s6,14
  c2:	13491927          	0x13491927
  c6:	0111                	addi	sp,sp,4
  c8:	0612                	slli	a2,a2,0x4
  ca:	1840                	addi	s0,sp,52
  cc:	01194297          	auipc	t0,0x1194
  d0:	0c000013          	li	zero,192
  d4:	0034                	addi	a3,sp,8
  d6:	0b3a0e03          	lb	t3,179(s4)
  da:	0b390b3b          	0xb390b3b
  de:	1349                	addi	t1,t1,-14
  e0:	1802                	slli	a6,a6,0x20
  e2:	0000                	unimp
  e4:	2e0d                	jal	416 <_min_stack-0x1bea>
  e6:	3f00                	fld	fs0,56(a4)
  e8:	0319                	addi	t1,t1,6
  ea:	3a0e                	fld	fs4,224(sp)
  ec:	390b3b0b          	0x390b3b0b
  f0:	1119270b          	0x1119270b
  f4:	1201                	addi	tp,tp,-32
  f6:	4006                	0x4006
  f8:	9718                	0x9718
  fa:	1942                	slli	s2,s2,0x30
  fc:	0000                	unimp
  fe:	2e0e                	fld	ft8,192(sp)
 100:	3f01                	jal	10 <_min_stack-0x1ff0>
 102:	0319                	addi	t1,t1,6
 104:	3a0e                	fld	fs4,224(sp)
 106:	390b3b0b          	0x390b3b0b
 10a:	1119270b          	0x1119270b
 10e:	1201                	addi	tp,tp,-32
 110:	4006                	0x4006
 112:	9618                	0x9618
 114:	1942                	slli	s2,s2,0x30
 116:	1301                	addi	t1,t1,-32
 118:	0000                	unimp
 11a:	03012e0f          	0x3012e0f
 11e:	3a0e                	fld	fs4,224(sp)
 120:	390b3b0b          	0x390b3b0b
 124:	1119270b          	0x1119270b
 128:	1201                	addi	tp,tp,-32
 12a:	4006                	0x4006
 12c:	9618                	0x9618
 12e:	1942                	slli	s2,s2,0x30
 130:	1301                	addi	t1,t1,-32
 132:	0000                	unimp
 134:	2e10                	fld	fa2,24(a2)
 136:	3f01                	jal	46 <_min_stack-0x1fba>
 138:	0319                	addi	t1,t1,6
 13a:	3a0e                	fld	fs4,224(sp)
 13c:	390b3b0b          	0x390b3b0b
 140:	1113490b          	0x1113490b
 144:	1201                	addi	tp,tp,-32
 146:	4006                	0x4006
 148:	9718                	0x9718
 14a:	1942                	slli	s2,s2,0x30
 14c:	1301                	addi	t1,t1,-32
 14e:	0000                	unimp
 150:	2e11                	jal	464 <_min_stack-0x1b9c>
 152:	3f00                	fld	fs0,56(a4)
 154:	0319                	addi	t1,t1,6
 156:	3a0e                	fld	fs4,224(sp)
 158:	390b3b0b          	0x390b3b0b
 15c:	1201110b          	0x1201110b
 160:	4006                	0x4006
 162:	9718                	0x9718
 164:	1942                	slli	s2,s2,0x30
 166:	0000                	unimp
 168:	0512                	slli	a0,a0,0x4
 16a:	0300                	addi	s0,sp,384
 16c:	3a08                	fld	fa0,48(a2)
 16e:	390b3b0b          	0x390b3b0b
 172:	0213490b          	0x213490b
 176:	0018                	0x18
 178:	1300                	addi	s0,sp,416
 17a:	0111010b          	0x111010b
 17e:	0612                	slli	a2,a2,0x4
 180:	0000                	unimp
 182:	3414                	fld	fa3,40(s0)
 184:	0300                	addi	s0,sp,384
 186:	3a08                	fld	fa0,48(a2)
 188:	390b3b0b          	0x390b3b0b
 18c:	0213490b          	0x213490b
 190:	0018                	0x18
 192:	1500                	addi	s0,sp,672
 194:	012e                	slli	sp,sp,0xb
 196:	0e03193f 0b3b0b3a 	0xb3b0b3a0e03193f
 19e:	0b39                	addi	s6,s6,14
 1a0:	13491927          	0x13491927
 1a4:	0111                	addi	sp,sp,4
 1a6:	0612                	slli	a2,a2,0x4
 1a8:	1840                	addi	s0,sp,52
 1aa:	4296                	lw	t0,68(sp)
 1ac:	0119                	addi	sp,sp,6
 1ae:	16000013          	li	zero,352
 1b2:	0b0b000f          	0xb0b000f
 1b6:	1349                	addi	t1,t1,-14
 1b8:	0000                	unimp
 1ba:	49002617          	auipc	a2,0x49002
 1be:	18000013          	li	zero,384
 1c2:	012e                	slli	sp,sp,0xb
 1c4:	0e03193f 0b3b0b3a 	0xb3b0b3a0e03193f
 1cc:	0b39                	addi	s6,s6,14
 1ce:	13491927          	0x13491927
 1d2:	0111                	addi	sp,sp,4
 1d4:	0612                	slli	a2,a2,0x4
 1d6:	1840                	addi	s0,sp,52
 1d8:	00194297          	auipc	t0,0x194
 1dc:	0000                	unimp
 1de:	1101                	addi	sp,sp,-32
 1e0:	2501                	jal	7e0 <_min_stack-0x1820>
 1e2:	130e                	slli	t1,t1,0x23
 1e4:	1b0e030b          	0x1b0e030b
 1e8:	110e                	slli	sp,sp,0x23
 1ea:	1201                	addi	tp,tp,-32
 1ec:	1006                	c.slli	zero,0x21
 1ee:	02000017          	auipc	zero,0x2000
 1f2:	0024                	addi	s1,sp,8
 1f4:	0b3e0b0b          	0xb3e0b0b
 1f8:	00000e03          	lb	t3,0(zero) # 0 <_min_stack-0x2000>
 1fc:	0b002403          	lw	s0,176(zero) # b0 <_min_stack-0x1f50>
 200:	030b3e0b          	0x30b3e0b
 204:	0008                	0x8
 206:	0400                	addi	s0,sp,512
 208:	0b0b000f          	0xb0b000f
 20c:	1349                	addi	t1,t1,-14
 20e:	0000                	unimp
 210:	1605                	addi	a2,a2,-31
 212:	0300                	addi	s0,sp,384
 214:	3a0e                	fld	fs4,224(sp)
 216:	390b3b0b          	0x390b3b0b
 21a:	0013490b          	0x13490b
 21e:	0600                	addi	s0,sp,768
 220:	0e030113          	addi	sp,t1,224 # 60e0 <_min_stack+0x40e0>
 224:	0b3a0b0b          	0xb3a0b0b
 228:	0b390b3b          	0xb390b3b
 22c:	1301                	addi	t1,t1,-32
 22e:	0000                	unimp
 230:	03000d07          	0x3000d07
 234:	3a0e                	fld	fs4,224(sp)
 236:	390b3b0b          	0x390b3b0b
 23a:	3813490b          	0x3813490b
 23e:	0800000b          	0x800000b
 242:	000d                	c.nop	3
 244:	0b3a0803          	lb	a6,179(s4)
 248:	0b390b3b          	0xb390b3b
 24c:	1349                	addi	t1,t1,-14
 24e:	0b38                	addi	a4,sp,408
 250:	0000                	unimp
 252:	0109                	addi	sp,sp,2
 254:	4901                	li	s2,0
 256:	00130113          	addi	sp,t1,1
 25a:	0a00                	addi	s0,sp,272
 25c:	0021                	c.nop	8
 25e:	1349                	addi	t1,t1,-14
 260:	00000b2f          	0xb2f
 264:	0300340b          	0x300340b
 268:	3a08                	fld	fa0,48(a2)
 26a:	390b3b0b          	0x390b3b0b
 26e:	3f13490b          	0x3f13490b
 272:	0219                	addi	tp,tp,6
 274:	0018                	0x18
 276:	0c00                	addi	s0,sp,528
 278:	0034                	addi	a3,sp,8
 27a:	0b3a0e03          	lb	t3,179(s4)
 27e:	0b390b3b          	0xb390b3b
 282:	1349                	addi	t1,t1,-14
 284:	1802193f 2e0d0000 	0x2e0d00001802193f
 28c:	3f01                	jal	19c <_min_stack-0x1e64>
 28e:	0319                	addi	t1,t1,6
 290:	3a0e                	fld	fs4,224(sp)
 292:	390b3b0b          	0x390b3b0b
 296:	4919270b          	0x4919270b
 29a:	12011113          	0x12011113
 29e:	4006                	0x4006
 2a0:	9618                	0x9618
 2a2:	1942                	slli	s2,s2,0x30
 2a4:	1301                	addi	t1,t1,-32
 2a6:	0000                	unimp
 2a8:	050e                	slli	a0,a0,0x3
 2aa:	0300                	addi	s0,sp,384
 2ac:	3a0e                	fld	fs4,224(sp)
 2ae:	390b3b0b          	0x390b3b0b
 2b2:	0213490b          	0x213490b
 2b6:	0018                	0x18
 2b8:	0f00                	addi	s0,sp,912
 2ba:	0034                	addi	a3,sp,8
 2bc:	0b3a0803          	lb	a6,179(s4)
 2c0:	0b390b3b          	0xb390b3b
 2c4:	1349                	addi	t1,t1,-14
 2c6:	1802                	slli	a6,a6,0x20
 2c8:	0000                	unimp
 2ca:	0100                	addi	s0,sp,128
 2cc:	0111                	addi	sp,sp,4
 2ce:	0e25                	addi	t3,t3,9
 2d0:	0e030b13          	addi	s6,t1,224
 2d4:	01110e1b          	0x1110e1b
 2d8:	0612                	slli	a2,a2,0x4
 2da:	1710                	addi	a2,sp,928
 2dc:	0000                	unimp
 2de:	2402                	fld	fs0,0(sp)
 2e0:	0b00                	addi	s0,sp,400
 2e2:	030b3e0b          	0x30b3e0b
 2e6:	000e                	c.slli	zero,0x3
 2e8:	0300                	addi	s0,sp,384
 2ea:	0024                	addi	s1,sp,8
 2ec:	0b3e0b0b          	0xb3e0b0b
 2f0:	00000803          	lb	a6,0(zero) # 0 <_min_stack-0x2000>
 2f4:	1604                	addi	s1,sp,800
 2f6:	0300                	addi	s0,sp,384
 2f8:	3a0e                	fld	fs4,224(sp)
 2fa:	390b3b0b          	0x390b3b0b
 2fe:	0013490b          	0x13490b
 302:	0500                	addi	s0,sp,640
 304:	0026                	c.slli	zero,0x9
 306:	1349                	addi	t1,t1,-14
 308:	0000                	unimp
 30a:	1306                	slli	t1,t1,0x21
 30c:	0301                	addi	t1,t1,0
 30e:	0b0e                	slli	s6,s6,0x3
 310:	3b0b3a0b          	0x3b0b3a0b
 314:	010b390b          	0x10b390b
 318:	07000013          	li	zero,112
 31c:	000d                	c.nop	3
 31e:	0b3a0e03          	lb	t3,179(s4)
 322:	0b390b3b          	0xb390b3b
 326:	1349                	addi	t1,t1,-14
 328:	0b38                	addi	a4,sp,408
 32a:	0000                	unimp
 32c:	0d08                	addi	a0,sp,656
 32e:	0300                	addi	s0,sp,384
 330:	3a08                	fld	fa0,48(a2)
 332:	390b3b0b          	0x390b3b0b
 336:	3813490b          	0x3813490b
 33a:	0900000b          	0x900000b
 33e:	0101                	addi	sp,sp,0
 340:	1349                	addi	t1,t1,-14
 342:	1301                	addi	t1,t1,-32
 344:	0000                	unimp
 346:	210a                	fld	ft2,128(sp)
 348:	4900                	lw	s0,16(a0)
 34a:	000b2f13          	slti	t5,s6,0
 34e:	0b00                	addi	s0,sp,400
 350:	0034                	addi	a3,sp,8
 352:	0b3a0e03          	lb	t3,179(s4)
 356:	0b390b3b          	0xb390b3b
 35a:	1349                	addi	t1,t1,-14
 35c:	1802                	slli	a6,a6,0x20
 35e:	0000                	unimp
 360:	2e0c                	fld	fa1,24(a2)
 362:	3f01                	jal	272 <_min_stack-0x1d8e>
 364:	0319                	addi	t1,t1,6
 366:	3a0e                	fld	fs4,224(sp)
 368:	39053b0b          	0x39053b0b
 36c:	1119270b          	0x1119270b
 370:	1201                	addi	tp,tp,-32
 372:	4006                	0x4006
 374:	9618                	0x9618
 376:	1942                	slli	s2,s2,0x30
 378:	1301                	addi	t1,t1,-32
 37a:	0000                	unimp
 37c:	050d                	addi	a0,a0,3
 37e:	0300                	addi	s0,sp,384
 380:	3a08                	fld	fa0,48(a2)
 382:	39053b0b          	0x39053b0b
 386:	0213490b          	0x213490b
 38a:	0018                	0x18
 38c:	0e00                	addi	s0,sp,784
 38e:	0005                	c.nop	1
 390:	0b3a0e03          	lb	t3,179(s4)
 394:	0b39053b          	0xb39053b
 398:	1349                	addi	t1,t1,-14
 39a:	1802                	slli	a6,a6,0x20
 39c:	0000                	unimp
 39e:	0300340f          	0x300340f
 3a2:	3a0e                	fld	fs4,224(sp)
 3a4:	39053b0b          	0x39053b0b
 3a8:	0213490b          	0x213490b
 3ac:	0018                	0x18
 3ae:	1000                	addi	s0,sp,32
 3b0:	0034                	addi	a3,sp,8
 3b2:	0b3a0803          	lb	a6,179(s4)
 3b6:	0b39053b          	0xb39053b
 3ba:	1349                	addi	t1,t1,-14
 3bc:	1802                	slli	a6,a6,0x20
 3be:	0000                	unimp
 3c0:	0f11                	addi	t5,t5,4
 3c2:	0b00                	addi	s0,sp,400
 3c4:	0013490b          	0x13490b
 3c8:	1200                	addi	s0,sp,288
 3ca:	012e                	slli	sp,sp,0xb
 3cc:	0b3a0e03          	lb	t3,179(s4)
 3d0:	0b39053b          	0xb39053b
 3d4:	01111927          	0x1111927
 3d8:	0612                	slli	a2,a2,0x4
 3da:	1840                	addi	s0,sp,52
 3dc:	01194297          	auipc	t0,0x1194
 3e0:	13000013          	li	zero,304
 3e4:	012e                	slli	sp,sp,0xb
 3e6:	0b3a0e03          	lb	t3,179(s4)
 3ea:	0b39053b          	0xb39053b
 3ee:	01111927          	0x1111927
 3f2:	0612                	slli	a2,a2,0x4
 3f4:	1840                	addi	s0,sp,52
 3f6:	4296                	lw	t0,68(sp)
 3f8:	0119                	addi	sp,sp,6
 3fa:	14000013          	li	zero,320
 3fe:	012e                	slli	sp,sp,0xb
 400:	0b3a0e03          	lb	t3,179(s4)
 404:	0b39053b          	0xb39053b
 408:	13491927          	0x13491927
 40c:	0111                	addi	sp,sp,4
 40e:	0612                	slli	a2,a2,0x4
 410:	1840                	addi	s0,sp,52
 412:	01194297          	auipc	t0,0x1194
 416:	15000013          	li	zero,336
 41a:	012e                	slli	sp,sp,0xb
 41c:	0b3a0e03          	lb	t3,179(s4)
 420:	0b390b3b          	0xb390b3b
 424:	01111927          	0x1111927
 428:	0612                	slli	a2,a2,0x4
 42a:	1840                	addi	s0,sp,52
 42c:	01194297          	auipc	t0,0x1194
 430:	16000013          	li	zero,352
 434:	0005                	c.nop	1
 436:	0b3a0e03          	lb	t3,179(s4)
 43a:	0b390b3b          	0xb390b3b
 43e:	1349                	addi	t1,t1,-14
 440:	1802                	slli	a6,a6,0x20
 442:	0000                	unimp
 444:	03003417          	auipc	s0,0x3003
 448:	3a08                	fld	fa0,48(a2)
 44a:	390b3b0b          	0x390b3b0b
 44e:	0213490b          	0x213490b
 452:	0018                	0x18
 454:	1800                	addi	s0,sp,48
 456:	012e                	slli	sp,sp,0xb
 458:	0e03193f 0b3b0b3a 	0xb3b0b3a0e03193f
 460:	0b39                	addi	s6,s6,14
 462:	01111927          	0x1111927
 466:	0612                	slli	a2,a2,0x4
 468:	1840                	addi	s0,sp,52
 46a:	4296                	lw	t0,68(sp)
 46c:	0119                	addi	sp,sp,6
 46e:	19000013          	li	zero,400
 472:	0005                	c.nop	1
 474:	0b3a0803          	lb	a6,179(s4)
 478:	0b390b3b          	0xb390b3b
 47c:	1349                	addi	t1,t1,-14
 47e:	1802                	slli	a6,a6,0x20
 480:	0000                	unimp
 482:	0b1a                	slli	s6,s6,0x6
 484:	1101                	addi	sp,sp,-32
 486:	1201                	addi	tp,tp,-32
 488:	0006                	c.slli	zero,0x1
 48a:	1b00                	addi	s0,sp,432
 48c:	0101                	addi	sp,sp,0
 48e:	1349                	addi	t1,t1,-14
 490:	0000                	unimp
 492:	0100                	addi	s0,sp,128
 494:	0011                	c.nop	4
 496:	0610                	addi	a2,sp,768
 498:	0655                	addi	a2,a2,21
 49a:	0e1b0e03          	lb	t3,225(s6) # 60e1 <_min_stack+0x40e1>
 49e:	0e25                	addi	t3,t3,9
 4a0:	00000513          	li	a0,0
 4a4:	0100                	addi	s0,sp,128
 4a6:	0111                	addi	sp,sp,4
 4a8:	0e25                	addi	t3,t3,9
 4aa:	0e030b13          	addi	s6,t1,224
 4ae:	01110e1b          	0x1110e1b
 4b2:	0612                	slli	a2,a2,0x4
 4b4:	1710                	addi	a2,sp,928
 4b6:	0000                	unimp
 4b8:	2402                	fld	fs0,0(sp)
 4ba:	0b00                	addi	s0,sp,400
 4bc:	030b3e0b          	0x30b3e0b
 4c0:	000e                	c.slli	zero,0x3
 4c2:	0300                	addi	s0,sp,384
 4c4:	0024                	addi	s1,sp,8
 4c6:	0b3e0b0b          	0xb3e0b0b
 4ca:	00000803          	lb	a6,0(zero) # 0 <_min_stack-0x2000>
 4ce:	0f04                	addi	s1,sp,912
 4d0:	0b00                	addi	s0,sp,400
 4d2:	0500000b          	0x500000b
 4d6:	0016                	c.slli	zero,0x5
 4d8:	0b3a0e03          	lb	t3,179(s4)
 4dc:	0b390b3b          	0xb390b3b
 4e0:	1349                	addi	t1,t1,-14
 4e2:	0000                	unimp
 4e4:	2e06                	fld	ft8,64(sp)
 4e6:	3f01                	jal	3f6 <_min_stack-0x1c0a>
 4e8:	0319                	addi	t1,t1,6
 4ea:	3a0e                	fld	fs4,224(sp)
 4ec:	390b3b0b          	0x390b3b0b
 4f0:	4919270b          	0x4919270b
 4f4:	12011113          	0x12011113
 4f8:	4006                	0x4006
 4fa:	9718                	0x9718
 4fc:	1942                	slli	s2,s2,0x30
 4fe:	1301                	addi	t1,t1,-32
 500:	0000                	unimp
 502:	03000507          	0x3000507
 506:	3a0e                	fld	fs4,224(sp)
 508:	390b3b0b          	0x390b3b0b
 50c:	0213490b          	0x213490b
 510:	08000017          	auipc	zero,0x8000
 514:	0005                	c.nop	1
 516:	0b3a0803          	lb	a6,179(s4)
 51a:	0b390b3b          	0xb390b3b
 51e:	1349                	addi	t1,t1,-14
 520:	1702                	slli	a4,a4,0x20
 522:	0000                	unimp
 524:	3409                	jal	ffffff26 <_stack_start+0xffdfff26>
 526:	0300                	addi	s0,sp,384
 528:	3a0e                	fld	fs4,224(sp)
 52a:	390b3b0b          	0x390b3b0b
 52e:	0213490b          	0x213490b
 532:	0a000017          	auipc	zero,0xa000
 536:	1755010b          	0x1755010b
 53a:	1301                	addi	t1,t1,-32
 53c:	0000                	unimp
 53e:	55010b0b          	0x55010b0b
 542:	0c000017          	auipc	zero,0xc000
 546:	0034                	addi	a3,sp,8
 548:	0b3a0803          	lb	a6,179(s4)
 54c:	0b390b3b          	0xb390b3b
 550:	1349                	addi	t1,t1,-14
 552:	1702                	slli	a4,a4,0x20
 554:	0000                	unimp
 556:	0b0d                	addi	s6,s6,3
 558:	1101                	addi	sp,sp,-32
 55a:	1201                	addi	tp,tp,-32
 55c:	0106                	slli	sp,sp,0x1
 55e:	0e000013          	li	zero,224
 562:	0034                	addi	a3,sp,8
 564:	0b3a0e03          	lb	t3,179(s4)
 568:	0b390b3b          	0xb390b3b
 56c:	1349                	addi	t1,t1,-14
 56e:	0000                	unimp
 570:	0182890f          	0x182890f
 574:	1101                	addi	sp,sp,-32
 576:	3101                	jal	176 <_min_stack-0x1e8a>
 578:	00130113          	addi	sp,t1,1
 57c:	1000                	addi	s0,sp,32
 57e:	828a                	mv	t0,sp
 580:	0001                	nop
 582:	1802                	slli	a6,a6,0x20
 584:	4291                	li	t0,4
 586:	0018                	0x18
 588:	1100                	addi	s0,sp,160
 58a:	8289                	srli	a3,a3,0x2
 58c:	0001                	nop
 58e:	0111                	addi	sp,sp,4
 590:	1331                	addi	t1,t1,-20
 592:	0000                	unimp
 594:	0f12                	slli	t5,t5,0x4
 596:	0b00                	addi	s0,sp,400
 598:	0013490b          	0x13490b
 59c:	1300                	addi	s0,sp,416
 59e:	0026                	c.slli	zero,0x9
 5a0:	0000                	unimp
 5a2:	2e14                	fld	fa3,24(a2)
 5a4:	3f00                	fld	fs0,56(a4)
 5a6:	3c19                	jal	ffffffbc <_stack_start+0xffdfffbc>
 5a8:	6e19                	lui	t3,0x6
 5aa:	030e                	slli	t1,t1,0x3
 5ac:	3a0e                	fld	fs4,224(sp)
 5ae:	390b3b0b          	0x390b3b0b
 5b2:	0000000b          	0xb
 5b6:	1101                	addi	sp,sp,-32
 5b8:	2501                	jal	bb8 <_min_stack-0x1448>
 5ba:	130e                	slli	t1,t1,0x23
 5bc:	1b0e030b          	0x1b0e030b
 5c0:	110e                	slli	sp,sp,0x23
 5c2:	1201                	addi	tp,tp,-32
 5c4:	1006                	c.slli	zero,0x21
 5c6:	02000017          	auipc	zero,0x2000
 5ca:	0024                	addi	s1,sp,8
 5cc:	0b3e0b0b          	0xb3e0b0b
 5d0:	00000803          	lb	a6,0(zero) # 0 <_min_stack-0x2000>
 5d4:	03001603          	lh	a2,48(zero) # 30 <_min_stack-0x1fd0>
 5d8:	3a0e                	fld	fs4,224(sp)
 5da:	390b3b0b          	0x390b3b0b
 5de:	0013490b          	0x13490b
 5e2:	0400                	addi	s0,sp,512
 5e4:	0024                	addi	s1,sp,8
 5e6:	0b3e0b0b          	0xb3e0b0b
 5ea:	00000e03          	lb	t3,0(zero) # 0 <_min_stack-0x2000>
 5ee:	2e05                	jal	91e <_min_stack-0x16e2>
 5f0:	3f01                	jal	500 <_min_stack-0x1b00>
 5f2:	0319                	addi	t1,t1,6
 5f4:	3a0e                	fld	fs4,224(sp)
 5f6:	39053b0b          	0x39053b0b
 5fa:	1119270b          	0x1119270b
 5fe:	1201                	addi	tp,tp,-32
 600:	4006                	0x4006
 602:	9718                	0x9718
 604:	1942                	slli	s2,s2,0x30
 606:	1301                	addi	t1,t1,-32
 608:	0000                	unimp
 60a:	0506                	slli	a0,a0,0x1
 60c:	0300                	addi	s0,sp,384
 60e:	3a0e                	fld	fs4,224(sp)
 610:	39053b0b          	0x39053b0b
 614:	0213490b          	0x213490b
 618:	07000017          	auipc	zero,0x7000
 61c:	0005                	c.nop	1
 61e:	0b3a0803          	lb	a6,179(s4)
 622:	0b39053b          	0xb39053b
 626:	1349                	addi	t1,t1,-14
 628:	1702                	slli	a4,a4,0x20
 62a:	0000                	unimp
 62c:	3408                	fld	fa0,40(s0)
 62e:	0300                	addi	s0,sp,384
 630:	3a08                	fld	fa0,48(a2)
 632:	39053b0b          	0x39053b0b
 636:	0213490b          	0x213490b
 63a:	09000017          	auipc	zero,0x9000
 63e:	0034                	addi	a3,sp,8
 640:	0b3a0e03          	lb	t3,179(s4)
 644:	0b39053b          	0xb39053b
 648:	1349                	addi	t1,t1,-14
 64a:	1802                	slli	a6,a6,0x20
 64c:	0000                	unimp
 64e:	0a0a                	slli	s4,s4,0x2
 650:	0300                	addi	s0,sp,384
 652:	3a08                	fld	fa0,48(a2)
 654:	39053b0b          	0x39053b0b
 658:	0001110b          	0x1110b
 65c:	0b00                	addi	s0,sp,400
 65e:	012e                	slli	sp,sp,0xb
 660:	0e03193f 0b3b0b3a 	0xb3b0b3a0e03193f
 668:	0b39                	addi	s6,s6,14
 66a:	01111927          	0x1111927
 66e:	0612                	slli	a2,a2,0x4
 670:	1840                	addi	s0,sp,52
 672:	01194297          	auipc	t0,0x1194
 676:	0c000013          	li	zero,192
 67a:	0005                	c.nop	1
 67c:	0b3a0e03          	lb	t3,179(s4)
 680:	0b390b3b          	0xb390b3b
 684:	1349                	addi	t1,t1,-14
 686:	1702                	slli	a4,a4,0x20
 688:	0000                	unimp
 68a:	050d                	addi	a0,a0,3
 68c:	0300                	addi	s0,sp,384
 68e:	3a08                	fld	fa0,48(a2)
 690:	390b3b0b          	0x390b3b0b
 694:	0213490b          	0x213490b
 698:	0e000017          	auipc	zero,0xe000
 69c:	0034                	addi	a3,sp,8
 69e:	0b3a0803          	lb	a6,179(s4)
 6a2:	0b390b3b          	0xb390b3b
 6a6:	1349                	addi	t1,t1,-14
 6a8:	1702                	slli	a4,a4,0x20
 6aa:	0000                	unimp
 6ac:	0300340f          	0x300340f
 6b0:	3a0e                	fld	fs4,224(sp)
 6b2:	390b3b0b          	0x390b3b0b
 6b6:	0213490b          	0x213490b
 6ba:	0018                	0x18
 6bc:	1000                	addi	s0,sp,32
 6be:	000a                	c.slli	zero,0x2
 6c0:	0b3a0803          	lb	a6,179(s4)
 6c4:	0b390b3b          	0xb390b3b
 6c8:	0111                	addi	sp,sp,4
 6ca:	0000                	unimp
 6cc:	2e11                	jal	9e0 <_min_stack-0x1620>
 6ce:	3f01                	jal	5de <_min_stack-0x1a22>
 6d0:	0319                	addi	t1,t1,6
 6d2:	3a0e                	fld	fs4,224(sp)
 6d4:	390b3b0b          	0x390b3b0b
 6d8:	1119270b          	0x1119270b
 6dc:	1201                	addi	tp,tp,-32
 6de:	4006                	0x4006
 6e0:	9718                	0x9718
 6e2:	1942                	slli	s2,s2,0x30
 6e4:	0000                	unimp
	...

Disassembly of section .debug_aranges:

00000000 <.debug_aranges>:
   0:	001c                	0x1c
   2:	0000                	unimp
   4:	0002                	c.slli64	zero
   6:	0000                	unimp
   8:	0000                	unimp
   a:	0004                	0x4
   c:	0000                	unimp
   e:	0000                	unimp
  10:	0084                	addi	s1,sp,64
  12:	0010                	0x10
  14:	05e0                	addi	s0,sp,716
	...
  1e:	0000                	unimp
  20:	001c                	0x1c
  22:	0000                	unimp
  24:	0002                	c.slli64	zero
  26:	0335                	addi	t1,t1,13
  28:	0000                	unimp
  2a:	0004                	0x4
  2c:	0000                	unimp
  2e:	0000                	unimp
  30:	0664                	addi	s1,sp,780
  32:	0010                	0x10
  34:	004c                	addi	a1,sp,4
	...
  3e:	0000                	unimp
  40:	001c                	0x1c
  42:	0000                	unimp
  44:	0002                	c.slli64	zero
  46:	0476                	slli	s0,s0,0x1d
  48:	0000                	unimp
  4a:	0004                	0x4
  4c:	0000                	unimp
  4e:	0000                	unimp
  50:	06b0                	addi	a2,sp,840
  52:	0010                	0x10
  54:	1a38                	addi	a4,sp,312
	...
  5e:	0000                	unimp
  60:	0024                	addi	s1,sp,8
  62:	0000                	unimp
  64:	0002                	c.slli64	zero
  66:	0c00                	addi	s0,sp,528
  68:	0000                	unimp
  6a:	0004                	0x4
  6c:	0000                	unimp
  6e:	0000                	unimp
  70:	20e8                	fld	fa0,192(s1)
  72:	0010                	0x10
  74:	00d0                	addi	a2,sp,68
  76:	0000                	unimp
  78:	0000                	unimp
  7a:	0010                	0x10
  7c:	0084                	addi	s1,sp,64
	...
  86:	0000                	unimp
  88:	001c                	0x1c
  8a:	0000                	unimp
  8c:	0002                	c.slli64	zero
  8e:	0c22                	slli	s8,s8,0x8
  90:	0000                	unimp
  92:	0004                	0x4
  94:	0000                	unimp
  96:	0000                	unimp
  98:	21b8                	fld	fa4,64(a1)
  9a:	0010                	0x10
  9c:	008e                	slli	ra,ra,0x3
	...
  a6:	0000                	unimp
  a8:	001c                	0x1c
  aa:	0000                	unimp
  ac:	0002                	c.slli64	zero
  ae:	0dc4                	addi	s1,sp,724
  b0:	0000                	unimp
  b2:	0004                	0x4
  b4:	0000                	unimp
  b6:	0000                	unimp
  b8:	2246                	fld	ft4,80(sp)
  ba:	0010                	0x10
  bc:	0312                	slli	t1,t1,0x4
	...

Disassembly of section .debug_line:

00000000 <.debug_line>:
       0:	042c                	addi	a1,sp,520
       2:	0000                	unimp
       4:	00d20003          	lb	zero,13(tp) # 300d <_min_stack+0x100d>
       8:	0000                	unimp
       a:	0101                	addi	sp,sp,0
       c:	000d0efb          	0xd0efb
      10:	0101                	addi	sp,sp,0
      12:	0101                	addi	sp,sp,0
      14:	0000                	unimp
      16:	0100                	addi	s0,sp,128
      18:	0000                	unimp
      1a:	2f01                	jal	72a <_min_stack-0x18d6>
      1c:	6f68                	flw	fa0,92(a4)
      1e:	656d                	lui	a0,0x1b
      20:	746e612f          	0x746e612f
      24:	6f68                	flw	fa0,92(a4)
      26:	796e                	flw	fs2,248(sp)
      28:	616c502f          	0x616c502f
      2c:	646e                	flw	fs0,216(sp)
      2e:	7465                	lui	s0,0xffff9
      30:	6172                	flw	ft2,28(sp)
      32:	6176                	flw	ft2,92(sp)
      34:	6c69                	lui	s8,0x1a
      36:	2d33302f          	0x2d33302f
      3a:	6952                	flw	fs2,20(sp)
      3c:	5f566373          	csrrsi	t1,0x5f5,12
      40:	7254                	flw	fa3,36(a2)
      42:	6361                	lui	t1,0x18
      44:	4565                	li	a0,25
      46:	636e                	flw	ft6,216(sp)
      48:	7565646f          	jal	s0,5679e <_stack_len+0x4e79e>
      4c:	2f72                	fld	ft10,280(sp)
      4e:	6972                	flw	fs2,28(sp)
      50:	2d766373          	csrrsi	t1,0x2d7,12
      54:	74666f73          	csrrsi	t5,0x746,12
      58:	65726177          	0x65726177
      5c:	305f 3131 3232      	0x32323131305f
      62:	2f30                	fld	fa2,88(a4)
      64:	74666f73          	csrrsi	t5,0x746,12
      68:	65726177          	0x65726177
      6c:	6d6f632f          	0x6d6f632f
      70:	6f6d                	lui	t5,0x1b
      72:	006e                	c.slli	zero,0x1b
      74:	74706f2f          	0x74706f2f
      78:	7369722f          	0x7369722f
      7c:	6c2f7663          	bgeu	t5,sp,748 <_min_stack-0x18b8>
      80:	6269                	lui	tp,0x1a
      82:	6363672f          	0x6363672f
      86:	7369722f          	0x7369722f
      8a:	34367663          	bgeu	a2,gp,3d6 <_min_stack-0x1c2a>
      8e:	752d                	lui	a0,0xfffeb
      90:	6b6e                	flw	fs6,216(sp)
      92:	6f6e                	flw	ft10,216(sp)
      94:	6c2d6e77          	0x6c2d6e77
      98:	6e69                	lui	t3,0x1a
      9a:	7875                	lui	a6,0xffffd
      9c:	672d                	lui	a4,0xb
      9e:	756e                	flw	fa0,248(sp)
      a0:	2e30312f          	0x2e30312f
      a4:	2e32                	fld	ft8,264(sp)
      a6:	2f30                	fld	fa2,88(a4)
      a8:	6e69                	lui	t3,0x1a
      aa:	64756c63          	bltu	a0,t2,702 <_min_stack-0x18fe>
      ae:	0065                	c.nop	25
      b0:	7300                	flw	fs0,32(a4)
      b2:	6d69                	lui	s10,0x1a
      b4:	6c70                	flw	fa2,92(s0)
      b6:	5f65                	li	t5,-7
      b8:	74737973          	csrrci	s2,0x747,6
      bc:	6d65                	lui	s10,0x19
      be:	635f 6d6f 6f6d      	0x6f6d6d6f635f
      c4:	2e6e                	fld	ft8,216(sp)
      c6:	00010063          	beqz	sp,c6 <_min_stack-0x1f3a>
      ca:	7300                	flw	fs0,32(a4)
      cc:	6474                	flw	fa3,76(s0)
      ce:	6e69                	lui	t3,0x1a
      d0:	2d74                	fld	fa3,216(a0)
      d2:	2e636367          	0x2e636367
      d6:	0068                	addi	a0,sp,12
      d8:	0002                	c.slli64	zero
      da:	0000                	unimp
      dc:	1405                	addi	s0,s0,-31
      de:	0500                	addi	s0,sp,640
      e0:	8402                	jr	s0
      e2:	1000                	addi	s0,sp,32
      e4:	1800                	addi	s0,sp,48
      e6:	0305                	addi	t1,t1,1
      e8:	08090103          	lb	sp,128(s2) # 1080 <_min_stack-0xf80>
      ec:	0100                	addi	s0,sp,128
      ee:	0a05                	addi	s4,s4,1
      f0:	10090203          	lb	tp,256(s2)
      f4:	0100                	addi	s0,sp,128
      f6:	0105                	addi	sp,sp,1
      f8:	04090103          	lb	sp,64(s2)
      fc:	0100                	addi	s0,sp,128
      fe:	1b05                	addi	s6,s6,-31
     100:	0c090203          	lb	tp,192(s2)
     104:	0100                	addi	s0,sp,128
     106:	0905                	addi	s2,s2,1
     108:	0c090103          	lb	sp,192(s2)
     10c:	0100                	addi	s0,sp,128
     10e:	1105                	addi	sp,sp,-31
     110:	04090103          	lb	sp,64(s2)
     114:	0100                	addi	s0,sp,128
     116:	0d05                	addi	s10,s10,1
     118:	0c090003          	lb	zero,192(s2)
     11c:	0100                	addi	s0,sp,128
     11e:	0505                	addi	a0,a0,1
     120:	04090003          	lb	zero,64(s2)
     124:	0100                	addi	s0,sp,128
     126:	0a05                	addi	s4,s4,1
     128:	08097f03          	0x8097f03
     12c:	0100                	addi	s0,sp,128
     12e:	0905                	addi	s2,s2,1
     130:	08090003          	lb	zero,128(s2)
     134:	0100                	addi	s0,sp,128
     136:	0a05                	addi	s4,s4,1
     138:	04090403          	lb	s0,64(s2)
     13c:	0100                	addi	s0,sp,128
     13e:	0105                	addi	sp,sp,1
     140:	04090103          	lb	sp,64(s2)
     144:	0100                	addi	s0,sp,128
     146:	1905                	addi	s2,s2,-31
     148:	10090203          	lb	tp,256(s2)
     14c:	0100                	addi	s0,sp,128
     14e:	0c05                	addi	s8,s8,1
     150:	0c090403          	lb	s0,192(s2)
     154:	0100                	addi	s0,sp,128
     156:	0305                	addi	t1,t1,1
     158:	04090003          	lb	zero,64(s2)
     15c:	0100                	addi	s0,sp,128
     15e:	1305                	addi	t1,t1,-31
     160:	04090103          	lb	sp,64(s2)
     164:	0100                	addi	s0,sp,128
     166:	0f05                	addi	t5,t5,1
     168:	08090003          	lb	zero,128(s2)
     16c:	0100                	addi	s0,sp,128
     16e:	0805                	addi	a6,a6,1
     170:	04090203          	lb	tp,64(s2)
     174:	0100                	addi	s0,sp,128
     176:	0705                	addi	a4,a4,1
     178:	0c090103          	lb	sp,192(s2)
     17c:	0100                	addi	s0,sp,128
     17e:	14090203          	lb	tp,320(s2)
     182:	0100                	addi	s0,sp,128
     184:	0200                	addi	s0,sp,256
     186:	0204                	addi	s1,sp,256
     188:	10090203          	lb	tp,256(s2)
     18c:	0100                	addi	s0,sp,128
     18e:	1b05                	addi	s6,s6,-31
     190:	0200                	addi	s0,sp,256
     192:	0204                	addi	s1,sp,256
     194:	0c097803          	0xc097803
     198:	0100                	addi	s0,sp,128
     19a:	0305                	addi	t1,t1,1
     19c:	0200                	addi	s0,sp,256
     19e:	0104                	addi	s1,sp,128
     1a0:	0c090003          	lb	zero,192(s2)
     1a4:	0100                	addi	s0,sp,128
     1a6:	0105                	addi	sp,sp,1
     1a8:	0c090a03          	lb	s4,192(s2)
     1ac:	0100                	addi	s0,sp,128
     1ae:	1105                	addi	sp,sp,-31
     1b0:	14090203          	lb	tp,320(s2)
     1b4:	0100                	addi	s0,sp,128
     1b6:	1305                	addi	t1,t1,-31
     1b8:	00090003          	lb	zero,0(s2)
     1bc:	0100                	addi	s0,sp,128
     1be:	4005                	c.li	zero,1
     1c0:	10090003          	lb	zero,256(s2)
     1c4:	0100                	addi	s0,sp,128
     1c6:	1505                	addi	a0,a0,-31
     1c8:	08090203          	lb	tp,128(s2)
     1cc:	0100                	addi	s0,sp,128
     1ce:	0305                	addi	t1,t1,1
     1d0:	00090103          	lb	sp,0(s2)
     1d4:	0100                	addi	s0,sp,128
     1d6:	0105                	addi	sp,sp,1
     1d8:	f8093f03          	0xf8093f03
     1dc:	0100                	addi	s0,sp,128
     1de:	2005                	jal	1fe <_min_stack-0x1e02>
     1e0:	08090203          	lb	tp,128(s2)
     1e4:	0100                	addi	s0,sp,128
     1e6:	2b05                	jal	716 <_min_stack-0x18ea>
     1e8:	08090203          	lb	tp,128(s2)
     1ec:	0100                	addi	s0,sp,128
     1ee:	0200                	addi	s0,sp,256
     1f0:	0104                	addi	s1,sp,128
     1f2:	0306                	slli	t1,t1,0x1
     1f4:	0900                	addi	s0,sp,144
     1f6:	0008                	0x8
     1f8:	0001                	nop
     1fa:	0402                	c.slli64	s0
     1fc:	0302                	c.slli64	t1
     1fe:	0900                	addi	s0,sp,144
     200:	0008                	0x8
     202:	0501                	addi	a0,a0,0
     204:	0010                	0x10
     206:	0402                	c.slli64	s0
     208:	0604                	addi	s1,sp,768
     20a:	04090003          	lb	zero,64(s2)
     20e:	0100                	addi	s0,sp,128
     210:	0305                	addi	t1,t1,1
     212:	0200                	addi	s0,sp,256
     214:	0404                	addi	s1,sp,512
     216:	04090703          	lb	a4,64(s2)
     21a:	0100                	addi	s0,sp,128
     21c:	0105                	addi	sp,sp,1
     21e:	0200                	addi	s0,sp,256
     220:	0404                	addi	s1,sp,512
     222:	08090103          	lb	sp,128(s2)
     226:	0100                	addi	s0,sp,128
     228:	1905                	addi	s2,s2,-31
     22a:	0c090203          	lb	tp,192(s2)
     22e:	0100                	addi	s0,sp,128
     230:	0305                	addi	t1,t1,1
     232:	04090203          	lb	tp,64(s2)
     236:	0100                	addi	s0,sp,128
     238:	0a05                	addi	s4,s4,1
     23a:	08090103          	lb	sp,128(s2)
     23e:	0100                	addi	s0,sp,128
     240:	0105                	addi	sp,sp,1
     242:	04090103          	lb	sp,64(s2)
     246:	0100                	addi	s0,sp,128
     248:	1b05                	addi	s6,s6,-31
     24a:	0c090203          	lb	tp,192(s2)
     24e:	0100                	addi	s0,sp,128
     250:	0305                	addi	t1,t1,1
     252:	04090203          	lb	tp,64(s2)
     256:	0100                	addi	s0,sp,128
     258:	0a05                	addi	s4,s4,1
     25a:	08090103          	lb	sp,128(s2)
     25e:	0100                	addi	s0,sp,128
     260:	0105                	addi	sp,sp,1
     262:	04090103          	lb	sp,64(s2)
     266:	0100                	addi	s0,sp,128
     268:	1a05                	addi	s4,s4,-31
     26a:	0c090203          	lb	tp,192(s2)
     26e:	0100                	addi	s0,sp,128
     270:	0305                	addi	t1,t1,1
     272:	04090203          	lb	tp,64(s2)
     276:	0100                	addi	s0,sp,128
     278:	0a05                	addi	s4,s4,1
     27a:	08090103          	lb	sp,128(s2)
     27e:	0100                	addi	s0,sp,128
     280:	0105                	addi	sp,sp,1
     282:	04090103          	lb	sp,64(s2)
     286:	0100                	addi	s0,sp,128
     288:	1f05                	addi	t5,t5,-31
     28a:	0c090203          	lb	tp,192(s2)
     28e:	0100                	addi	s0,sp,128
     290:	0305                	addi	t1,t1,1
     292:	08090103          	lb	sp,128(s2)
     296:	0100                	addi	s0,sp,128
     298:	0c090103          	lb	sp,192(s2)
     29c:	0100                	addi	s0,sp,128
     29e:	0c090103          	lb	sp,192(s2)
     2a2:	0100                	addi	s0,sp,128
     2a4:	0c090103          	lb	sp,192(s2)
     2a8:	0100                	addi	s0,sp,128
     2aa:	10090103          	lb	sp,256(s2)
     2ae:	0100                	addi	s0,sp,128
     2b0:	0c090103          	lb	sp,192(s2)
     2b4:	0100                	addi	s0,sp,128
     2b6:	10090103          	lb	sp,256(s2)
     2ba:	0100                	addi	s0,sp,128
     2bc:	0c090103          	lb	sp,192(s2)
     2c0:	0100                	addi	s0,sp,128
     2c2:	10090103          	lb	sp,256(s2)
     2c6:	0100                	addi	s0,sp,128
     2c8:	08090103          	lb	sp,128(s2)
     2cc:	0100                	addi	s0,sp,128
     2ce:	0805                	addi	a6,a6,1
     2d0:	0200                	addi	s0,sp,256
     2d2:	0104                	addi	s1,sp,128
     2d4:	04090203          	lb	tp,64(s2)
     2d8:	0100                	addi	s0,sp,128
     2da:	3a05                	jal	fffffc0a <_stack_start+0xffdffc0a>
     2dc:	04090603          	lb	a2,64(s2)
     2e0:	0100                	addi	s0,sp,128
     2e2:	1b05                	addi	s6,s6,-31
     2e4:	10090103          	lb	sp,256(s2)
     2e8:	0100                	addi	s0,sp,128
     2ea:	1005                	c.nop	-31
     2ec:	0c090103          	lb	sp,192(s2)
     2f0:	0100                	addi	s0,sp,128
     2f2:	0305                	addi	t1,t1,1
     2f4:	30090103          	lb	sp,768(s2)
     2f8:	0100                	addi	s0,sp,128
     2fa:	0105                	addi	sp,sp,1
     2fc:	0c090103          	lb	sp,192(s2)
     300:	0100                	addi	s0,sp,128
     302:	2705                	jal	a22 <_min_stack-0x15de>
     304:	10090203          	lb	tp,256(s2)
     308:	0100                	addi	s0,sp,128
     30a:	1005                	c.nop	-31
     30c:	10090103          	lb	sp,256(s2)
     310:	0100                	addi	s0,sp,128
     312:	1205                	addi	tp,tp,-31
     314:	18090103          	lb	sp,384(s2)
     318:	0100                	addi	s0,sp,128
     31a:	0305                	addi	t1,t1,1
     31c:	18090203          	lb	tp,384(s2)
     320:	0100                	addi	s0,sp,128
     322:	0c090203          	lb	tp,192(s2)
     326:	0100                	addi	s0,sp,128
     328:	08090203          	lb	tp,128(s2)
     32c:	0100                	addi	s0,sp,128
     32e:	0105                	addi	sp,sp,1
     330:	08090103          	lb	sp,128(s2)
     334:	0100                	addi	s0,sp,128
     336:	1a05                	addi	s4,s4,-31
     338:	10090203          	lb	tp,256(s2)
     33c:	0100                	addi	s0,sp,128
     33e:	1c05                	addi	s8,s8,-31
     340:	00090003          	lb	zero,0(s2)
     344:	0100                	addi	s0,sp,128
     346:	4b05                	li	s6,1
     348:	08090003          	lb	zero,128(s2)
     34c:	0100                	addi	s0,sp,128
     34e:	1b05                	addi	s6,s6,-31
     350:	08090203          	lb	tp,128(s2)
     354:	0100                	addi	s0,sp,128
     356:	1505                	addi	a0,a0,-31
     358:	0200                	addi	s0,sp,256
     35a:	0104                	addi	s1,sp,128
     35c:	04090503          	lb	a0,64(s2)
     360:	0100                	addi	s0,sp,128
     362:	1305                	addi	t1,t1,-31
     364:	0200                	addi	s0,sp,256
     366:	0104                	addi	s1,sp,128
     368:	08090003          	lb	zero,128(s2)
     36c:	0100                	addi	s0,sp,128
     36e:	1405                	addi	s0,s0,-31
     370:	0200                	addi	s0,sp,256
     372:	0104                	addi	s1,sp,128
     374:	08090103          	lb	sp,128(s2)
     378:	0100                	addi	s0,sp,128
     37a:	1205                	addi	tp,tp,-31
     37c:	0200                	addi	s0,sp,256
     37e:	0104                	addi	s1,sp,128
     380:	04090003          	lb	zero,64(s2)
     384:	0100                	addi	s0,sp,128
     386:	1d05                	addi	s10,s10,-31
     388:	0200                	addi	s0,sp,256
     38a:	0104                	addi	s1,sp,128
     38c:	08090103          	lb	sp,128(s2)
     390:	0100                	addi	s0,sp,128
     392:	0305                	addi	t1,t1,1
     394:	0200                	addi	s0,sp,256
     396:	0104                	addi	s1,sp,128
     398:	0c090003          	lb	zero,192(s2)
     39c:	0100                	addi	s0,sp,128
     39e:	1a05                	addi	s4,s4,-31
     3a0:	08090103          	lb	sp,128(s2)
     3a4:	0100                	addi	s0,sp,128
     3a6:	3205                	jal	fffffcc6 <_stack_start+0xffdffcc6>
     3a8:	0c090003          	lb	zero,192(s2)
     3ac:	0100                	addi	s0,sp,128
     3ae:	3905                	jal	ffffffde <_stack_start+0xffdfffde>
     3b0:	08090003          	lb	zero,128(s2)
     3b4:	0100                	addi	s0,sp,128
     3b6:	0c05                	addi	s8,s8,1
     3b8:	0c090003          	lb	zero,192(s2)
     3bc:	0100                	addi	s0,sp,128
     3be:	0a05                	addi	s4,s4,1
     3c0:	10090103          	lb	sp,256(s2)
     3c4:	0100                	addi	s0,sp,128
     3c6:	0105                	addi	sp,sp,1
     3c8:	08090103          	lb	sp,128(s2)
     3cc:	0100                	addi	s0,sp,128
     3ce:	2805                	jal	3fe <_min_stack-0x1c02>
     3d0:	10090203          	lb	tp,256(s2)
     3d4:	0100                	addi	s0,sp,128
     3d6:	0305                	addi	t1,t1,1
     3d8:	0c090103          	lb	sp,192(s2)
     3dc:	0100                	addi	s0,sp,128
     3de:	10090103          	lb	sp,256(s2)
     3e2:	0100                	addi	s0,sp,128
     3e4:	1c090103          	lb	sp,448(s2)
     3e8:	0100                	addi	s0,sp,128
     3ea:	0105                	addi	sp,sp,1
     3ec:	10090103          	lb	sp,256(s2)
     3f0:	0100                	addi	s0,sp,128
     3f2:	2105                	jal	812 <_min_stack-0x17ee>
     3f4:	0c090203          	lb	tp,192(s2)
     3f8:	0100                	addi	s0,sp,128
     3fa:	2a05                	jal	52a <_min_stack-0x1ad6>
     3fc:	00090003          	lb	zero,0(s2)
     400:	0100                	addi	s0,sp,128
     402:	3805                	jal	fffffc32 <_stack_start+0xffdffc32>
     404:	10090003          	lb	zero,256(s2)
     408:	0100                	addi	s0,sp,128
     40a:	2105                	jal	82a <_min_stack-0x17d6>
     40c:	0c090403          	lb	s0,192(s2)
     410:	0100                	addi	s0,sp,128
     412:	0305                	addi	t1,t1,1
     414:	44090103          	lb	sp,1088(s2)
     418:	0100                	addi	s0,sp,128
     41a:	0f05                	addi	t5,t5,1
     41c:	1c090103          	lb	sp,448(s2)
     420:	0100                	addi	s0,sp,128
     422:	0105                	addi	sp,sp,1
     424:	48090103          	lb	sp,1152(s2)
     428:	0100                	addi	s0,sp,128
     42a:	4c09                	li	s8,2
     42c:	0000                	unimp
     42e:	0101                	addi	sp,sp,0
     430:	00a8                	addi	a0,sp,72
     432:	0000                	unimp
     434:	00720003          	lb	zero,7(tp) # 1a007 <_stack_len+0x12007>
     438:	0000                	unimp
     43a:	0101                	addi	sp,sp,0
     43c:	000d0efb          	0xd0efb
     440:	0101                	addi	sp,sp,0
     442:	0101                	addi	sp,sp,0
     444:	0000                	unimp
     446:	0100                	addi	s0,sp,128
     448:	0000                	unimp
     44a:	2f01                	jal	b5a <_min_stack-0x14a6>
     44c:	2f74706f          	j	47f42 <_stack_len+0x3ff42>
     450:	6972                	flw	fs2,28(sp)
     452:	2f766373          	csrrsi	t1,0x2f7,12
     456:	696c                	flw	fa1,84(a0)
     458:	2f62                	fld	ft10,24(sp)
     45a:	2f636367          	0x2f636367
     45e:	6972                	flw	fs2,28(sp)
     460:	36766373          	csrrsi	t1,0x367,12
     464:	2d34                	fld	fa3,88(a0)
     466:	6e75                	lui	t3,0x1d
     468:	776f6e6b          	0x776f6e6b
     46c:	2d6e                	fld	fs10,216(sp)
     46e:	696c                	flw	fa1,84(a0)
     470:	756e                	flw	fa0,248(sp)
     472:	2d78                	fld	fa4,216(a0)
     474:	2f756e67          	0x2f756e67
     478:	3031                	jal	fffffc84 <_stack_start+0xffdffc84>
     47a:	322e                	fld	ft4,232(sp)
     47c:	302e                	fld	ft0,232(sp)
     47e:	636e692f          	0x636e692f
     482:	756c                	flw	fa1,108(a0)
     484:	6564                	flw	fs1,76(a0)
     486:	0000                	unimp
     488:	616d                	addi	sp,sp,240
     48a:	6e69                	lui	t3,0x1a
     48c:	632e                	flw	ft6,200(sp)
     48e:	0000                	unimp
     490:	0000                	unimp
     492:	69647473          	csrrci	s0,0x696,8
     496:	746e                	flw	fs0,248(sp)
     498:	672d                	lui	a4,0xb
     49a:	682e6363          	bltu	t3,sp,b20 <_min_stack-0x14e0>
     49e:	0100                	addi	s0,sp,128
     4a0:	0000                	unimp
     4a2:	6561                	lui	a0,0x18
     4a4:	00682e73          	csrrs	t3,0x6,a6
     4a8:	0000                	unimp
     4aa:	0000                	unimp
     4ac:	0105                	addi	sp,sp,1
     4ae:	0500                	addi	s0,sp,640
     4b0:	6402                	flw	fs0,0(sp)
     4b2:	1006                	c.slli	zero,0x21
     4b4:	0300                	addi	s0,sp,384
     4b6:	0111                	addi	sp,sp,4
     4b8:	0505                	addi	a0,a0,1
     4ba:	10090203          	lb	tp,256(s2)
     4be:	0100                	addi	s0,sp,128
     4c0:	14090103          	lb	sp,320(s2)
     4c4:	0100                	addi	s0,sp,128
     4c6:	0c05                	addi	s8,s8,1
     4c8:	14090103          	lb	sp,320(s2)
     4cc:	0100                	addi	s0,sp,128
     4ce:	0105                	addi	sp,sp,1
     4d0:	04090103          	lb	sp,64(s2)
     4d4:	0100                	addi	s0,sp,128
     4d6:	1009                	c.nop	-30
     4d8:	0000                	unimp
     4da:	0101                	addi	sp,sp,0
     4dc:	0f46                	slli	t5,t5,0x11
     4de:	0000                	unimp
     4e0:	00710003          	lb	zero,7(sp) # 46050007 <_stack_start+0x45e50007>
     4e4:	0000                	unimp
     4e6:	0101                	addi	sp,sp,0
     4e8:	000d0efb          	0xd0efb
     4ec:	0101                	addi	sp,sp,0
     4ee:	0101                	addi	sp,sp,0
     4f0:	0000                	unimp
     4f2:	0100                	addi	s0,sp,128
     4f4:	0000                	unimp
     4f6:	2f01                	jal	c06 <_min_stack-0x13fa>
     4f8:	2f74706f          	j	47fee <_stack_len+0x3ffee>
     4fc:	6972                	flw	fs2,28(sp)
     4fe:	2f766373          	csrrsi	t1,0x2f7,12
     502:	696c                	flw	fa1,84(a0)
     504:	2f62                	fld	ft10,24(sp)
     506:	2f636367          	0x2f636367
     50a:	6972                	flw	fs2,28(sp)
     50c:	36766373          	csrrsi	t1,0x367,12
     510:	2d34                	fld	fa3,88(a0)
     512:	6e75                	lui	t3,0x1d
     514:	776f6e6b          	0x776f6e6b
     518:	2d6e                	fld	fs10,216(sp)
     51a:	696c                	flw	fa1,84(a0)
     51c:	756e                	flw	fa0,248(sp)
     51e:	2d78                	fld	fa4,216(a0)
     520:	2f756e67          	0x2f756e67
     524:	3031                	jal	fffffd30 <_stack_start+0xffdffd30>
     526:	322e                	fld	ft4,232(sp)
     528:	302e                	fld	ft0,232(sp)
     52a:	636e692f          	0x636e692f
     52e:	756c                	flw	fa1,108(a0)
     530:	6564                	flw	fs1,76(a0)
     532:	0000                	unimp
     534:	6561                	lui	a0,0x18
     536:	00632e73          	csrrs	t3,0x6,t1
     53a:	0000                	unimp
     53c:	7300                	flw	fs0,32(a4)
     53e:	6474                	flw	fa3,76(s0)
     540:	6e69                	lui	t3,0x1a
     542:	2d74                	fld	fa3,216(a0)
     544:	2e636367          	0x2e636367
     548:	0068                	addi	a0,sp,12
     54a:	0001                	nop
     54c:	6100                	flw	fs0,0(a0)
     54e:	7365                	lui	t1,0xffff9
     550:	682e                	flw	fa6,200(sp)
     552:	0000                	unimp
     554:	0000                	unimp
     556:	0500                	addi	s0,sp,640
     558:	0001                	nop
     55a:	0205                	addi	tp,tp,1
     55c:	06b0                	addi	a2,sp,840
     55e:	0010                	0x10
     560:	01019603          	lh	a2,16(gp)
     564:	0a05                	addi	s4,s4,1
     566:	0c090503          	lb	a0,192(s2)
     56a:	0100                	addi	s0,sp,128
     56c:	0305                	addi	t1,t1,1
     56e:	04090003          	lb	zero,64(s2)
     572:	0100                	addi	s0,sp,128
     574:	2405                	jal	794 <_min_stack-0x186c>
     576:	0200                	addi	s0,sp,256
     578:	0304                	addi	s1,sp,384
     57a:	04090203          	lb	tp,64(s2)
     57e:	0100                	addi	s0,sp,128
     580:	2005                	jal	5a0 <_min_stack-0x1a60>
     582:	0200                	addi	s0,sp,256
     584:	0304                	addi	s1,sp,384
     586:	08090003          	lb	zero,128(s2)
     58a:	0100                	addi	s0,sp,128
     58c:	1105                	addi	sp,sp,-31
     58e:	0200                	addi	s0,sp,256
     590:	0304                	addi	s1,sp,384
     592:	08090003          	lb	zero,128(s2)
     596:	0100                	addi	s0,sp,128
     598:	0d05                	addi	s10,s10,1
     59a:	0200                	addi	s0,sp,256
     59c:	0304                	addi	s1,sp,384
     59e:	08090003          	lb	zero,128(s2)
     5a2:	0100                	addi	s0,sp,128
     5a4:	2005                	jal	5c4 <_min_stack-0x1a3c>
     5a6:	0200                	addi	s0,sp,256
     5a8:	0304                	addi	s1,sp,384
     5aa:	08090003          	lb	zero,128(s2)
     5ae:	0100                	addi	s0,sp,128
     5b0:	1b05                	addi	s6,s6,-31
     5b2:	0200                	addi	s0,sp,256
     5b4:	0304                	addi	s1,sp,384
     5b6:	04090003          	lb	zero,64(s2)
     5ba:	0100                	addi	s0,sp,128
     5bc:	2405                	jal	7dc <_min_stack-0x1824>
     5be:	0200                	addi	s0,sp,256
     5c0:	0304                	addi	s1,sp,384
     5c2:	04090103          	lb	sp,64(s2)
     5c6:	0100                	addi	s0,sp,128
     5c8:	2005                	jal	5e8 <_min_stack-0x1a18>
     5ca:	0200                	addi	s0,sp,256
     5cc:	0304                	addi	s1,sp,384
     5ce:	08090003          	lb	zero,128(s2)
     5d2:	0100                	addi	s0,sp,128
     5d4:	1105                	addi	sp,sp,-31
     5d6:	0200                	addi	s0,sp,256
     5d8:	0304                	addi	s1,sp,384
     5da:	0c090003          	lb	zero,192(s2)
     5de:	0100                	addi	s0,sp,128
     5e0:	0d05                	addi	s10,s10,1
     5e2:	0200                	addi	s0,sp,256
     5e4:	0304                	addi	s1,sp,384
     5e6:	08090003          	lb	zero,128(s2)
     5ea:	0100                	addi	s0,sp,128
     5ec:	2005                	jal	60c <_min_stack-0x19f4>
     5ee:	0200                	addi	s0,sp,256
     5f0:	0304                	addi	s1,sp,384
     5f2:	0c090003          	lb	zero,192(s2)
     5f6:	0100                	addi	s0,sp,128
     5f8:	1b05                	addi	s6,s6,-31
     5fa:	0200                	addi	s0,sp,256
     5fc:	0304                	addi	s1,sp,384
     5fe:	04090003          	lb	zero,64(s2)
     602:	0100                	addi	s0,sp,128
     604:	2405                	jal	824 <_min_stack-0x17dc>
     606:	0200                	addi	s0,sp,256
     608:	0304                	addi	s1,sp,384
     60a:	04090103          	lb	sp,64(s2)
     60e:	0100                	addi	s0,sp,128
     610:	2005                	jal	630 <_min_stack-0x19d0>
     612:	0200                	addi	s0,sp,256
     614:	0304                	addi	s1,sp,384
     616:	08090003          	lb	zero,128(s2)
     61a:	0100                	addi	s0,sp,128
     61c:	1105                	addi	sp,sp,-31
     61e:	0200                	addi	s0,sp,256
     620:	0304                	addi	s1,sp,384
     622:	0c090003          	lb	zero,192(s2)
     626:	0100                	addi	s0,sp,128
     628:	0d05                	addi	s10,s10,1
     62a:	0200                	addi	s0,sp,256
     62c:	0304                	addi	s1,sp,384
     62e:	08090003          	lb	zero,128(s2)
     632:	0100                	addi	s0,sp,128
     634:	2005                	jal	654 <_min_stack-0x19ac>
     636:	0200                	addi	s0,sp,256
     638:	0304                	addi	s1,sp,384
     63a:	0c090003          	lb	zero,192(s2)
     63e:	0100                	addi	s0,sp,128
     640:	1b05                	addi	s6,s6,-31
     642:	0200                	addi	s0,sp,256
     644:	0304                	addi	s1,sp,384
     646:	04090003          	lb	zero,64(s2)
     64a:	0100                	addi	s0,sp,128
     64c:	2405                	jal	86c <_min_stack-0x1794>
     64e:	0200                	addi	s0,sp,256
     650:	0304                	addi	s1,sp,384
     652:	04090103          	lb	sp,64(s2)
     656:	0100                	addi	s0,sp,128
     658:	2005                	jal	678 <_min_stack-0x1988>
     65a:	0200                	addi	s0,sp,256
     65c:	0304                	addi	s1,sp,384
     65e:	08090003          	lb	zero,128(s2)
     662:	0100                	addi	s0,sp,128
     664:	1105                	addi	sp,sp,-31
     666:	0200                	addi	s0,sp,256
     668:	0304                	addi	s1,sp,384
     66a:	0c090003          	lb	zero,192(s2)
     66e:	0100                	addi	s0,sp,128
     670:	0d05                	addi	s10,s10,1
     672:	0200                	addi	s0,sp,256
     674:	0304                	addi	s1,sp,384
     676:	08090003          	lb	zero,128(s2)
     67a:	0100                	addi	s0,sp,128
     67c:	2005                	jal	69c <_min_stack-0x1964>
     67e:	0200                	addi	s0,sp,256
     680:	0304                	addi	s1,sp,384
     682:	0c090003          	lb	zero,192(s2)
     686:	0100                	addi	s0,sp,128
     688:	1b05                	addi	s6,s6,-31
     68a:	0200                	addi	s0,sp,256
     68c:	0304                	addi	s1,sp,384
     68e:	04090003          	lb	zero,64(s2)
     692:	0100                	addi	s0,sp,128
     694:	1705                	addi	a4,a4,-31
     696:	0200                	addi	s0,sp,256
     698:	0304                	addi	s1,sp,384
     69a:	04097b03          	0x4097b03
     69e:	0100                	addi	s0,sp,128
     6a0:	0305                	addi	t1,t1,1
     6a2:	0200                	addi	s0,sp,256
     6a4:	0104                	addi	s1,sp,128
     6a6:	0c090003          	lb	zero,192(s2)
     6aa:	0100                	addi	s0,sp,128
     6ac:	0a05                	addi	s4,s4,1
     6ae:	0c090903          	lb	s2,192(s2)
     6b2:	0100                	addi	s0,sp,128
     6b4:	0305                	addi	t1,t1,1
     6b6:	08090003          	lb	zero,128(s2)
     6ba:	0100                	addi	s0,sp,128
     6bc:	0e05                	addi	t3,t3,1
     6be:	04090303          	lb	t1,64(s2)
     6c2:	0100                	addi	s0,sp,128
     6c4:	0905                	addi	s2,s2,1
     6c6:	08090003          	lb	zero,128(s2)
     6ca:	0100                	addi	s0,sp,128
     6cc:	1805                	addi	a6,a6,-31
     6ce:	08090103          	lb	sp,128(s2)
     6d2:	0100                	addi	s0,sp,128
     6d4:	0f05                	addi	t5,t5,1
     6d6:	10090003          	lb	zero,256(s2)
     6da:	0100                	addi	s0,sp,128
     6dc:	1805                	addi	a6,a6,-31
     6de:	04090103          	lb	sp,64(s2)
     6e2:	0100                	addi	s0,sp,128
     6e4:	0f05                	addi	t5,t5,1
     6e6:	14090003          	lb	zero,320(s2)
     6ea:	0100                	addi	s0,sp,128
     6ec:	1805                	addi	a6,a6,-31
     6ee:	04090103          	lb	sp,64(s2)
     6f2:	0100                	addi	s0,sp,128
     6f4:	0f05                	addi	t5,t5,1
     6f6:	14090003          	lb	zero,320(s2)
     6fa:	0100                	addi	s0,sp,128
     6fc:	1805                	addi	a6,a6,-31
     6fe:	04090103          	lb	sp,64(s2)
     702:	0100                	addi	s0,sp,128
     704:	0f05                	addi	t5,t5,1
     706:	14090003          	lb	zero,320(s2)
     70a:	0100                	addi	s0,sp,128
     70c:	0b05                	addi	s6,s6,1
     70e:	04090403          	lb	s0,64(s2)
     712:	0100                	addi	s0,sp,128
     714:	0805                	addi	a6,a6,1
     716:	08090003          	lb	zero,128(s2)
     71a:	0100                	addi	s0,sp,128
     71c:	1705                	addi	a4,a4,-31
     71e:	04090703          	lb	a4,64(s2)
     722:	0100                	addi	s0,sp,128
     724:	1905                	addi	s2,s2,-31
     726:	08090103          	lb	sp,128(s2)
     72a:	0100                	addi	s0,sp,128
     72c:	1205                	addi	tp,tp,-31
     72e:	04090003          	lb	zero,64(s2)
     732:	0100                	addi	s0,sp,128
     734:	1905                	addi	s2,s2,-31
     736:	04090103          	lb	sp,64(s2)
     73a:	0100                	addi	s0,sp,128
     73c:	1205                	addi	tp,tp,-31
     73e:	04090003          	lb	zero,64(s2)
     742:	0100                	addi	s0,sp,128
     744:	1905                	addi	s2,s2,-31
     746:	04090103          	lb	sp,64(s2)
     74a:	0100                	addi	s0,sp,128
     74c:	1205                	addi	tp,tp,-31
     74e:	04090003          	lb	zero,64(s2)
     752:	0100                	addi	s0,sp,128
     754:	04090103          	lb	sp,64(s2)
     758:	0100                	addi	s0,sp,128
     75a:	1405                	addi	s0,s0,-31
     75c:	08090803          	lb	a6,128(s2)
     760:	0100                	addi	s0,sp,128
     762:	1205                	addi	tp,tp,-31
     764:	18090003          	lb	zero,384(s2)
     768:	0100                	addi	s0,sp,128
     76a:	1405                	addi	s0,s0,-31
     76c:	04090103          	lb	sp,64(s2)
     770:	0100                	addi	s0,sp,128
     772:	1205                	addi	tp,tp,-31
     774:	18090003          	lb	zero,384(s2)
     778:	0100                	addi	s0,sp,128
     77a:	1405                	addi	s0,s0,-31
     77c:	04090103          	lb	sp,64(s2)
     780:	0100                	addi	s0,sp,128
     782:	1205                	addi	tp,tp,-31
     784:	18090003          	lb	zero,384(s2)
     788:	0100                	addi	s0,sp,128
     78a:	1405                	addi	s0,s0,-31
     78c:	04090103          	lb	sp,64(s2)
     790:	0100                	addi	s0,sp,128
     792:	1205                	addi	tp,tp,-31
     794:	18090003          	lb	zero,384(s2)
     798:	0100                	addi	s0,sp,128
     79a:	1705                	addi	a4,a4,-31
     79c:	04090303          	lb	t1,64(s2)
     7a0:	0100                	addi	s0,sp,128
     7a2:	2305                	jal	cc2 <_min_stack-0x133e>
     7a4:	04090003          	lb	zero,64(s2)
     7a8:	0100                	addi	s0,sp,128
     7aa:	2105                	jal	bca <_min_stack-0x1436>
     7ac:	08090003          	lb	zero,128(s2)
     7b0:	0100                	addi	s0,sp,128
     7b2:	1005                	c.nop	-31
     7b4:	10090003          	lb	zero,256(s2)
     7b8:	0100                	addi	s0,sp,128
     7ba:	0705                	addi	a4,a4,1
     7bc:	0200                	addi	s0,sp,256
     7be:	0204                	addi	s1,sp,256
     7c0:	0c090e03          	lb	t3,192(s2)
     7c4:	0100                	addi	s0,sp,128
     7c6:	1505                	addi	a0,a0,-31
     7c8:	0200                	addi	s0,sp,256
     7ca:	0204                	addi	s1,sp,256
     7cc:	0c090003          	lb	zero,192(s2)
     7d0:	0100                	addi	s0,sp,128
     7d2:	1105                	addi	sp,sp,-31
     7d4:	0200                	addi	s0,sp,256
     7d6:	0204                	addi	s1,sp,256
     7d8:	08090003          	lb	zero,128(s2)
     7dc:	0100                	addi	s0,sp,128
     7de:	1f05                	addi	t5,t5,-31
     7e0:	0200                	addi	s0,sp,256
     7e2:	0204                	addi	s1,sp,256
     7e4:	08090103          	lb	sp,128(s2)
     7e8:	0100                	addi	s0,sp,128
     7ea:	2e05                	jal	b1a <_min_stack-0x14e6>
     7ec:	0200                	addi	s0,sp,256
     7ee:	0204                	addi	s1,sp,256
     7f0:	10090003          	lb	zero,256(s2)
     7f4:	0100                	addi	s0,sp,128
     7f6:	0d05                	addi	s10,s10,1
     7f8:	0200                	addi	s0,sp,256
     7fa:	0204                	addi	s1,sp,256
     7fc:	04090003          	lb	zero,64(s2)
     800:	0100                	addi	s0,sp,128
     802:	1505                	addi	a0,a0,-31
     804:	0200                	addi	s0,sp,256
     806:	0204                	addi	s1,sp,256
     808:	0c090003          	lb	zero,192(s2)
     80c:	0100                	addi	s0,sp,128
     80e:	1f05                	addi	t5,t5,-31
     810:	0200                	addi	s0,sp,256
     812:	0204                	addi	s1,sp,256
     814:	0c090103          	lb	sp,192(s2)
     818:	0100                	addi	s0,sp,128
     81a:	2e05                	jal	b4a <_min_stack-0x14b6>
     81c:	0200                	addi	s0,sp,256
     81e:	0204                	addi	s1,sp,256
     820:	14090003          	lb	zero,320(s2)
     824:	0100                	addi	s0,sp,128
     826:	0d05                	addi	s10,s10,1
     828:	0200                	addi	s0,sp,256
     82a:	0204                	addi	s1,sp,256
     82c:	04090003          	lb	zero,64(s2)
     830:	0100                	addi	s0,sp,128
     832:	1505                	addi	a0,a0,-31
     834:	0200                	addi	s0,sp,256
     836:	0204                	addi	s1,sp,256
     838:	10090003          	lb	zero,256(s2)
     83c:	0100                	addi	s0,sp,128
     83e:	1f05                	addi	t5,t5,-31
     840:	0200                	addi	s0,sp,256
     842:	0204                	addi	s1,sp,256
     844:	0c090103          	lb	sp,192(s2)
     848:	0100                	addi	s0,sp,128
     84a:	2e05                	jal	b7a <_min_stack-0x1486>
     84c:	0200                	addi	s0,sp,256
     84e:	0204                	addi	s1,sp,256
     850:	14090003          	lb	zero,320(s2)
     854:	0100                	addi	s0,sp,128
     856:	0d05                	addi	s10,s10,1
     858:	0200                	addi	s0,sp,256
     85a:	0204                	addi	s1,sp,256
     85c:	04090003          	lb	zero,64(s2)
     860:	0100                	addi	s0,sp,128
     862:	1505                	addi	a0,a0,-31
     864:	0200                	addi	s0,sp,256
     866:	0204                	addi	s1,sp,256
     868:	10090003          	lb	zero,256(s2)
     86c:	0100                	addi	s0,sp,128
     86e:	1f05                	addi	t5,t5,-31
     870:	0200                	addi	s0,sp,256
     872:	0204                	addi	s1,sp,256
     874:	0c090103          	lb	sp,192(s2)
     878:	0100                	addi	s0,sp,128
     87a:	2e05                	jal	baa <_min_stack-0x1456>
     87c:	0200                	addi	s0,sp,256
     87e:	0204                	addi	s1,sp,256
     880:	14090003          	lb	zero,320(s2)
     884:	0100                	addi	s0,sp,128
     886:	0d05                	addi	s10,s10,1
     888:	0200                	addi	s0,sp,256
     88a:	0204                	addi	s1,sp,256
     88c:	04090003          	lb	zero,64(s2)
     890:	0100                	addi	s0,sp,128
     892:	1505                	addi	a0,a0,-31
     894:	0200                	addi	s0,sp,256
     896:	0204                	addi	s1,sp,256
     898:	10090003          	lb	zero,256(s2)
     89c:	0100                	addi	s0,sp,128
     89e:	2305                	jal	dbe <_min_stack-0x1242>
     8a0:	0200                	addi	s0,sp,256
     8a2:	0204                	addi	s1,sp,256
     8a4:	0c094a03          	lbu	s4,192(s2)
     8a8:	0100                	addi	s0,sp,128
     8aa:	0305                	addi	t1,t1,1
     8ac:	0200                	addi	s0,sp,256
     8ae:	0104                	addi	s1,sp,128
     8b0:	0c090003          	lb	zero,192(s2)
     8b4:	0100                	addi	s0,sp,128
     8b6:	0105                	addi	sp,sp,1
     8b8:	0c093803          	0xc093803
     8bc:	0100                	addi	s0,sp,128
     8be:	10090303          	lb	t1,256(s2)
     8c2:	0100                	addi	s0,sp,128
     8c4:	1305                	addi	t1,t1,-31
     8c6:	10090103          	lb	sp,256(s2)
     8ca:	0100                	addi	s0,sp,128
     8cc:	0305                	addi	t1,t1,1
     8ce:	04090003          	lb	zero,64(s2)
     8d2:	0100                	addi	s0,sp,128
     8d4:	0105                	addi	sp,sp,1
     8d6:	0c090103          	lb	sp,192(s2)
     8da:	0100                	addi	s0,sp,128
     8dc:	10090303          	lb	t1,256(s2)
     8e0:	0100                	addi	s0,sp,128
     8e2:	1305                	addi	t1,t1,-31
     8e4:	14090103          	lb	sp,320(s2)
     8e8:	0100                	addi	s0,sp,128
     8ea:	0305                	addi	t1,t1,1
     8ec:	04090003          	lb	zero,64(s2)
     8f0:	0100                	addi	s0,sp,128
     8f2:	0e05                	addi	t3,t3,1
     8f4:	0c090103          	lb	sp,192(s2)
     8f8:	0100                	addi	s0,sp,128
     8fa:	0305                	addi	t1,t1,1
     8fc:	08090003          	lb	zero,128(s2)
     900:	0100                	addi	s0,sp,128
     902:	0105                	addi	sp,sp,1
     904:	10090103          	lb	sp,256(s2)
     908:	0100                	addi	s0,sp,128
     90a:	10090203          	lb	tp,256(s2)
     90e:	0100                	addi	s0,sp,128
     910:	0e05                	addi	t3,t3,1
     912:	10090103          	lb	sp,256(s2)
     916:	0100                	addi	s0,sp,128
     918:	0305                	addi	t1,t1,1
     91a:	08090003          	lb	zero,128(s2)
     91e:	0100                	addi	s0,sp,128
     920:	0105                	addi	sp,sp,1
     922:	10090103          	lb	sp,256(s2)
     926:	0100                	addi	s0,sp,128
     928:	10090603          	lb	a2,256(s2)
     92c:	0100                	addi	s0,sp,128
     92e:	0a05                	addi	s4,s4,1
     930:	14090203          	lb	tp,320(s2)
     934:	0100                	addi	s0,sp,128
     936:	0305                	addi	t1,t1,1
     938:	04090003          	lb	zero,64(s2)
     93c:	0100                	addi	s0,sp,128
     93e:	0c05                	addi	s8,s8,1
     940:	04090203          	lb	tp,64(s2)
     944:	0100                	addi	s0,sp,128
     946:	0505                	addi	a0,a0,1
     948:	04090003          	lb	zero,64(s2)
     94c:	0100                	addi	s0,sp,128
     94e:	1605                	addi	a2,a2,-31
     950:	0200                	addi	s0,sp,256
     952:	0304                	addi	s1,sp,384
     954:	04090203          	lb	tp,64(s2)
     958:	0100                	addi	s0,sp,128
     95a:	3305                	jal	67a <_min_stack-0x1986>
     95c:	0200                	addi	s0,sp,256
     95e:	0304                	addi	s1,sp,384
     960:	1c090003          	lb	zero,448(s2)
     964:	0100                	addi	s0,sp,128
     966:	3e05                	jal	496 <_min_stack-0x1b6a>
     968:	0200                	addi	s0,sp,256
     96a:	0304                	addi	s1,sp,384
     96c:	14090003          	lb	zero,320(s2)
     970:	0100                	addi	s0,sp,128
     972:	2105                	jal	d92 <_min_stack-0x126e>
     974:	0200                	addi	s0,sp,256
     976:	0304                	addi	s1,sp,384
     978:	0c090003          	lb	zero,192(s2)
     97c:	0100                	addi	s0,sp,128
     97e:	1605                	addi	a2,a2,-31
     980:	0200                	addi	s0,sp,256
     982:	0304                	addi	s1,sp,384
     984:	0c090003          	lb	zero,192(s2)
     988:	0100                	addi	s0,sp,128
     98a:	1805                	addi	a6,a6,-31
     98c:	0200                	addi	s0,sp,256
     98e:	0304                	addi	s1,sp,384
     990:	24097e03          	0x24097e03
     994:	0100                	addi	s0,sp,128
     996:	0505                	addi	a0,a0,1
     998:	0200                	addi	s0,sp,256
     99a:	0104                	addi	s1,sp,128
     99c:	0c090003          	lb	zero,192(s2)
     9a0:	0100                	addi	s0,sp,128
     9a2:	1605                	addi	a2,a2,-31
     9a4:	0200                	addi	s0,sp,256
     9a6:	0204                	addi	s1,sp,256
     9a8:	0c097e03          	0xc097e03
     9ac:	0100                	addi	s0,sp,128
     9ae:	0305                	addi	t1,t1,1
     9b0:	0200                	addi	s0,sp,256
     9b2:	0104                	addi	s1,sp,128
     9b4:	0c090003          	lb	zero,192(s2)
     9b8:	0100                	addi	s0,sp,128
     9ba:	0105                	addi	sp,sp,1
     9bc:	0c090703          	lb	a4,192(s2)
     9c0:	0100                	addi	s0,sp,128
     9c2:	10090503          	lb	a0,256(s2)
     9c6:	0100                	addi	s0,sp,128
     9c8:	0a05                	addi	s4,s4,1
     9ca:	08090203          	lb	tp,128(s2)
     9ce:	0100                	addi	s0,sp,128
     9d0:	0305                	addi	t1,t1,1
     9d2:	04090003          	lb	zero,64(s2)
     9d6:	0100                	addi	s0,sp,128
     9d8:	0c05                	addi	s8,s8,1
     9da:	04090203          	lb	tp,64(s2)
     9de:	0100                	addi	s0,sp,128
     9e0:	0505                	addi	a0,a0,1
     9e2:	04090003          	lb	zero,64(s2)
     9e6:	0100                	addi	s0,sp,128
     9e8:	1805                	addi	a6,a6,-31
     9ea:	0200                	addi	s0,sp,256
     9ec:	0304                	addi	s1,sp,384
     9ee:	04090203          	lb	tp,64(s2)
     9f2:	0100                	addi	s0,sp,128
     9f4:	1205                	addi	tp,tp,-31
     9f6:	0200                	addi	s0,sp,256
     9f8:	0304                	addi	s1,sp,384
     9fa:	20090003          	lb	zero,512(s2)
     9fe:	0100                	addi	s0,sp,128
     a00:	1805                	addi	a6,a6,-31
     a02:	0200                	addi	s0,sp,256
     a04:	0304                	addi	s1,sp,384
     a06:	08090003          	lb	zero,128(s2)
     a0a:	0100                	addi	s0,sp,128
     a0c:	1605                	addi	a2,a2,-31
     a0e:	0200                	addi	s0,sp,256
     a10:	0304                	addi	s1,sp,384
     a12:	10090003          	lb	zero,256(s2)
     a16:	0100                	addi	s0,sp,128
     a18:	1805                	addi	a6,a6,-31
     a1a:	0200                	addi	s0,sp,256
     a1c:	0304                	addi	s1,sp,384
     a1e:	14097e03          	0x14097e03
     a22:	0100                	addi	s0,sp,128
     a24:	0505                	addi	a0,a0,1
     a26:	0200                	addi	s0,sp,256
     a28:	0104                	addi	s1,sp,128
     a2a:	0c090003          	lb	zero,192(s2)
     a2e:	0100                	addi	s0,sp,128
     a30:	1605                	addi	a2,a2,-31
     a32:	0200                	addi	s0,sp,256
     a34:	0204                	addi	s1,sp,256
     a36:	0c097e03          	0xc097e03
     a3a:	0100                	addi	s0,sp,128
     a3c:	0305                	addi	t1,t1,1
     a3e:	0200                	addi	s0,sp,256
     a40:	0104                	addi	s1,sp,128
     a42:	0c090003          	lb	zero,192(s2)
     a46:	0100                	addi	s0,sp,128
     a48:	0105                	addi	sp,sp,1
     a4a:	0c090703          	lb	a4,192(s2)
     a4e:	0100                	addi	s0,sp,128
     a50:	10090603          	lb	a2,256(s2)
     a54:	0100                	addi	s0,sp,128
     a56:	1205                	addi	tp,tp,-31
     a58:	08090403          	lb	s0,128(s2)
     a5c:	0100                	addi	s0,sp,128
     a5e:	1f05                	addi	t5,t5,-31
     a60:	0c090103          	lb	sp,192(s2)
     a64:	0100                	addi	s0,sp,128
     a66:	1205                	addi	tp,tp,-31
     a68:	08090003          	lb	zero,128(s2)
     a6c:	0100                	addi	s0,sp,128
     a6e:	1f05                	addi	t5,t5,-31
     a70:	08090103          	lb	sp,128(s2)
     a74:	0100                	addi	s0,sp,128
     a76:	1205                	addi	tp,tp,-31
     a78:	08090003          	lb	zero,128(s2)
     a7c:	0100                	addi	s0,sp,128
     a7e:	1f05                	addi	t5,t5,-31
     a80:	08090103          	lb	sp,128(s2)
     a84:	0100                	addi	s0,sp,128
     a86:	1205                	addi	tp,tp,-31
     a88:	08090003          	lb	zero,128(s2)
     a8c:	0100                	addi	s0,sp,128
     a8e:	08090103          	lb	sp,128(s2)
     a92:	0100                	addi	s0,sp,128
     a94:	0c090303          	lb	t1,192(s2)
     a98:	0100                	addi	s0,sp,128
     a9a:	1f05                	addi	t5,t5,-31
     a9c:	0c090103          	lb	sp,192(s2)
     aa0:	0100                	addi	s0,sp,128
     aa2:	1205                	addi	tp,tp,-31
     aa4:	08090003          	lb	zero,128(s2)
     aa8:	0100                	addi	s0,sp,128
     aaa:	08090103          	lb	sp,128(s2)
     aae:	0100                	addi	s0,sp,128
     ab0:	0c090203          	lb	tp,192(s2)
     ab4:	0100                	addi	s0,sp,128
     ab6:	1f05                	addi	t5,t5,-31
     ab8:	0c090103          	lb	sp,192(s2)
     abc:	0100                	addi	s0,sp,128
     abe:	1205                	addi	tp,tp,-31
     ac0:	08090003          	lb	zero,128(s2)
     ac4:	0100                	addi	s0,sp,128
     ac6:	08090103          	lb	sp,128(s2)
     aca:	0100                	addi	s0,sp,128
     acc:	0c090303          	lb	t1,192(s2)
     ad0:	0100                	addi	s0,sp,128
     ad2:	1f05                	addi	t5,t5,-31
     ad4:	0c090103          	lb	sp,192(s2)
     ad8:	0100                	addi	s0,sp,128
     ada:	1205                	addi	tp,tp,-31
     adc:	08090003          	lb	zero,128(s2)
     ae0:	0100                	addi	s0,sp,128
     ae2:	1f05                	addi	t5,t5,-31
     ae4:	08090103          	lb	sp,128(s2)
     ae8:	0100                	addi	s0,sp,128
     aea:	1205                	addi	tp,tp,-31
     aec:	08090003          	lb	zero,128(s2)
     af0:	0100                	addi	s0,sp,128
     af2:	1f05                	addi	t5,t5,-31
     af4:	08090103          	lb	sp,128(s2)
     af8:	0100                	addi	s0,sp,128
     afa:	1205                	addi	tp,tp,-31
     afc:	08090003          	lb	zero,128(s2)
     b00:	0100                	addi	s0,sp,128
     b02:	08090103          	lb	sp,128(s2)
     b06:	0100                	addi	s0,sp,128
     b08:	0105                	addi	sp,sp,1
     b0a:	0c090103          	lb	sp,192(s2)
     b0e:	0100                	addi	s0,sp,128
     b10:	0c090303          	lb	t1,192(s2)
     b14:	0100                	addi	s0,sp,128
     b16:	0d05                	addi	s10,s10,1
     b18:	0c090103          	lb	sp,192(s2)
     b1c:	0100                	addi	s0,sp,128
     b1e:	1205                	addi	tp,tp,-31
     b20:	08090003          	lb	zero,128(s2)
     b24:	0100                	addi	s0,sp,128
     b26:	0105                	addi	sp,sp,1
     b28:	44090103          	lb	sp,1088(s2)
     b2c:	0100                	addi	s0,sp,128
     b2e:	0c090403          	lb	s0,192(s2)
     b32:	0100                	addi	s0,sp,128
     b34:	0a05                	addi	s4,s4,1
     b36:	0c090303          	lb	t1,192(s2)
     b3a:	0100                	addi	s0,sp,128
     b3c:	0305                	addi	t1,t1,1
     b3e:	04090003          	lb	zero,64(s2)
     b42:	0100                	addi	s0,sp,128
     b44:	1605                	addi	a2,a2,-31
     b46:	0200                	addi	s0,sp,256
     b48:	0304                	addi	s1,sp,384
     b4a:	04090203          	lb	tp,64(s2)
     b4e:	0100                	addi	s0,sp,128
     b50:	0905                	addi	s2,s2,1
     b52:	0200                	addi	s0,sp,256
     b54:	0304                	addi	s1,sp,384
     b56:	04090003          	lb	zero,64(s2)
     b5a:	0100                	addi	s0,sp,128
     b5c:	1605                	addi	a2,a2,-31
     b5e:	0200                	addi	s0,sp,256
     b60:	0304                	addi	s1,sp,384
     b62:	14090103          	lb	sp,320(s2)
     b66:	0100                	addi	s0,sp,128
     b68:	2705                	jal	1288 <_min_stack-0xd78>
     b6a:	0200                	addi	s0,sp,256
     b6c:	0304                	addi	s1,sp,384
     b6e:	14090003          	lb	zero,320(s2)
     b72:	0100                	addi	s0,sp,128
     b74:	0905                	addi	s2,s2,1
     b76:	0200                	addi	s0,sp,256
     b78:	0304                	addi	s1,sp,384
     b7a:	14090003          	lb	zero,320(s2)
     b7e:	0100                	addi	s0,sp,128
     b80:	3805                	jal	3b0 <_min_stack-0x1c50>
     b82:	0200                	addi	s0,sp,256
     b84:	0304                	addi	s1,sp,384
     b86:	08090003          	lb	zero,128(s2)
     b8a:	0100                	addi	s0,sp,128
     b8c:	0905                	addi	s2,s2,1
     b8e:	0200                	addi	s0,sp,256
     b90:	0304                	addi	s1,sp,384
     b92:	14090003          	lb	zero,320(s2)
     b96:	0100                	addi	s0,sp,128
     b98:	4905                	li	s2,1
     b9a:	0200                	addi	s0,sp,256
     b9c:	0304                	addi	s1,sp,384
     b9e:	08090003          	lb	zero,128(s2)
     ba2:	0100                	addi	s0,sp,128
     ba4:	0905                	addi	s2,s2,1
     ba6:	0200                	addi	s0,sp,256
     ba8:	0304                	addi	s1,sp,384
     baa:	14090003          	lb	zero,320(s2)
     bae:	0100                	addi	s0,sp,128
     bb0:	1605                	addi	a2,a2,-31
     bb2:	0200                	addi	s0,sp,256
     bb4:	0304                	addi	s1,sp,384
     bb6:	08090103          	lb	sp,128(s2)
     bba:	0100                	addi	s0,sp,128
     bbc:	2705                	jal	12dc <_min_stack-0xd24>
     bbe:	0200                	addi	s0,sp,256
     bc0:	0304                	addi	s1,sp,384
     bc2:	14090003          	lb	zero,320(s2)
     bc6:	0100                	addi	s0,sp,128
     bc8:	0905                	addi	s2,s2,1
     bca:	0200                	addi	s0,sp,256
     bcc:	0304                	addi	s1,sp,384
     bce:	14090003          	lb	zero,320(s2)
     bd2:	0100                	addi	s0,sp,128
     bd4:	3205                	jal	4f4 <_min_stack-0x1b0c>
     bd6:	0200                	addi	s0,sp,256
     bd8:	0304                	addi	s1,sp,384
     bda:	08090003          	lb	zero,128(s2)
     bde:	0100                	addi	s0,sp,128
     be0:	4d05                	li	s10,1
     be2:	0200                	addi	s0,sp,256
     be4:	0304                	addi	s1,sp,384
     be6:	14090003          	lb	zero,320(s2)
     bea:	0100                	addi	s0,sp,128
     bec:	1605                	addi	a2,a2,-31
     bee:	0200                	addi	s0,sp,256
     bf0:	0304                	addi	s1,sp,384
     bf2:	40090103          	lb	sp,1024(s2)
     bf6:	0100                	addi	s0,sp,128
     bf8:	2705                	jal	1318 <_min_stack-0xce8>
     bfa:	0200                	addi	s0,sp,256
     bfc:	0304                	addi	s1,sp,384
     bfe:	14090003          	lb	zero,320(s2)
     c02:	0100                	addi	s0,sp,128
     c04:	0905                	addi	s2,s2,1
     c06:	0200                	addi	s0,sp,256
     c08:	0304                	addi	s1,sp,384
     c0a:	14090003          	lb	zero,320(s2)
     c0e:	0100                	addi	s0,sp,128
     c10:	3205                	jal	530 <_min_stack-0x1ad0>
     c12:	0200                	addi	s0,sp,256
     c14:	0304                	addi	s1,sp,384
     c16:	08090003          	lb	zero,128(s2)
     c1a:	0100                	addi	s0,sp,128
     c1c:	4d05                	li	s10,1
     c1e:	0200                	addi	s0,sp,256
     c20:	0304                	addi	s1,sp,384
     c22:	14090003          	lb	zero,320(s2)
     c26:	0100                	addi	s0,sp,128
     c28:	1605                	addi	a2,a2,-31
     c2a:	0200                	addi	s0,sp,256
     c2c:	0304                	addi	s1,sp,384
     c2e:	40090103          	lb	sp,1024(s2)
     c32:	0100                	addi	s0,sp,128
     c34:	2705                	jal	1354 <_min_stack-0xcac>
     c36:	0200                	addi	s0,sp,256
     c38:	0304                	addi	s1,sp,384
     c3a:	14090003          	lb	zero,320(s2)
     c3e:	0100                	addi	s0,sp,128
     c40:	0905                	addi	s2,s2,1
     c42:	0200                	addi	s0,sp,256
     c44:	0304                	addi	s1,sp,384
     c46:	14090003          	lb	zero,320(s2)
     c4a:	0100                	addi	s0,sp,128
     c4c:	3205                	jal	56c <_min_stack-0x1a94>
     c4e:	0200                	addi	s0,sp,256
     c50:	0304                	addi	s1,sp,384
     c52:	08090003          	lb	zero,128(s2)
     c56:	0100                	addi	s0,sp,128
     c58:	4d05                	li	s10,1
     c5a:	0200                	addi	s0,sp,256
     c5c:	0304                	addi	s1,sp,384
     c5e:	14090003          	lb	zero,320(s2)
     c62:	0100                	addi	s0,sp,128
     c64:	1605                	addi	a2,a2,-31
     c66:	0200                	addi	s0,sp,256
     c68:	0304                	addi	s1,sp,384
     c6a:	40090103          	lb	sp,1024(s2)
     c6e:	0100                	addi	s0,sp,128
     c70:	0905                	addi	s2,s2,1
     c72:	0200                	addi	s0,sp,256
     c74:	0304                	addi	s1,sp,384
     c76:	14090003          	lb	zero,320(s2)
     c7a:	0100                	addi	s0,sp,128
     c7c:	3205                	jal	59c <_min_stack-0x1a64>
     c7e:	0200                	addi	s0,sp,256
     c80:	0304                	addi	s1,sp,384
     c82:	0c090003          	lb	zero,192(s2)
     c86:	0100                	addi	s0,sp,128
     c88:	4d05                	li	s10,1
     c8a:	0200                	addi	s0,sp,256
     c8c:	0304                	addi	s1,sp,384
     c8e:	14090003          	lb	zero,320(s2)
     c92:	0100                	addi	s0,sp,128
     c94:	1605                	addi	a2,a2,-31
     c96:	0200                	addi	s0,sp,256
     c98:	0304                	addi	s1,sp,384
     c9a:	40097903          	0x40097903
     c9e:	0100                	addi	s0,sp,128
     ca0:	0305                	addi	t1,t1,1
     ca2:	0200                	addi	s0,sp,256
     ca4:	0104                	addi	s1,sp,128
     ca6:	0c090003          	lb	zero,192(s2)
     caa:	0100                	addi	s0,sp,128
     cac:	0105                	addi	sp,sp,1
     cae:	0c090903          	lb	s2,192(s2)
     cb2:	0100                	addi	s0,sp,128
     cb4:	14091e03          	lh	t3,320(s2)
     cb8:	0100                	addi	s0,sp,128
     cba:	0a05                	addi	s4,s4,1
     cbc:	14090303          	lb	t1,320(s2)
     cc0:	0100                	addi	s0,sp,128
     cc2:	0305                	addi	t1,t1,1
     cc4:	04090003          	lb	zero,64(s2)
     cc8:	0100                	addi	s0,sp,128
     cca:	0705                	addi	a4,a4,1
     ccc:	0200                	addi	s0,sp,256
     cce:	0304                	addi	s1,sp,384
     cd0:	04090203          	lb	tp,64(s2)
     cd4:	0100                	addi	s0,sp,128
     cd6:	0200                	addi	s0,sp,256
     cd8:	0304                	addi	s1,sp,384
     cda:	18090103          	lb	sp,384(s2)
     cde:	0100                	addi	s0,sp,128
     ce0:	0200                	addi	s0,sp,256
     ce2:	0304                	addi	s1,sp,384
     ce4:	18090103          	lb	sp,384(s2)
     ce8:	0100                	addi	s0,sp,128
     cea:	0200                	addi	s0,sp,256
     cec:	0304                	addi	s1,sp,384
     cee:	18090103          	lb	sp,384(s2)
     cf2:	0100                	addi	s0,sp,128
     cf4:	1605                	addi	a2,a2,-31
     cf6:	0200                	addi	s0,sp,256
     cf8:	0304                	addi	s1,sp,384
     cfa:	18090203          	lb	tp,384(s2)
     cfe:	0100                	addi	s0,sp,128
     d00:	2a05                	jal	e30 <_min_stack-0x11d0>
     d02:	0200                	addi	s0,sp,256
     d04:	0304                	addi	s1,sp,384
     d06:	30090003          	lb	zero,768(s2)
     d0a:	0100                	addi	s0,sp,128
     d0c:	3e05                	jal	83c <_min_stack-0x17c4>
     d0e:	0200                	addi	s0,sp,256
     d10:	0304                	addi	s1,sp,384
     d12:	48090003          	lb	zero,1152(s2)
     d16:	0100                	addi	s0,sp,128
     d18:	5205                	li	tp,-31
     d1a:	0200                	addi	s0,sp,256
     d1c:	0304                	addi	s1,sp,384
     d1e:	3c090003          	lb	zero,960(s2)
     d22:	0100                	addi	s0,sp,128
     d24:	1605                	addi	a2,a2,-31
     d26:	0200                	addi	s0,sp,256
     d28:	0304                	addi	s1,sp,384
     d2a:	54090003          	lb	zero,1344(s2)
     d2e:	0100                	addi	s0,sp,128
     d30:	2a05                	jal	e60 <_min_stack-0x11a0>
     d32:	0200                	addi	s0,sp,256
     d34:	0304                	addi	s1,sp,384
     d36:	68090003          	lb	zero,1664(s2)
     d3a:	0100                	addi	s0,sp,128
     d3c:	2805                	jal	d6c <_min_stack-0x1294>
     d3e:	0200                	addi	s0,sp,256
     d40:	0304                	addi	s1,sp,384
     d42:	50090003          	lb	zero,1280(s2)
     d46:	0100                	addi	s0,sp,128
     d48:	3e05                	jal	878 <_min_stack-0x1788>
     d4a:	0200                	addi	s0,sp,256
     d4c:	0304                	addi	s1,sp,384
     d4e:	08090003          	lb	zero,128(s2)
     d52:	0100                	addi	s0,sp,128
     d54:	3c05                	jal	784 <_min_stack-0x187c>
     d56:	0200                	addi	s0,sp,256
     d58:	0304                	addi	s1,sp,384
     d5a:	5c090003          	lb	zero,1472(s2)
     d5e:	0100                	addi	s0,sp,128
     d60:	5205                	li	tp,-31
     d62:	0200                	addi	s0,sp,256
     d64:	0304                	addi	s1,sp,384
     d66:	08090003          	lb	zero,128(s2)
     d6a:	0100                	addi	s0,sp,128
     d6c:	5005                	c.li	zero,-31
     d6e:	0200                	addi	s0,sp,256
     d70:	0304                	addi	s1,sp,384
     d72:	38090003          	lb	zero,896(s2)
     d76:	0100                	addi	s0,sp,128
     d78:	1405                	addi	s0,s0,-31
     d7a:	0200                	addi	s0,sp,256
     d7c:	0304                	addi	s1,sp,384
     d7e:	08090003          	lb	zero,128(s2)
     d82:	0100                	addi	s0,sp,128
     d84:	1605                	addi	a2,a2,-31
     d86:	0200                	addi	s0,sp,256
     d88:	0304                	addi	s1,sp,384
     d8a:	14090103          	lb	sp,320(s2)
     d8e:	0100                	addi	s0,sp,128
     d90:	2a05                	jal	ec0 <_min_stack-0x1140>
     d92:	0200                	addi	s0,sp,256
     d94:	0304                	addi	s1,sp,384
     d96:	54090003          	lb	zero,1344(s2)
     d9a:	0100                	addi	s0,sp,128
     d9c:	3e05                	jal	8cc <_min_stack-0x1734>
     d9e:	0200                	addi	s0,sp,256
     da0:	0304                	addi	s1,sp,384
     da2:	30090003          	lb	zero,768(s2)
     da6:	0100                	addi	s0,sp,128
     da8:	5205                	li	tp,-31
     daa:	0200                	addi	s0,sp,256
     dac:	0304                	addi	s1,sp,384
     dae:	48090003          	lb	zero,1152(s2)
     db2:	0100                	addi	s0,sp,128
     db4:	1605                	addi	a2,a2,-31
     db6:	0200                	addi	s0,sp,256
     db8:	0304                	addi	s1,sp,384
     dba:	3c090003          	lb	zero,960(s2)
     dbe:	0100                	addi	s0,sp,128
     dc0:	2a05                	jal	ef0 <_min_stack-0x1110>
     dc2:	0200                	addi	s0,sp,256
     dc4:	0304                	addi	s1,sp,384
     dc6:	38090003          	lb	zero,896(s2)
     dca:	0100                	addi	s0,sp,128
     dcc:	2805                	jal	dfc <_min_stack-0x1204>
     dce:	0200                	addi	s0,sp,256
     dd0:	0304                	addi	s1,sp,384
     dd2:	68090003          	lb	zero,1664(s2)
     dd6:	0100                	addi	s0,sp,128
     dd8:	3e05                	jal	908 <_min_stack-0x16f8>
     dda:	0200                	addi	s0,sp,256
     ddc:	0304                	addi	s1,sp,384
     dde:	08090003          	lb	zero,128(s2)
     de2:	0100                	addi	s0,sp,128
     de4:	3c05                	jal	814 <_min_stack-0x17ec>
     de6:	0200                	addi	s0,sp,256
     de8:	0304                	addi	s1,sp,384
     dea:	50090003          	lb	zero,1280(s2)
     dee:	0100                	addi	s0,sp,128
     df0:	5205                	li	tp,-31
     df2:	0200                	addi	s0,sp,256
     df4:	0304                	addi	s1,sp,384
     df6:	08090003          	lb	zero,128(s2)
     dfa:	0100                	addi	s0,sp,128
     dfc:	5005                	c.li	zero,-31
     dfe:	0200                	addi	s0,sp,256
     e00:	0304                	addi	s1,sp,384
     e02:	5c090003          	lb	zero,1472(s2)
     e06:	0100                	addi	s0,sp,128
     e08:	1405                	addi	s0,s0,-31
     e0a:	0200                	addi	s0,sp,256
     e0c:	0304                	addi	s1,sp,384
     e0e:	08090003          	lb	zero,128(s2)
     e12:	0100                	addi	s0,sp,128
     e14:	1605                	addi	a2,a2,-31
     e16:	0200                	addi	s0,sp,256
     e18:	0304                	addi	s1,sp,384
     e1a:	14090103          	lb	sp,320(s2)
     e1e:	0100                	addi	s0,sp,128
     e20:	2a05                	jal	f50 <_min_stack-0x10b0>
     e22:	0200                	addi	s0,sp,256
     e24:	0304                	addi	s1,sp,384
     e26:	3c090003          	lb	zero,960(s2)
     e2a:	0100                	addi	s0,sp,128
     e2c:	3e05                	jal	95c <_min_stack-0x16a4>
     e2e:	0200                	addi	s0,sp,256
     e30:	0304                	addi	s1,sp,384
     e32:	54090003          	lb	zero,1344(s2)
     e36:	0100                	addi	s0,sp,128
     e38:	5205                	li	tp,-31
     e3a:	0200                	addi	s0,sp,256
     e3c:	0304                	addi	s1,sp,384
     e3e:	30090003          	lb	zero,768(s2)
     e42:	0100                	addi	s0,sp,128
     e44:	1605                	addi	a2,a2,-31
     e46:	0200                	addi	s0,sp,256
     e48:	0304                	addi	s1,sp,384
     e4a:	48090003          	lb	zero,1152(s2)
     e4e:	0100                	addi	s0,sp,128
     e50:	2a05                	jal	f80 <_min_stack-0x1080>
     e52:	0200                	addi	s0,sp,256
     e54:	0304                	addi	s1,sp,384
     e56:	5c090003          	lb	zero,1472(s2)
     e5a:	0100                	addi	s0,sp,128
     e5c:	2805                	jal	e8c <_min_stack-0x1174>
     e5e:	0200                	addi	s0,sp,256
     e60:	0304                	addi	s1,sp,384
     e62:	38090003          	lb	zero,896(s2)
     e66:	0100                	addi	s0,sp,128
     e68:	3e05                	jal	998 <_min_stack-0x1668>
     e6a:	0200                	addi	s0,sp,256
     e6c:	0304                	addi	s1,sp,384
     e6e:	08090003          	lb	zero,128(s2)
     e72:	0100                	addi	s0,sp,128
     e74:	3c05                	jal	8a4 <_min_stack-0x175c>
     e76:	0200                	addi	s0,sp,256
     e78:	0304                	addi	s1,sp,384
     e7a:	68090003          	lb	zero,1664(s2)
     e7e:	0100                	addi	s0,sp,128
     e80:	5205                	li	tp,-31
     e82:	0200                	addi	s0,sp,256
     e84:	0304                	addi	s1,sp,384
     e86:	08090003          	lb	zero,128(s2)
     e8a:	0100                	addi	s0,sp,128
     e8c:	5005                	c.li	zero,-31
     e8e:	0200                	addi	s0,sp,256
     e90:	0304                	addi	s1,sp,384
     e92:	50090003          	lb	zero,1280(s2)
     e96:	0100                	addi	s0,sp,128
     e98:	1405                	addi	s0,s0,-31
     e9a:	0200                	addi	s0,sp,256
     e9c:	0304                	addi	s1,sp,384
     e9e:	08090003          	lb	zero,128(s2)
     ea2:	0100                	addi	s0,sp,128
     ea4:	1605                	addi	a2,a2,-31
     ea6:	0200                	addi	s0,sp,256
     ea8:	0304                	addi	s1,sp,384
     eaa:	14090103          	lb	sp,320(s2)
     eae:	0100                	addi	s0,sp,128
     eb0:	2a05                	jal	fe0 <_min_stack-0x1020>
     eb2:	0200                	addi	s0,sp,256
     eb4:	0304                	addi	s1,sp,384
     eb6:	48090003          	lb	zero,1152(s2)
     eba:	0100                	addi	s0,sp,128
     ebc:	3e05                	jal	9ec <_min_stack-0x1614>
     ebe:	0200                	addi	s0,sp,256
     ec0:	0304                	addi	s1,sp,384
     ec2:	3c090003          	lb	zero,960(s2)
     ec6:	0100                	addi	s0,sp,128
     ec8:	5205                	li	tp,-31
     eca:	0200                	addi	s0,sp,256
     ecc:	0304                	addi	s1,sp,384
     ece:	54090003          	lb	zero,1344(s2)
     ed2:	0100                	addi	s0,sp,128
     ed4:	1605                	addi	a2,a2,-31
     ed6:	0200                	addi	s0,sp,256
     ed8:	0304                	addi	s1,sp,384
     eda:	30090003          	lb	zero,768(s2)
     ede:	0100                	addi	s0,sp,128
     ee0:	2a05                	jal	1010 <_min_stack-0xff0>
     ee2:	0200                	addi	s0,sp,256
     ee4:	0304                	addi	s1,sp,384
     ee6:	50090003          	lb	zero,1280(s2)
     eea:	0100                	addi	s0,sp,128
     eec:	2805                	jal	f1c <_min_stack-0x10e4>
     eee:	0200                	addi	s0,sp,256
     ef0:	0304                	addi	s1,sp,384
     ef2:	5c090003          	lb	zero,1472(s2)
     ef6:	0100                	addi	s0,sp,128
     ef8:	3e05                	jal	a28 <_min_stack-0x15d8>
     efa:	0200                	addi	s0,sp,256
     efc:	0304                	addi	s1,sp,384
     efe:	08090003          	lb	zero,128(s2)
     f02:	0100                	addi	s0,sp,128
     f04:	3c05                	jal	934 <_min_stack-0x16cc>
     f06:	0200                	addi	s0,sp,256
     f08:	0304                	addi	s1,sp,384
     f0a:	38090003          	lb	zero,896(s2)
     f0e:	0100                	addi	s0,sp,128
     f10:	5205                	li	tp,-31
     f12:	0200                	addi	s0,sp,256
     f14:	0304                	addi	s1,sp,384
     f16:	08090003          	lb	zero,128(s2)
     f1a:	0100                	addi	s0,sp,128
     f1c:	5005                	c.li	zero,-31
     f1e:	0200                	addi	s0,sp,256
     f20:	0304                	addi	s1,sp,384
     f22:	68090003          	lb	zero,1664(s2)
     f26:	0100                	addi	s0,sp,128
     f28:	1405                	addi	s0,s0,-31
     f2a:	0200                	addi	s0,sp,256
     f2c:	0304                	addi	s1,sp,384
     f2e:	08090003          	lb	zero,128(s2)
     f32:	0100                	addi	s0,sp,128
     f34:	1605                	addi	a2,a2,-31
     f36:	0200                	addi	s0,sp,256
     f38:	0304                	addi	s1,sp,384
     f3a:	14097603          	0x14097603
     f3e:	0100                	addi	s0,sp,128
     f40:	0305                	addi	t1,t1,1
     f42:	0200                	addi	s0,sp,256
     f44:	0104                	addi	s1,sp,128
     f46:	0c090003          	lb	zero,192(s2)
     f4a:	0100                	addi	s0,sp,128
     f4c:	0105                	addi	sp,sp,1
     f4e:	0c090c03          	lb	s8,192(s2)
     f52:	0100                	addi	s0,sp,128
     f54:	1c090603          	lb	a2,448(s2)
     f58:	0100                	addi	s0,sp,128
     f5a:	0a05                	addi	s4,s4,1
     f5c:	08090203          	lb	tp,128(s2)
     f60:	0100                	addi	s0,sp,128
     f62:	0305                	addi	t1,t1,1
     f64:	04090003          	lb	zero,64(s2)
     f68:	0100                	addi	s0,sp,128
     f6a:	0c05                	addi	s8,s8,1
     f6c:	04090203          	lb	tp,64(s2)
     f70:	0100                	addi	s0,sp,128
     f72:	0505                	addi	a0,a0,1
     f74:	04090003          	lb	zero,64(s2)
     f78:	0100                	addi	s0,sp,128
     f7a:	1805                	addi	a6,a6,-31
     f7c:	0200                	addi	s0,sp,256
     f7e:	0304                	addi	s1,sp,384
     f80:	04090203          	lb	tp,64(s2)
     f84:	0100                	addi	s0,sp,128
     f86:	1205                	addi	tp,tp,-31
     f88:	0200                	addi	s0,sp,256
     f8a:	0304                	addi	s1,sp,384
     f8c:	20090003          	lb	zero,512(s2)
     f90:	0100                	addi	s0,sp,128
     f92:	1805                	addi	a6,a6,-31
     f94:	0200                	addi	s0,sp,256
     f96:	0304                	addi	s1,sp,384
     f98:	08090003          	lb	zero,128(s2)
     f9c:	0100                	addi	s0,sp,128
     f9e:	1605                	addi	a2,a2,-31
     fa0:	0200                	addi	s0,sp,256
     fa2:	0304                	addi	s1,sp,384
     fa4:	10090003          	lb	zero,256(s2)
     fa8:	0100                	addi	s0,sp,128
     faa:	1805                	addi	a6,a6,-31
     fac:	0200                	addi	s0,sp,256
     fae:	0304                	addi	s1,sp,384
     fb0:	14097e03          	0x14097e03
     fb4:	0100                	addi	s0,sp,128
     fb6:	0505                	addi	a0,a0,1
     fb8:	0200                	addi	s0,sp,256
     fba:	0104                	addi	s1,sp,128
     fbc:	0c090003          	lb	zero,192(s2)
     fc0:	0100                	addi	s0,sp,128
     fc2:	1605                	addi	a2,a2,-31
     fc4:	0200                	addi	s0,sp,256
     fc6:	0204                	addi	s1,sp,256
     fc8:	0c097e03          	0xc097e03
     fcc:	0100                	addi	s0,sp,128
     fce:	0305                	addi	t1,t1,1
     fd0:	0200                	addi	s0,sp,256
     fd2:	0104                	addi	s1,sp,128
     fd4:	0c090003          	lb	zero,192(s2)
     fd8:	0100                	addi	s0,sp,128
     fda:	0105                	addi	sp,sp,1
     fdc:	0c090703          	lb	a4,192(s2)
     fe0:	0100                	addi	s0,sp,128
     fe2:	10090303          	lb	t1,256(s2)
     fe6:	0100                	addi	s0,sp,128
     fe8:	0805                	addi	a6,a6,1
     fea:	08090403          	lb	s0,128(s2)
     fee:	0100                	addi	s0,sp,128
     ff0:	1f05                	addi	t5,t5,-31
     ff2:	0c090103          	lb	sp,192(s2)
     ff6:	0100                	addi	s0,sp,128
     ff8:	1205                	addi	tp,tp,-31
     ffa:	08090003          	lb	zero,128(s2)
     ffe:	0100                	addi	s0,sp,128
    1000:	1f05                	addi	t5,t5,-31
    1002:	08090103          	lb	sp,128(s2)
    1006:	0100                	addi	s0,sp,128
    1008:	1205                	addi	tp,tp,-31
    100a:	08090003          	lb	zero,128(s2)
    100e:	0100                	addi	s0,sp,128
    1010:	1f05                	addi	t5,t5,-31
    1012:	08090103          	lb	sp,128(s2)
    1016:	0100                	addi	s0,sp,128
    1018:	1205                	addi	tp,tp,-31
    101a:	08090003          	lb	zero,128(s2)
    101e:	0100                	addi	s0,sp,128
    1020:	08090103          	lb	sp,128(s2)
    1024:	0100                	addi	s0,sp,128
    1026:	0805                	addi	a6,a6,1
    1028:	0c090303          	lb	t1,192(s2)
    102c:	0100                	addi	s0,sp,128
    102e:	1f05                	addi	t5,t5,-31
    1030:	0c090103          	lb	sp,192(s2)
    1034:	0100                	addi	s0,sp,128
    1036:	1205                	addi	tp,tp,-31
    1038:	08090003          	lb	zero,128(s2)
    103c:	0100                	addi	s0,sp,128
    103e:	08090103          	lb	sp,128(s2)
    1042:	0100                	addi	s0,sp,128
    1044:	0805                	addi	a6,a6,1
    1046:	0c090203          	lb	tp,192(s2)
    104a:	0100                	addi	s0,sp,128
    104c:	1f05                	addi	t5,t5,-31
    104e:	0c090103          	lb	sp,192(s2)
    1052:	0100                	addi	s0,sp,128
    1054:	1205                	addi	tp,tp,-31
    1056:	08090003          	lb	zero,128(s2)
    105a:	0100                	addi	s0,sp,128
    105c:	08090103          	lb	sp,128(s2)
    1060:	0100                	addi	s0,sp,128
    1062:	0805                	addi	a6,a6,1
    1064:	0c090303          	lb	t1,192(s2)
    1068:	0100                	addi	s0,sp,128
    106a:	1f05                	addi	t5,t5,-31
    106c:	0c090103          	lb	sp,192(s2)
    1070:	0100                	addi	s0,sp,128
    1072:	1205                	addi	tp,tp,-31
    1074:	08090003          	lb	zero,128(s2)
    1078:	0100                	addi	s0,sp,128
    107a:	1f05                	addi	t5,t5,-31
    107c:	08090103          	lb	sp,128(s2)
    1080:	0100                	addi	s0,sp,128
    1082:	1205                	addi	tp,tp,-31
    1084:	08090003          	lb	zero,128(s2)
    1088:	0100                	addi	s0,sp,128
    108a:	1f05                	addi	t5,t5,-31
    108c:	08090103          	lb	sp,128(s2)
    1090:	0100                	addi	s0,sp,128
    1092:	1205                	addi	tp,tp,-31
    1094:	08090003          	lb	zero,128(s2)
    1098:	0100                	addi	s0,sp,128
    109a:	08090103          	lb	sp,128(s2)
    109e:	0100                	addi	s0,sp,128
    10a0:	0105                	addi	sp,sp,1
    10a2:	0c090103          	lb	sp,192(s2)
    10a6:	0100                	addi	s0,sp,128
    10a8:	0c090503          	lb	a0,192(s2)
    10ac:	0100                	addi	s0,sp,128
    10ae:	0b05                	addi	s6,s6,1
    10b0:	10090103          	lb	sp,256(s2)
    10b4:	0100                	addi	s0,sp,128
    10b6:	0305                	addi	t1,t1,1
    10b8:	04090303          	lb	t1,64(s2)
    10bc:	0100                	addi	s0,sp,128
    10be:	0e05                	addi	t3,t3,1
    10c0:	10090603          	lb	a2,256(s2)
    10c4:	0100                	addi	s0,sp,128
    10c6:	0505                	addi	a0,a0,1
    10c8:	08090203          	lb	tp,128(s2)
    10cc:	0100                	addi	s0,sp,128
    10ce:	08090103          	lb	sp,128(s2)
    10d2:	0100                	addi	s0,sp,128
    10d4:	0805                	addi	a6,a6,1
    10d6:	08090103          	lb	sp,128(s2)
    10da:	0100                	addi	s0,sp,128
    10dc:	0505                	addi	a0,a0,1
    10de:	0c090303          	lb	t1,192(s2)
    10e2:	0100                	addi	s0,sp,128
    10e4:	08090103          	lb	sp,128(s2)
    10e8:	0100                	addi	s0,sp,128
    10ea:	1505                	addi	a0,a0,-31
    10ec:	14097803          	0x14097803
    10f0:	0100                	addi	s0,sp,128
    10f2:	0505                	addi	a0,a0,1
    10f4:	0c090203          	lb	tp,192(s2)
    10f8:	0100                	addi	s0,sp,128
    10fa:	0705                	addi	a4,a4,1
    10fc:	04090303          	lb	t1,64(s2)
    1100:	0100                	addi	s0,sp,128
    1102:	0305                	addi	t1,t1,1
    1104:	04090603          	lb	a2,64(s2)
    1108:	0100                	addi	s0,sp,128
    110a:	0105                	addi	sp,sp,1
    110c:	10090103          	lb	sp,256(s2)
    1110:	0100                	addi	s0,sp,128
    1112:	10090403          	lb	s0,256(s2)
    1116:	0100                	addi	s0,sp,128
    1118:	0b05                	addi	s6,s6,1
    111a:	10090103          	lb	sp,256(s2)
    111e:	0100                	addi	s0,sp,128
    1120:	0305                	addi	t1,t1,1
    1122:	04090303          	lb	t1,64(s2)
    1126:	0100                	addi	s0,sp,128
    1128:	0e05                	addi	t3,t3,1
    112a:	10090603          	lb	a2,256(s2)
    112e:	0100                	addi	s0,sp,128
    1130:	0505                	addi	a0,a0,1
    1132:	08090203          	lb	tp,128(s2)
    1136:	0100                	addi	s0,sp,128
    1138:	08090103          	lb	sp,128(s2)
    113c:	0100                	addi	s0,sp,128
    113e:	08090103          	lb	sp,128(s2)
    1142:	0100                	addi	s0,sp,128
    1144:	0805                	addi	a6,a6,1
    1146:	14090103          	lb	sp,320(s2)
    114a:	0100                	addi	s0,sp,128
    114c:	0505                	addi	a0,a0,1
    114e:	08090303          	lb	t1,128(s2)
    1152:	0100                	addi	s0,sp,128
    1154:	1c05                	addi	s8,s8,-31
    1156:	08097803          	0x8097803
    115a:	0100                	addi	s0,sp,128
    115c:	0505                	addi	a0,a0,1
    115e:	0c090203          	lb	tp,192(s2)
    1162:	0100                	addi	s0,sp,128
    1164:	0705                	addi	a4,a4,1
    1166:	04090403          	lb	s0,64(s2)
    116a:	0100                	addi	s0,sp,128
    116c:	0105                	addi	sp,sp,1
    116e:	04090503          	lb	a0,64(s2)
    1172:	0100                	addi	s0,sp,128
    1174:	10090a03          	lb	s4,256(s2)
    1178:	0100                	addi	s0,sp,128
    117a:	1c05                	addi	s8,s8,-31
    117c:	10090203          	lb	tp,256(s2)
    1180:	0100                	addi	s0,sp,128
    1182:	0305                	addi	t1,t1,1
    1184:	04090003          	lb	zero,64(s2)
    1188:	0100                	addi	s0,sp,128
    118a:	0105                	addi	sp,sp,1
    118c:	0c090103          	lb	sp,192(s2)
    1190:	0100                	addi	s0,sp,128
    1192:	10090303          	lb	t1,256(s2)
    1196:	0100                	addi	s0,sp,128
    1198:	1f05                	addi	t5,t5,-31
    119a:	10090203          	lb	tp,256(s2)
    119e:	0100                	addi	s0,sp,128
    11a0:	0305                	addi	t1,t1,1
    11a2:	04090003          	lb	zero,64(s2)
    11a6:	0100                	addi	s0,sp,128
    11a8:	0105                	addi	sp,sp,1
    11aa:	0c090103          	lb	sp,192(s2)
    11ae:	0100                	addi	s0,sp,128
    11b0:	10090d03          	lb	s10,256(s2)
    11b4:	0100                	addi	s0,sp,128
    11b6:	0a05                	addi	s4,s4,1
    11b8:	0c090203          	lb	tp,192(s2)
    11bc:	0100                	addi	s0,sp,128
    11be:	0305                	addi	t1,t1,1
    11c0:	04090003          	lb	zero,64(s2)
    11c4:	0100                	addi	s0,sp,128
    11c6:	0c05                	addi	s8,s8,1
    11c8:	0200                	addi	s0,sp,256
    11ca:	0304                	addi	s1,sp,384
    11cc:	04090203          	lb	tp,64(s2)
    11d0:	0100                	addi	s0,sp,128
    11d2:	1105                	addi	sp,sp,-31
    11d4:	0200                	addi	s0,sp,256
    11d6:	0304                	addi	s1,sp,384
    11d8:	10090003          	lb	zero,256(s2)
    11dc:	0100                	addi	s0,sp,128
    11de:	0c05                	addi	s8,s8,1
    11e0:	0200                	addi	s0,sp,256
    11e2:	0304                	addi	s1,sp,384
    11e4:	10090003          	lb	zero,256(s2)
    11e8:	0100                	addi	s0,sp,128
    11ea:	2105                	jal	160a <_min_stack-0x9f6>
    11ec:	0200                	addi	s0,sp,256
    11ee:	0304                	addi	s1,sp,384
    11f0:	18097e03          	0x18097e03
    11f4:	0100                	addi	s0,sp,128
    11f6:	0305                	addi	t1,t1,1
    11f8:	0200                	addi	s0,sp,256
    11fa:	0104                	addi	s1,sp,128
    11fc:	0c090003          	lb	zero,192(s2)
    1200:	0100                	addi	s0,sp,128
    1202:	0105                	addi	sp,sp,1
    1204:	0c090403          	lb	s0,192(s2)
    1208:	0100                	addi	s0,sp,128
    120a:	10090303          	lb	t1,256(s2)
    120e:	0100                	addi	s0,sp,128
    1210:	0c05                	addi	s8,s8,1
    1212:	14090203          	lb	tp,320(s2)
    1216:	0100                	addi	s0,sp,128
    1218:	0a05                	addi	s4,s4,1
    121a:	0c090103          	lb	sp,192(s2)
    121e:	0100                	addi	s0,sp,128
    1220:	0305                	addi	t1,t1,1
    1222:	04090003          	lb	zero,64(s2)
    1226:	0100                	addi	s0,sp,128
    1228:	0505                	addi	a0,a0,1
    122a:	0200                	addi	s0,sp,256
    122c:	0304                	addi	s1,sp,384
    122e:	04090203          	lb	tp,64(s2)
    1232:	0100                	addi	s0,sp,128
    1234:	1e05                	addi	t3,t3,-31
    1236:	0200                	addi	s0,sp,256
    1238:	0304                	addi	s1,sp,384
    123a:	0c090103          	lb	sp,192(s2)
    123e:	0100                	addi	s0,sp,128
    1240:	0505                	addi	a0,a0,1
    1242:	0200                	addi	s0,sp,256
    1244:	0304                	addi	s1,sp,384
    1246:	04090003          	lb	zero,64(s2)
    124a:	0100                	addi	s0,sp,128
    124c:	0805                	addi	a6,a6,1
    124e:	0200                	addi	s0,sp,256
    1250:	0304                	addi	s1,sp,384
    1252:	0c090103          	lb	sp,192(s2)
    1256:	0100                	addi	s0,sp,128
    1258:	0905                	addi	s2,s2,1
    125a:	0200                	addi	s0,sp,256
    125c:	0304                	addi	s1,sp,384
    125e:	08090103          	lb	sp,128(s2)
    1262:	0100                	addi	s0,sp,128
    1264:	1d05                	addi	s10,s10,-31
    1266:	0200                	addi	s0,sp,256
    1268:	0304                	addi	s1,sp,384
    126a:	0c097b03          	0xc097b03
    126e:	0100                	addi	s0,sp,128
    1270:	0305                	addi	t1,t1,1
    1272:	0200                	addi	s0,sp,256
    1274:	0104                	addi	s1,sp,128
    1276:	0c090003          	lb	zero,192(s2)
    127a:	0100                	addi	s0,sp,128
    127c:	0d05                	addi	s10,s10,1
    127e:	0c090903          	lb	s2,192(s2)
    1282:	0100                	addi	s0,sp,128
    1284:	0305                	addi	t1,t1,1
    1286:	08090003          	lb	zero,128(s2)
    128a:	0100                	addi	s0,sp,128
    128c:	0105                	addi	sp,sp,1
    128e:	10090103          	lb	sp,256(s2)
    1292:	0100                	addi	s0,sp,128
    1294:	10090303          	lb	t1,256(s2)
    1298:	0100                	addi	s0,sp,128
    129a:	0a05                	addi	s4,s4,1
    129c:	14090303          	lb	t1,320(s2)
    12a0:	0100                	addi	s0,sp,128
    12a2:	0305                	addi	t1,t1,1
    12a4:	04090003          	lb	zero,64(s2)
    12a8:	0100                	addi	s0,sp,128
    12aa:	0505                	addi	a0,a0,1
    12ac:	0200                	addi	s0,sp,256
    12ae:	0304                	addi	s1,sp,384
    12b0:	04090203          	lb	tp,64(s2)
    12b4:	0100                	addi	s0,sp,128
    12b6:	2105                	jal	16d6 <_min_stack-0x92a>
    12b8:	0200                	addi	s0,sp,256
    12ba:	0304                	addi	s1,sp,384
    12bc:	14090103          	lb	sp,320(s2)
    12c0:	0100                	addi	s0,sp,128
    12c2:	0505                	addi	a0,a0,1
    12c4:	0200                	addi	s0,sp,256
    12c6:	0304                	addi	s1,sp,384
    12c8:	04090003          	lb	zero,64(s2)
    12cc:	0100                	addi	s0,sp,128
    12ce:	1705                	addi	a4,a4,-31
    12d0:	0200                	addi	s0,sp,256
    12d2:	0304                	addi	s1,sp,384
    12d4:	0c090103          	lb	sp,192(s2)
    12d8:	0100                	addi	s0,sp,128
    12da:	0505                	addi	a0,a0,1
    12dc:	0200                	addi	s0,sp,256
    12de:	0304                	addi	s1,sp,384
    12e0:	08090003          	lb	zero,128(s2)
    12e4:	0100                	addi	s0,sp,128
    12e6:	0f05                	addi	t5,t5,1
    12e8:	0200                	addi	s0,sp,256
    12ea:	0304                	addi	s1,sp,384
    12ec:	0c090103          	lb	sp,192(s2)
    12f0:	0100                	addi	s0,sp,128
    12f2:	0505                	addi	a0,a0,1
    12f4:	0200                	addi	s0,sp,256
    12f6:	0304                	addi	s1,sp,384
    12f8:	08090003          	lb	zero,128(s2)
    12fc:	0100                	addi	s0,sp,128
    12fe:	0905                	addi	s2,s2,1
    1300:	0200                	addi	s0,sp,256
    1302:	0304                	addi	s1,sp,384
    1304:	14090103          	lb	sp,320(s2)
    1308:	0100                	addi	s0,sp,128
    130a:	1d05                	addi	s10,s10,-31
    130c:	0200                	addi	s0,sp,256
    130e:	0304                	addi	s1,sp,384
    1310:	0c097a03          	0xc097a03
    1314:	0100                	addi	s0,sp,128
    1316:	0305                	addi	t1,t1,1
    1318:	0200                	addi	s0,sp,256
    131a:	0104                	addi	s1,sp,128
    131c:	0c090003          	lb	zero,192(s2)
    1320:	0100                	addi	s0,sp,128
    1322:	0105                	addi	sp,sp,1
    1324:	0c090903          	lb	s2,192(s2)
    1328:	0100                	addi	s0,sp,128
    132a:	14090a03          	lb	s4,320(s2)
    132e:	0100                	addi	s0,sp,128
    1330:	0a05                	addi	s4,s4,1
    1332:	14090503          	lb	a0,320(s2)
    1336:	0100                	addi	s0,sp,128
    1338:	1205                	addi	tp,tp,-31
    133a:	04090003          	lb	zero,64(s2)
    133e:	0100                	addi	s0,sp,128
    1340:	0305                	addi	t1,t1,1
    1342:	08090003          	lb	zero,128(s2)
    1346:	0100                	addi	s0,sp,128
    1348:	0805                	addi	a6,a6,1
    134a:	04090203          	lb	tp,64(s2)
    134e:	0100                	addi	s0,sp,128
    1350:	1905                	addi	s2,s2,-31
    1352:	0c090303          	lb	t1,192(s2)
    1356:	0100                	addi	s0,sp,128
    1358:	0705                	addi	a4,a4,1
    135a:	08090003          	lb	zero,128(s2)
    135e:	0100                	addi	s0,sp,128
    1360:	2205                	jal	1480 <_min_stack-0xb80>
    1362:	14090103          	lb	sp,320(s2)
    1366:	0100                	addi	s0,sp,128
    1368:	0705                	addi	a4,a4,1
    136a:	04090003          	lb	zero,64(s2)
    136e:	0100                	addi	s0,sp,128
    1370:	0f05                	addi	t5,t5,1
    1372:	10090303          	lb	t1,256(s2)
    1376:	0100                	addi	s0,sp,128
    1378:	0705                	addi	a4,a4,1
    137a:	08090003          	lb	zero,128(s2)
    137e:	0100                	addi	s0,sp,128
    1380:	1405                	addi	s0,s0,-31
    1382:	04090303          	lb	t1,64(s2)
    1386:	0100                	addi	s0,sp,128
    1388:	0c05                	addi	s8,s8,1
    138a:	10090003          	lb	zero,256(s2)
    138e:	0100                	addi	s0,sp,128
    1390:	1705                	addi	a4,a4,-31
    1392:	08090203          	lb	tp,128(s2)
    1396:	0100                	addi	s0,sp,128
    1398:	2e05                	jal	16c8 <_min_stack-0x938>
    139a:	10097b03          	0x10097b03
    139e:	0100                	addi	s0,sp,128
    13a0:	1505                	addi	a0,a0,-31
    13a2:	10090803          	lb	a6,256(s2)
    13a6:	0100                	addi	s0,sp,128
    13a8:	0905                	addi	s2,s2,1
    13aa:	28090103          	lb	sp,640(s2)
    13ae:	0100                	addi	s0,sp,128
    13b0:	0705                	addi	a4,a4,1
    13b2:	0200                	addi	s0,sp,256
    13b4:	0104                	addi	s1,sp,128
    13b6:	04097703          	0x4097703
    13ba:	0100                	addi	s0,sp,128
    13bc:	0a05                	addi	s4,s4,1
    13be:	08090b03          	lb	s6,128(s2)
    13c2:	0100                	addi	s0,sp,128
    13c4:	1205                	addi	tp,tp,-31
    13c6:	0200                	addi	s0,sp,256
    13c8:	0204                	addi	s1,sp,256
    13ca:	04090303          	lb	t1,64(s2)
    13ce:	0100                	addi	s0,sp,128
    13d0:	1e05                	addi	t3,t3,-31
    13d2:	0200                	addi	s0,sp,256
    13d4:	0204                	addi	s1,sp,256
    13d6:	10090003          	lb	zero,256(s2)
    13da:	0100                	addi	s0,sp,128
    13dc:	0805                	addi	a6,a6,1
    13de:	0200                	addi	s0,sp,256
    13e0:	0204                	addi	s1,sp,256
    13e2:	10090003          	lb	zero,256(s2)
    13e6:	0100                	addi	s0,sp,128
    13e8:	0c05                	addi	s8,s8,1
    13ea:	0200                	addi	s0,sp,256
    13ec:	0204                	addi	s1,sp,256
    13ee:	0c090003          	lb	zero,192(s2)
    13f2:	0100                	addi	s0,sp,128
    13f4:	2e05                	jal	1724 <_min_stack-0x8dc>
    13f6:	0200                	addi	s0,sp,256
    13f8:	0204                	addi	s1,sp,256
    13fa:	0c096903          	0xc096903
    13fe:	0100                	addi	s0,sp,128
    1400:	3305                	jal	1120 <_min_stack-0xee0>
    1402:	0200                	addi	s0,sp,256
    1404:	0204                	addi	s1,sp,256
    1406:	0c090003          	lb	zero,192(s2)
    140a:	0100                	addi	s0,sp,128
    140c:	0305                	addi	t1,t1,1
    140e:	0200                	addi	s0,sp,256
    1410:	0104                	addi	s1,sp,128
    1412:	0c090003          	lb	zero,192(s2)
    1416:	0100                	addi	s0,sp,128
    1418:	0105                	addi	sp,sp,1
    141a:	0c091903          	lh	s2,192(s2)
    141e:	0100                	addi	s0,sp,128
    1420:	1409                	addi	s0,s0,-30
    1422:	0000                	unimp
    1424:	0101                	addi	sp,sp,0
    1426:	01c9                	addi	gp,gp,18
    1428:	0000                	unimp
    142a:	00760003          	lb	zero,7(a2) # 490021c1 <_stack_start+0x48e021c1>
    142e:	0000                	unimp
    1430:	0101                	addi	sp,sp,0
    1432:	000d0efb          	0xd0efb
    1436:	0101                	addi	sp,sp,0
    1438:	0101                	addi	sp,sp,0
    143a:	0000                	unimp
    143c:	0100                	addi	s0,sp,128
    143e:	0000                	unimp
    1440:	2f01                	jal	1b50 <_min_stack-0x4b0>
    1442:	6f68                	flw	fa0,92(a4)
    1444:	656d                	lui	a0,0x1b
    1446:	746e612f          	0x746e612f
    144a:	6f68                	flw	fa0,92(a4)
    144c:	796e                	flw	fs2,248(sp)
    144e:	616c502f          	0x616c502f
    1452:	646e                	flw	fs0,216(sp)
    1454:	7465                	lui	s0,0xffff9
    1456:	6172                	flw	ft2,28(sp)
    1458:	6176                	flw	ft2,92(sp)
    145a:	6c69                	lui	s8,0x1a
    145c:	2d33302f          	0x2d33302f
    1460:	6952                	flw	fs2,20(sp)
    1462:	5f566373          	csrrsi	t1,0x5f5,12
    1466:	7254                	flw	fa3,36(a2)
    1468:	6361                	lui	t1,0x18
    146a:	4565                	li	a0,25
    146c:	636e                	flw	ft6,216(sp)
    146e:	7565646f          	jal	s0,57bc4 <_stack_len+0x4fbc4>
    1472:	2f72                	fld	ft10,280(sp)
    1474:	6972                	flw	fs2,28(sp)
    1476:	2d766373          	csrrsi	t1,0x2d7,12
    147a:	74666f73          	csrrsi	t5,0x746,12
    147e:	65726177          	0x65726177
    1482:	305f 3131 3232      	0x32323131305f
    1488:	2f30                	fld	fa2,88(a4)
    148a:	74666f73          	csrrsi	t5,0x746,12
    148e:	65726177          	0x65726177
    1492:	6d6f632f          	0x6d6f632f
    1496:	6f6d                	lui	t5,0x1b
    1498:	006e                	c.slli	zero,0x1b
    149a:	6300                	flw	fs0,0(a4)
    149c:	7472                	flw	fs0,60(sp)
    149e:	2e30                	fld	fa2,88(a2)
    14a0:	00010053          	fadd.s	ft0,ft2,ft0,rne
    14a4:	0000                	unimp
    14a6:	0500                	addi	s0,sp,640
    14a8:	e802                	fsw	ft0,16(sp)
    14aa:	1020                	addi	s0,sp,40
    14ac:	0300                	addi	s0,sp,384
    14ae:	0109                	addi	sp,sp,2
    14b0:	04090303          	lb	t1,64(s2)
    14b4:	0100                	addi	s0,sp,128
    14b6:	04090403          	lb	s0,64(s2)
    14ba:	0100                	addi	s0,sp,128
    14bc:	04090103          	lb	sp,64(s2)
    14c0:	0100                	addi	s0,sp,128
    14c2:	04090103          	lb	sp,64(s2)
    14c6:	0100                	addi	s0,sp,128
    14c8:	04090103          	lb	sp,64(s2)
    14cc:	0100                	addi	s0,sp,128
    14ce:	04090103          	lb	sp,64(s2)
    14d2:	0100                	addi	s0,sp,128
    14d4:	04090103          	lb	sp,64(s2)
    14d8:	0100                	addi	s0,sp,128
    14da:	04090103          	lb	sp,64(s2)
    14de:	0100                	addi	s0,sp,128
    14e0:	04090103          	lb	sp,64(s2)
    14e4:	0100                	addi	s0,sp,128
    14e6:	04090103          	lb	sp,64(s2)
    14ea:	0100                	addi	s0,sp,128
    14ec:	04090103          	lb	sp,64(s2)
    14f0:	0100                	addi	s0,sp,128
    14f2:	04090103          	lb	sp,64(s2)
    14f6:	0100                	addi	s0,sp,128
    14f8:	04090103          	lb	sp,64(s2)
    14fc:	0100                	addi	s0,sp,128
    14fe:	04090103          	lb	sp,64(s2)
    1502:	0100                	addi	s0,sp,128
    1504:	04090103          	lb	sp,64(s2)
    1508:	0100                	addi	s0,sp,128
    150a:	04090103          	lb	sp,64(s2)
    150e:	0100                	addi	s0,sp,128
    1510:	04090103          	lb	sp,64(s2)
    1514:	0100                	addi	s0,sp,128
    1516:	04090103          	lb	sp,64(s2)
    151a:	0100                	addi	s0,sp,128
    151c:	04090103          	lb	sp,64(s2)
    1520:	0100                	addi	s0,sp,128
    1522:	04090103          	lb	sp,64(s2)
    1526:	0100                	addi	s0,sp,128
    1528:	04090103          	lb	sp,64(s2)
    152c:	0100                	addi	s0,sp,128
    152e:	04090103          	lb	sp,64(s2)
    1532:	0100                	addi	s0,sp,128
    1534:	04090103          	lb	sp,64(s2)
    1538:	0100                	addi	s0,sp,128
    153a:	04090103          	lb	sp,64(s2)
    153e:	0100                	addi	s0,sp,128
    1540:	04090103          	lb	sp,64(s2)
    1544:	0100                	addi	s0,sp,128
    1546:	04090103          	lb	sp,64(s2)
    154a:	0100                	addi	s0,sp,128
    154c:	04090103          	lb	sp,64(s2)
    1550:	0100                	addi	s0,sp,128
    1552:	04090103          	lb	sp,64(s2)
    1556:	0100                	addi	s0,sp,128
    1558:	04090103          	lb	sp,64(s2)
    155c:	0100                	addi	s0,sp,128
    155e:	04090103          	lb	sp,64(s2)
    1562:	0100                	addi	s0,sp,128
    1564:	04090103          	lb	sp,64(s2)
    1568:	0100                	addi	s0,sp,128
    156a:	04090103          	lb	sp,64(s2)
    156e:	0100                	addi	s0,sp,128
    1570:	04090303          	lb	t1,64(s2)
    1574:	0100                	addi	s0,sp,128
    1576:	08090603          	lb	a2,128(s2)
    157a:	0100                	addi	s0,sp,128
    157c:	08090103          	lb	sp,128(s2)
    1580:	0100                	addi	s0,sp,128
    1582:	08090203          	lb	tp,128(s2)
    1586:	0100                	addi	s0,sp,128
    1588:	04090303          	lb	t1,64(s2)
    158c:	0100                	addi	s0,sp,128
    158e:	04090103          	lb	sp,64(s2)
    1592:	0100                	addi	s0,sp,128
    1594:	04090103          	lb	sp,64(s2)
    1598:	0100                	addi	s0,sp,128
    159a:	04090603          	lb	a2,64(s2)
    159e:	0100                	addi	s0,sp,128
    15a0:	04090103          	lb	sp,64(s2)
    15a4:	0100                	addi	s0,sp,128
    15a6:	04090103          	lb	sp,64(s2)
    15aa:	0100                	addi	s0,sp,128
    15ac:	04090303          	lb	t1,64(s2)
    15b0:	0100                	addi	s0,sp,128
    15b2:	08090103          	lb	sp,128(s2)
    15b6:	0100                	addi	s0,sp,128
    15b8:	04090103          	lb	sp,64(s2)
    15bc:	0100                	addi	s0,sp,128
    15be:	04090403          	lb	s0,64(s2)
    15c2:	0100                	addi	s0,sp,128
    15c4:	04090103          	lb	sp,64(s2)
    15c8:	0100                	addi	s0,sp,128
    15ca:	0409                	addi	s0,s0,2
    15cc:	0000                	unimp
    15ce:	0101                	addi	sp,sp,0
    15d0:	0500                	addi	s0,sp,640
    15d2:	0002                	c.slli64	zero
    15d4:	1000                	addi	s0,sp,32
    15d6:	0300                	addi	s0,sp,384
    15d8:	00dd                	addi	ra,ra,23
    15da:	0301                	addi	t1,t1,0
    15dc:	0901                	addi	s2,s2,0
    15de:	001c                	0x1c
    15e0:	0301                	addi	t1,t1,0
    15e2:	00040903          	lb	s2,0(s0) # ffff9000 <_stack_start+0xffdf9000>
    15e6:	0301                	addi	t1,t1,0
    15e8:	0904                	addi	s1,sp,144
    15ea:	0060                	addi	s0,sp,12
    15ec:	0901                	addi	s2,s2,0
    15ee:	0004                	0x4
    15f0:	0100                	addi	s0,sp,128
    15f2:	3501                	jal	13f2 <_min_stack-0xc0e>
    15f4:	0002                	c.slli64	zero
    15f6:	0300                	addi	s0,sp,384
    15f8:	8700                	0x8700
    15fa:	0000                	unimp
    15fc:	0100                	addi	s0,sp,128
    15fe:	fb01                	bnez	a4,150e <_min_stack-0xaf2>
    1600:	0d0e                	slli	s10,s10,0x3
    1602:	0100                	addi	s0,sp,128
    1604:	0101                	addi	sp,sp,0
    1606:	0001                	nop
    1608:	0000                	unimp
    160a:	0001                	nop
    160c:	0100                	addi	s0,sp,128
    160e:	74706f2f          	0x74706f2f
    1612:	7369722f          	0x7369722f
    1616:	6c2f7663          	bgeu	t5,sp,1ce2 <_min_stack-0x31e>
    161a:	6269                	lui	tp,0x1a
    161c:	6363672f          	0x6363672f
    1620:	7369722f          	0x7369722f
    1624:	34367663          	bgeu	a2,gp,1970 <_min_stack-0x690>
    1628:	752d                	lui	a0,0xfffeb
    162a:	6b6e                	flw	fs6,216(sp)
    162c:	6f6e                	flw	ft10,216(sp)
    162e:	6c2d6e77          	0x6c2d6e77
    1632:	6e69                	lui	t3,0x1a
    1634:	7875                	lui	a6,0xffffd
    1636:	672d                	lui	a4,0xb
    1638:	756e                	flw	fa0,248(sp)
    163a:	2e30312f          	0x2e30312f
    163e:	2e32                	fld	ft8,264(sp)
    1640:	2f30                	fld	fa2,88(a4)
    1642:	6e69                	lui	t3,0x1a
    1644:	64756c63          	bltu	a0,t2,1c9c <_min_stack-0x364>
    1648:	0065                	c.nop	25
    164a:	2e2e                	fld	ft8,200(sp)
    164c:	7379732f          	0x7379732f
    1650:	6564                	flw	fs1,76(a0)
    1652:	7370                	flw	fa2,100(a4)
    1654:	6e65672f          	0x6e65672f
    1658:	7265                	lui	tp,0xffff9
    165a:	6369                	lui	t1,0x1a
    165c:	0000                	unimp
    165e:	656d                	lui	a0,0x1b
    1660:	636d                	lui	t1,0x1b
    1662:	7970                	flw	fa2,116(a0)
    1664:	632e                	flw	ft6,200(sp)
    1666:	0000                	unimp
    1668:	0000                	unimp
    166a:	64647473          	csrrci	s0,0x646,8
    166e:	6665                	lui	a2,0x19
    1670:	682e                	flw	fa6,200(sp)
    1672:	0100                	addi	s0,sp,128
    1674:	0000                	unimp
    1676:	656d                	lui	a0,0x1b
    1678:	636d                	lui	t1,0x1b
    167a:	2e79706f          	j	99160 <_stack_len+0x91160>
    167e:	0068                	addi	a0,sp,12
    1680:	0002                	c.slli64	zero
    1682:	0000                	unimp
    1684:	0105                	addi	sp,sp,1
    1686:	0500                	addi	s0,sp,640
    1688:	b802                	fsd	ft0,48(sp)
    168a:	1021                	c.nop	-24
    168c:	0300                	addi	s0,sp,384
    168e:	0605011b          	0x605011b
    1692:	0306                	slli	t1,t1,0x1
    1694:	000c0907          	0xc0907
    1698:	0501                	addi	a0,a0,0
    169a:	0301                	addi	t1,t1,0
    169c:	0979                	addi	s2,s2,30
    169e:	0002                	c.slli64	zero
    16a0:	0501                	addi	a0,a0,0
    16a2:	01030603          	lb	a2,16(t1) # 1b010 <_stack_len+0x13010>
    16a6:	0209                	addi	tp,tp,2
    16a8:	0100                	addi	s0,sp,128
    16aa:	1505                	addi	a0,a0,-31
    16ac:	0306                	slli	t1,t1,0x1
    16ae:	0900                	addi	s0,sp,144
    16b0:	0000                	unimp
    16b2:	0501                	addi	a0,a0,0
    16b4:	01030603          	lb	a2,16(t1)
    16b8:	0209                	addi	tp,tp,2
    16ba:	0100                	addi	s0,sp,128
    16bc:	1505                	addi	a0,a0,-31
    16be:	0306                	slli	t1,t1,0x1
    16c0:	0900                	addi	s0,sp,144
    16c2:	0000                	unimp
    16c4:	0501                	addi	a0,a0,0
    16c6:	05030603          	lb	a2,80(t1)
    16ca:	0209                	addi	tp,tp,2
    16cc:	0100                	addi	s0,sp,128
    16ce:	0605                	addi	a2,a2,1
    16d0:	0306                	slli	t1,t1,0x1
    16d2:	0900                	addi	s0,sp,144
    16d4:	0000                	unimp
    16d6:	0501                	addi	a0,a0,0
    16d8:	03030607          	0x3030607
    16dc:	0409                	addi	s0,s0,2
    16de:	0100                	addi	s0,sp,128
    16e0:	0f05                	addi	t5,t5,1
    16e2:	0306                	slli	t1,t1,0x1
    16e4:	0900                	addi	s0,sp,144
    16e6:	0000                	unimp
    16e8:	0501                	addi	a0,a0,0
    16ea:	0316                	slli	t1,t1,0x5
    16ec:	0900                	addi	s0,sp,144
    16ee:	0004                	0x4
    16f0:	0501                	addi	a0,a0,0
    16f2:	0900030b          	0x900030b
    16f6:	0002                	c.slli64	zero
    16f8:	0501                	addi	a0,a0,0
    16fa:	01030607          	0x1030607
    16fe:	0409                	addi	s0,s0,2
    1700:	0100                	addi	s0,sp,128
    1702:	00090003          	lb	zero,0(s2)
    1706:	0100                	addi	s0,sp,128
    1708:	00090003          	lb	zero,0(s2)
    170c:	0100                	addi	s0,sp,128
    170e:	00090003          	lb	zero,0(s2)
    1712:	0100                	addi	s0,sp,128
    1714:	1505                	addi	a0,a0,-31
    1716:	0306                	slli	t1,t1,0x1
    1718:	0976                	slli	s2,s2,0x1d
    171a:	0000                	unimp
    171c:	0501                	addi	a0,a0,0
    171e:	090a0307          	0x90a0307
    1722:	0002                	c.slli64	zero
    1724:	0501                	addi	a0,a0,0
    1726:	0315                	addi	t1,t1,5
    1728:	00060977          	0x60977
    172c:	0501                	addi	a0,a0,0
    172e:	04020007          	0x4020007
    1732:	09030603          	lb	a2,144(t1)
    1736:	0209                	addi	tp,tp,2
    1738:	0100                	addi	s0,sp,128
    173a:	0200                	addi	s0,sp,256
    173c:	0304                	addi	s1,sp,384
    173e:	04090003          	lb	zero,64(s2)
    1742:	0100                	addi	s0,sp,128
    1744:	0200                	addi	s0,sp,256
    1746:	0304                	addi	s1,sp,384
    1748:	04090003          	lb	zero,64(s2)
    174c:	0100                	addi	s0,sp,128
    174e:	0200                	addi	s0,sp,256
    1750:	0304                	addi	s1,sp,384
    1752:	00090003          	lb	zero,0(s2)
    1756:	0100                	addi	s0,sp,128
    1758:	0200                	addi	s0,sp,256
    175a:	0304                	addi	s1,sp,384
    175c:	04090003          	lb	zero,64(s2)
    1760:	0100                	addi	s0,sp,128
    1762:	0200                	addi	s0,sp,256
    1764:	0304                	addi	s1,sp,384
    1766:	00090003          	lb	zero,0(s2)
    176a:	0100                	addi	s0,sp,128
    176c:	0306                	slli	t1,t1,0x1
    176e:	0900                	addi	s0,sp,144
    1770:	0004                	0x4
    1772:	0001                	nop
    1774:	0402                	c.slli64	s0
    1776:	0604                	addi	s1,sp,768
    1778:	04090003          	lb	zero,64(s2)
    177c:	0100                	addi	s0,sp,128
    177e:	3105                	jal	139e <_min_stack-0xc62>
    1780:	0200                	addi	s0,sp,256
    1782:	0404                	addi	s1,sp,512
    1784:	00090503          	lb	a0,0(s2)
    1788:	0100                	addi	s0,sp,128
    178a:	0705                	addi	a4,a4,1
    178c:	0200                	addi	s0,sp,256
    178e:	0404                	addi	s1,sp,512
    1790:	00090603          	lb	a2,0(s2)
    1794:	0100                	addi	s0,sp,128
    1796:	0200                	addi	s0,sp,256
    1798:	0404                	addi	s1,sp,512
    179a:	00090003          	lb	zero,0(s2)
    179e:	0100                	addi	s0,sp,128
    17a0:	0200                	addi	s0,sp,256
    17a2:	0204                	addi	s1,sp,256
    17a4:	0e090003          	lb	zero,224(s2)
    17a8:	0100                	addi	s0,sp,128
    17aa:	0200                	addi	s0,sp,256
    17ac:	0404                	addi	s1,sp,512
    17ae:	02090003          	lb	zero,32(s2)
    17b2:	0100                	addi	s0,sp,128
    17b4:	0200                	addi	s0,sp,256
    17b6:	0404                	addi	s1,sp,512
    17b8:	06090003          	lb	zero,96(s2)
    17bc:	0100                	addi	s0,sp,128
    17be:	0200                	addi	s0,sp,256
    17c0:	0404                	addi	s1,sp,512
    17c2:	06090003          	lb	zero,96(s2)
    17c6:	0100                	addi	s0,sp,128
    17c8:	0305                	addi	t1,t1,1
    17ca:	0200                	addi	s0,sp,256
    17cc:	0104                	addi	s1,sp,128
    17ce:	00090603          	lb	a2,0(s2)
    17d2:	0100                	addi	s0,sp,128
    17d4:	0200                	addi	s0,sp,256
    17d6:	0304                	addi	s1,sp,384
    17d8:	0c090003          	lb	zero,192(s2)
    17dc:	0100                	addi	s0,sp,128
    17de:	0200                	addi	s0,sp,256
    17e0:	0304                	addi	s1,sp,384
    17e2:	04090003          	lb	zero,64(s2)
    17e6:	0100                	addi	s0,sp,128
    17e8:	0200                	addi	s0,sp,256
    17ea:	0304                	addi	s1,sp,384
    17ec:	02090003          	lb	zero,32(s2)
    17f0:	0100                	addi	s0,sp,128
    17f2:	0200                	addi	s0,sp,256
    17f4:	0304                	addi	s1,sp,384
    17f6:	00090003          	lb	zero,0(s2)
    17fa:	0100                	addi	s0,sp,128
    17fc:	0200                	addi	s0,sp,256
    17fe:	0304                	addi	s1,sp,384
    1800:	08090003          	lb	zero,128(s2)
    1804:	0100                	addi	s0,sp,128
    1806:	0200                	addi	s0,sp,256
    1808:	0304                	addi	s1,sp,384
    180a:	00090003          	lb	zero,0(s2)
    180e:	0100                	addi	s0,sp,128
    1810:	0105                	addi	sp,sp,1
    1812:	0306                	slli	t1,t1,0x1
    1814:	00040903          	lb	s2,0(s0)
    1818:	0501                	addi	a0,a0,0
    181a:	04020007          	0x4020007
    181e:	0601                	addi	a2,a2,0
    1820:	10097703          	0x10097703
    1824:	0100                	addi	s0,sp,128
    1826:	0409                	addi	s0,s0,2
    1828:	0000                	unimp
    182a:	0101                	addi	sp,sp,0
    182c:	0f94                	addi	a3,sp,976
    182e:	0000                	unimp
    1830:	00690003          	lb	zero,6(s2)
    1834:	0000                	unimp
    1836:	0101                	addi	sp,sp,0
    1838:	000d0efb          	0xd0efb
    183c:	0101                	addi	sp,sp,0
    183e:	0101                	addi	sp,sp,0
    1840:	0000                	unimp
    1842:	0100                	addi	s0,sp,128
    1844:	0000                	unimp
    1846:	2f01                	jal	1f56 <_min_stack-0xaa>
    1848:	2f74706f          	j	4933e <_stack_len+0x4133e>
    184c:	6972                	flw	fs2,28(sp)
    184e:	2f766373          	csrrsi	t1,0x2f7,12
    1852:	696c                	flw	fa1,84(a0)
    1854:	2f62                	fld	ft10,24(sp)
    1856:	2f636367          	0x2f636367
    185a:	6972                	flw	fs2,28(sp)
    185c:	36766373          	csrrsi	t1,0x367,12
    1860:	2d34                	fld	fa3,88(a0)
    1862:	6e75                	lui	t3,0x1d
    1864:	776f6e6b          	0x776f6e6b
    1868:	2d6e                	fld	fs10,216(sp)
    186a:	696c                	flw	fa1,84(a0)
    186c:	756e                	flw	fa0,248(sp)
    186e:	2d78                	fld	fa4,216(a0)
    1870:	2f756e67          	0x2f756e67
    1874:	3031                	jal	1080 <_min_stack-0xf80>
    1876:	322e                	fld	ft4,232(sp)
    1878:	302e                	fld	ft0,232(sp)
    187a:	636e692f          	0x636e692f
    187e:	756c                	flw	fa1,108(a0)
    1880:	6564                	flw	fs1,76(a0)
    1882:	0000                	unimp
    1884:	64726f77          	0x64726f77
    1888:	79706f63          	bltu	zero,s7,2026 <_min_stack+0x26>
    188c:	632e                	flw	ft6,200(sp)
    188e:	0000                	unimp
    1890:	0000                	unimp
    1892:	64647473          	csrrci	s0,0x646,8
    1896:	6665                	lui	a2,0x19
    1898:	682e                	flw	fa6,200(sp)
    189a:	0100                	addi	s0,sp,128
    189c:	0000                	unimp
    189e:	0500                	addi	s0,sp,640
    18a0:	0001                	nop
    18a2:	0205                	addi	tp,tp,1
    18a4:	2246                	fld	ft4,80(sp)
    18a6:	0010                	0x10
    18a8:	05012203          	lw	tp,80(sp)
    18ac:	0303060f          	0x303060f
    18b0:	0009                	c.nop	2
    18b2:	0100                	addi	s0,sp,128
    18b4:	0305                	addi	t1,t1,1
    18b6:	0306                	slli	t1,t1,0x1
    18b8:	097e                	slli	s2,s2,0x1f
    18ba:	0012                	c.slli	zero,0x4
    18bc:	0301                	addi	t1,t1,0
    18be:	0902                	c.slli64	s2
    18c0:	0000                	unimp
    18c2:	0501                	addi	a0,a0,0
    18c4:	060a                	slli	a2,a2,0x2
    18c6:	00090303          	lb	t1,0(s2)
    18ca:	0100                	addi	s0,sp,128
    18cc:	0c05                	addi	s8,s8,1
    18ce:	04090103          	lb	sp,64(s2)
    18d2:	0100                	addi	s0,sp,128
    18d4:	02090103          	lb	sp,32(s2)
    18d8:	0100                	addi	s0,sp,128
    18da:	0705                	addi	a4,a4,1
    18dc:	0306                	slli	t1,t1,0x1
    18de:	091c                	addi	a5,sp,144
    18e0:	0004                	0x4
    18e2:	0301                	addi	t1,t1,0
    18e4:	0901                	addi	s2,s2,0
    18e6:	0000                	unimp
    18e8:	0501                	addi	a0,a0,0
    18ea:	060c                	addi	a1,sp,768
    18ec:	00090003          	lb	zero,0(s2)
    18f0:	0100                	addi	s0,sp,128
    18f2:	0705                	addi	a4,a4,1
    18f4:	0306                	slli	t1,t1,0x1
    18f6:	0901                	addi	s2,s2,0
    18f8:	0004                	0x4
    18fa:	0501                	addi	a0,a0,0
    18fc:	060c                	addi	a1,sp,768
    18fe:	00090003          	lb	zero,0(s2)
    1902:	0100                	addi	s0,sp,128
    1904:	0705                	addi	a4,a4,1
    1906:	0306                	slli	t1,t1,0x1
    1908:	0901                	addi	s2,s2,0
    190a:	0004                	0x4
    190c:	0501                	addi	a0,a0,0
    190e:	0003060b          	0x3060b
    1912:	0009                	c.nop	2
    1914:	0100                	addi	s0,sp,128
    1916:	0705                	addi	a4,a4,1
    1918:	0306                	slli	t1,t1,0x1
    191a:	0901                	addi	s2,s2,0
    191c:	0002                	c.slli64	zero
    191e:	0501                	addi	a0,a0,0
    1920:	060c                	addi	a1,sp,768
    1922:	02092e03          	lw	t3,32(s2)
    1926:	0100                	addi	s0,sp,128
    1928:	04090103          	lb	sp,64(s2)
    192c:	0100                	addi	s0,sp,128
    192e:	0305                	addi	t1,t1,1
    1930:	0306                	slli	t1,t1,0x1
    1932:	0964                	addi	s1,sp,156
    1934:	0002                	c.slli64	zero
    1936:	0501                	addi	a0,a0,0
    1938:	09030307          	0x9030307
    193c:	0000                	unimp
    193e:	0501                	addi	a0,a0,0
    1940:	060a                	slli	a2,a2,0x2
    1942:	00090003          	lb	zero,0(s2)
    1946:	0100                	addi	s0,sp,128
    1948:	0705                	addi	a4,a4,1
    194a:	0306                	slli	t1,t1,0x1
    194c:	0901                	addi	s2,s2,0
    194e:	0002                	c.slli64	zero
    1950:	0501                	addi	a0,a0,0
    1952:	0616                	slli	a2,a2,0x5
    1954:	00090303          	lb	t1,0(s2)
    1958:	0100                	addi	s0,sp,128
    195a:	1a05                	addi	s4,s4,-31
    195c:	04097d03          	0x4097d03
    1960:	0100                	addi	s0,sp,128
    1962:	0705                	addi	a4,a4,1
    1964:	0306                	slli	t1,t1,0x1
    1966:	0902                	c.slli64	s2
    1968:	0004                	0x4
    196a:	0501                	addi	a0,a0,0
    196c:	060a                	slli	a2,a2,0x2
    196e:	00090003          	lb	zero,0(s2)
    1972:	0100                	addi	s0,sp,128
    1974:	0705                	addi	a4,a4,1
    1976:	0306                	slli	t1,t1,0x1
    1978:	0901                	addi	s2,s2,0
    197a:	0004                	0x4
    197c:	0501                	addi	a0,a0,0
    197e:	061a                	slli	a2,a2,0x6
    1980:	00090003          	lb	zero,0(s2)
    1984:	0100                	addi	s0,sp,128
    1986:	1605                	addi	a2,a2,-31
    1988:	02090303          	lb	t1,32(s2)
    198c:	0100                	addi	s0,sp,128
    198e:	0705                	addi	a4,a4,1
    1990:	0306                	slli	t1,t1,0x1
    1992:	097f                	0x97f
    1994:	0004                	0x4
    1996:	0501                	addi	a0,a0,0
    1998:	060a                	slli	a2,a2,0x2
    199a:	00090003          	lb	zero,0(s2)
    199e:	0100                	addi	s0,sp,128
    19a0:	0705                	addi	a4,a4,1
    19a2:	0306                	slli	t1,t1,0x1
    19a4:	0901                	addi	s2,s2,0
    19a6:	0002                	c.slli64	zero
    19a8:	0501                	addi	a0,a0,0
    19aa:	061a                	slli	a2,a2,0x6
    19ac:	00090003          	lb	zero,0(s2)
    19b0:	0100                	addi	s0,sp,128
    19b2:	1605                	addi	a2,a2,-31
    19b4:	04090303          	lb	t1,64(s2)
    19b8:	0100                	addi	s0,sp,128
    19ba:	0a05                	addi	s4,s4,1
    19bc:	04097c03          	0x4097c03
    19c0:	0100                	addi	s0,sp,128
    19c2:	0705                	addi	a4,a4,1
    19c4:	0306                	slli	t1,t1,0x1
    19c6:	00020903          	lb	s2,0(tp) # ffff9000 <_stack_start+0xffdf9000>
    19ca:	0501                	addi	a0,a0,0
    19cc:	060a                	slli	a2,a2,0x2
    19ce:	00090003          	lb	zero,0(s2)
    19d2:	0100                	addi	s0,sp,128
    19d4:	0705                	addi	a4,a4,1
    19d6:	0306                	slli	t1,t1,0x1
    19d8:	0901                	addi	s2,s2,0
    19da:	0002                	c.slli64	zero
    19dc:	0501                	addi	a0,a0,0
    19de:	061a                	slli	a2,a2,0x6
    19e0:	00090003          	lb	zero,0(s2)
    19e4:	0100                	addi	s0,sp,128
    19e6:	1605                	addi	a2,a2,-31
    19e8:	04090303          	lb	t1,64(s2)
    19ec:	0100                	addi	s0,sp,128
    19ee:	0705                	addi	a4,a4,1
    19f0:	0306                	slli	t1,t1,0x1
    19f2:	097f                	0x97f
    19f4:	0004                	0x4
    19f6:	0501                	addi	a0,a0,0
    19f8:	060a                	slli	a2,a2,0x2
    19fa:	00090003          	lb	zero,0(s2)
    19fe:	0100                	addi	s0,sp,128
    1a00:	0705                	addi	a4,a4,1
    1a02:	0306                	slli	t1,t1,0x1
    1a04:	0901                	addi	s2,s2,0
    1a06:	0004                	0x4
    1a08:	0501                	addi	a0,a0,0
    1a0a:	061a                	slli	a2,a2,0x6
    1a0c:	00090003          	lb	zero,0(s2)
    1a10:	0100                	addi	s0,sp,128
    1a12:	1605                	addi	a2,a2,-31
    1a14:	02090303          	lb	t1,32(s2)
    1a18:	0100                	addi	s0,sp,128
    1a1a:	0705                	addi	a4,a4,1
    1a1c:	0306                	slli	t1,t1,0x1
    1a1e:	097f                	0x97f
    1a20:	0004                	0x4
    1a22:	0501                	addi	a0,a0,0
    1a24:	060a                	slli	a2,a2,0x2
    1a26:	00090003          	lb	zero,0(s2)
    1a2a:	0100                	addi	s0,sp,128
    1a2c:	0705                	addi	a4,a4,1
    1a2e:	0306                	slli	t1,t1,0x1
    1a30:	0901                	addi	s2,s2,0
    1a32:	0002                	c.slli64	zero
    1a34:	0501                	addi	a0,a0,0
    1a36:	061a                	slli	a2,a2,0x6
    1a38:	00090003          	lb	zero,0(s2)
    1a3c:	0100                	addi	s0,sp,128
    1a3e:	1605                	addi	a2,a2,-31
    1a40:	04090303          	lb	t1,64(s2)
    1a44:	0100                	addi	s0,sp,128
    1a46:	0705                	addi	a4,a4,1
    1a48:	0306                	slli	t1,t1,0x1
    1a4a:	097f                	0x97f
    1a4c:	0004                	0x4
    1a4e:	0501                	addi	a0,a0,0
    1a50:	060a                	slli	a2,a2,0x2
    1a52:	00090003          	lb	zero,0(s2)
    1a56:	0100                	addi	s0,sp,128
    1a58:	0705                	addi	a4,a4,1
    1a5a:	0306                	slli	t1,t1,0x1
    1a5c:	0901                	addi	s2,s2,0
    1a5e:	0002                	c.slli64	zero
    1a60:	0501                	addi	a0,a0,0
    1a62:	061a                	slli	a2,a2,0x6
    1a64:	00090003          	lb	zero,0(s2)
    1a68:	0100                	addi	s0,sp,128
    1a6a:	1605                	addi	a2,a2,-31
    1a6c:	02090303          	lb	t1,32(s2)
    1a70:	0100                	addi	s0,sp,128
    1a72:	0705                	addi	a4,a4,1
    1a74:	0306                	slli	t1,t1,0x1
    1a76:	097f                	0x97f
    1a78:	0004                	0x4
    1a7a:	0501                	addi	a0,a0,0
    1a7c:	060a                	slli	a2,a2,0x2
    1a7e:	00090003          	lb	zero,0(s2)
    1a82:	0100                	addi	s0,sp,128
    1a84:	0705                	addi	a4,a4,1
    1a86:	0306                	slli	t1,t1,0x1
    1a88:	0901                	addi	s2,s2,0
    1a8a:	0004                	0x4
    1a8c:	0501                	addi	a0,a0,0
    1a8e:	0403060b          	0x403060b
    1a92:	0009                	c.nop	2
    1a94:	0100                	addi	s0,sp,128
    1a96:	1a05                	addi	s4,s4,-31
    1a98:	02097c03          	0x2097c03
    1a9c:	0100                	addi	s0,sp,128
    1a9e:	0705                	addi	a4,a4,1
    1aa0:	0306                	slli	t1,t1,0x1
    1aa2:	0902                	c.slli64	s2
    1aa4:	0002                	c.slli64	zero
    1aa6:	0301                	addi	t1,t1,0
    1aa8:	0901                	addi	s2,s2,0
    1aaa:	0000                	unimp
    1aac:	0501                	addi	a0,a0,0
    1aae:	060c                	addi	a1,sp,768
    1ab0:	00090003          	lb	zero,0(s2)
    1ab4:	0100                	addi	s0,sp,128
    1ab6:	0705                	addi	a4,a4,1
    1ab8:	0306                	slli	t1,t1,0x1
    1aba:	0901                	addi	s2,s2,0
    1abc:	0004                	0x4
    1abe:	0501                	addi	a0,a0,0
    1ac0:	0309                	addi	t1,t1,2
    1ac2:	0902                	c.slli64	s2
    1ac4:	0000                	unimp
    1ac6:	0501                	addi	a0,a0,0
    1ac8:	00030603          	lb	a2,0(t1)
    1acc:	0009                	c.nop	2
    1ace:	0100                	addi	s0,sp,128
    1ad0:	0306                	slli	t1,t1,0x1
    1ad2:	0905                	addi	s2,s2,1
    1ad4:	0002                	c.slli64	zero
    1ad6:	0501                	addi	a0,a0,0
    1ad8:	0616                	slli	a2,a2,0x5
    1ada:	00090003          	lb	zero,0(s2)
    1ade:	0100                	addi	s0,sp,128
    1ae0:	0105                	addi	sp,sp,1
    1ae2:	04090103          	lb	sp,64(s2)
    1ae6:	0100                	addi	s0,sp,128
    1ae8:	0705                	addi	a4,a4,1
    1aea:	0306                	slli	t1,t1,0x1
    1aec:	0952                	slli	s2,s2,0x14
    1aee:	0002                	c.slli64	zero
    1af0:	0301                	addi	t1,t1,0
    1af2:	0901                	addi	s2,s2,0
    1af4:	0000                	unimp
    1af6:	0501                	addi	a0,a0,0
    1af8:	060c                	addi	a1,sp,768
    1afa:	00090003          	lb	zero,0(s2)
    1afe:	0100                	addi	s0,sp,128
    1b00:	0705                	addi	a4,a4,1
    1b02:	0306                	slli	t1,t1,0x1
    1b04:	0901                	addi	s2,s2,0
    1b06:	0004                	0x4
    1b08:	0301                	addi	t1,t1,0
    1b0a:	0901                	addi	s2,s2,0
    1b0c:	0000                	unimp
    1b0e:	0501                	addi	a0,a0,0
    1b10:	0003060b          	0x3060b
    1b14:	0009                	c.nop	2
    1b16:	0100                	addi	s0,sp,128
    1b18:	0705                	addi	a4,a4,1
    1b1a:	0306                	slli	t1,t1,0x1
    1b1c:	0901                	addi	s2,s2,0
    1b1e:	0002                	c.slli64	zero
    1b20:	0301                	addi	t1,t1,0
    1b22:	0902                	c.slli64	s2
    1b24:	0000                	unimp
    1b26:	0301                	addi	t1,t1,0
    1b28:	094e                	slli	s2,s2,0x13
    1b2a:	0004                	0x4
    1b2c:	0301                	addi	t1,t1,0
    1b2e:	0901                	addi	s2,s2,0
    1b30:	0000                	unimp
    1b32:	0501                	addi	a0,a0,0
    1b34:	060c                	addi	a1,sp,768
    1b36:	00090003          	lb	zero,0(s2)
    1b3a:	0100                	addi	s0,sp,128
    1b3c:	0705                	addi	a4,a4,1
    1b3e:	0306                	slli	t1,t1,0x1
    1b40:	0901                	addi	s2,s2,0
    1b42:	0004                	0x4
    1b44:	0501                	addi	a0,a0,0
    1b46:	060c                	addi	a1,sp,768
    1b48:	00090003          	lb	zero,0(s2)
    1b4c:	0100                	addi	s0,sp,128
    1b4e:	0705                	addi	a4,a4,1
    1b50:	0306                	slli	t1,t1,0x1
    1b52:	0901                	addi	s2,s2,0
    1b54:	0004                	0x4
    1b56:	0501                	addi	a0,a0,0
    1b58:	0003060b          	0x3060b
    1b5c:	0009                	c.nop	2
    1b5e:	0100                	addi	s0,sp,128
    1b60:	0705                	addi	a4,a4,1
    1b62:	0306                	slli	t1,t1,0x1
    1b64:	0901                	addi	s2,s2,0
    1b66:	0002                	c.slli64	zero
    1b68:	0501                	addi	a0,a0,0
    1b6a:	060a                	slli	a2,a2,0x2
    1b6c:	00097c03          	0x97c03
    1b70:	0100                	addi	s0,sp,128
    1b72:	0705                	addi	a4,a4,1
    1b74:	02090403          	lb	s0,32(s2)
    1b78:	0100                	addi	s0,sp,128
    1b7a:	0306                	slli	t1,t1,0x1
    1b7c:	0902                	c.slli64	s2
    1b7e:	0002                	c.slli64	zero
    1b80:	0301                	addi	t1,t1,0
    1b82:	0901                	addi	s2,s2,0
    1b84:	0000                	unimp
    1b86:	0501                	addi	a0,a0,0
    1b88:	060c                	addi	a1,sp,768
    1b8a:	00090103          	lb	sp,0(s2)
    1b8e:	0100                	addi	s0,sp,128
    1b90:	04097f03          	0x4097f03
    1b94:	0100                	addi	s0,sp,128
    1b96:	0705                	addi	a4,a4,1
    1b98:	0306                	slli	t1,t1,0x1
    1b9a:	0901                	addi	s2,s2,0
    1b9c:	0004                	0x4
    1b9e:	0301                	addi	t1,t1,0
    1ba0:	0901                	addi	s2,s2,0
    1ba2:	0000                	unimp
    1ba4:	0501                	addi	a0,a0,0
    1ba6:	0003060b          	0x3060b
    1baa:	0009                	c.nop	2
    1bac:	0100                	addi	s0,sp,128
    1bae:	0705                	addi	a4,a4,1
    1bb0:	0306                	slli	t1,t1,0x1
    1bb2:	0901                	addi	s2,s2,0
    1bb4:	0002                	c.slli64	zero
    1bb6:	0501                	addi	a0,a0,0
    1bb8:	060a                	slli	a2,a2,0x2
    1bba:	00097c03          	0x97c03
    1bbe:	0100                	addi	s0,sp,128
    1bc0:	0705                	addi	a4,a4,1
    1bc2:	02090403          	lb	s0,32(s2)
    1bc6:	0100                	addi	s0,sp,128
    1bc8:	0306                	slli	t1,t1,0x1
    1bca:	0902                	c.slli64	s2
    1bcc:	0002                	c.slli64	zero
    1bce:	0301                	addi	t1,t1,0
    1bd0:	0901                	addi	s2,s2,0
    1bd2:	0000                	unimp
    1bd4:	0501                	addi	a0,a0,0
    1bd6:	060c                	addi	a1,sp,768
    1bd8:	00090003          	lb	zero,0(s2)
    1bdc:	0100                	addi	s0,sp,128
    1bde:	0705                	addi	a4,a4,1
    1be0:	0306                	slli	t1,t1,0x1
    1be2:	0901                	addi	s2,s2,0
    1be4:	0004                	0x4
    1be6:	0501                	addi	a0,a0,0
    1be8:	060c                	addi	a1,sp,768
    1bea:	00090003          	lb	zero,0(s2)
    1bee:	0100                	addi	s0,sp,128
    1bf0:	0705                	addi	a4,a4,1
    1bf2:	0306                	slli	t1,t1,0x1
    1bf4:	0901                	addi	s2,s2,0
    1bf6:	0004                	0x4
    1bf8:	0501                	addi	a0,a0,0
    1bfa:	0003060b          	0x3060b
    1bfe:	0009                	c.nop	2
    1c00:	0100                	addi	s0,sp,128
    1c02:	0705                	addi	a4,a4,1
    1c04:	0306                	slli	t1,t1,0x1
    1c06:	0901                	addi	s2,s2,0
    1c08:	0002                	c.slli64	zero
    1c0a:	0301                	addi	t1,t1,0
    1c0c:	0902                	c.slli64	s2
    1c0e:	0002                	c.slli64	zero
    1c10:	0301                	addi	t1,t1,0
    1c12:	0901                	addi	s2,s2,0
    1c14:	0000                	unimp
    1c16:	0501                	addi	a0,a0,0
    1c18:	060c                	addi	a1,sp,768
    1c1a:	00090003          	lb	zero,0(s2)
    1c1e:	0100                	addi	s0,sp,128
    1c20:	0705                	addi	a4,a4,1
    1c22:	0306                	slli	t1,t1,0x1
    1c24:	0901                	addi	s2,s2,0
    1c26:	0004                	0x4
    1c28:	0501                	addi	a0,a0,0
    1c2a:	060c                	addi	a1,sp,768
    1c2c:	00090003          	lb	zero,0(s2)
    1c30:	0100                	addi	s0,sp,128
    1c32:	0705                	addi	a4,a4,1
    1c34:	0306                	slli	t1,t1,0x1
    1c36:	0901                	addi	s2,s2,0
    1c38:	0004                	0x4
    1c3a:	0501                	addi	a0,a0,0
    1c3c:	0003060b          	0x3060b
    1c40:	0009                	c.nop	2
    1c42:	0100                	addi	s0,sp,128
    1c44:	0705                	addi	a4,a4,1
    1c46:	0306                	slli	t1,t1,0x1
    1c48:	0901                	addi	s2,s2,0
    1c4a:	0002                	c.slli64	zero
    1c4c:	0501                	addi	a0,a0,0
    1c4e:	060a                	slli	a2,a2,0x2
    1c50:	00097c03          	0x97c03
    1c54:	0100                	addi	s0,sp,128
    1c56:	0705                	addi	a4,a4,1
    1c58:	02090403          	lb	s0,32(s2)
    1c5c:	0100                	addi	s0,sp,128
    1c5e:	0306                	slli	t1,t1,0x1
    1c60:	0902                	c.slli64	s2
    1c62:	0002                	c.slli64	zero
    1c64:	0301                	addi	t1,t1,0
    1c66:	0901                	addi	s2,s2,0
    1c68:	0000                	unimp
    1c6a:	0501                	addi	a0,a0,0
    1c6c:	060c                	addi	a1,sp,768
    1c6e:	00090003          	lb	zero,0(s2)
    1c72:	0100                	addi	s0,sp,128
    1c74:	0705                	addi	a4,a4,1
    1c76:	0306                	slli	t1,t1,0x1
    1c78:	0901                	addi	s2,s2,0
    1c7a:	0004                	0x4
    1c7c:	0501                	addi	a0,a0,0
    1c7e:	060c                	addi	a1,sp,768
    1c80:	00090003          	lb	zero,0(s2)
    1c84:	0100                	addi	s0,sp,128
    1c86:	0705                	addi	a4,a4,1
    1c88:	0306                	slli	t1,t1,0x1
    1c8a:	0901                	addi	s2,s2,0
    1c8c:	0004                	0x4
    1c8e:	0501                	addi	a0,a0,0
    1c90:	0003060b          	0x3060b
    1c94:	0009                	c.nop	2
    1c96:	0100                	addi	s0,sp,128
    1c98:	0705                	addi	a4,a4,1
    1c9a:	0306                	slli	t1,t1,0x1
    1c9c:	0901                	addi	s2,s2,0
    1c9e:	0002                	c.slli64	zero
    1ca0:	0301                	addi	t1,t1,0
    1ca2:	0909                	addi	s2,s2,2
    1ca4:	0002                	c.slli64	zero
    1ca6:	0301                	addi	t1,t1,0
    1ca8:	0902                	c.slli64	s2
    1caa:	0000                	unimp
    1cac:	0301                	addi	t1,t1,0
    1cae:	0901                	addi	s2,s2,0
    1cb0:	0000                	unimp
    1cb2:	0301                	addi	t1,t1,0
    1cb4:	0901                	addi	s2,s2,0
    1cb6:	0000                	unimp
    1cb8:	0501                	addi	a0,a0,0
    1cba:	060c                	addi	a1,sp,768
    1cbc:	00090003          	lb	zero,0(s2)
    1cc0:	0100                	addi	s0,sp,128
    1cc2:	0705                	addi	a4,a4,1
    1cc4:	0306                	slli	t1,t1,0x1
    1cc6:	0901                	addi	s2,s2,0
    1cc8:	0004                	0x4
    1cca:	0501                	addi	a0,a0,0
    1ccc:	060a                	slli	a2,a2,0x2
    1cce:	00097d03          	0x97d03
    1cd2:	0100                	addi	s0,sp,128
    1cd4:	0705                	addi	a4,a4,1
    1cd6:	02090303          	lb	t1,32(s2)
    1cda:	0100                	addi	s0,sp,128
    1cdc:	0105                	addi	sp,sp,1
    1cde:	0306                	slli	t1,t1,0x1
    1ce0:	093d                	addi	s2,s2,15
    1ce2:	0002                	c.slli64	zero
    1ce4:	0501                	addi	a0,a0,0
    1ce6:	09010303          	lb	t1,144(sp)
    1cea:	0000                	unimp
    1cec:	0301                	addi	t1,t1,0
    1cee:	0901                	addi	s2,s2,0
    1cf0:	0000                	unimp
    1cf2:	0301                	addi	t1,t1,0
    1cf4:	0905                	addi	s2,s2,1
    1cf6:	0000                	unimp
    1cf8:	0501                	addi	a0,a0,0
    1cfa:	0608                	addi	a0,sp,768
    1cfc:	00090503          	lb	a0,0(s2)
    1d00:	0100                	addi	s0,sp,128
    1d02:	0a05                	addi	s4,s4,1
    1d04:	04090603          	lb	a2,64(s2)
    1d08:	0100                	addi	s0,sp,128
    1d0a:	1c05                	addi	s8,s8,-31
    1d0c:	04092403          	lw	s0,64(s2)
    1d10:	0100                	addi	s0,sp,128
    1d12:	1405                	addi	s0,s0,-31
    1d14:	04095103          	lhu	sp,64(s2)
    1d18:	0100                	addi	s0,sp,128
    1d1a:	0c05                	addi	s8,s8,1
    1d1c:	02090003          	lb	zero,32(s2)
    1d20:	0100                	addi	s0,sp,128
    1d22:	0305                	addi	t1,t1,1
    1d24:	0306                	slli	t1,t1,0x1
    1d26:	0901                	addi	s2,s2,0
    1d28:	0002                	c.slli64	zero
    1d2a:	0501                	addi	a0,a0,0
    1d2c:	0614                	addi	a3,sp,768
    1d2e:	00090003          	lb	zero,0(s2)
    1d32:	0100                	addi	s0,sp,128
    1d34:	0305                	addi	t1,t1,1
    1d36:	0306                	slli	t1,t1,0x1
    1d38:	0904                	addi	s1,sp,144
    1d3a:	0006                	c.slli	zero,0x1
    1d3c:	0301                	addi	t1,t1,0
    1d3e:	0902                	c.slli64	s2
    1d40:	0000                	unimp
    1d42:	0501                	addi	a0,a0,0
    1d44:	061c                	addi	a5,sp,768
    1d46:	00092803          	lw	a6,0(s2)
    1d4a:	0100                	addi	s0,sp,128
    1d4c:	0f05                	addi	t5,t5,1
    1d4e:	08095803          	lhu	a6,128(s2)
    1d52:	0100                	addi	s0,sp,128
    1d54:	0305                	addi	t1,t1,1
    1d56:	04090003          	lb	zero,64(s2)
    1d5a:	0100                	addi	s0,sp,128
    1d5c:	1b05                	addi	s6,s6,-31
    1d5e:	02090403          	lb	s0,32(s2)
    1d62:	0100                	addi	s0,sp,128
    1d64:	0c05                	addi	s8,s8,1
    1d66:	04090203          	lb	tp,64(s2)
    1d6a:	0100                	addi	s0,sp,128
    1d6c:	1c05                	addi	s8,s8,-31
    1d6e:	02092203          	lw	tp,32(s2)
    1d72:	0100                	addi	s0,sp,128
    1d74:	0305                	addi	t1,t1,1
    1d76:	04095803          	lhu	a6,64(s2)
    1d7a:	0100                	addi	s0,sp,128
    1d7c:	0705                	addi	a4,a4,1
    1d7e:	0306                	slli	t1,t1,0x1
    1d80:	0911                	addi	s2,s2,4
    1d82:	0010                	0x10
    1d84:	0301                	addi	t1,t1,0
    1d86:	0902                	c.slli64	s2
    1d88:	0000                	unimp
    1d8a:	0301                	addi	t1,t1,0
    1d8c:	0901                	addi	s2,s2,0
    1d8e:	0000                	unimp
    1d90:	0301                	addi	t1,t1,0
    1d92:	0901                	addi	s2,s2,0
    1d94:	0000                	unimp
    1d96:	0301                	addi	t1,t1,0
    1d98:	0901                	addi	s2,s2,0
    1d9a:	0000                	unimp
    1d9c:	0501                	addi	a0,a0,0
    1d9e:	060c                	addi	a1,sp,768
    1da0:	00090003          	lb	zero,0(s2)
    1da4:	0100                	addi	s0,sp,128
    1da6:	0705                	addi	a4,a4,1
    1da8:	0306                	slli	t1,t1,0x1
    1daa:	0901                	addi	s2,s2,0
    1dac:	0004                	0x4
    1dae:	0301                	addi	t1,t1,0
    1db0:	0901                	addi	s2,s2,0
    1db2:	0000                	unimp
    1db4:	0501                	addi	a0,a0,0
    1db6:	060a                	slli	a2,a2,0x2
    1db8:	00097c03          	0x97c03
    1dbc:	0100                	addi	s0,sp,128
    1dbe:	0705                	addi	a4,a4,1
    1dc0:	0306                	slli	t1,t1,0x1
    1dc2:	0916                	slli	s2,s2,0x5
    1dc4:	0002                	c.slli64	zero
    1dc6:	0501                	addi	a0,a0,0
    1dc8:	060a                	slli	a2,a2,0x2
    1dca:	00090003          	lb	zero,0(s2)
    1dce:	0100                	addi	s0,sp,128
    1dd0:	0705                	addi	a4,a4,1
    1dd2:	0306                	slli	t1,t1,0x1
    1dd4:	0901                	addi	s2,s2,0
    1dd6:	0004                	0x4
    1dd8:	0501                	addi	a0,a0,0
    1dda:	061c                	addi	a5,sp,768
    1ddc:	00090303          	lb	t1,0(s2)
    1de0:	0100                	addi	s0,sp,128
    1de2:	1a05                	addi	s4,s4,-31
    1de4:	04097d03          	0x4097d03
    1de8:	0100                	addi	s0,sp,128
    1dea:	1c05                	addi	s8,s8,-31
    1dec:	04090303          	lb	t1,64(s2)
    1df0:	0100                	addi	s0,sp,128
    1df2:	1605                	addi	a2,a2,-31
    1df4:	04090003          	lb	zero,64(s2)
    1df8:	0100                	addi	s0,sp,128
    1dfa:	1c05                	addi	s8,s8,-31
    1dfc:	04090003          	lb	zero,64(s2)
    1e00:	0100                	addi	s0,sp,128
    1e02:	0705                	addi	a4,a4,1
    1e04:	0306                	slli	t1,t1,0x1
    1e06:	097f                	0x97f
    1e08:	0004                	0x4
    1e0a:	0501                	addi	a0,a0,0
    1e0c:	060a                	slli	a2,a2,0x2
    1e0e:	00090003          	lb	zero,0(s2)
    1e12:	0100                	addi	s0,sp,128
    1e14:	0705                	addi	a4,a4,1
    1e16:	0306                	slli	t1,t1,0x1
    1e18:	0901                	addi	s2,s2,0
    1e1a:	0004                	0x4
    1e1c:	0501                	addi	a0,a0,0
    1e1e:	061a                	slli	a2,a2,0x6
    1e20:	00090003          	lb	zero,0(s2)
    1e24:	0100                	addi	s0,sp,128
    1e26:	0a05                	addi	s4,s4,1
    1e28:	04090203          	lb	tp,64(s2)
    1e2c:	0100                	addi	s0,sp,128
    1e2e:	1c05                	addi	s8,s8,-31
    1e30:	04090103          	lb	sp,64(s2)
    1e34:	0100                	addi	s0,sp,128
    1e36:	0a05                	addi	s4,s4,1
    1e38:	0a097c03          	0xa097c03
    1e3c:	0100                	addi	s0,sp,128
    1e3e:	0705                	addi	a4,a4,1
    1e40:	0306                	slli	t1,t1,0x1
    1e42:	00020903          	lb	s2,0(tp) # 0 <_min_stack-0x2000>
    1e46:	0301                	addi	t1,t1,0
    1e48:	0901                	addi	s2,s2,0
    1e4a:	0000                	unimp
    1e4c:	0501                	addi	a0,a0,0
    1e4e:	0618                	addi	a4,sp,768
    1e50:	00090b03          	lb	s6,0(s2)
    1e54:	0100                	addi	s0,sp,128
    1e56:	1a05                	addi	s4,s4,-31
    1e58:	04097503          	0x4097503
    1e5c:	0100                	addi	s0,sp,128
    1e5e:	0705                	addi	a4,a4,1
    1e60:	0306                	slli	t1,t1,0x1
    1e62:	0902                	c.slli64	s2
    1e64:	0004                	0x4
    1e66:	0301                	addi	t1,t1,0
    1e68:	0901                	addi	s2,s2,0
    1e6a:	0000                	unimp
    1e6c:	0501                	addi	a0,a0,0
    1e6e:	0103060b          	0x103060b
    1e72:	0009                	c.nop	2
    1e74:	0100                	addi	s0,sp,128
    1e76:	1805                	addi	a6,a6,-31
    1e78:	02090703          	lb	a4,32(s2)
    1e7c:	0100                	addi	s0,sp,128
    1e7e:	1605                	addi	a2,a2,-31
    1e80:	04097503          	0x4097503
    1e84:	0100                	addi	s0,sp,128
    1e86:	1805                	addi	a6,a6,-31
    1e88:	04090b03          	lb	s6,64(s2)
    1e8c:	0100                	addi	s0,sp,128
    1e8e:	0c05                	addi	s8,s8,1
    1e90:	02097803          	0x2097803
    1e94:	0100                	addi	s0,sp,128
    1e96:	0705                	addi	a4,a4,1
    1e98:	0306                	slli	t1,t1,0x1
    1e9a:	0901                	addi	s2,s2,0
    1e9c:	0002                	c.slli64	zero
    1e9e:	0501                	addi	a0,a0,0
    1ea0:	0309                	addi	t1,t1,2
    1ea2:	0902                	c.slli64	s2
    1ea4:	0000                	unimp
    1ea6:	0501                	addi	a0,a0,0
    1ea8:	00030603          	lb	a2,0(t1)
    1eac:	0009                	c.nop	2
    1eae:	0100                	addi	s0,sp,128
    1eb0:	0c05                	addi	s8,s8,1
    1eb2:	02097c03          	0x2097c03
    1eb6:	0100                	addi	s0,sp,128
    1eb8:	02090103          	lb	sp,32(s2)
    1ebc:	0100                	addi	s0,sp,128
    1ebe:	0a05                	addi	s4,s4,1
    1ec0:	02097c03          	0x2097c03
    1ec4:	0100                	addi	s0,sp,128
    1ec6:	0305                	addi	t1,t1,1
    1ec8:	0306                	slli	t1,t1,0x1
    1eca:	0974                	addi	a3,sp,156
    1ecc:	0002                	c.slli64	zero
    1ece:	0501                	addi	a0,a0,0
    1ed0:	09030307          	0x9030307
    1ed4:	0000                	unimp
    1ed6:	0501                	addi	a0,a0,0
    1ed8:	060a                	slli	a2,a2,0x2
    1eda:	00090003          	lb	zero,0(s2)
    1ede:	0100                	addi	s0,sp,128
    1ee0:	0705                	addi	a4,a4,1
    1ee2:	0306                	slli	t1,t1,0x1
    1ee4:	0901                	addi	s2,s2,0
    1ee6:	0004                	0x4
    1ee8:	0501                	addi	a0,a0,0
    1eea:	061c                	addi	a5,sp,768
    1eec:	00090303          	lb	t1,0(s2)
    1ef0:	0100                	addi	s0,sp,128
    1ef2:	1a05                	addi	s4,s4,-31
    1ef4:	04097d03          	0x4097d03
    1ef8:	0100                	addi	s0,sp,128
    1efa:	1c05                	addi	s8,s8,-31
    1efc:	02090303          	lb	t1,32(s2)
    1f00:	0100                	addi	s0,sp,128
    1f02:	1605                	addi	a2,a2,-31
    1f04:	04090003          	lb	zero,64(s2)
    1f08:	0100                	addi	s0,sp,128
    1f0a:	1c05                	addi	s8,s8,-31
    1f0c:	04090003          	lb	zero,64(s2)
    1f10:	0100                	addi	s0,sp,128
    1f12:	0305                	addi	t1,t1,1
    1f14:	0306                	slli	t1,t1,0x1
    1f16:	0911                	addi	s2,s2,4
    1f18:	0004                	0x4
    1f1a:	0501                	addi	a0,a0,0
    1f1c:	0616                	slli	a2,a2,0x5
    1f1e:	00090003          	lb	zero,0(s2)
    1f22:	0100                	addi	s0,sp,128
    1f24:	0105                	addi	sp,sp,1
    1f26:	04090103          	lb	sp,64(s2)
    1f2a:	0100                	addi	s0,sp,128
    1f2c:	0705                	addi	a4,a4,1
    1f2e:	0306                	slli	t1,t1,0x1
    1f30:	095d                	addi	s2,s2,23
    1f32:	0002                	c.slli64	zero
    1f34:	0301                	addi	t1,t1,0
    1f36:	0901                	addi	s2,s2,0
    1f38:	0000                	unimp
    1f3a:	0301                	addi	t1,t1,0
    1f3c:	0901                	addi	s2,s2,0
    1f3e:	0000                	unimp
    1f40:	0501                	addi	a0,a0,0
    1f42:	060c                	addi	a1,sp,768
    1f44:	00090003          	lb	zero,0(s2)
    1f48:	0100                	addi	s0,sp,128
    1f4a:	0705                	addi	a4,a4,1
    1f4c:	0306                	slli	t1,t1,0x1
    1f4e:	0901                	addi	s2,s2,0
    1f50:	0004                	0x4
    1f52:	0301                	addi	t1,t1,0
    1f54:	0901                	addi	s2,s2,0
    1f56:	0000                	unimp
    1f58:	0501                	addi	a0,a0,0
    1f5a:	0003060b          	0x3060b
    1f5e:	0009                	c.nop	2
    1f60:	0100                	addi	s0,sp,128
    1f62:	0705                	addi	a4,a4,1
    1f64:	0306                	slli	t1,t1,0x1
    1f66:	0901                	addi	s2,s2,0
    1f68:	0002                	c.slli64	zero
    1f6a:	0301                	addi	t1,t1,0
    1f6c:	0902                	c.slli64	s2
    1f6e:	0000                	unimp
    1f70:	0301                	addi	t1,t1,0
    1f72:	0969                	addi	s2,s2,26
    1f74:	0004                	0x4
    1f76:	0301                	addi	t1,t1,0
    1f78:	0901                	addi	s2,s2,0
    1f7a:	0000                	unimp
    1f7c:	0301                	addi	t1,t1,0
    1f7e:	0901                	addi	s2,s2,0
    1f80:	0000                	unimp
    1f82:	0301                	addi	t1,t1,0
    1f84:	0901                	addi	s2,s2,0
    1f86:	0000                	unimp
    1f88:	0501                	addi	a0,a0,0
    1f8a:	060c                	addi	a1,sp,768
    1f8c:	00090003          	lb	zero,0(s2)
    1f90:	0100                	addi	s0,sp,128
    1f92:	0705                	addi	a4,a4,1
    1f94:	0306                	slli	t1,t1,0x1
    1f96:	0901                	addi	s2,s2,0
    1f98:	0004                	0x4
    1f9a:	0501                	addi	a0,a0,0
    1f9c:	0003060b          	0x3060b
    1fa0:	0009                	c.nop	2
    1fa2:	0100                	addi	s0,sp,128
    1fa4:	0705                	addi	a4,a4,1
    1fa6:	0306                	slli	t1,t1,0x1
    1fa8:	0901                	addi	s2,s2,0
    1faa:	0002                	c.slli64	zero
    1fac:	0301                	addi	t1,t1,0
    1fae:	0974                	addi	a3,sp,156
    1fb0:	0004                	0x4
    1fb2:	0301                	addi	t1,t1,0
    1fb4:	0901                	addi	s2,s2,0
    1fb6:	0000                	unimp
    1fb8:	0301                	addi	t1,t1,0
    1fba:	0901                	addi	s2,s2,0
    1fbc:	0000                	unimp
    1fbe:	0501                	addi	a0,a0,0
    1fc0:	060c                	addi	a1,sp,768
    1fc2:	00090003          	lb	zero,0(s2)
    1fc6:	0100                	addi	s0,sp,128
    1fc8:	0705                	addi	a4,a4,1
    1fca:	0306                	slli	t1,t1,0x1
    1fcc:	0901                	addi	s2,s2,0
    1fce:	0004                	0x4
    1fd0:	0501                	addi	a0,a0,0
    1fd2:	060a                	slli	a2,a2,0x2
    1fd4:	00092a03          	lw	s4,0(s2)
    1fd8:	0100                	addi	s0,sp,128
    1fda:	0b05                	addi	s6,s6,1
    1fdc:	04095703          	lhu	a4,64(s2)
    1fe0:	0100                	addi	s0,sp,128
    1fe2:	0c05                	addi	s8,s8,1
    1fe4:	02097f03          	0x2097f03
    1fe8:	0100                	addi	s0,sp,128
    1fea:	0705                	addi	a4,a4,1
    1fec:	0306                	slli	t1,t1,0x1
    1fee:	0901                	addi	s2,s2,0
    1ff0:	0004                	0x4
    1ff2:	0301                	addi	t1,t1,0
    1ff4:	0901                	addi	s2,s2,0
    1ff6:	0000                	unimp
    1ff8:	0301                	addi	t1,t1,0
    1ffa:	0928                	addi	a0,sp,152
    1ffc:	0000                	unimp
    1ffe:	0301                	addi	t1,t1,0
    2000:	0901                	addi	s2,s2,0
    2002:	0000                	unimp
    2004:	0501                	addi	a0,a0,0
    2006:	0618                	addi	a4,sp,768
    2008:	00090b03          	lb	s6,0(s2)
    200c:	0100                	addi	s0,sp,128
    200e:	1a05                	addi	s4,s4,-31
    2010:	04097503          	0x4097503
    2014:	0100                	addi	s0,sp,128
    2016:	0705                	addi	a4,a4,1
    2018:	0306                	slli	t1,t1,0x1
    201a:	0902                	c.slli64	s2
    201c:	0004                	0x4
    201e:	0301                	addi	t1,t1,0
    2020:	0901                	addi	s2,s2,0
    2022:	0000                	unimp
    2024:	0501                	addi	a0,a0,0
    2026:	0103060b          	0x103060b
    202a:	0009                	c.nop	2
    202c:	0100                	addi	s0,sp,128
    202e:	1805                	addi	a6,a6,-31
    2030:	02090703          	lb	a4,32(s2)
    2034:	0100                	addi	s0,sp,128
    2036:	0c05                	addi	s8,s8,1
    2038:	04097803          	0x4097803
    203c:	0100                	addi	s0,sp,128
    203e:	0705                	addi	a4,a4,1
    2040:	0306                	slli	t1,t1,0x1
    2042:	0901                	addi	s2,s2,0
    2044:	0002                	c.slli64	zero
    2046:	0501                	addi	a0,a0,0
    2048:	0309                	addi	t1,t1,2
    204a:	0902                	c.slli64	s2
    204c:	0000                	unimp
    204e:	0501                	addi	a0,a0,0
    2050:	0618                	addi	a4,sp,768
    2052:	00090503          	lb	a0,0(s2)
    2056:	0100                	addi	s0,sp,128
    2058:	0305                	addi	t1,t1,1
    205a:	02097b03          	0x2097b03
    205e:	0100                	addi	s0,sp,128
    2060:	0105                	addi	sp,sp,1
    2062:	0306                	slli	t1,t1,0x1
    2064:	00040913          	mv	s2,s0
    2068:	0501                	addi	a0,a0,0
    206a:	0303060f          	0x303060f
    206e:	0009                	c.nop	2
    2070:	0100                	addi	s0,sp,128
    2072:	0a05                	addi	s4,s4,1
    2074:	12090503          	lb	a0,288(s2)
    2078:	0100                	addi	s0,sp,128
    207a:	0305                	addi	t1,t1,1
    207c:	0306                	slli	t1,t1,0x1
    207e:	0979                	addi	s2,s2,30
    2080:	0004                	0x4
    2082:	0301                	addi	t1,t1,0
    2084:	0902                	c.slli64	s2
    2086:	0000                	unimp
    2088:	0501                	addi	a0,a0,0
    208a:	09210307          	0x9210307
    208e:	0002                	c.slli64	zero
    2090:	0501                	addi	a0,a0,0
    2092:	060c                	addi	a1,sp,768
    2094:	00090003          	lb	zero,0(s2)
    2098:	0100                	addi	s0,sp,128
    209a:	0705                	addi	a4,a4,1
    209c:	0306                	slli	t1,t1,0x1
    209e:	0901                	addi	s2,s2,0
    20a0:	0002                	c.slli64	zero
    20a2:	0501                	addi	a0,a0,0
    20a4:	060c                	addi	a1,sp,768
    20a6:	00090003          	lb	zero,0(s2)
    20aa:	0100                	addi	s0,sp,128
    20ac:	0705                	addi	a4,a4,1
    20ae:	0306                	slli	t1,t1,0x1
    20b0:	0901                	addi	s2,s2,0
    20b2:	0002                	c.slli64	zero
    20b4:	0301                	addi	t1,t1,0
    20b6:	0901                	addi	s2,s2,0
    20b8:	0000                	unimp
    20ba:	0501                	addi	a0,a0,0
    20bc:	0003060b          	0x3060b
    20c0:	0009                	c.nop	2
    20c2:	0100                	addi	s0,sp,128
    20c4:	0705                	addi	a4,a4,1
    20c6:	0306                	slli	t1,t1,0x1
    20c8:	0901                	addi	s2,s2,0
    20ca:	0002                	c.slli64	zero
    20cc:	0501                	addi	a0,a0,0
    20ce:	060c                	addi	a1,sp,768
    20d0:	02092e03          	lw	t3,32(s2)
    20d4:	0100                	addi	s0,sp,128
    20d6:	02090103          	lb	sp,32(s2)
    20da:	0100                	addi	s0,sp,128
    20dc:	0305                	addi	t1,t1,1
    20de:	0306                	slli	t1,t1,0x1
    20e0:	0964                	addi	s1,sp,156
    20e2:	0002                	c.slli64	zero
    20e4:	0501                	addi	a0,a0,0
    20e6:	09030307          	0x9030307
    20ea:	0000                	unimp
    20ec:	0501                	addi	a0,a0,0
    20ee:	060a                	slli	a2,a2,0x2
    20f0:	00090003          	lb	zero,0(s2)
    20f4:	0100                	addi	s0,sp,128
    20f6:	0705                	addi	a4,a4,1
    20f8:	0306                	slli	t1,t1,0x1
    20fa:	0901                	addi	s2,s2,0
    20fc:	0002                	c.slli64	zero
    20fe:	0501                	addi	a0,a0,0
    2100:	061a                	slli	a2,a2,0x6
    2102:	00090003          	lb	zero,0(s2)
    2106:	0100                	addi	s0,sp,128
    2108:	0705                	addi	a4,a4,1
    210a:	0306                	slli	t1,t1,0x1
    210c:	0902                	c.slli64	s2
    210e:	0002                	c.slli64	zero
    2110:	0501                	addi	a0,a0,0
    2112:	060a                	slli	a2,a2,0x2
    2114:	00090003          	lb	zero,0(s2)
    2118:	0100                	addi	s0,sp,128
    211a:	0705                	addi	a4,a4,1
    211c:	0306                	slli	t1,t1,0x1
    211e:	0901                	addi	s2,s2,0
    2120:	0002                	c.slli64	zero
    2122:	0501                	addi	a0,a0,0
    2124:	061a                	slli	a2,a2,0x6
    2126:	00090003          	lb	zero,0(s2)
    212a:	0100                	addi	s0,sp,128
    212c:	0705                	addi	a4,a4,1
    212e:	0306                	slli	t1,t1,0x1
    2130:	0902                	c.slli64	s2
    2132:	0002                	c.slli64	zero
    2134:	0501                	addi	a0,a0,0
    2136:	060a                	slli	a2,a2,0x2
    2138:	00090003          	lb	zero,0(s2)
    213c:	0100                	addi	s0,sp,128
    213e:	0705                	addi	a4,a4,1
    2140:	0306                	slli	t1,t1,0x1
    2142:	0901                	addi	s2,s2,0
    2144:	0002                	c.slli64	zero
    2146:	0501                	addi	a0,a0,0
    2148:	061a                	slli	a2,a2,0x6
    214a:	00090003          	lb	zero,0(s2)
    214e:	0100                	addi	s0,sp,128
    2150:	0a05                	addi	s4,s4,1
    2152:	02097f03          	0x2097f03
    2156:	0100                	addi	s0,sp,128
    2158:	0705                	addi	a4,a4,1
    215a:	0306                	slli	t1,t1,0x1
    215c:	00020903          	lb	s2,0(tp) # 0 <_min_stack-0x2000>
    2160:	0501                	addi	a0,a0,0
    2162:	060a                	slli	a2,a2,0x2
    2164:	00090003          	lb	zero,0(s2)
    2168:	0100                	addi	s0,sp,128
    216a:	0705                	addi	a4,a4,1
    216c:	0306                	slli	t1,t1,0x1
    216e:	0901                	addi	s2,s2,0
    2170:	0002                	c.slli64	zero
    2172:	0501                	addi	a0,a0,0
    2174:	061a                	slli	a2,a2,0x6
    2176:	00090003          	lb	zero,0(s2)
    217a:	0100                	addi	s0,sp,128
    217c:	0705                	addi	a4,a4,1
    217e:	0306                	slli	t1,t1,0x1
    2180:	0902                	c.slli64	s2
    2182:	0002                	c.slli64	zero
    2184:	0501                	addi	a0,a0,0
    2186:	060a                	slli	a2,a2,0x2
    2188:	00090003          	lb	zero,0(s2)
    218c:	0100                	addi	s0,sp,128
    218e:	0705                	addi	a4,a4,1
    2190:	0306                	slli	t1,t1,0x1
    2192:	0901                	addi	s2,s2,0
    2194:	0002                	c.slli64	zero
    2196:	0501                	addi	a0,a0,0
    2198:	061a                	slli	a2,a2,0x6
    219a:	00090003          	lb	zero,0(s2)
    219e:	0100                	addi	s0,sp,128
    21a0:	0705                	addi	a4,a4,1
    21a2:	0306                	slli	t1,t1,0x1
    21a4:	0902                	c.slli64	s2
    21a6:	0002                	c.slli64	zero
    21a8:	0501                	addi	a0,a0,0
    21aa:	060a                	slli	a2,a2,0x2
    21ac:	00090003          	lb	zero,0(s2)
    21b0:	0100                	addi	s0,sp,128
    21b2:	0705                	addi	a4,a4,1
    21b4:	0306                	slli	t1,t1,0x1
    21b6:	0901                	addi	s2,s2,0
    21b8:	0002                	c.slli64	zero
    21ba:	0501                	addi	a0,a0,0
    21bc:	061a                	slli	a2,a2,0x6
    21be:	00090003          	lb	zero,0(s2)
    21c2:	0100                	addi	s0,sp,128
    21c4:	0705                	addi	a4,a4,1
    21c6:	0306                	slli	t1,t1,0x1
    21c8:	0902                	c.slli64	s2
    21ca:	0002                	c.slli64	zero
    21cc:	0501                	addi	a0,a0,0
    21ce:	060a                	slli	a2,a2,0x2
    21d0:	00090003          	lb	zero,0(s2)
    21d4:	0100                	addi	s0,sp,128
    21d6:	0705                	addi	a4,a4,1
    21d8:	0306                	slli	t1,t1,0x1
    21da:	0901                	addi	s2,s2,0
    21dc:	0002                	c.slli64	zero
    21de:	0501                	addi	a0,a0,0
    21e0:	061a                	slli	a2,a2,0x6
    21e2:	00090003          	lb	zero,0(s2)
    21e6:	0100                	addi	s0,sp,128
    21e8:	0705                	addi	a4,a4,1
    21ea:	0306                	slli	t1,t1,0x1
    21ec:	0902                	c.slli64	s2
    21ee:	0002                	c.slli64	zero
    21f0:	0501                	addi	a0,a0,0
    21f2:	060a                	slli	a2,a2,0x2
    21f4:	00090003          	lb	zero,0(s2)
    21f8:	0100                	addi	s0,sp,128
    21fa:	0705                	addi	a4,a4,1
    21fc:	0306                	slli	t1,t1,0x1
    21fe:	0901                	addi	s2,s2,0
    2200:	0002                	c.slli64	zero
    2202:	0501                	addi	a0,a0,0
    2204:	0403060b          	0x403060b
    2208:	0009                	c.nop	2
    220a:	0100                	addi	s0,sp,128
    220c:	1a05                	addi	s4,s4,-31
    220e:	02097c03          	0x2097c03
    2212:	0100                	addi	s0,sp,128
    2214:	0705                	addi	a4,a4,1
    2216:	0306                	slli	t1,t1,0x1
    2218:	0902                	c.slli64	s2
    221a:	0002                	c.slli64	zero
    221c:	0301                	addi	t1,t1,0
    221e:	0901                	addi	s2,s2,0
    2220:	0000                	unimp
    2222:	0301                	addi	t1,t1,0
    2224:	0901                	addi	s2,s2,0
    2226:	0000                	unimp
    2228:	0501                	addi	a0,a0,0
    222a:	0309                	addi	t1,t1,2
    222c:	0902                	c.slli64	s2
    222e:	0000                	unimp
    2230:	0501                	addi	a0,a0,0
    2232:	00030603          	lb	a2,0(t1)
    2236:	0009                	c.nop	2
    2238:	0100                	addi	s0,sp,128
    223a:	0306                	slli	t1,t1,0x1
    223c:	0905                	addi	s2,s2,1
    223e:	0002                	c.slli64	zero
    2240:	0501                	addi	a0,a0,0
    2242:	0616                	slli	a2,a2,0x5
    2244:	00090003          	lb	zero,0(s2)
    2248:	0100                	addi	s0,sp,128
    224a:	0105                	addi	sp,sp,1
    224c:	04090103          	lb	sp,64(s2)
    2250:	0100                	addi	s0,sp,128
    2252:	0705                	addi	a4,a4,1
    2254:	0306                	slli	t1,t1,0x1
    2256:	0952                	slli	s2,s2,0x14
    2258:	0002                	c.slli64	zero
    225a:	0501                	addi	a0,a0,0
    225c:	060c                	addi	a1,sp,768
    225e:	00090003          	lb	zero,0(s2)
    2262:	0100                	addi	s0,sp,128
    2264:	0705                	addi	a4,a4,1
    2266:	0306                	slli	t1,t1,0x1
    2268:	0901                	addi	s2,s2,0
    226a:	0004                	0x4
    226c:	0501                	addi	a0,a0,0
    226e:	060c                	addi	a1,sp,768
    2270:	00090003          	lb	zero,0(s2)
    2274:	0100                	addi	s0,sp,128
    2276:	0705                	addi	a4,a4,1
    2278:	0306                	slli	t1,t1,0x1
    227a:	0901                	addi	s2,s2,0
    227c:	0002                	c.slli64	zero
    227e:	0301                	addi	t1,t1,0
    2280:	0901                	addi	s2,s2,0
    2282:	0000                	unimp
    2284:	0501                	addi	a0,a0,0
    2286:	0003060b          	0x3060b
    228a:	0009                	c.nop	2
    228c:	0100                	addi	s0,sp,128
    228e:	0705                	addi	a4,a4,1
    2290:	0306                	slli	t1,t1,0x1
    2292:	0901                	addi	s2,s2,0
    2294:	0002                	c.slli64	zero
    2296:	0301                	addi	t1,t1,0
    2298:	0902                	c.slli64	s2
    229a:	0000                	unimp
    229c:	0301                	addi	t1,t1,0
    229e:	094e                	slli	s2,s2,0x13
    22a0:	0002                	c.slli64	zero
    22a2:	0501                	addi	a0,a0,0
    22a4:	060c                	addi	a1,sp,768
    22a6:	00090003          	lb	zero,0(s2)
    22aa:	0100                	addi	s0,sp,128
    22ac:	0705                	addi	a4,a4,1
    22ae:	0306                	slli	t1,t1,0x1
    22b0:	0901                	addi	s2,s2,0
    22b2:	0002                	c.slli64	zero
    22b4:	0501                	addi	a0,a0,0
    22b6:	060c                	addi	a1,sp,768
    22b8:	00090003          	lb	zero,0(s2)
    22bc:	0100                	addi	s0,sp,128
    22be:	0705                	addi	a4,a4,1
    22c0:	0306                	slli	t1,t1,0x1
    22c2:	0901                	addi	s2,s2,0
    22c4:	0002                	c.slli64	zero
    22c6:	0301                	addi	t1,t1,0
    22c8:	0901                	addi	s2,s2,0
    22ca:	0000                	unimp
    22cc:	0501                	addi	a0,a0,0
    22ce:	0003060b          	0x3060b
    22d2:	0009                	c.nop	2
    22d4:	0100                	addi	s0,sp,128
    22d6:	0705                	addi	a4,a4,1
    22d8:	0306                	slli	t1,t1,0x1
    22da:	0901                	addi	s2,s2,0
    22dc:	0002                	c.slli64	zero
    22de:	0501                	addi	a0,a0,0
    22e0:	060a                	slli	a2,a2,0x2
    22e2:	00097e03          	0x97e03
    22e6:	0100                	addi	s0,sp,128
    22e8:	0705                	addi	a4,a4,1
    22ea:	02090203          	lb	tp,32(s2)
    22ee:	0100                	addi	s0,sp,128
    22f0:	0306                	slli	t1,t1,0x1
    22f2:	0902                	c.slli64	s2
    22f4:	0002                	c.slli64	zero
    22f6:	0501                	addi	a0,a0,0
    22f8:	060c                	addi	a1,sp,768
    22fa:	00090003          	lb	zero,0(s2)
    22fe:	0100                	addi	s0,sp,128
    2300:	0705                	addi	a4,a4,1
    2302:	0306                	slli	t1,t1,0x1
    2304:	0901                	addi	s2,s2,0
    2306:	0002                	c.slli64	zero
    2308:	0501                	addi	a0,a0,0
    230a:	060c                	addi	a1,sp,768
    230c:	00090003          	lb	zero,0(s2)
    2310:	0100                	addi	s0,sp,128
    2312:	0705                	addi	a4,a4,1
    2314:	0306                	slli	t1,t1,0x1
    2316:	0901                	addi	s2,s2,0
    2318:	0002                	c.slli64	zero
    231a:	0301                	addi	t1,t1,0
    231c:	0901                	addi	s2,s2,0
    231e:	0000                	unimp
    2320:	0501                	addi	a0,a0,0
    2322:	0003060b          	0x3060b
    2326:	0009                	c.nop	2
    2328:	0100                	addi	s0,sp,128
    232a:	0705                	addi	a4,a4,1
    232c:	0306                	slli	t1,t1,0x1
    232e:	0901                	addi	s2,s2,0
    2330:	0002                	c.slli64	zero
    2332:	0501                	addi	a0,a0,0
    2334:	060a                	slli	a2,a2,0x2
    2336:	00097e03          	0x97e03
    233a:	0100                	addi	s0,sp,128
    233c:	0705                	addi	a4,a4,1
    233e:	02090203          	lb	tp,32(s2)
    2342:	0100                	addi	s0,sp,128
    2344:	0306                	slli	t1,t1,0x1
    2346:	0902                	c.slli64	s2
    2348:	0002                	c.slli64	zero
    234a:	0501                	addi	a0,a0,0
    234c:	060c                	addi	a1,sp,768
    234e:	00090003          	lb	zero,0(s2)
    2352:	0100                	addi	s0,sp,128
    2354:	0705                	addi	a4,a4,1
    2356:	0306                	slli	t1,t1,0x1
    2358:	0901                	addi	s2,s2,0
    235a:	0002                	c.slli64	zero
    235c:	0501                	addi	a0,a0,0
    235e:	060c                	addi	a1,sp,768
    2360:	00090003          	lb	zero,0(s2)
    2364:	0100                	addi	s0,sp,128
    2366:	0705                	addi	a4,a4,1
    2368:	0306                	slli	t1,t1,0x1
    236a:	0901                	addi	s2,s2,0
    236c:	0002                	c.slli64	zero
    236e:	0301                	addi	t1,t1,0
    2370:	0901                	addi	s2,s2,0
    2372:	0000                	unimp
    2374:	0501                	addi	a0,a0,0
    2376:	0003060b          	0x3060b
    237a:	0009                	c.nop	2
    237c:	0100                	addi	s0,sp,128
    237e:	0705                	addi	a4,a4,1
    2380:	0306                	slli	t1,t1,0x1
    2382:	0901                	addi	s2,s2,0
    2384:	0002                	c.slli64	zero
    2386:	0301                	addi	t1,t1,0
    2388:	0902                	c.slli64	s2
    238a:	0002                	c.slli64	zero
    238c:	0501                	addi	a0,a0,0
    238e:	060c                	addi	a1,sp,768
    2390:	00090003          	lb	zero,0(s2)
    2394:	0100                	addi	s0,sp,128
    2396:	0705                	addi	a4,a4,1
    2398:	0306                	slli	t1,t1,0x1
    239a:	0901                	addi	s2,s2,0
    239c:	0002                	c.slli64	zero
    239e:	0501                	addi	a0,a0,0
    23a0:	060c                	addi	a1,sp,768
    23a2:	00090003          	lb	zero,0(s2)
    23a6:	0100                	addi	s0,sp,128
    23a8:	0705                	addi	a4,a4,1
    23aa:	0306                	slli	t1,t1,0x1
    23ac:	0901                	addi	s2,s2,0
    23ae:	0002                	c.slli64	zero
    23b0:	0301                	addi	t1,t1,0
    23b2:	0901                	addi	s2,s2,0
    23b4:	0000                	unimp
    23b6:	0501                	addi	a0,a0,0
    23b8:	0003060b          	0x3060b
    23bc:	0009                	c.nop	2
    23be:	0100                	addi	s0,sp,128
    23c0:	0705                	addi	a4,a4,1
    23c2:	0306                	slli	t1,t1,0x1
    23c4:	0901                	addi	s2,s2,0
    23c6:	0002                	c.slli64	zero
    23c8:	0501                	addi	a0,a0,0
    23ca:	060a                	slli	a2,a2,0x2
    23cc:	00097e03          	0x97e03
    23d0:	0100                	addi	s0,sp,128
    23d2:	0705                	addi	a4,a4,1
    23d4:	02090203          	lb	tp,32(s2)
    23d8:	0100                	addi	s0,sp,128
    23da:	0306                	slli	t1,t1,0x1
    23dc:	0902                	c.slli64	s2
    23de:	0002                	c.slli64	zero
    23e0:	0501                	addi	a0,a0,0
    23e2:	060c                	addi	a1,sp,768
    23e4:	00090003          	lb	zero,0(s2)
    23e8:	0100                	addi	s0,sp,128
    23ea:	0705                	addi	a4,a4,1
    23ec:	0306                	slli	t1,t1,0x1
    23ee:	0901                	addi	s2,s2,0
    23f0:	0002                	c.slli64	zero
    23f2:	0501                	addi	a0,a0,0
    23f4:	060c                	addi	a1,sp,768
    23f6:	00090003          	lb	zero,0(s2)
    23fa:	0100                	addi	s0,sp,128
    23fc:	0705                	addi	a4,a4,1
    23fe:	0306                	slli	t1,t1,0x1
    2400:	0901                	addi	s2,s2,0
    2402:	0002                	c.slli64	zero
    2404:	0301                	addi	t1,t1,0
    2406:	0901                	addi	s2,s2,0
    2408:	0000                	unimp
    240a:	0501                	addi	a0,a0,0
    240c:	0003060b          	0x3060b
    2410:	0009                	c.nop	2
    2412:	0100                	addi	s0,sp,128
    2414:	0705                	addi	a4,a4,1
    2416:	0306                	slli	t1,t1,0x1
    2418:	0901                	addi	s2,s2,0
    241a:	0002                	c.slli64	zero
    241c:	0301                	addi	t1,t1,0
    241e:	0909                	addi	s2,s2,2
    2420:	0002                	c.slli64	zero
    2422:	0301                	addi	t1,t1,0
    2424:	0902                	c.slli64	s2
    2426:	0000                	unimp
    2428:	0501                	addi	a0,a0,0
    242a:	060c                	addi	a1,sp,768
    242c:	00090003          	lb	zero,0(s2)
    2430:	0100                	addi	s0,sp,128
    2432:	0705                	addi	a4,a4,1
    2434:	0306                	slli	t1,t1,0x1
    2436:	0901                	addi	s2,s2,0
    2438:	0002                	c.slli64	zero
    243a:	0501                	addi	a0,a0,0
    243c:	060c                	addi	a1,sp,768
    243e:	00090003          	lb	zero,0(s2)
    2442:	0100                	addi	s0,sp,128
    2444:	0705                	addi	a4,a4,1
    2446:	0306                	slli	t1,t1,0x1
    2448:	0901                	addi	s2,s2,0
    244a:	0002                	c.slli64	zero
    244c:	0301                	addi	t1,t1,0
    244e:	0901                	addi	s2,s2,0
    2450:	0000                	unimp
    2452:	0501                	addi	a0,a0,0
    2454:	060a                	slli	a2,a2,0x2
    2456:	00097f03          	0x97f03
    245a:	0100                	addi	s0,sp,128
    245c:	0705                	addi	a4,a4,1
    245e:	02090103          	lb	sp,32(s2)
    2462:	0100                	addi	s0,sp,128
    2464:	0105                	addi	sp,sp,1
    2466:	0306                	slli	t1,t1,0x1
    2468:	093d                	addi	s2,s2,15
    246a:	0002                	c.slli64	zero
    246c:	0501                	addi	a0,a0,0
    246e:	09010303          	lb	t1,144(sp)
    2472:	0000                	unimp
    2474:	0301                	addi	t1,t1,0
    2476:	0901                	addi	s2,s2,0
    2478:	0000                	unimp
    247a:	0301                	addi	t1,t1,0
    247c:	0905                	addi	s2,s2,1
    247e:	0000                	unimp
    2480:	0501                	addi	a0,a0,0
    2482:	0608                	addi	a0,sp,768
    2484:	00090503          	lb	a0,0(s2)
    2488:	0100                	addi	s0,sp,128
    248a:	0a05                	addi	s4,s4,1
    248c:	04090903          	lb	s2,64(s2)
    2490:	0100                	addi	s0,sp,128
    2492:	1c05                	addi	s8,s8,-31
    2494:	04092103          	lw	sp,64(s2)
    2498:	0100                	addi	s0,sp,128
    249a:	1405                	addi	s0,s0,-31
    249c:	02095103          	lhu	sp,32(s2)
    24a0:	0100                	addi	s0,sp,128
    24a2:	0c05                	addi	s8,s8,1
    24a4:	02090003          	lb	zero,32(s2)
    24a8:	0100                	addi	s0,sp,128
    24aa:	0305                	addi	t1,t1,1
    24ac:	0306                	slli	t1,t1,0x1
    24ae:	0901                	addi	s2,s2,0
    24b0:	0002                	c.slli64	zero
    24b2:	0501                	addi	a0,a0,0
    24b4:	0614                	addi	a3,sp,768
    24b6:	00090003          	lb	zero,0(s2)
    24ba:	0100                	addi	s0,sp,128
    24bc:	0305                	addi	t1,t1,1
    24be:	0306                	slli	t1,t1,0x1
    24c0:	0904                	addi	s1,sp,144
    24c2:	0008                	0x8
    24c4:	0301                	addi	t1,t1,0
    24c6:	0901                	addi	s2,s2,0
    24c8:	0000                	unimp
    24ca:	0301                	addi	t1,t1,0
    24cc:	0902                	c.slli64	s2
    24ce:	0000                	unimp
    24d0:	0501                	addi	a0,a0,0
    24d2:	061c                	addi	a5,sp,768
    24d4:	00092703          	lw	a4,0(s2)
    24d8:	0100                	addi	s0,sp,128
    24da:	0f05                	addi	t5,t5,1
    24dc:	08095903          	lhu	s2,128(s2)
    24e0:	0100                	addi	s0,sp,128
    24e2:	0305                	addi	t1,t1,1
    24e4:	04090003          	lb	zero,64(s2)
    24e8:	0100                	addi	s0,sp,128
    24ea:	1c05                	addi	s8,s8,-31
    24ec:	02092703          	lw	a4,32(s2)
    24f0:	0100                	addi	s0,sp,128
    24f2:	0305                	addi	t1,t1,1
    24f4:	04095903          	lhu	s2,64(s2)
    24f8:	0100                	addi	s0,sp,128
    24fa:	0705                	addi	a4,a4,1
    24fc:	0306                	slli	t1,t1,0x1
    24fe:	0911                	addi	s2,s2,4
    2500:	0010                	0x10
    2502:	0301                	addi	t1,t1,0
    2504:	0902                	c.slli64	s2
    2506:	0000                	unimp
    2508:	0501                	addi	a0,a0,0
    250a:	060c                	addi	a1,sp,768
    250c:	00090003          	lb	zero,0(s2)
    2510:	0100                	addi	s0,sp,128
    2512:	0705                	addi	a4,a4,1
    2514:	0306                	slli	t1,t1,0x1
    2516:	0901                	addi	s2,s2,0
    2518:	0002                	c.slli64	zero
    251a:	0501                	addi	a0,a0,0
    251c:	060c                	addi	a1,sp,768
    251e:	00090003          	lb	zero,0(s2)
    2522:	0100                	addi	s0,sp,128
    2524:	0705                	addi	a4,a4,1
    2526:	0306                	slli	t1,t1,0x1
    2528:	0901                	addi	s2,s2,0
    252a:	0002                	c.slli64	zero
    252c:	0301                	addi	t1,t1,0
    252e:	0901                	addi	s2,s2,0
    2530:	0000                	unimp
    2532:	0301                	addi	t1,t1,0
    2534:	0901                	addi	s2,s2,0
    2536:	0000                	unimp
    2538:	0501                	addi	a0,a0,0
    253a:	060a                	slli	a2,a2,0x2
    253c:	00097f03          	0x97f03
    2540:	0100                	addi	s0,sp,128
    2542:	0705                	addi	a4,a4,1
    2544:	0306                	slli	t1,t1,0x1
    2546:	00020913          	mv	s2,tp
    254a:	0501                	addi	a0,a0,0
    254c:	060a                	slli	a2,a2,0x2
    254e:	00090003          	lb	zero,0(s2)
    2552:	0100                	addi	s0,sp,128
    2554:	0705                	addi	a4,a4,1
    2556:	0306                	slli	t1,t1,0x1
    2558:	0901                	addi	s2,s2,0
    255a:	0002                	c.slli64	zero
    255c:	0501                	addi	a0,a0,0
    255e:	061c                	addi	a5,sp,768
    2560:	00090303          	lb	t1,0(s2)
    2564:	0100                	addi	s0,sp,128
    2566:	1a05                	addi	s4,s4,-31
    2568:	04097d03          	0x4097d03
    256c:	0100                	addi	s0,sp,128
    256e:	1c05                	addi	s8,s8,-31
    2570:	02090303          	lb	t1,32(s2)
    2574:	0100                	addi	s0,sp,128
    2576:	0705                	addi	a4,a4,1
    2578:	0306                	slli	t1,t1,0x1
    257a:	097f                	0x97f
    257c:	0008                	0x8
    257e:	0501                	addi	a0,a0,0
    2580:	060a                	slli	a2,a2,0x2
    2582:	00090003          	lb	zero,0(s2)
    2586:	0100                	addi	s0,sp,128
    2588:	0705                	addi	a4,a4,1
    258a:	0306                	slli	t1,t1,0x1
    258c:	0901                	addi	s2,s2,0
    258e:	0004                	0x4
    2590:	0501                	addi	a0,a0,0
    2592:	061c                	addi	a5,sp,768
    2594:	00090303          	lb	t1,0(s2)
    2598:	0100                	addi	s0,sp,128
    259a:	1a05                	addi	s4,s4,-31
    259c:	04097d03          	0x4097d03
    25a0:	0100                	addi	s0,sp,128
    25a2:	1c05                	addi	s8,s8,-31
    25a4:	02090303          	lb	t1,32(s2)
    25a8:	0100                	addi	s0,sp,128
    25aa:	0a05                	addi	s4,s4,1
    25ac:	06097c03          	0x6097c03
    25b0:	0100                	addi	s0,sp,128
    25b2:	0705                	addi	a4,a4,1
    25b4:	0306                	slli	t1,t1,0x1
    25b6:	00020903          	lb	s2,0(tp) # 0 <_min_stack-0x2000>
    25ba:	0501                	addi	a0,a0,0
    25bc:	060a                	slli	a2,a2,0x2
    25be:	00090003          	lb	zero,0(s2)
    25c2:	0100                	addi	s0,sp,128
    25c4:	0705                	addi	a4,a4,1
    25c6:	0306                	slli	t1,t1,0x1
    25c8:	0901                	addi	s2,s2,0
    25ca:	0004                	0x4
    25cc:	0501                	addi	a0,a0,0
    25ce:	0618                	addi	a4,sp,768
    25d0:	00090b03          	lb	s6,0(s2)
    25d4:	0100                	addi	s0,sp,128
    25d6:	1a05                	addi	s4,s4,-31
    25d8:	04097503          	0x4097503
    25dc:	0100                	addi	s0,sp,128
    25de:	0705                	addi	a4,a4,1
    25e0:	0306                	slli	t1,t1,0x1
    25e2:	0902                	c.slli64	s2
    25e4:	0002                	c.slli64	zero
    25e6:	0301                	addi	t1,t1,0
    25e8:	0901                	addi	s2,s2,0
    25ea:	0000                	unimp
    25ec:	0301                	addi	t1,t1,0
    25ee:	0901                	addi	s2,s2,0
    25f0:	0000                	unimp
    25f2:	0501                	addi	a0,a0,0
    25f4:	0003060b          	0x3060b
    25f8:	0009                	c.nop	2
    25fa:	0100                	addi	s0,sp,128
    25fc:	0905                	addi	s2,s2,1
    25fe:	0306                	slli	t1,t1,0x1
    2600:	0902                	c.slli64	s2
    2602:	0002                	c.slli64	zero
    2604:	0501                	addi	a0,a0,0
    2606:	0618                	addi	a4,sp,768
    2608:	00090503          	lb	a0,0(s2)
    260c:	0100                	addi	s0,sp,128
    260e:	0305                	addi	t1,t1,1
    2610:	06097b03          	0x6097b03
    2614:	0100                	addi	s0,sp,128
    2616:	0c05                	addi	s8,s8,1
    2618:	02097c03          	0x2097c03
    261c:	0100                	addi	s0,sp,128
    261e:	02090103          	lb	sp,32(s2)
    2622:	0100                	addi	s0,sp,128
    2624:	0a05                	addi	s4,s4,1
    2626:	02097c03          	0x2097c03
    262a:	0100                	addi	s0,sp,128
    262c:	0305                	addi	t1,t1,1
    262e:	0306                	slli	t1,t1,0x1
    2630:	0974                	addi	a3,sp,156
    2632:	0002                	c.slli64	zero
    2634:	0501                	addi	a0,a0,0
    2636:	09030307          	0x9030307
    263a:	0000                	unimp
    263c:	0501                	addi	a0,a0,0
    263e:	060a                	slli	a2,a2,0x2
    2640:	00090003          	lb	zero,0(s2)
    2644:	0100                	addi	s0,sp,128
    2646:	0705                	addi	a4,a4,1
    2648:	0306                	slli	t1,t1,0x1
    264a:	0901                	addi	s2,s2,0
    264c:	0004                	0x4
    264e:	0501                	addi	a0,a0,0
    2650:	061c                	addi	a5,sp,768
    2652:	00090303          	lb	t1,0(s2)
    2656:	0100                	addi	s0,sp,128
    2658:	1a05                	addi	s4,s4,-31
    265a:	04097d03          	0x4097d03
    265e:	0100                	addi	s0,sp,128
    2660:	1c05                	addi	s8,s8,-31
    2662:	02090303          	lb	t1,32(s2)
    2666:	0100                	addi	s0,sp,128
    2668:	0305                	addi	t1,t1,1
    266a:	0306                	slli	t1,t1,0x1
    266c:	0911                	addi	s2,s2,4
    266e:	0008                	0x8
    2670:	0501                	addi	a0,a0,0
    2672:	0616                	slli	a2,a2,0x5
    2674:	00090003          	lb	zero,0(s2)
    2678:	0100                	addi	s0,sp,128
    267a:	0105                	addi	sp,sp,1
    267c:	04090103          	lb	sp,64(s2)
    2680:	0100                	addi	s0,sp,128
    2682:	0705                	addi	a4,a4,1
    2684:	0306                	slli	t1,t1,0x1
    2686:	095d                	addi	s2,s2,23
    2688:	0002                	c.slli64	zero
    268a:	0501                	addi	a0,a0,0
    268c:	060c                	addi	a1,sp,768
    268e:	00090003          	lb	zero,0(s2)
    2692:	0100                	addi	s0,sp,128
    2694:	0705                	addi	a4,a4,1
    2696:	0306                	slli	t1,t1,0x1
    2698:	0901                	addi	s2,s2,0
    269a:	0002                	c.slli64	zero
    269c:	0501                	addi	a0,a0,0
    269e:	060c                	addi	a1,sp,768
    26a0:	00090003          	lb	zero,0(s2)
    26a4:	0100                	addi	s0,sp,128
    26a6:	0705                	addi	a4,a4,1
    26a8:	0306                	slli	t1,t1,0x1
    26aa:	0901                	addi	s2,s2,0
    26ac:	0002                	c.slli64	zero
    26ae:	0301                	addi	t1,t1,0
    26b0:	0901                	addi	s2,s2,0
    26b2:	0000                	unimp
    26b4:	0301                	addi	t1,t1,0
    26b6:	0901                	addi	s2,s2,0
    26b8:	0000                	unimp
    26ba:	0501                	addi	a0,a0,0
    26bc:	0003060b          	0x3060b
    26c0:	0009                	c.nop	2
    26c2:	0100                	addi	s0,sp,128
    26c4:	0705                	addi	a4,a4,1
    26c6:	0306                	slli	t1,t1,0x1
    26c8:	0901                	addi	s2,s2,0
    26ca:	0002                	c.slli64	zero
    26cc:	0301                	addi	t1,t1,0
    26ce:	0902                	c.slli64	s2
    26d0:	0000                	unimp
    26d2:	0301                	addi	t1,t1,0
    26d4:	096a                	slli	s2,s2,0x1a
    26d6:	0002                	c.slli64	zero
    26d8:	0501                	addi	a0,a0,0
    26da:	060c                	addi	a1,sp,768
    26dc:	00090003          	lb	zero,0(s2)
    26e0:	0100                	addi	s0,sp,128
    26e2:	0705                	addi	a4,a4,1
    26e4:	0306                	slli	t1,t1,0x1
    26e6:	0901                	addi	s2,s2,0
    26e8:	0002                	c.slli64	zero
    26ea:	0501                	addi	a0,a0,0
    26ec:	060c                	addi	a1,sp,768
    26ee:	00090003          	lb	zero,0(s2)
    26f2:	0100                	addi	s0,sp,128
    26f4:	0705                	addi	a4,a4,1
    26f6:	0306                	slli	t1,t1,0x1
    26f8:	0901                	addi	s2,s2,0
    26fa:	0002                	c.slli64	zero
    26fc:	0301                	addi	t1,t1,0
    26fe:	0901                	addi	s2,s2,0
    2700:	0000                	unimp
    2702:	0301                	addi	t1,t1,0
    2704:	0901                	addi	s2,s2,0
    2706:	0000                	unimp
    2708:	0501                	addi	a0,a0,0
    270a:	0003060b          	0x3060b
    270e:	0009                	c.nop	2
    2710:	0100                	addi	s0,sp,128
    2712:	0705                	addi	a4,a4,1
    2714:	0306                	slli	t1,t1,0x1
    2716:	0901                	addi	s2,s2,0
    2718:	0002                	c.slli64	zero
    271a:	0301                	addi	t1,t1,0
    271c:	0974                	addi	a3,sp,156
    271e:	0002                	c.slli64	zero
    2720:	0501                	addi	a0,a0,0
    2722:	060a                	slli	a2,a2,0x2
    2724:	00092c03          	lw	s8,0(s2)
    2728:	0100                	addi	s0,sp,128
    272a:	0b05                	addi	s6,s6,1
    272c:	04095803          	lhu	a6,64(s2)
    2730:	0100                	addi	s0,sp,128
    2732:	1805                	addi	a6,a6,-31
    2734:	02093403          	0x2093403
    2738:	0100                	addi	s0,sp,128
    273a:	1a05                	addi	s4,s4,-31
    273c:	04097503          	0x4097503
    2740:	0100                	addi	s0,sp,128
    2742:	0b05                	addi	s6,s6,1
    2744:	04090403          	lb	s0,64(s2)
    2748:	0100                	addi	s0,sp,128
    274a:	1805                	addi	a6,a6,-31
    274c:	02090703          	lb	a4,32(s2)
    2750:	0100                	addi	s0,sp,128
    2752:	0c05                	addi	s8,s8,1
    2754:	04094803          	lbu	a6,64(s2)
    2758:	0100                	addi	s0,sp,128
    275a:	0705                	addi	a4,a4,1
    275c:	0306                	slli	t1,t1,0x1
    275e:	0901                	addi	s2,s2,0
    2760:	0002                	c.slli64	zero
    2762:	0501                	addi	a0,a0,0
    2764:	060c                	addi	a1,sp,768
    2766:	00090003          	lb	zero,0(s2)
    276a:	0100                	addi	s0,sp,128
    276c:	0705                	addi	a4,a4,1
    276e:	0306                	slli	t1,t1,0x1
    2770:	0901                	addi	s2,s2,0
    2772:	0002                	c.slli64	zero
    2774:	0301                	addi	t1,t1,0
    2776:	0901                	addi	s2,s2,0
    2778:	0000                	unimp
    277a:	0301                	addi	t1,t1,0
    277c:	0901                	addi	s2,s2,0
    277e:	0000                	unimp
    2780:	0301                	addi	t1,t1,0
    2782:	0901                	addi	s2,s2,0
    2784:	0000                	unimp
    2786:	0301                	addi	t1,t1,0
    2788:	00000927          	0x927
    278c:	0301                	addi	t1,t1,0
    278e:	0901                	addi	s2,s2,0
    2790:	0000                	unimp
    2792:	0301                	addi	t1,t1,0
    2794:	0902                	c.slli64	s2
    2796:	0000                	unimp
    2798:	0301                	addi	t1,t1,0
    279a:	0901                	addi	s2,s2,0
    279c:	0000                	unimp
    279e:	0301                	addi	t1,t1,0
    27a0:	0901                	addi	s2,s2,0
    27a2:	0000                	unimp
    27a4:	0501                	addi	a0,a0,0
    27a6:	0309                	addi	t1,t1,2
    27a8:	0902                	c.slli64	s2
    27aa:	0000                	unimp
    27ac:	0501                	addi	a0,a0,0
    27ae:	0618                	addi	a4,sp,768
    27b0:	00090503          	lb	a0,0(s2)
    27b4:	0100                	addi	s0,sp,128
    27b6:	0305                	addi	t1,t1,1
    27b8:	02097b03          	0x2097b03
    27bc:	0100                	addi	s0,sp,128
    27be:	0409                	addi	s0,s0,2
    27c0:	0000                	unimp
    27c2:	0101                	addi	sp,sp,0

Disassembly of section .debug_str:

00000000 <.debug_str>:
   0:	5f746567          	0x5f746567
   4:	636d                	lui	t1,0x1b
   6:	7561                	lui	a0,0xffff8
   8:	73006573          	csrrsi	a0,0x730,0
   c:	6d69                	lui	s10,0x1a
   e:	6c70                	flw	fa2,92(s0)
  10:	5f65                	li	t5,-7
  12:	7865                	lui	a6,0xffff9
  14:	61685f63          	bge	a6,s6,632 <_min_stack-0x19ce>
  18:	646e                	flw	fs0,216(sp)
  1a:	656c                	flw	fa1,76(a0)
  1c:	0072                	c.slli	zero,0x1c
  1e:	6370                	flw	fa2,68(a4)
  20:	746e756f          	jal	a0,e7766 <_stack_len+0xdf766>
  24:	655f 616e 6c62      	0x6c62616e655f
  2a:	0065                	c.nop	25
  2c:	72727563          	bgeu	tp,t2,756 <_min_stack-0x18aa>
  30:	6e65                	lui	t3,0x19
  32:	5f74                	lw	a3,124(a4)
  34:	6974                	flw	fa3,84(a0)
  36:	656d                	lui	a0,0x1b
  38:	2f00                	fld	fs0,24(a4)
  3a:	6f68                	flw	fa0,92(a4)
  3c:	656d                	lui	a0,0x1b
  3e:	746e612f          	0x746e612f
  42:	6f68                	flw	fa0,92(a4)
  44:	796e                	flw	fs2,248(sp)
  46:	616c502f          	0x616c502f
  4a:	646e                	flw	fs0,216(sp)
  4c:	7465                	lui	s0,0xffff9
  4e:	6172                	flw	ft2,28(sp)
  50:	6176                	flw	ft2,92(sp)
  52:	6c69                	lui	s8,0x1a
  54:	2d33302f          	0x2d33302f
  58:	6952                	flw	fs2,20(sp)
  5a:	5f566373          	csrrsi	t1,0x5f5,12
  5e:	7254                	flw	fa3,36(a2)
  60:	6361                	lui	t1,0x18
  62:	4565                	li	a0,25
  64:	636e                	flw	ft6,216(sp)
  66:	7565646f          	jal	s0,567bc <_stack_len+0x4e7bc>
  6a:	2f72                	fld	ft10,280(sp)
  6c:	6972                	flw	fs2,28(sp)
  6e:	2d766373          	csrrsi	t1,0x2d7,12
  72:	74666f73          	csrrsi	t5,0x746,12
  76:	65726177          	0x65726177
  7a:	305f 3131 3232      	0x32323131305f
  80:	2f30                	fld	fa2,88(a4)
  82:	74666f73          	csrrsi	t5,0x746,12
  86:	65726177          	0x65726177
  8a:	5345412f          	0x5345412f
  8e:	7400                	flw	fs0,40(s0)
  90:	6d69                	lui	s10,0x1a
  92:	7265                	lui	tp,0xffff9
  94:	655f 616e 6c62      	0x6c62616e655f
  9a:	0065                	c.nop	25
  9c:	6975                	lui	s2,0x1d
  9e:	746e                	flw	fs0,248(sp)
  a0:	3436                	fld	fs0,360(sp)
  a2:	745f 7300 6d69      	0x6d697300745f
  a8:	685f 6c61 0074      	0x746c61685f
  ae:	6e69                	lui	t3,0x1a
  b0:	6968                	flw	fa0,84(a0)
  b2:	6962                	flw	fs2,24(sp)
  b4:	5f74                	lw	a3,124(a4)
  b6:	6176                	flw	ft2,92(sp)
  b8:	006c                	addi	a1,sp,12
  ba:	6e75                	lui	t3,0x1d
  bc:	6e676973          	csrrsi	s2,0x6e6,14
  c0:	6465                	lui	s0,0x19
  c2:	6320                	flw	fs0,64(a4)
  c4:	6168                	flw	fa0,68(a0)
  c6:	0072                	c.slli	zero,0x1c
  c8:	726f6873          	csrrsi	a6,0x726,30
  cc:	2074                	fld	fa3,192(s0)
  ce:	6e75                	lui	t3,0x1d
  d0:	6e676973          	csrrsi	s2,0x6e6,14
  d4:	6465                	lui	s0,0x19
  d6:	6920                	flw	fs0,80(a0)
  d8:	746e                	flw	fs0,248(sp)
  da:	7000                	flw	fs0,32(s0)
  dc:	7475                	lui	s0,0xffffd
  de:	72616863          	bltu	sp,t1,80e <_min_stack-0x17f2>
  e2:	7400                	flw	fs0,40(s0)
  e4:	6d69                	lui	s10,0x1a
  e6:	6365                	lui	t1,0x19
  e8:	706d                	c.lui	zero,0xffffb
  ea:	755f 6470 7461      	0x74616470755f
  f0:	0065                	c.nop	25
  f2:	6966                	flw	fs2,88(sp)
  f4:	616e                	flw	ft2,216(sp)
  f6:	5f6c                	lw	a1,124(a4)
  f8:	6974                	flw	fa3,84(a0)
  fa:	656d                	lui	a0,0x1b
  fc:	6900                	flw	fs0,16(a0)
  fe:	636e                	flw	ft6,216(sp)
 100:	6572                	flw	fa0,28(sp)
 102:	656d                	lui	a0,0x1b
 104:	746e                	flw	fs0,248(sp)
 106:	745f 6d69 6365      	0x63656d69745f
 10c:	706d                	c.lui	zero,0xffffb
 10e:	7400                	flw	fs0,40(s0)
 110:	6d69                	lui	s10,0x1a
 112:	5f65                	li	t5,-7
 114:	6162                	flw	ft2,24(sp)
 116:	2f006573          	csrrsi	a0,0x2f0,0
 11a:	6f68                	flw	fa0,92(a4)
 11c:	656d                	lui	a0,0x1b
 11e:	746e612f          	0x746e612f
 122:	6f68                	flw	fa0,92(a4)
 124:	796e                	flw	fs2,248(sp)
 126:	616c502f          	0x616c502f
 12a:	646e                	flw	fs0,216(sp)
 12c:	7465                	lui	s0,0xffff9
 12e:	6172                	flw	ft2,28(sp)
 130:	6176                	flw	ft2,92(sp)
 132:	6c69                	lui	s8,0x1a
 134:	2d33302f          	0x2d33302f
 138:	6952                	flw	fs2,20(sp)
 13a:	5f566373          	csrrsi	t1,0x5f5,12
 13e:	7254                	flw	fa3,36(a2)
 140:	6361                	lui	t1,0x18
 142:	4565                	li	a0,25
 144:	636e                	flw	ft6,216(sp)
 146:	7565646f          	jal	s0,5689c <_stack_len+0x4e89c>
 14a:	2f72                	fld	ft10,280(sp)
 14c:	6972                	flw	fs2,28(sp)
 14e:	2d766373          	csrrsi	t1,0x2d7,12
 152:	74666f73          	csrrsi	t5,0x746,12
 156:	65726177          	0x65726177
 15a:	305f 3131 3232      	0x32323131305f
 160:	2f30                	fld	fa2,88(a4)
 162:	74666f73          	csrrsi	t5,0x746,12
 166:	65726177          	0x65726177
 16a:	6d6f632f          	0x6d6f632f
 16e:	6f6d                	lui	t5,0x1b
 170:	2f6e                	fld	ft10,216(sp)
 172:	706d6973          	csrrsi	s2,0x706,26
 176:	656c                	flw	fa1,76(a0)
 178:	735f 7379 6574      	0x65747379735f
 17e:	5f6d                	li	t5,-5
 180:	6d6d6f63          	bltu	s10,s6,85e <_min_stack-0x17a2>
 184:	632e6e6f          	jal	t3,e67b6 <_stack_len+0xde7b6>
 188:	6300                	flw	fs0,0(a4)
 18a:	7275                	lui	tp,0xffffd
 18c:	6572                	flw	fa0,28(sp)
 18e:	746e                	flw	fs0,248(sp)
 190:	745f 6d69 6865      	0x68656d69745f
 196:	6c00                	flw	fs0,24(s0)
 198:	20676e6f          	jal	t3,7639e <_stack_len+0x6e39e>
 19c:	6f6c                	flw	fa1,92(a4)
 19e:	676e                	flw	fa4,216(sp)
 1a0:	7520                	flw	fs0,104(a0)
 1a2:	736e                	flw	ft6,248(sp)
 1a4:	6769                	lui	a4,0x1a
 1a6:	656e                	flw	fa0,216(sp)
 1a8:	2064                	fld	fs1,192(s0)
 1aa:	6e69                	lui	t3,0x1a
 1ac:	0074                	addi	a3,sp,12
 1ae:	6572                	flw	fa0,28(sp)
 1b0:	746c7573          	csrrci	a0,0x746,24
 1b4:	4700                	lw	s0,8(a4)
 1b6:	554e                	lw	a0,240(sp)
 1b8:	4320                	lw	s0,64(a4)
 1ba:	3731                	jal	c6 <_min_stack-0x1f3a>
 1bc:	3120                	fld	fs0,96(a0)
 1be:	2e30                	fld	fa2,88(a2)
 1c0:	2e32                	fld	ft8,264(sp)
 1c2:	2030                	fld	fa2,64(s0)
 1c4:	6d2d                	lui	s10,0xb
 1c6:	7261                	lui	tp,0xffff8
 1c8:	723d6863          	bltu	s10,gp,8f8 <_min_stack-0x1708>
 1cc:	3376                	fld	ft6,376(sp)
 1ce:	6932                	flw	fs2,12(sp)
 1d0:	2d20                	fld	fs0,88(a0)
 1d2:	616d                	addi	sp,sp,240
 1d4:	6962                	flw	fs2,24(sp)
 1d6:	693d                	lui	s2,0xf
 1d8:	706c                	flw	fa1,100(s0)
 1da:	2d203233          	0x2d203233
 1de:	636d                	lui	t1,0x1b
 1e0:	6f6d                	lui	t5,0x1b
 1e2:	6564                	flw	fs1,76(a0)
 1e4:	3d6c                	fld	fa1,248(a0)
 1e6:	656d                	lui	a0,0x1b
 1e8:	6164                	flw	fs1,68(a0)
 1ea:	796e                	flw	fs2,248(sp)
 1ec:	2d20                	fld	fs0,88(a0)
 1ee:	746d                	lui	s0,0xffffb
 1f0:	6e75                	lui	t3,0x1d
 1f2:	3d65                	jal	aa <_min_stack-0x1f56>
 1f4:	6f72                	flw	ft10,28(sp)
 1f6:	74656b63          	bltu	a0,t1,94c <_min_stack-0x16b4>
 1fa:	2d20                	fld	fs0,88(a0)
 1fc:	616d                	addi	sp,sp,240
 1fe:	6372                	flw	ft6,28(sp)
 200:	3d68                	fld	fa0,248(a0)
 202:	7672                	flw	fa2,60(sp)
 204:	20693233          	0x20693233
 208:	672d                	lui	a4,0xb
 20a:	2d20                	fld	fs0,88(a0)
 20c:	2d20304f          	0x2d20304f
 210:	7666                	flw	fa2,120(sp)
 212:	7369                	lui	t1,0xffffa
 214:	6269                	lui	tp,0x1a
 216:	6c69                	lui	s8,0x1a
 218:	7469                	lui	s0,0xffffa
 21a:	3d79                	jal	b8 <_min_stack-0x1f48>
 21c:	6968                	flw	fa0,84(a0)
 21e:	6464                	flw	fs1,76(s0)
 220:	6e65                	lui	t3,0x19
 222:	2d20                	fld	fs0,88(a0)
 224:	6666                	flw	fa2,88(sp)
 226:	6572                	flw	fa0,28(sp)
 228:	7365                	lui	t1,0xffff9
 22a:	6174                	flw	fa3,68(a0)
 22c:	646e                	flw	fs0,216(sp)
 22e:	6e69                	lui	t3,0x1a
 230:	662d2067          	0x662d2067
 234:	74696d6f          	jal	s10,9697a <_stack_len+0x8e97a>
 238:	662d                	lui	a2,0xb
 23a:	6172                	flw	ft2,28(sp)
 23c:	656d                	lui	a0,0x1b
 23e:	702d                	c.lui	zero,0xfffeb
 240:	746e696f          	jal	s2,e6986 <_stack_len+0xde986>
 244:	7265                	lui	tp,0xffff9
 246:	7400                	flw	fs0,40(s0)
 248:	6d69                	lui	s10,0x1a
 24a:	7265                	lui	tp,0xffff9
 24c:	645f 7369 6261      	0x62617369645f
 252:	656c                	flw	fa1,76(a0)
 254:	7400                	flw	fs0,40(s0)
 256:	6d69                	lui	s10,0x1a
 258:	5f65                	li	t5,-7
 25a:	6e69                	lui	t3,0x1a
 25c:	6d657263          	bgeu	a0,s6,920 <_min_stack-0x16e0>
 260:	6e65                	lui	t3,0x19
 262:	0074                	addi	a3,sp,12
 264:	6f6c                	flw	fa1,92(a4)
 266:	676e                	flw	fa4,216(sp)
 268:	6c20                	flw	fs0,88(s0)
 26a:	20676e6f          	jal	t3,76470 <_stack_len+0x6e470>
 26e:	6e69                	lui	t3,0x1a
 270:	0074                	addi	a3,sp,12
 272:	6974                	flw	fa3,84(a0)
 274:	656d                	lui	a0,0x1b
 276:	655f 616c 7370      	0x7370616c655f
 27c:	6465                	lui	s0,0x19
 27e:	7400                	flw	fs0,40(s0)
 280:	6d69                	lui	s10,0x1a
 282:	7265                	lui	tp,0xffff9
 284:	725f 6165 0064      	0x646165725f
 28a:	656e                	flw	fa0,216(sp)
 28c:	69745f77          	0x69745f77
 290:	656d                	lui	a0,0x1b
 292:	7300                	flw	fs0,32(a4)
 294:	6f68                	flw	fa0,92(a4)
 296:	7472                	flw	fs0,60(sp)
 298:	6920                	flw	fs0,80(a0)
 29a:	746e                	flw	fs0,248(sp)
 29c:	6700                	flw	fs0,8(a4)
 29e:	7465                	lui	s0,0xffff9
 2a0:	655f 616c 7370      	0x7370616c655f
 2a6:	6465                	lui	s0,0x19
 2a8:	745f 6d69 0065      	0x656d69745f
 2ae:	5f727563          	bgeu	tp,s7,898 <_min_stack-0x1768>
 2b2:	6964                	flw	fs1,84(a0)
 2b4:	00746967          	0x746967
 2b8:	6975                	lui	s2,0x1d
 2ba:	746e                	flw	fs0,248(sp)
 2bc:	745f3233          	0x745f3233
 2c0:	6700                	flw	fs0,8(a4)
 2c2:	7465                	lui	s0,0xffff9
 2c4:	6d5f 7065 0063      	0x6370656d5f
 2ca:	7570                	flw	fa2,108(a0)
 2cc:	7374                	flw	fa3,100(a4)
 2ce:	6700                	flw	fs0,8(a4)
 2d0:	7465                	lui	s0,0xffff9
 2d2:	6d5f 7674 6c61      	0x6c6176746d5f
 2d8:	7300                	flw	fs0,32(a4)
 2da:	6d69                	lui	s10,0x1a
 2dc:	6c70                	flw	fa2,92(s0)
 2de:	5f65                	li	t5,-7
 2e0:	6974                	flw	fa3,84(a0)
 2e2:	656d                	lui	a0,0x1b
 2e4:	5f72                	lw	t5,60(sp)
 2e6:	6168                	flw	fa0,68(a0)
 2e8:	646e                	flw	fs0,216(sp)
 2ea:	656c                	flw	fa1,76(a0)
 2ec:	0072                	c.slli	zero,0x1c
 2ee:	6370                	flw	fa2,68(a4)
 2f0:	746e756f          	jal	a0,e7a36 <_stack_len+0xdfa36>
 2f4:	725f 7365 7465      	0x74657365725f
 2fa:	7000                	flw	fs0,32(s0)
 2fc:	7475                	lui	s0,0xffffd
 2fe:	6568                	flw	fa0,76(a0)
 300:	0078                	addi	a4,sp,12
 302:	68706963          	bltu	zero,t2,994 <_min_stack-0x166c>
 306:	7265                	lui	tp,0xffff9
 308:	6d00                	flw	fs0,24(a0)
 30a:	6961                	lui	s2,0x18
 30c:	2e6e                	fld	ft8,216(sp)
 30e:	616d0063          	beq	s10,s6,90e <_min_stack-0x16f2>
 312:	6e69                	lui	t3,0x1a
 314:	7500                	flw	fs0,40(a0)
 316:	6e69                	lui	t3,0x1a
 318:	3874                	fld	fa3,240(s0)
 31a:	745f 6100 6772      	0x67726100745f
 320:	72610063          	beq	sp,t1,a40 <_min_stack-0x15c0>
 324:	41007667          	0x41007667
 328:	5345                	li	t1,-15
 32a:	635f 7874 4100      	0x41007874635f
 330:	5345                	li	t1,-15
 332:	695f 696e 5f74      	0x5f74696e695f
 338:	5f787463          	bgeu	a6,s7,920 <_min_stack-0x16e0>
 33c:	7669                	lui	a2,0xffffa
 33e:	7800                	flw	fs0,48(s0)
 340:	6974                	flw	fa3,84(a0)
 342:	656d                	lui	a0,0x1b
 344:	7400                	flw	fs0,40(s0)
 346:	6d65                	lui	s10,0x19
 348:	6170                	flw	fa2,68(a0)
 34a:	7300                	flw	fs0,32(a4)
 34c:	6174                	flw	fa3,68(a0)
 34e:	6574                	flw	fa3,76(a0)
 350:	7400                	flw	fs0,40(s0)
 352:	6d65                	lui	s10,0x19
 354:	0070                	addi	a2,sp,12
 356:	726f7473          	csrrci	s0,0x726,30
 35a:	4e65                	li	t3,25
 35c:	7865                	lui	a6,0xffff9
 35e:	4974                	lw	a3,84(a0)
 360:	0076                	c.slli	zero,0x1d
 362:	7372                	flw	ft6,60(sp)
 364:	6f62                	flw	ft10,24(sp)
 366:	0078                	addi	a4,sp,12
 368:	4541                	li	a0,16
 36a:	42435f53          	0x42435f53
 36e:	6e655f43          	fmadd.q	ft10,fa0,ft6,fa3,unknown
 372:	70797263          	bgeu	s2,t2,a76 <_min_stack-0x158a>
 376:	5f74                	lw	a3,124(a4)
 378:	7562                	flw	fa0,56(sp)
 37a:	6666                	flw	fa2,88(sp)
 37c:	7265                	lui	tp,0xffff9
 37e:	4100                	lw	s0,0(a0)
 380:	5345                	li	t1,-15
 382:	455f 4243 645f      	0x645f4243455f
 388:	6365                	lui	t1,0x19
 38a:	7972                	flw	fs2,60(sp)
 38c:	7470                	flw	fa2,108(s0)
 38e:	4900                	lw	s0,16(a0)
 390:	766e                	flw	fa2,248(sp)
 392:	68706943          	fmadd.s	fs2,ft0,ft7,fa3,unknown
 396:	7265                	lui	tp,0xffff9
 398:	7500                	flw	fs0,40(a0)
 39a:	7438                	flw	fa4,104(s0)
 39c:	706d                	c.lui	zero,0xffffb
 39e:	7500                	flw	fs0,40(a0)
 3a0:	6e69                	lui	t3,0x1a
 3a2:	7074                	flw	fa3,100(s0)
 3a4:	7274                	flw	fa3,100(a2)
 3a6:	745f 7300 6174      	0x61747300745f
 3ac:	6574                	flw	fa3,76(a0)
 3ae:	745f 4900 766e      	0x766e4900745f
 3b4:	66696853          	0x66696853
 3b8:	5274                	lw	a3,100(a2)
 3ba:	0073776f          	jal	a4,37bc0 <_stack_len+0x2fbc0>
 3be:	4541                	li	a0,16
 3c0:	42435f53          	0x42435f53
 3c4:	65645f43          	0x65645f43
 3c8:	70797263          	bgeu	s2,t2,acc <_min_stack-0x1534>
 3cc:	5f74                	lw	a3,124(a4)
 3ce:	7562                	flw	fa0,56(sp)
 3d0:	6666                	flw	fa2,88(sp)
 3d2:	7265                	lui	tp,0xffff9
 3d4:	4900                	lw	s0,16(a0)
 3d6:	766e                	flw	fa2,248(sp)
 3d8:	694d                	lui	s2,0x13
 3da:	4378                	lw	a4,68(a4)
 3dc:	6d756c6f          	jal	s8,572b2 <_stack_len+0x4f2b2>
 3e0:	736e                	flw	ft6,248(sp)
 3e2:	6c00                	flw	fs0,24(s0)
 3e4:	6e65                	lui	t3,0x19
 3e6:	00687467          	0x687467
 3ea:	6441                	lui	s0,0x10
 3ec:	5264                	lw	s1,100(a2)
 3ee:	646e756f          	jal	a0,e7a34 <_stack_len+0xdfa34>
 3f2:	0079654b          	fnmsub.s	fa0,fs2,ft7,ft0,unknown
 3f6:	4541                	li	a0,16
 3f8:	54435f53          	0x54435f53
 3fc:	5f52                	lw	t5,52(sp)
 3fe:	6378                	flw	fa4,68(a4)
 400:	7972                	flw	fs2,60(sp)
 402:	7470                	flw	fa2,108(s0)
 404:	625f 6675 6566      	0x65666675625f
 40a:	0072                	c.slli	zero,0x1c
 40c:	6f72                	flw	ft10,28(sp)
 40e:	6e75                	lui	t3,0x1d
 410:	0064                	addi	s1,sp,12
 412:	6352                	flw	ft6,20(sp)
 414:	41006e6f          	jal	t3,6824 <_min_stack+0x4824>
 418:	5345                	li	t1,-15
 41a:	635f 7874 735f      	0x735f7874635f
 420:	7465                	lui	s0,0xffff9
 422:	695f 0076 6561      	0x65610076695f
 428:	00632e73          	csrrs	t3,0x6,t1
 42c:	4541                	li	a0,16
 42e:	43455f53          	0x43455f53
 432:	5f42                	lw	t5,48(sp)
 434:	6e65                	lui	t3,0x19
 436:	70797263          	bgeu	s2,t2,b3a <_min_stack-0x14c6>
 43a:	0074                	addi	a3,sp,12
 43c:	4579654b          	0x4579654b
 440:	7078                	flw	fa4,100(s0)
 442:	6e61                	lui	t3,0x18
 444:	6e6f6973          	csrrsi	s2,0x6e6,30
 448:	4900                	lw	s0,16(a0)
 44a:	766e                	flw	fa2,248(sp)
 44c:	42627553          	0x42627553
 450:	7479                	lui	s0,0xffffe
 452:	7365                	lui	t1,0xffff9
 454:	4100                	lw	s0,0(a0)
 456:	5345                	li	t1,-15
 458:	695f 696e 5f74      	0x5f74696e695f
 45e:	00787463          	bgeu	a6,t2,466 <_min_stack-0x1b9a>
 462:	6f58                	flw	fa4,28(a4)
 464:	5772                	lw	a4,60(sp)
 466:	7469                	lui	s0,0xffffa
 468:	4968                	lw	a0,84(a0)
 46a:	0076                	c.slli	zero,0x1d
 46c:	6d6f682f          	0x6d6f682f
 470:	2f65                	jal	c28 <_min_stack-0x13d8>
 472:	6e61                	lui	t3,0x18
 474:	6874                	flw	fa3,84(s0)
 476:	2f796e6f          	jal	t3,96f6c <_stack_len+0x8ef6c>
 47a:	6c50                	flw	fa2,28(s0)
 47c:	6e61                	lui	t3,0x18
 47e:	6564                	flw	fs1,76(a0)
 480:	7274                	flw	fa3,100(a2)
 482:	7661                	lui	a2,0xffff8
 484:	6961                	lui	s2,0x18
 486:	2f6c                	fld	fa1,216(a4)
 488:	3330                	fld	fa2,96(a4)
 48a:	522d                	li	tp,-21
 48c:	7369                	lui	t1,0xffffa
 48e:	545f5663          	bge	t5,t0,9da <_min_stack-0x1626>
 492:	6172                	flw	ft2,28(sp)
 494:	6e456563          	bltu	a0,tp,b7e <_min_stack-0x1482>
 498:	65646f63          	bltu	s0,s6,af6 <_min_stack-0x150a>
 49c:	7275                	lui	tp,0xffffd
 49e:	7369722f          	0x7369722f
 4a2:	732d7663          	bgeu	s10,s2,bce <_min_stack-0x1432>
 4a6:	7774666f          	jal	a2,4741c <_stack_len+0x3f41c>
 4aa:	7261                	lui	tp,0xffff8
 4ac:	5f65                	li	t5,-7
 4ae:	3130                	fld	fa2,96(a0)
 4b0:	3231                	jal	fffffdbc <_stack_start+0xffdffdbc>
 4b2:	3032                	fld	ft0,296(sp)
 4b4:	666f732f          	0x666f732f
 4b8:	7774                	flw	fa3,108(a4)
 4ba:	7261                	lui	tp,0xffff8
 4bc:	2f65                	jal	c74 <_min_stack-0x138c>
 4be:	6d6d6f63          	bltu	s10,s6,b9c <_min_stack-0x1464>
 4c2:	632f6e6f          	jal	t3,f6af4 <_stack_len+0xeeaf4>
 4c6:	7472                	flw	fs0,60(sp)
 4c8:	2e30                	fld	fa2,88(a2)
 4ca:	4e470053          	0x4e470053
 4ce:	2055                	jal	572 <_min_stack-0x1a8e>
 4d0:	5341                	li	t1,-16
 4d2:	3220                	fld	fs0,96(a2)
 4d4:	332e                	fld	ft6,232(sp)
 4d6:	0035                	c.nop	13
 4d8:	657a6973          	csrrsi	s2,0x657,20
 4dc:	745f 5f00 6e5f      	0x6e5f5f00745f
 4e2:	7962                	flw	fs2,56(sp)
 4e4:	6574                	flw	fa3,76(a0)
 4e6:	4e470073          	0x4e470073
 4ea:	2055                	jal	58e <_min_stack-0x1a72>
 4ec:	20313143          	fmadd.s	ft2,ft2,ft3,ft4,rup
 4f0:	3031                	jal	fffffcfc <_stack_start+0xffdffcfc>
 4f2:	322e                	fld	ft4,232(sp)
 4f4:	302e                	fld	ft0,232(sp)
 4f6:	2d20                	fld	fs0,88(a0)
 4f8:	616d                	addi	sp,sp,240
 4fa:	6372                	flw	ft6,28(sp)
 4fc:	3d68                	fld	fa0,248(a0)
 4fe:	7672                	flw	fa2,60(sp)
 500:	6d693233          	0x6d693233
 504:	6361                	lui	t1,0x18
 506:	2d20                	fld	fs0,88(a0)
 508:	616d                	addi	sp,sp,240
 50a:	6962                	flw	fs2,24(sp)
 50c:	693d                	lui	s2,0xf
 50e:	706c                	flw	fa1,100(s0)
 510:	2d203233          	0x2d203233
 514:	636d                	lui	t1,0x1b
 516:	6f6d                	lui	t5,0x1b
 518:	6564                	flw	fs1,76(a0)
 51a:	3d6c                	fld	fa1,248(a0)
 51c:	656d                	lui	a0,0x1b
 51e:	6c64                	flw	fs1,92(s0)
 520:	2d20776f          	jal	a4,77f2 <_min_stack+0x57f2>
 524:	616d                	addi	sp,sp,240
 526:	6372                	flw	ft6,28(sp)
 528:	3d68                	fld	fa0,248(a0)
 52a:	7672                	flw	fa2,60(sp)
 52c:	6d693233          	0x6d693233
 530:	6361                	lui	t1,0x18
 532:	2d20                	fld	fs0,88(a0)
 534:	616d                	addi	sp,sp,240
 536:	6962                	flw	fs2,24(sp)
 538:	693d                	lui	s2,0xf
 53a:	706c                	flw	fa1,100(s0)
 53c:	2d203233          	0x2d203233
 540:	746d                	lui	s0,0xffffb
 542:	6e75                	lui	t3,0x1d
 544:	3d65                	jal	3fc <_min_stack-0x1c04>
 546:	6f72                	flw	ft10,28(sp)
 548:	74656b63          	bltu	a0,t1,c9e <_min_stack-0x1362>
 54c:	2d20                	fld	fs0,88(a0)
 54e:	616d                	addi	sp,sp,240
 550:	6372                	flw	ft6,28(sp)
 552:	3d68                	fld	fa0,248(a0)
 554:	7672                	flw	fa2,60(sp)
 556:	6d693233          	0x6d693233
 55a:	6361                	lui	t1,0x18
 55c:	2d20                	fld	fs0,88(a0)
 55e:	616d                	addi	sp,sp,240
 560:	6372                	flw	ft6,28(sp)
 562:	3d68                	fld	fa0,248(a0)
 564:	7672                	flw	fa2,60(sp)
 566:	6d693233          	0x6d693233
 56a:	6361                	lui	t1,0x18
 56c:	2d20                	fld	fs0,88(a0)
 56e:	4f2d2067          	0x4f2d2067
 572:	2032                	fld	ft0,264(sp)
 574:	732d                	lui	t1,0xfffeb
 576:	6474                	flw	fa3,76(s0)
 578:	673d                	lui	a4,0xf
 57a:	756e                	flw	fa0,248(sp)
 57c:	3131                	jal	188 <_min_stack-0x1e78>
 57e:	2d20                	fld	fs0,88(a0)
 580:	6766                	flw	fa4,88(sp)
 582:	756e                	flw	fa0,248(sp)
 584:	3938                	fld	fa4,112(a0)
 586:	692d                	lui	s2,0xb
 588:	6c6e                	flw	fs8,216(sp)
 58a:	6e69                	lui	t3,0x1a
 58c:	2065                	jal	634 <_min_stack-0x19cc>
 58e:	662d                	lui	a2,0xb
 590:	656d                	lui	a0,0x1b
 592:	6772                	flw	fa4,28(sp)
 594:	2d65                	jal	c4c <_min_stack-0x13b4>
 596:	6c61                	lui	s8,0x18
 598:	2d6c                	fld	fa1,216(a0)
 59a:	736e6f63          	bltu	t3,s6,cd8 <_min_stack-0x1328>
 59e:	6174                	flw	fa3,68(a0)
 5a0:	746e                	flw	fs0,248(sp)
 5a2:	662d2073          	csrs	0x662,s10
 5a6:	6f72                	flw	ft10,28(sp)
 5a8:	6e75                	lui	t3,0x1d
 5aa:	6964                	flw	fs1,84(a0)
 5ac:	676e                	flw	fa4,216(sp)
 5ae:	6d2d                	lui	s10,0xb
 5b0:	7461                	lui	s0,0xffff8
 5b2:	2068                	fld	fa0,192(s0)
 5b4:	662d                	lui	a2,0xb
 5b6:	616d                	addi	sp,sp,240
 5b8:	6874                	flw	fa3,84(s0)
 5ba:	652d                	lui	a0,0xb
 5bc:	7272                	flw	ft4,60(sp)
 5be:	6f6e                	flw	ft10,216(sp)
 5c0:	2d20                	fld	fs0,88(a0)
 5c2:	6e66                	flw	ft8,88(sp)
 5c4:	74732d6f          	jal	s10,3350a <_stack_len+0x2b50a>
 5c8:	6361                	lui	t1,0x18
 5ca:	72702d6b          	0x72702d6b
 5ce:	6365746f          	jal	s0,57c04 <_stack_len+0x4fc04>
 5d2:	6f74                	flw	fa3,92(a4)
 5d4:	2072                	fld	ft0,280(sp)
 5d6:	662d                	lui	a2,0xb
 5d8:	6c74                	flw	fa3,92(s0)
 5da:	6f6d2d73          	csrrs	s10,0x6f6,s10
 5de:	6564                	flw	fs1,76(a0)
 5e0:	3d6c                	fld	fa1,248(a0)
 5e2:	6e69                	lui	t3,0x1a
 5e4:	7469                	lui	s0,0xffffa
 5e6:	6169                	addi	sp,sp,208
 5e8:	2d6c                	fld	fa1,216(a0)
 5ea:	7865                	lui	a6,0xffff9
 5ec:	6365                	lui	t1,0x19
 5ee:	5f00                	lw	s0,56(a4)
 5f0:	64726f77          	0x64726f77
 5f4:	79706f63          	bltu	zero,s7,d92 <_min_stack-0x126e>
 5f8:	665f 6477 645f      	0x645f6477665f
 5fe:	7365                	lui	t1,0xffff9
 600:	5f74                	lw	a3,124(a4)
 602:	6c61                	lui	s8,0x18
 604:	6769                	lui	a4,0x1a
 606:	656e                	flw	fa0,216(sp)
 608:	0064                	addi	s1,sp,12
 60a:	775f 726f 6364      	0x6364726f775f
 610:	5f79706f          	j	98406 <_stack_len+0x90406>
 614:	7766                	flw	fa4,120(sp)
 616:	5f64                	lw	s1,124(a4)
 618:	6c61                	lui	s8,0x18
 61a:	6769                	lui	a4,0x1a
 61c:	656e                	flw	fa0,216(sp)
 61e:	0064                	addi	s1,sp,12
 620:	70637273          	csrrci	tp,0x706,6
 624:	6400                	flw	fs0,8(s0)
 626:	00707473          	csrrci	s0,0x7,0
 62a:	7364                	flw	fs1,100(a4)
 62c:	7074                	flw	fa3,100(s0)
 62e:	0070                	addi	a2,sp,12
 630:	656d                	lui	a0,0x1b
 632:	636d                	lui	t1,0x1b
 634:	7970                	flw	fa2,116(a0)
 636:	632e                	flw	ft6,200(sp)
 638:	6d00                	flw	fs0,24(a0)
 63a:	6d65                	lui	s10,0x19
 63c:	00797063          	bgeu	s2,t2,63c <_min_stack-0x19c4>
 640:	7962                	flw	fs2,56(sp)
 642:	6574                	flw	fa3,76(a0)
 644:	7300                	flw	fs0,32(a4)
 646:	6372                	flw	ft6,28(sp)
 648:	7070                	flw	fa2,100(s0)
 64a:	2f00                	fld	fs0,24(a4)
 64c:	6f68                	flw	fa0,92(a4)
 64e:	656d                	lui	a0,0x1b
 650:	746e612f          	0x746e612f
 654:	6f68                	flw	fa0,92(a4)
 656:	796e                	flw	fs2,248(sp)
 658:	616c502f          	0x616c502f
 65c:	646e                	flw	fs0,216(sp)
 65e:	7465                	lui	s0,0xffff9
 660:	6172                	flw	ft2,28(sp)
 662:	6176                	flw	ft2,92(sp)
 664:	6c69                	lui	s8,0x1a
 666:	2d36302f          	0x2d36302f
 66a:	6952                	flw	fs2,20(sp)
 66c:	5f566373          	csrrsi	t1,0x5f5,12
 670:	6f54                	flw	fa3,28(a4)
 672:	68636c6f          	jal	s8,36cf8 <_stack_len+0x2ecf8>
 676:	6961                	lui	s2,0x18
 678:	5f6e                	lw	t5,248(sp)
 67a:	6972                	flw	fs2,28(sp)
 67c:	2f766373          	csrrsi	t1,0x2f7,12
 680:	6972                	flw	fs2,28(sp)
 682:	2d766373          	csrrsi	t1,0x2d7,12
 686:	2d756e67          	0x2d756e67
 68a:	6f74                	flw	fa3,92(a4)
 68c:	68636c6f          	jal	s8,36d12 <_stack_len+0x2ed12>
 690:	6961                	lui	s2,0x18
 692:	2f6e                	fld	ft10,216(sp)
 694:	6972                	flw	fs2,28(sp)
 696:	2d766373          	csrrsi	t1,0x2d7,12
 69a:	62696c67          	0x62696c67
 69e:	74732f63          	0x74732f63
 6a2:	6972                	flw	fs2,28(sp)
 6a4:	676e                	flw	fa4,216(sp)
 6a6:	5f00                	lw	s0,56(a4)
 6a8:	64726f77          	0x64726f77
 6ac:	79706f63          	bltu	zero,s7,e4a <_min_stack-0x11b6>
 6b0:	625f 6477 645f      	0x645f6477625f
 6b6:	7365                	lui	t1,0xffff9
 6b8:	5f74                	lw	a3,124(a4)
 6ba:	6c61                	lui	s8,0x18
 6bc:	6769                	lui	a4,0x1a
 6be:	656e                	flw	fa0,216(sp)
 6c0:	0064                	addi	s1,sp,12
 6c2:	6f6c                	flw	fa1,92(a4)
 6c4:	676e                	flw	fa4,216(sp)
 6c6:	6420                	flw	fs0,72(s0)
 6c8:	6c62756f          	jal	a0,27d8e <_stack_len+0x1fd8e>
 6cc:	0065                	c.nop	25
 6ce:	315f6873          	csrrsi	a6,0x315,30
 6d2:	7300                	flw	fs0,32(a4)
 6d4:	5f68                	lw	a0,124(a4)
 6d6:	0032                	c.slli	zero,0xc
 6d8:	775f 726f 6364      	0x6364726f775f
 6de:	5f79706f          	j	984d4 <_stack_len+0x904d4>
 6e2:	7762                	flw	fa4,56(sp)
 6e4:	5f64                	lw	s1,124(a4)
 6e6:	6c61                	lui	s8,0x18
 6e8:	6769                	lui	a4,0x1a
 6ea:	656e                	flw	fa0,216(sp)
 6ec:	0064                	addi	s1,sp,12
 6ee:	64726f77          	0x64726f77
 6f2:	79706f63          	bltu	zero,s7,e90 <_min_stack-0x1170>
 6f6:	632e                	flw	ft6,200(sp)
	...

Disassembly of section .comment:

00000000 <.comment>:
   0:	3a434347          	fmsub.d	ft6,ft6,ft4,ft7,rmm
   4:	2820                	fld	fs0,80(s0)
   6:	29554e47          	fmsub.s	ft8,fa0,fs5,ft5,rmm
   a:	3120                	fld	fs0,96(a0)
   c:	2e30                	fld	fa2,88(a2)
   e:	2e32                	fld	ft8,264(sp)
  10:	0030                	addi	a2,sp,8

Disassembly of section .debug_frame:

00000000 <.debug_frame>:
   0:	000c                	0xc
   2:	0000                	unimp
   4:	ffff                	0xffff
   6:	ffff                	0xffff
   8:	7c010003          	lb	zero,1984(sp)
   c:	0d01                	addi	s10,s10,0
   e:	0002                	c.slli64	zero
  10:	0014                	0x14
  12:	0000                	unimp
  14:	0000                	unimp
  16:	0000                	unimp
  18:	0084                	addi	s1,sp,64
  1a:	0010                	0x10
  1c:	0028                	addi	a0,sp,8
  1e:	0000                	unimp
  20:	0e44                	addi	s1,sp,788
  22:	6010                	flw	fa2,0(s0)
  24:	000e                	c.slli	zero,0x3
  26:	0000                	unimp
  28:	0018                	0x18
  2a:	0000                	unimp
  2c:	0000                	unimp
  2e:	0000                	unimp
  30:	00ac                	addi	a1,sp,72
  32:	0010                	0x10
  34:	0048                	addi	a0,sp,4
  36:	0000                	unimp
  38:	0e44                	addi	s1,sp,788
  3a:	4420                	lw	s0,72(s0)
  3c:	0181                	addi	gp,gp,0
  3e:	c178                	sw	a4,68(a0)
  40:	0e44                	addi	s1,sp,788
  42:	0000                	unimp
  44:	0018                	0x18
  46:	0000                	unimp
  48:	0000                	unimp
  4a:	0000                	unimp
  4c:	00f4                	addi	a3,sp,76
  4e:	0010                	0x10
  50:	0088                	addi	a0,sp,64
  52:	0000                	unimp
  54:	0e44                	addi	s1,sp,788
  56:	4430                	lw	a2,72(s0)
  58:	0181                	addi	gp,gp,0
  5a:	7802                	flw	fa6,32(sp)
  5c:	44c1                	li	s1,16
  5e:	000e                	c.slli	zero,0x3
  60:	000c                	0xc
  62:	0000                	unimp
  64:	0000                	unimp
  66:	0000                	unimp
  68:	017c                	addi	a5,sp,140
  6a:	0010                	0x10
  6c:	0018                	0x18
  6e:	0000                	unimp
  70:	000c                	0xc
  72:	0000                	unimp
  74:	0000                	unimp
  76:	0000                	unimp
  78:	0194                	addi	a3,sp,192
  7a:	0010                	0x10
  7c:	0100                	addi	s0,sp,128
  7e:	0000                	unimp
  80:	0014                	0x14
  82:	0000                	unimp
  84:	0000                	unimp
  86:	0000                	unimp
  88:	0294                	addi	a3,sp,320
  8a:	0010                	0x10
  8c:	0034                	addi	a3,sp,8
  8e:	0000                	unimp
  90:	0e44                	addi	s1,sp,788
  92:	6c20                	flw	fs0,88(s0)
  94:	000e                	c.slli	zero,0x3
  96:	0000                	unimp
  98:	0014                	0x14
  9a:	0000                	unimp
  9c:	0000                	unimp
  9e:	0000                	unimp
  a0:	02c8                	addi	a0,sp,324
  a2:	0010                	0x10
  a4:	001c                	0x1c
  a6:	0000                	unimp
  a8:	0e44                	addi	s1,sp,788
  aa:	5410                	lw	a2,40(s0)
  ac:	000e                	c.slli	zero,0x3
  ae:	0000                	unimp
  b0:	0014                	0x14
  b2:	0000                	unimp
  b4:	0000                	unimp
  b6:	0000                	unimp
  b8:	02e4                	addi	s1,sp,332
  ba:	0010                	0x10
  bc:	001c                	0x1c
  be:	0000                	unimp
  c0:	0e44                	addi	s1,sp,788
  c2:	5410                	lw	a2,40(s0)
  c4:	000e                	c.slli	zero,0x3
  c6:	0000                	unimp
  c8:	0014                	0x14
  ca:	0000                	unimp
  cc:	0000                	unimp
  ce:	0000                	unimp
  d0:	0300                	addi	s0,sp,384
  d2:	0010                	0x10
  d4:	001c                	0x1c
  d6:	0000                	unimp
  d8:	0e44                	addi	s1,sp,788
  da:	5410                	lw	a2,40(s0)
  dc:	000e                	c.slli	zero,0x3
  de:	0000                	unimp
  e0:	0014                	0x14
  e2:	0000                	unimp
  e4:	0000                	unimp
  e6:	0000                	unimp
  e8:	031c                	addi	a5,sp,384
  ea:	0010                	0x10
  ec:	0084                	addi	s1,sp,64
  ee:	0000                	unimp
  f0:	0e44                	addi	s1,sp,788
  f2:	4410                	lw	a2,8(s0)
  f4:	0181                	addi	gp,gp,0
  f6:	0000                	unimp
  f8:	0018                	0x18
  fa:	0000                	unimp
  fc:	0000                	unimp
  fe:	0000                	unimp
 100:	03a0                	addi	s0,sp,456
 102:	0010                	0x10
 104:	0068                	addi	a0,sp,12
 106:	0000                	unimp
 108:	0e44                	addi	s1,sp,788
 10a:	4430                	lw	a2,72(s0)
 10c:	0181                	addi	gp,gp,0
 10e:	5802                	lw	a6,32(sp)
 110:	44c1                	li	s1,16
 112:	000e                	c.slli	zero,0x3
 114:	0018                	0x18
 116:	0000                	unimp
 118:	0000                	unimp
 11a:	0000                	unimp
 11c:	0408                	addi	a0,sp,512
 11e:	0010                	0x10
 120:	006c                	addi	a1,sp,12
 122:	0000                	unimp
 124:	0e44                	addi	s1,sp,788
 126:	4420                	lw	s0,72(s0)
 128:	0181                	addi	gp,gp,0
 12a:	5c02                	lw	s8,32(sp)
 12c:	44c1                	li	s1,16
 12e:	000e                	c.slli	zero,0x3
 130:	000c                	0xc
 132:	0000                	unimp
 134:	0000                	unimp
 136:	0000                	unimp
 138:	0474                	addi	a3,sp,524
 13a:	0010                	0x10
 13c:	0010                	0x10
 13e:	0000                	unimp
 140:	0014                	0x14
 142:	0000                	unimp
 144:	0000                	unimp
 146:	0000                	unimp
 148:	0484                	addi	s1,sp,576
 14a:	0010                	0x10
 14c:	007c                	addi	a5,sp,12
 14e:	0000                	unimp
 150:	0e44                	addi	s1,sp,788
 152:	0210                	addi	a2,sp,256
 154:	0e74                	addi	a3,sp,796
 156:	0000                	unimp
 158:	0014                	0x14
 15a:	0000                	unimp
 15c:	0000                	unimp
 15e:	0000                	unimp
 160:	0500                	addi	s0,sp,640
 162:	0010                	0x10
 164:	0054                	addi	a3,sp,4
 166:	0000                	unimp
 168:	0e44                	addi	s1,sp,788
 16a:	0210                	addi	a2,sp,256
 16c:	0e4c                	addi	a1,sp,788
 16e:	0000                	unimp
 170:	000c                	0xc
 172:	0000                	unimp
 174:	0000                	unimp
 176:	0000                	unimp
 178:	0554                	addi	a3,sp,644
 17a:	0010                	0x10
 17c:	001c                	0x1c
 17e:	0000                	unimp
 180:	0058                	addi	a4,sp,4
 182:	0000                	unimp
 184:	0000                	unimp
 186:	0000                	unimp
 188:	0570                	addi	a2,sp,652
 18a:	0010                	0x10
 18c:	00f4                	addi	a3,sp,76
 18e:	0000                	unimp
 190:	0e44                	addi	s1,sp,788
 192:	0240                	addi	s0,sp,260
 194:	8140                	0x8140
 196:	8501                	c.srai64	a0
 198:	8602                	jr	a2
 19a:	8a048703          	lb	a4,-1888(s1)
 19e:	8b05                	andi	a4,a4,1
 1a0:	8c06                	mv	s8,ra
 1a2:	8e088d07          	0x8e088d07
 1a6:	8f09                	sub	a4,a4,a0
 1a8:	900a                	c.add	zero,sp
 1aa:	9c0c910b          	0x9c0c910b
 1ae:	9d0d                	0x9d0d
 1b0:	9e0e                	add	t3,t3,gp
 1b2:	02109f0f          	0x2109f0f
 1b6:	c16c                	sw	a1,68(a0)
 1b8:	c544                	sw	s1,12(a0)
 1ba:	c644                	sw	s1,12(a2)
 1bc:	c744                	sw	s1,12(a4)
 1be:	ca44                	sw	s1,20(a2)
 1c0:	cb44                	sw	s1,20(a4)
 1c2:	cc44                	sw	s1,28(s0)
 1c4:	cd44                	sw	s1,28(a0)
 1c6:	ce44                	sw	s1,28(a2)
 1c8:	cf44                	sw	s1,28(a4)
 1ca:	d044                	sw	s1,36(s0)
 1cc:	d144                	sw	s1,36(a0)
 1ce:	dc44                	sw	s1,60(s0)
 1d0:	dd44                	sw	s1,60(a0)
 1d2:	de44                	sw	s1,60(a2)
 1d4:	df44                	sw	s1,60(a4)
 1d6:	0e44                	addi	s1,sp,788
 1d8:	0000                	unimp
 1da:	0000                	unimp
 1dc:	000c                	0xc
 1de:	0000                	unimp
 1e0:	ffff                	0xffff
 1e2:	ffff                	0xffff
 1e4:	7c010003          	lb	zero,1984(sp)
 1e8:	0d01                	addi	s10,s10,0
 1ea:	0002                	c.slli64	zero
 1ec:	001c                	0x1c
 1ee:	0000                	unimp
 1f0:	01dc                	addi	a5,sp,196
 1f2:	0000                	unimp
 1f4:	0664                	addi	s1,sp,780
 1f6:	0010                	0x10
 1f8:	004c                	addi	a1,sp,4
 1fa:	0000                	unimp
 1fc:	0e44                	addi	s1,sp,788
 1fe:	01e0                	addi	s0,sp,204
 200:	8144                	0x8144
 202:	0201                	addi	tp,tp,0
 204:	c13c                	sw	a5,64(a0)
 206:	0e44                	addi	s1,sp,788
 208:	0000                	unimp
 20a:	0000                	unimp
 20c:	000c                	0xc
 20e:	0000                	unimp
 210:	ffff                	0xffff
 212:	ffff                	0xffff
 214:	7c010003          	lb	zero,1984(sp)
 218:	0d01                	addi	s10,s10,0
 21a:	0002                	c.slli64	zero
 21c:	0014                	0x14
 21e:	0000                	unimp
 220:	020c                	addi	a1,sp,256
 222:	0000                	unimp
 224:	06b0                	addi	a2,sp,840
 226:	0010                	0x10
 228:	0334                	addi	a3,sp,392
 22a:	0000                	unimp
 22c:	0e44                	addi	s1,sp,788
 22e:	0330                	addi	a2,sp,392
 230:	032c                	addi	a1,sp,392
 232:	000e                	c.slli	zero,0x3
 234:	0018                	0x18
 236:	0000                	unimp
 238:	020c                	addi	a1,sp,256
 23a:	0000                	unimp
 23c:	09e4                	addi	s1,sp,220
 23e:	0010                	0x10
 240:	0030                	addi	a2,sp,8
 242:	0000                	unimp
 244:	0e44                	addi	s1,sp,788
 246:	4420                	lw	s0,72(s0)
 248:	0181                	addi	gp,gp,0
 24a:	c160                	sw	s0,68(a0)
 24c:	0e44                	addi	s1,sp,788
 24e:	0000                	unimp
 250:	0018                	0x18
 252:	0000                	unimp
 254:	020c                	addi	a1,sp,256
 256:	0000                	unimp
 258:	0a14                	addi	a3,sp,272
 25a:	0010                	0x10
 25c:	004c                	addi	a1,sp,4
 25e:	0000                	unimp
 260:	0e44                	addi	s1,sp,788
 262:	4420                	lw	s0,72(s0)
 264:	0181                	addi	gp,gp,0
 266:	3c02                	fld	fs8,32(sp)
 268:	44c1                	li	s1,16
 26a:	000e                	c.slli	zero,0x3
 26c:	0018                	0x18
 26e:	0000                	unimp
 270:	020c                	addi	a1,sp,256
 272:	0000                	unimp
 274:	0a60                	addi	s0,sp,284
 276:	0010                	0x10
 278:	0038                	addi	a4,sp,8
 27a:	0000                	unimp
 27c:	0e44                	addi	s1,sp,788
 27e:	4420                	lw	s0,72(s0)
 280:	0181                	addi	gp,gp,0
 282:	c168                	sw	a0,68(a0)
 284:	0e44                	addi	s1,sp,788
 286:	0000                	unimp
 288:	0014                	0x14
 28a:	0000                	unimp
 28c:	020c                	addi	a1,sp,256
 28e:	0000                	unimp
 290:	0a98                	addi	a4,sp,336
 292:	0010                	0x10
 294:	00d0                	addi	a2,sp,68
 296:	0000                	unimp
 298:	0e44                	addi	s1,sp,788
 29a:	0220                	addi	s0,sp,264
 29c:	0ec8                	addi	a0,sp,852
 29e:	0000                	unimp
 2a0:	0014                	0x14
 2a2:	0000                	unimp
 2a4:	020c                	addi	a1,sp,256
 2a6:	0000                	unimp
 2a8:	0b68                	addi	a0,sp,412
 2aa:	0010                	0x10
 2ac:	00a4                	addi	s1,sp,72
 2ae:	0000                	unimp
 2b0:	0e44                	addi	s1,sp,788
 2b2:	0220                	addi	s0,sp,264
 2b4:	0e9c                	addi	a5,sp,848
 2b6:	0000                	unimp
 2b8:	0014                	0x14
 2ba:	0000                	unimp
 2bc:	020c                	addi	a1,sp,256
 2be:	0000                	unimp
 2c0:	0c0c                	addi	a1,sp,528
 2c2:	0010                	0x10
 2c4:	00f4                	addi	a3,sp,76
 2c6:	0000                	unimp
 2c8:	0e44                	addi	s1,sp,788
 2ca:	0220                	addi	s0,sp,264
 2cc:	0eec                	addi	a1,sp,860
 2ce:	0000                	unimp
 2d0:	0014                	0x14
 2d2:	0000                	unimp
 2d4:	020c                	addi	a1,sp,256
 2d6:	0000                	unimp
 2d8:	0d00                	addi	s0,sp,656
 2da:	0010                	0x10
 2dc:	0064                	addi	s1,sp,12
 2de:	0000                	unimp
 2e0:	0e44                	addi	s1,sp,788
 2e2:	0210                	addi	a2,sp,256
 2e4:	0e5c                	addi	a5,sp,788
 2e6:	0000                	unimp
 2e8:	001c                	0x1c
 2ea:	0000                	unimp
 2ec:	020c                	addi	a1,sp,256
 2ee:	0000                	unimp
 2f0:	0d64                	addi	s1,sp,668
 2f2:	0010                	0x10
 2f4:	02c0                	addi	s0,sp,324
 2f6:	0000                	unimp
 2f8:	0e44                	addi	s1,sp,788
 2fa:	4430                	lw	a2,72(s0)
 2fc:	0181                	addi	gp,gp,0
 2fe:	c102b003          	0xc102b003
 302:	0e44                	addi	s1,sp,788
 304:	0000                	unimp
 306:	0000                	unimp
 308:	0024                	addi	s1,sp,8
 30a:	0000                	unimp
 30c:	020c                	addi	a1,sp,256
 30e:	0000                	unimp
 310:	1024                	addi	s1,sp,40
 312:	0010                	0x10
 314:	0ab0                	addi	a2,sp,344
 316:	0000                	unimp
 318:	0e44                	addi	s1,sp,788
 31a:	4c30                	lw	a2,88(s0)
 31c:	0181                	addi	gp,gp,0
 31e:	0288                	addi	a0,sp,320
 320:	0389                	addi	t2,t2,2
 322:	c10a9003          	lh	zero,-1008(s5) # 61fca2 <_stack_start+0x41fca2>
 326:	c844                	sw	s1,20(s0)
 328:	c944                	sw	s1,20(a0)
 32a:	0e44                	addi	s1,sp,788
 32c:	0000                	unimp
 32e:	0000                	unimp
 330:	0014                	0x14
 332:	0000                	unimp
 334:	020c                	addi	a1,sp,256
 336:	0000                	unimp
 338:	1ad4                	addi	a3,sp,372
 33a:	0010                	0x10
 33c:	00a4                	addi	s1,sp,72
 33e:	0000                	unimp
 340:	0e44                	addi	s1,sp,788
 342:	0220                	addi	s0,sp,264
 344:	0e9c                	addi	a5,sp,848
 346:	0000                	unimp
 348:	0014                	0x14
 34a:	0000                	unimp
 34c:	020c                	addi	a1,sp,256
 34e:	0000                	unimp
 350:	1b78                	addi	a4,sp,444
 352:	0010                	0x10
 354:	00f4                	addi	a3,sp,76
 356:	0000                	unimp
 358:	0e44                	addi	s1,sp,788
 35a:	0220                	addi	s0,sp,264
 35c:	0eec                	addi	a1,sp,860
 35e:	0000                	unimp
 360:	0018                	0x18
 362:	0000                	unimp
 364:	020c                	addi	a1,sp,256
 366:	0000                	unimp
 368:	1c6c                	addi	a1,sp,572
 36a:	0010                	0x10
 36c:	0098                	addi	a4,sp,64
 36e:	0000                	unimp
 370:	0e44                	addi	s1,sp,788
 372:	4430                	lw	a2,72(s0)
 374:	0181                	addi	gp,gp,0
 376:	8802                	jr	a6
 378:	44c1                	li	s1,16
 37a:	000e                	c.slli	zero,0x3
 37c:	0018                	0x18
 37e:	0000                	unimp
 380:	020c                	addi	a1,sp,256
 382:	0000                	unimp
 384:	1d04                	addi	s1,sp,688
 386:	0010                	0x10
 388:	0084                	addi	s1,sp,64
 38a:	0000                	unimp
 38c:	0e44                	addi	s1,sp,788
 38e:	4430                	lw	a2,72(s0)
 390:	0181                	addi	gp,gp,0
 392:	7402                	flw	fs0,32(sp)
 394:	44c1                	li	s1,16
 396:	000e                	c.slli	zero,0x3
 398:	0018                	0x18
 39a:	0000                	unimp
 39c:	020c                	addi	a1,sp,256
 39e:	0000                	unimp
 3a0:	1d88                	addi	a0,sp,752
 3a2:	0010                	0x10
 3a4:	0030                	addi	a2,sp,8
 3a6:	0000                	unimp
 3a8:	0e44                	addi	s1,sp,788
 3aa:	4420                	lw	s0,72(s0)
 3ac:	0181                	addi	gp,gp,0
 3ae:	c160                	sw	s0,68(a0)
 3b0:	0e44                	addi	s1,sp,788
 3b2:	0000                	unimp
 3b4:	0018                	0x18
 3b6:	0000                	unimp
 3b8:	020c                	addi	a1,sp,256
 3ba:	0000                	unimp
 3bc:	1db8                	addi	a4,sp,760
 3be:	0010                	0x10
 3c0:	0030                	addi	a2,sp,8
 3c2:	0000                	unimp
 3c4:	0e44                	addi	s1,sp,788
 3c6:	4420                	lw	s0,72(s0)
 3c8:	0181                	addi	gp,gp,0
 3ca:	c160                	sw	s0,68(a0)
 3cc:	0e44                	addi	s1,sp,788
 3ce:	0000                	unimp
 3d0:	0014                	0x14
 3d2:	0000                	unimp
 3d4:	020c                	addi	a1,sp,256
 3d6:	0000                	unimp
 3d8:	1de8                	addi	a0,sp,764
 3da:	0010                	0x10
 3dc:	0074                	addi	a3,sp,12
 3de:	0000                	unimp
 3e0:	0e44                	addi	s1,sp,788
 3e2:	0220                	addi	s0,sp,264
 3e4:	0e6c                	addi	a1,sp,796
 3e6:	0000                	unimp
 3e8:	0018                	0x18
 3ea:	0000                	unimp
 3ec:	020c                	addi	a1,sp,256
 3ee:	0000                	unimp
 3f0:	1e5c                	addi	a5,sp,820
 3f2:	0010                	0x10
 3f4:	0098                	addi	a4,sp,64
 3f6:	0000                	unimp
 3f8:	0e44                	addi	s1,sp,788
 3fa:	4430                	lw	a2,72(s0)
 3fc:	0181                	addi	gp,gp,0
 3fe:	8802                	jr	a6
 400:	44c1                	li	s1,16
 402:	000e                	c.slli	zero,0x3
 404:	0018                	0x18
 406:	0000                	unimp
 408:	020c                	addi	a1,sp,256
 40a:	0000                	unimp
 40c:	1ef4                	addi	a3,sp,892
 40e:	0010                	0x10
 410:	00a8                	addi	a0,sp,72
 412:	0000                	unimp
 414:	0e44                	addi	s1,sp,788
 416:	4440                	lw	s0,12(s0)
 418:	0181                	addi	gp,gp,0
 41a:	9802                	jalr	a6
 41c:	44c1                	li	s1,16
 41e:	000e                	c.slli	zero,0x3
 420:	001c                	0x1c
 422:	0000                	unimp
 424:	020c                	addi	a1,sp,256
 426:	0000                	unimp
 428:	1f9c                	addi	a5,sp,1008
 42a:	0010                	0x10
 42c:	014c                	addi	a1,sp,132
 42e:	0000                	unimp
 430:	0e44                	addi	s1,sp,788
 432:	4440                	lw	s0,12(s0)
 434:	0181                	addi	gp,gp,0
 436:	c1013c03          	0xc1013c03
 43a:	0e44                	addi	s1,sp,788
 43c:	0000                	unimp
 43e:	0000                	unimp
 440:	000c                	0xc
 442:	0000                	unimp
 444:	ffff                	0xffff
 446:	ffff                	0xffff
 448:	7c010003          	lb	zero,1984(sp)
 44c:	0d01                	addi	s10,s10,0
 44e:	0002                	c.slli64	zero
 450:	002c                	addi	a1,sp,8
 452:	0000                	unimp
 454:	0440                	addi	s0,sp,516
 456:	0000                	unimp
 458:	21b8                	fld	fa4,64(a1)
 45a:	0010                	0x10
 45c:	008e                	slli	ra,ra,0x3
 45e:	0000                	unimp
 460:	0e42                	slli	t3,t3,0x10
 462:	4a20                	lw	s0,80(a2)
 464:	0288                	addi	a0,sp,320
 466:	0492                	slli	s1,s1,0x4
 468:	0181                	addi	gp,gp,0
 46a:	0389                	addi	t2,t2,2
 46c:	70020593          	addi	a1,tp,1792 # ffff8700 <_stack_start+0xffdf8700>
 470:	c10a                	sw	sp,128(sp)
 472:	c842                	sw	a6,16(sp)
 474:	c942                	sw	a6,144(sp)
 476:	d342                	sw	a6,164(sp)
 478:	d244                	sw	s1,36(a2)
 47a:	0e42                	slli	t3,t3,0x10
 47c:	4200                	lw	s0,0(a2)
 47e:	000c000b          	0xc000b
 482:	0000                	unimp
 484:	ffff                	0xffff
 486:	ffff                	0xffff
 488:	7c010003          	lb	zero,1984(sp)
 48c:	0d01                	addi	s10,s10,0
 48e:	0002                	c.slli64	zero
 490:	000c                	0xc
 492:	0000                	unimp
 494:	0480                	addi	s0,sp,576
 496:	0000                	unimp
 498:	2246                	fld	ft4,80(sp)
 49a:	0010                	0x10
 49c:	00dc                	addi	a5,sp,68
 49e:	0000                	unimp
 4a0:	000c                	0xc
 4a2:	0000                	unimp
 4a4:	0480                	addi	s0,sp,576
 4a6:	0000                	unimp
 4a8:	2322                	fld	ft6,8(sp)
 4aa:	0010                	0x10
 4ac:	00e6                	slli	ra,ra,0x19
 4ae:	0000                	unimp
 4b0:	000c                	0xc
 4b2:	0000                	unimp
 4b4:	0480                	addi	s0,sp,576
 4b6:	0000                	unimp
 4b8:	2408                	fld	fa0,8(s0)
 4ba:	0010                	0x10
 4bc:	0090                	addi	a2,sp,64
 4be:	0000                	unimp
 4c0:	000c                	0xc
 4c2:	0000                	unimp
 4c4:	0480                	addi	s0,sp,576
 4c6:	0000                	unimp
 4c8:	2498                	fld	fa4,8(s1)
 4ca:	0010                	0x10
 4cc:	00c0                	addi	s0,sp,68
	...

Disassembly of section .debug_ranges:

00000000 <.debug_ranges>:
   0:	ffff                	0xffff
   2:	ffff                	0xffff
   4:	0000                	unimp
   6:	0000                	unimp
   8:	20e8                	fld	fa0,192(s1)
   a:	0010                	0x10
   c:	21b8                	fld	fa4,64(a1)
   e:	0010                	0x10
  10:	0000                	unimp
  12:	0010                	0x10
  14:	0084                	addi	s1,sp,64
  16:	0010                	0x10
	...
  20:	0022                	c.slli	zero,0x8
  22:	0000                	unimp
  24:	0022                	c.slli	zero,0x8
  26:	0000                	unimp
  28:	0024                	addi	s1,sp,8
  2a:	0000                	unimp
  2c:	002a                	c.slli	zero,0xa
  2e:	0000                	unimp
  30:	002c                	addi	a1,sp,8
  32:	0000                	unimp
  34:	0040                	addi	s0,sp,4
	...
  3e:	0000                	unimp
  40:	002c                	addi	a1,sp,8
  42:	0000                	unimp
  44:	0038                	addi	a4,sp,8
  46:	0000                	unimp
  48:	003c                	addi	a5,sp,8
  4a:	0000                	unimp
  4c:	0040                	addi	s0,sp,4
	...
  56:	0000                	unimp
  58:	0064                	addi	s1,sp,12
  5a:	0000                	unimp
  5c:	0066                	c.slli	zero,0x19
  5e:	0000                	unimp
  60:	0068                	addi	a0,sp,12
  62:	0000                	unimp
  64:	0076                	c.slli	zero,0x1d
	...

Disassembly of section .debug_loc:

00000000 <.debug_loc>:
   0:	0000                	unimp
   2:	0000                	unimp
   4:	004c                	addi	a1,sp,4
   6:	0000                	unimp
   8:	0001                	nop
   a:	4c5a                	lw	s8,148(sp)
   c:	0000                	unimp
   e:	8600                	0x8600
  10:	0000                	unimp
  12:	0100                	addi	s0,sp,128
  14:	6200                	flw	fs0,0(a2)
  16:	0086                	slli	ra,ra,0x1
  18:	0000                	unimp
  1a:	008a                	slli	ra,ra,0x2
  1c:	0000                	unimp
  1e:	0001                	nop
  20:	8a5a                	mv	s4,s6
  22:	0000                	unimp
  24:	8e00                	0x8e00
  26:	0000                	unimp
  28:	0100                	addi	s0,sp,128
  2a:	6200                	flw	fs0,0(a2)
	...
  38:	002c                	addi	a1,sp,8
  3a:	0000                	unimp
  3c:	0001                	nop
  3e:	00002c5b          	0x2c5b
  42:	4000                	lw	s0,0(s0)
  44:	0000                	unimp
  46:	0100                	addi	s0,sp,128
  48:	5800                	lw	s0,48(s0)
  4a:	0040                	addi	s0,sp,4
  4c:	0000                	unimp
  4e:	004a                	c.slli	zero,0x12
  50:	0000                	unimp
  52:	0001                	nop
  54:	00004a5b          	0x4a5b
  58:	8e00                	0x8e00
  5a:	0000                	unimp
  5c:	0400                	addi	s0,sp,512
  5e:	f300                	fsw	fs0,32(a4)
  60:	5b01                	li	s6,-32
  62:	009f 0000 0000      	0x9f
  68:	0000                	unimp
  6a:	0000                	unimp
  6c:	0000                	unimp
  6e:	2200                	fld	fs0,0(a2)
  70:	0000                	unimp
  72:	0100                	addi	s0,sp,128
  74:	5c00                	lw	s0,56(s0)
  76:	0022                	c.slli	zero,0x8
  78:	0000                	unimp
  7a:	005c                	addi	a5,sp,4
  7c:	0000                	unimp
  7e:	0001                	nop
  80:	8a59                	andi	a2,a2,22
  82:	0000                	unimp
  84:	8e00                	0x8e00
  86:	0000                	unimp
  88:	0100                	addi	s0,sp,128
  8a:	5900                	lw	s0,48(a0)
	...
  94:	0012                	c.slli	zero,0x4
  96:	0000                	unimp
  98:	002c                	addi	a1,sp,8
  9a:	0000                	unimp
  9c:	0001                	nop
  9e:	5c5a                	lw	s8,180(sp)
  a0:	0000                	unimp
  a2:	5e00                	lw	s0,56(a2)
  a4:	0000                	unimp
  a6:	0100                	addi	s0,sp,128
  a8:	5e00                	lw	s0,56(a2)
  aa:	005e                	c.slli	zero,0x17
  ac:	0000                	unimp
  ae:	0066                	c.slli	zero,0x19
  b0:	0000                	unimp
  b2:	017e0003          	lb	zero,23(t3) # 1a017 <_stack_len+0x12017>
  b6:	009f 0000 0000      	0x9f
  bc:	0000                	unimp
  be:	1400                	addi	s0,sp,544
  c0:	0000                	unimp
  c2:	2c00                	fld	fs0,24(s0)
  c4:	0000                	unimp
  c6:	0100                	addi	s0,sp,128
  c8:	5b00                	lw	s0,48(a4)
  ca:	002c                	addi	a1,sp,8
  cc:	0000                	unimp
  ce:	0040                	addi	s0,sp,4
  d0:	0000                	unimp
  d2:	0001                	nop
  d4:	565f 0000 6800      	0x68000000565f
  da:	0000                	unimp
  dc:	0100                	addi	s0,sp,128
  de:	5800                	lw	s0,48(s0)
  e0:	0068                	addi	a0,sp,12
  e2:	0000                	unimp
  e4:	007a                	c.slli	zero,0x1e
  e6:	0000                	unimp
  e8:	0001                	nop
  ea:	005f 0000 0000      	0x5f
  f0:	0000                	unimp
  f2:	2200                	fld	fs0,0(a2)
  f4:	0000                	unimp
  f6:	2c00                	fld	fs0,24(s0)
  f8:	0000                	unimp
  fa:	0100                	addi	s0,sp,128
  fc:	5d00                	lw	s0,56(a0)
  fe:	002c                	addi	a1,sp,8
 100:	0000                	unimp
 102:	0040                	addi	s0,sp,4
 104:	0000                	unimp
 106:	0009                	c.nop	2
 108:	0078                	addi	a4,sp,12
 10a:	007d                	c.nop	31
 10c:	7f22                	flw	ft10,40(sp)
 10e:	1c00                	addi	s0,sp,560
 110:	009f 0000 0000      	0x9f
 116:	0000                	unimp
 118:	3000                	fld	fs0,32(s0)
 11a:	0000                	unimp
 11c:	4000                	lw	s0,0(s0)
 11e:	0000                	unimp
 120:	0100                	addi	s0,sp,128
 122:	5c00                	lw	s0,56(s0)
	...
 12c:	006c                	addi	a1,sp,12
 12e:	0000                	unimp
 130:	007a                	c.slli	zero,0x1e
 132:	0000                	unimp
 134:	0001                	nop
 136:	005c                	addi	a5,sp,4
 138:	0000                	unimp
 13a:	0000                	unimp
 13c:	0000                	unimp
 13e:	5200                	lw	s0,32(a2)
 140:	0002                	c.slli64	zero
 142:	8e00                	0x8e00
 144:	0002                	c.slli64	zero
 146:	0100                	addi	s0,sp,128
 148:	5a00                	lw	s0,48(a2)
 14a:	028e                	slli	t0,t0,0x3
 14c:	0000                	unimp
 14e:	02bc                	addi	a5,sp,328
 150:	0000                	unimp
 152:	0001                	nop
 154:	bc5a                	fsd	fs6,56(sp)
 156:	0002                	c.slli64	zero
 158:	c600                	sw	s0,8(a2)
 15a:	0002                	c.slli64	zero
 15c:	0300                	addi	s0,sp,384
 15e:	7a00                	flw	fs0,48(a2)
 160:	9f70                	0x9f70
 162:	02cc                	addi	a1,sp,324
 164:	0000                	unimp
 166:	02de                	slli	t0,t0,0x17
 168:	0000                	unimp
 16a:	0001                	nop
 16c:	e45a                	fsw	fs6,8(sp)
 16e:	0002                	c.slli64	zero
 170:	0c00                	addi	s0,sp,528
 172:	01000003          	lb	zero,16(zero) # 10 <_min_stack-0x1ff0>
 176:	5a00                	lw	s0,48(a2)
 178:	030c                	addi	a1,sp,384
 17a:	0000                	unimp
 17c:	0312                	slli	t1,t1,0x4
 17e:	0000                	unimp
 180:	707a0003          	lb	zero,1799(s4)
 184:	009f 0000 0000      	0x9f
 18a:	0000                	unimp
 18c:	5200                	lw	s0,32(a2)
 18e:	0002                	c.slli64	zero
 190:	5e00                	lw	s0,56(a2)
 192:	0002                	c.slli64	zero
 194:	0100                	addi	s0,sp,128
 196:	5b00                	lw	s0,48(a4)
 198:	025e                	slli	tp,tp,0x17
 19a:	0000                	unimp
 19c:	0268                	addi	a0,sp,268
 19e:	0000                	unimp
 1a0:	0004                	0x4
 1a2:	9f5b01f3          	0x9f5b01f3
 1a6:	0268                	addi	a0,sp,268
 1a8:	0000                	unimp
 1aa:	028c                	addi	a1,sp,320
 1ac:	0000                	unimp
 1ae:	047d0003          	lb	zero,71(s10) # 19047 <_stack_len+0x11047>
 1b2:	8c9f 0002 bc00      	0xbc0000028c9f
 1b8:	0002                	c.slli64	zero
 1ba:	0100                	addi	s0,sp,128
 1bc:	5d00                	lw	s0,56(a0)
 1be:	02bc                	addi	a5,sp,328
 1c0:	0000                	unimp
 1c2:	02c6                	slli	t0,t0,0x11
 1c4:	0000                	unimp
 1c6:	707d0003          	lb	zero,1799(s10)
 1ca:	cc9f 0002 de00      	0xde000002cc9f
 1d0:	0002                	c.slli64	zero
 1d2:	0100                	addi	s0,sp,128
 1d4:	5d00                	lw	s0,56(a0)
 1d6:	02e4                	addi	s1,sp,332
 1d8:	0000                	unimp
 1da:	02e6                	slli	t0,t0,0x19
 1dc:	0000                	unimp
 1de:	047d0003          	lb	zero,71(s10)
 1e2:	e69f 0002 ec00      	0xec000002e69f
 1e8:	0002                	c.slli64	zero
 1ea:	0100                	addi	s0,sp,128
 1ec:	5d00                	lw	s0,56(a0)
 1ee:	02ec                	addi	a1,sp,332
 1f0:	0000                	unimp
 1f2:	02ee                	slli	t0,t0,0x1b
 1f4:	0000                	unimp
 1f6:	047d0003          	lb	zero,71(s10)
 1fa:	ee9f 0002 f400      	0xf4000002ee9f
 200:	0002                	c.slli64	zero
 202:	0100                	addi	s0,sp,128
 204:	5d00                	lw	s0,56(a0)
 206:	02f4                	addi	a3,sp,332
 208:	0000                	unimp
 20a:	030a                	slli	t1,t1,0x2
 20c:	0000                	unimp
 20e:	047d0003          	lb	zero,71(s10)
 212:	0a9f 0003 0c00      	0xc0000030a9f
 218:	01000003          	lb	zero,16(zero) # 10 <_min_stack-0x1ff0>
 21c:	5d00                	lw	s0,56(a0)
 21e:	030c                	addi	a1,sp,384
 220:	0000                	unimp
 222:	0312                	slli	t1,t1,0x4
 224:	0000                	unimp
 226:	707d0003          	lb	zero,1799(s10)
 22a:	009f 0000 0000      	0x9f
 230:	0000                	unimp
 232:	5200                	lw	s0,32(a2)
 234:	0002                	c.slli64	zero
 236:	be00                	fsd	fs0,56(a2)
 238:	0002                	c.slli64	zero
 23a:	0100                	addi	s0,sp,128
 23c:	5c00                	lw	s0,56(s0)
 23e:	02be                	slli	t0,t0,0xf
 240:	0000                	unimp
 242:	02fa                	slli	t0,t0,0x1e
 244:	0000                	unimp
 246:	0001                	nop
 248:	fa5c                	fsw	fa5,52(a2)
 24a:	0002                	c.slli64	zero
 24c:	0400                	addi	s0,sp,512
 24e:	03000003          	lb	zero,48(zero) # 30 <_min_stack-0x1fd0>
 252:	7c00                	flw	fs0,56(s0)
 254:	9f7e                	add	t5,t5,t6
 256:	0304                	addi	s1,sp,384
 258:	0000                	unimp
 25a:	030c                	addi	a1,sp,384
 25c:	0000                	unimp
 25e:	027c0003          	lb	zero,39(s8) # 18027 <_stack_len+0x10027>
 262:	0c9f 0003 1200      	0x120000030c9f
 268:	01000003          	lb	zero,16(zero) # 10 <_min_stack-0x1ff0>
 26c:	5c00                	lw	s0,56(s0)
	...
 276:	028e                	slli	t0,t0,0x3
 278:	0000                	unimp
 27a:	0290                	addi	a2,sp,320
 27c:	0000                	unimp
 27e:	0006                	c.slli	zero,0x1
 280:	095b01f3          	0x95b01f3
 284:	1afc                	addi	a5,sp,380
 286:	02b6                	slli	t0,t0,0xd
 288:	0000                	unimp
 28a:	02cc                	addi	a1,sp,324
 28c:	0000                	unimp
 28e:	0001                	nop
 290:	cc61                	beqz	s0,368 <_min_stack-0x1c98>
 292:	0002                	c.slli64	zero
 294:	d400                	sw	s0,40(s0)
 296:	0002                	c.slli64	zero
 298:	0100                	addi	s0,sp,128
 29a:	5e00                	lw	s0,56(a2)
 29c:	02de                	slli	t0,t0,0x17
 29e:	0000                	unimp
 2a0:	02e4                	addi	s1,sp,332
 2a2:	0000                	unimp
 2a4:	0001                	nop
 2a6:	e861                	bnez	s0,376 <_min_stack-0x1c8a>
 2a8:	0002                	c.slli64	zero
 2aa:	ec00                	fsw	fs0,24(s0)
 2ac:	0002                	c.slli64	zero
 2ae:	0200                	addi	s0,sp,256
 2b0:	7d00                	flw	fs0,56(a0)
 2b2:	0c10                	addi	a2,sp,528
 2b4:	12000003          	lb	zero,288(zero) # 120 <_min_stack-0x1ee0>
 2b8:	01000003          	lb	zero,16(zero) # 10 <_min_stack-0x1ff0>
 2bc:	6100                	flw	fs0,0(a0)
	...
 2c6:	02a4                	addi	s1,sp,328
 2c8:	0000                	unimp
 2ca:	02b6                	slli	t0,t0,0xd
 2cc:	0000                	unimp
 2ce:	0001                	nop
 2d0:	b661                	j	fffffe58 <_stack_start+0xffdffe58>
 2d2:	0002                	c.slli64	zero
 2d4:	ba00                	fsd	fs0,48(a2)
 2d6:	0002                	c.slli64	zero
 2d8:	0100                	addi	s0,sp,128
 2da:	5e00                	lw	s0,56(a2)
 2dc:	02e8                	addi	a0,sp,332
 2de:	0000                	unimp
 2e0:	02ec                	addi	a1,sp,332
 2e2:	0000                	unimp
 2e4:	0006                	c.slli	zero,0x1
 2e6:	095b01f3          	0x95b01f3
 2ea:	1afc                	addi	a5,sp,380
	...
 2f4:	0292                	slli	t0,t0,0x4
 2f6:	0000                	unimp
 2f8:	02a4                	addi	s1,sp,328
 2fa:	0000                	unimp
 2fc:	0001                	nop
 2fe:	f05e                	fsw	fs7,32(sp)
 300:	0002                	c.slli64	zero
 302:	f400                	fsw	fs0,40(s0)
 304:	0002                	c.slli64	zero
 306:	0200                	addi	s0,sp,256
 308:	7d00                	flw	fs0,56(a0)
 30a:	0008                	0x8
 30c:	0000                	unimp
 30e:	0000                	unimp
 310:	0000                	unimp
 312:	8e00                	0x8e00
 314:	0002                	c.slli64	zero
 316:	9000                	0x9000
 318:	0002                	c.slli64	zero
 31a:	0200                	addi	s0,sp,256
 31c:	7d00                	flw	fs0,56(a0)
 31e:	900c                	0x900c
 320:	0002                	c.slli64	zero
 322:	9600                	0x9600
 324:	0002                	c.slli64	zero
 326:	0100                	addi	s0,sp,128
 328:	6100                	flw	fs0,0(a0)
 32a:	02d0                	addi	a2,sp,324
 32c:	0000                	unimp
 32e:	02de                	slli	t0,t0,0x17
 330:	0000                	unimp
 332:	0001                	nop
 334:	f061                	bnez	s0,2f4 <_min_stack-0x1d0c>
 336:	0002                	c.slli64	zero
 338:	f400                	fsw	fs0,40(s0)
 33a:	0002                	c.slli64	zero
 33c:	0600                	addi	s0,sp,768
 33e:	f300                	fsw	fs0,32(a4)
 340:	5b01                	li	s6,-32
 342:	fc09                	bnez	s0,25c <_min_stack-0x1da4>
 344:	001a                	c.slli	zero,0x6
 346:	0000                	unimp
 348:	0000                	unimp
 34a:	0000                	unimp
 34c:	c200                	sw	s0,0(a2)
 34e:	0001                	nop
 350:	de00                	sw	s0,56(a2)
 352:	0001                	nop
 354:	0100                	addi	s0,sp,128
 356:	5a00                	lw	s0,48(a2)
 358:	01de                	slli	gp,gp,0x17
 35a:	0000                	unimp
 35c:	01e2                	slli	gp,gp,0x18
 35e:	0000                	unimp
 360:	0001                	nop
 362:	e25a                	fsw	fs6,4(sp)
 364:	0001                	nop
 366:	e600                	fsw	fs0,8(a2)
 368:	0001                	nop
 36a:	0300                	addi	s0,sp,384
 36c:	7a00                	flw	fs0,48(a2)
 36e:	9f60                	0x9f60
 370:	01e6                	slli	gp,gp,0x19
 372:	0000                	unimp
 374:	020a                	slli	tp,tp,0x2
 376:	0000                	unimp
 378:	0001                	nop
 37a:	0a5a                	slli	s4,s4,0x16
 37c:	0002                	c.slli64	zero
 37e:	1200                	addi	s0,sp,288
 380:	0002                	c.slli64	zero
 382:	0300                	addi	s0,sp,384
 384:	7a00                	flw	fs0,48(a2)
 386:	9f60                	0x9f60
 388:	0212                	slli	tp,tp,0x4
 38a:	0000                	unimp
 38c:	0252                	slli	tp,tp,0x14
 38e:	0000                	unimp
 390:	0001                	nop
 392:	005a                	c.slli	zero,0x16
 394:	0000                	unimp
 396:	0000                	unimp
 398:	0000                	unimp
 39a:	c200                	sw	s0,0(a2)
 39c:	0001                	nop
 39e:	dc00                	sw	s0,56(s0)
 3a0:	0001                	nop
 3a2:	0100                	addi	s0,sp,128
 3a4:	5b00                	lw	s0,48(a4)
 3a6:	01dc                	addi	a5,sp,196
 3a8:	0000                	unimp
 3aa:	01e2                	slli	gp,gp,0x18
 3ac:	0000                	unimp
 3ae:	0001                	nop
 3b0:	0001e25b          	0x1e25b
 3b4:	e400                	fsw	fs0,8(s0)
 3b6:	0001                	nop
 3b8:	0300                	addi	s0,sp,384
 3ba:	7b00                	flw	fs0,48(a4)
 3bc:	9f60                	0x9f60
 3be:	01e4                	addi	s1,sp,204
 3c0:	0000                	unimp
 3c2:	020a                	slli	tp,tp,0x2
 3c4:	0000                	unimp
 3c6:	0001                	nop
 3c8:	00020a5b          	0x20a5b
 3cc:	1200                	addi	s0,sp,288
 3ce:	0002                	c.slli64	zero
 3d0:	0300                	addi	s0,sp,384
 3d2:	7b00                	flw	fs0,48(a4)
 3d4:	9f60                	0x9f60
 3d6:	0212                	slli	tp,tp,0x4
 3d8:	0000                	unimp
 3da:	0252                	slli	tp,tp,0x14
 3dc:	0000                	unimp
 3de:	0001                	nop
 3e0:	0000005b          	0x5b
 3e4:	0000                	unimp
 3e6:	0000                	unimp
 3e8:	c200                	sw	s0,0(a2)
 3ea:	0001                	nop
 3ec:	e000                	fsw	fs0,0(s0)
 3ee:	0001                	nop
 3f0:	0100                	addi	s0,sp,128
 3f2:	5c00                	lw	s0,56(s0)
 3f4:	01e0                	addi	s0,sp,204
 3f6:	0000                	unimp
 3f8:	0208                	addi	a0,sp,256
 3fa:	0000                	unimp
 3fc:	0001                	nop
 3fe:	085c                	addi	a5,sp,20
 400:	0002                	c.slli64	zero
 402:	0a00                	addi	s0,sp,272
 404:	0002                	c.slli64	zero
 406:	0300                	addi	s0,sp,384
 408:	7c00                	flw	fs0,56(s0)
 40a:	9f08                	0x9f08
 40c:	020a                	slli	tp,tp,0x2
 40e:	0000                	unimp
 410:	0252                	slli	tp,tp,0x14
 412:	0000                	unimp
 414:	0001                	nop
 416:	005c                	addi	a5,sp,4
 418:	0000                	unimp
 41a:	0000                	unimp
 41c:	0000                	unimp
 41e:	e200                	fsw	fs0,0(a2)
 420:	0001                	nop
 422:	e600                	fsw	fs0,8(a2)
 424:	0001                	nop
 426:	0100                	addi	s0,sp,128
 428:	5e00                	lw	s0,56(a2)
 42a:	01e8                	addi	a0,sp,204
 42c:	0000                	unimp
 42e:	01ee                	slli	gp,gp,0x1b
 430:	0000                	unimp
 432:	0001                	nop
 434:	f05e                	fsw	fs7,32(sp)
 436:	0001                	nop
 438:	f400                	fsw	fs0,40(s0)
 43a:	0001                	nop
 43c:	0100                	addi	s0,sp,128
 43e:	5e00                	lw	s0,56(a2)
 440:	01f4                	addi	a3,sp,204
 442:	0000                	unimp
 444:	01f8                	addi	a4,sp,204
 446:	0000                	unimp
 448:	0001                	nop
 44a:	fa5f 0001 0000      	0x1fa5f
 450:	0002                	c.slli64	zero
 452:	0100                	addi	s0,sp,128
 454:	5f00                	lw	s0,56(a4)
 456:	0202                	c.slli64	tp
 458:	0000                	unimp
 45a:	0212                	slli	tp,tp,0x4
 45c:	0000                	unimp
 45e:	0001                	nop
 460:	205e                	fld	ft0,464(sp)
 462:	0002                	c.slli64	zero
 464:	2600                	fld	fs0,8(a2)
 466:	0002                	c.slli64	zero
 468:	0200                	addi	s0,sp,256
 46a:	7b00                	flw	fs0,48(a4)
 46c:	3404                	fld	fs1,40(s0)
 46e:	0002                	c.slli64	zero
 470:	3800                	fld	fs0,48(s0)
 472:	0002                	c.slli64	zero
 474:	0200                	addi	s0,sp,256
 476:	7b00                	flw	fs0,48(a4)
 478:	460c                	lw	a1,8(a2)
 47a:	0002                	c.slli64	zero
 47c:	4a00                	lw	s0,16(a2)
 47e:	0002                	c.slli64	zero
 480:	0200                	addi	s0,sp,256
 482:	7b00                	flw	fs0,48(a4)
 484:	4e14                	lw	a3,24(a2)
 486:	0002                	c.slli64	zero
 488:	5200                	lw	s0,32(a2)
 48a:	0002                	c.slli64	zero
 48c:	0200                	addi	s0,sp,256
 48e:	7b00                	flw	fs0,48(a4)
 490:	001c                	0x1c
 492:	0000                	unimp
 494:	0000                	unimp
 496:	0000                	unimp
 498:	de00                	sw	s0,56(a2)
 49a:	0001                	nop
 49c:	e200                	fsw	fs0,0(a2)
 49e:	0001                	nop
 4a0:	0200                	addi	s0,sp,256
 4a2:	7b00                	flw	fs0,48(a4)
 4a4:	e218                	fsw	fa4,0(a2)
 4a6:	0001                	nop
 4a8:	ea00                	fsw	fs0,16(a2)
 4aa:	0001                	nop
 4ac:	0100                	addi	s0,sp,128
 4ae:	5f00                	lw	s0,56(a4)
 4b0:	01ec                	addi	a1,sp,204
 4b2:	0000                	unimp
 4b4:	01f4                	addi	a3,sp,204
 4b6:	0000                	unimp
 4b8:	0001                	nop
 4ba:	f65f 0001 fc00      	0xfc000001f65f
 4c0:	0001                	nop
 4c2:	0100                	addi	s0,sp,128
 4c4:	5e00                	lw	s0,56(a2)
 4c6:	01fe                	slli	gp,gp,0x1f
 4c8:	0000                	unimp
 4ca:	0204                	addi	s1,sp,256
 4cc:	0000                	unimp
 4ce:	0001                	nop
 4d0:	065d                	addi	a2,a2,23
 4d2:	0002                	c.slli64	zero
 4d4:	1200                	addi	s0,sp,288
 4d6:	0002                	c.slli64	zero
 4d8:	0100                	addi	s0,sp,128
 4da:	5f00                	lw	s0,56(a4)
 4dc:	0218                	addi	a4,sp,256
 4de:	0000                	unimp
 4e0:	021c                	addi	a5,sp,256
 4e2:	0000                	unimp
 4e4:	0002                	c.slli64	zero
 4e6:	022a207b          	0x22a207b
 4ea:	0000                	unimp
 4ec:	0230                	addi	a2,sp,264
 4ee:	0000                	unimp
 4f0:	0002                	c.slli64	zero
 4f2:	023c087b          	0x23c087b
 4f6:	0000                	unimp
 4f8:	0242                	slli	tp,tp,0x10
 4fa:	0000                	unimp
 4fc:	0002                	c.slli64	zero
 4fe:	0000107b          	0x107b
 502:	0000                	unimp
 504:	0000                	unimp
 506:	0000                	unimp
 508:	00dc                	addi	a5,sp,68
 50a:	0000                	unimp
 50c:	011e                	slli	sp,sp,0x7
 50e:	0000                	unimp
 510:	0001                	nop
 512:	1e5a                	slli	t3,t3,0x36
 514:	0001                	nop
 516:	2000                	fld	fs0,0(s0)
 518:	0001                	nop
 51a:	0100                	addi	s0,sp,128
 51c:	6c00                	flw	fs0,24(s0)
 51e:	0166                	slli	sp,sp,0x19
 520:	0000                	unimp
 522:	016e                	slli	sp,sp,0x1b
 524:	0000                	unimp
 526:	0001                	nop
 528:	6e6c                	flw	fa1,92(a2)
 52a:	0001                	nop
 52c:	8400                	0x8400
 52e:	0001                	nop
 530:	0100                	addi	s0,sp,128
 532:	5a00                	lw	s0,48(a2)
 534:	0184                	addi	s1,sp,192
 536:	0000                	unimp
 538:	018a                	slli	gp,gp,0x2
 53a:	0000                	unimp
 53c:	0001                	nop
 53e:	8a6c                	0x8a6c
 540:	0001                	nop
 542:	9800                	0x9800
 544:	0001                	nop
 546:	0100                	addi	s0,sp,128
 548:	5a00                	lw	s0,48(a2)
 54a:	0198                	addi	a4,sp,192
 54c:	0000                	unimp
 54e:	019e                	slli	gp,gp,0x7
 550:	0000                	unimp
 552:	0001                	nop
 554:	9e6c                	0x9e6c
 556:	0001                	nop
 558:	ac00                	fsd	fs0,24(s0)
 55a:	0001                	nop
 55c:	0100                	addi	s0,sp,128
 55e:	5a00                	lw	s0,48(a2)
 560:	01bc                	addi	a5,sp,200
 562:	0000                	unimp
 564:	01c2                	slli	gp,gp,0x10
 566:	0000                	unimp
 568:	0001                	nop
 56a:	006c                	addi	a1,sp,12
 56c:	0000                	unimp
 56e:	0000                	unimp
 570:	0000                	unimp
 572:	dc00                	sw	s0,56(s0)
 574:	0000                	unimp
 576:	ea00                	fsw	fs0,16(a2)
 578:	0000                	unimp
 57a:	0100                	addi	s0,sp,128
 57c:	5b00                	lw	s0,48(a4)
 57e:	00ea                	slli	ra,ra,0x1a
 580:	0000                	unimp
 582:	00f2                	slli	ra,ra,0x1c
 584:	0000                	unimp
 586:	0004                	0x4
 588:	9f5b01f3          	0x9f5b01f3
 58c:	00f2                	slli	ra,ra,0x1c
 58e:	0000                	unimp
 590:	011a                	slli	sp,sp,0x6
 592:	0000                	unimp
 594:	01f30007          	0x1f30007
 598:	1afc095b          	0x1afc095b
 59c:	1a9f 0001 2000      	0x200000011a9f
 5a2:	0001                	nop
 5a4:	0100                	addi	s0,sp,128
 5a6:	5600                	lw	s0,40(a2)
 5a8:	0158                	addi	a4,sp,132
 5aa:	0000                	unimp
 5ac:	0168                	addi	a0,sp,140
 5ae:	0000                	unimp
 5b0:	10760003          	lb	zero,263(a2) # b107 <_stack_len+0x3107>
 5b4:	6e9f 0001 8400      	0x840000016e9f
 5ba:	0001                	nop
 5bc:	0100                	addi	s0,sp,128
 5be:	5600                	lw	s0,40(a2)
 5c0:	018a                	slli	gp,gp,0x2
 5c2:	0000                	unimp
 5c4:	018e                	slli	gp,gp,0x3
 5c6:	0000                	unimp
 5c8:	01f30007          	0x1f30007
 5cc:	1afc095b          	0x1afc095b
 5d0:	8e9f 0001 9400      	0x940000018e9f
 5d6:	0001                	nop
 5d8:	0100                	addi	s0,sp,128
 5da:	5600                	lw	s0,40(a2)
 5dc:	0194                	addi	a3,sp,192
 5de:	0000                	unimp
 5e0:	01a2                	slli	gp,gp,0x8
 5e2:	0000                	unimp
 5e4:	01f30007          	0x1f30007
 5e8:	1afc095b          	0x1afc095b
 5ec:	a29f 0001 ac00      	0xac000001a29f
 5f2:	0001                	nop
 5f4:	0100                	addi	s0,sp,128
 5f6:	5600                	lw	s0,40(a2)
 5f8:	01b4                	addi	a3,sp,200
 5fa:	0000                	unimp
 5fc:	01c2                	slli	gp,gp,0x10
 5fe:	0000                	unimp
 600:	10760003          	lb	zero,263(a2)
 604:	009f 0000 0000      	0x9f
 60a:	0000                	unimp
 60c:	dc00                	sw	s0,56(s0)
 60e:	0000                	unimp
 610:	5a00                	lw	s0,48(a2)
 612:	0001                	nop
 614:	0100                	addi	s0,sp,128
 616:	5c00                	lw	s0,56(s0)
 618:	015a                	slli	sp,sp,0x16
 61a:	0000                	unimp
 61c:	0166                	slli	sp,sp,0x19
 61e:	0000                	unimp
 620:	047c0003          	lb	zero,71(s8)
 624:	669f 0001 a800      	0xa8000001669f
 62a:	0001                	nop
 62c:	0100                	addi	s0,sp,128
 62e:	5c00                	lw	s0,56(s0)
 630:	01a8                	addi	a0,sp,200
 632:	0000                	unimp
 634:	01ac                	addi	a1,sp,200
 636:	0000                	unimp
 638:	7e7c0003          	lb	zero,2023(s8)
 63c:	ac9f 0001 b600      	0xb6000001ac9f
 642:	0001                	nop
 644:	0100                	addi	s0,sp,128
 646:	5c00                	lw	s0,56(s0)
 648:	01b6                	slli	gp,gp,0xd
 64a:	0000                	unimp
 64c:	01bc                	addi	a5,sp,200
 64e:	0000                	unimp
 650:	047c0003          	lb	zero,71(s8)
 654:	bc9f 0001 c200      	0xc2000001bc9f
 65a:	0001                	nop
 65c:	0100                	addi	s0,sp,128
 65e:	5c00                	lw	s0,56(s0)
	...
 668:	011a                	slli	sp,sp,0x6
 66a:	0000                	unimp
 66c:	0120                	addi	s0,sp,136
 66e:	0000                	unimp
 670:	0008                	0x8
 672:	095b01f3          	0x95b01f3
 676:	1afc                	addi	a5,sp,380
 678:	01200423          	sb	s2,8(zero) # 8 <_min_stack-0x1ff8>
 67c:	0000                	unimp
 67e:	0128                	addi	a0,sp,136
 680:	0000                	unimp
 682:	0001                	nop
 684:	7261                	lui	tp,0xffff8
 686:	0001                	nop
 688:	8400                	0x8400
 68a:	0001                	nop
 68c:	0100                	addi	s0,sp,128
 68e:	6100                	flw	fs0,0(a0)
 690:	0194                	addi	a3,sp,192
 692:	0000                	unimp
 694:	019e                	slli	gp,gp,0x7
 696:	0000                	unimp
 698:	0006                	c.slli	zero,0x1
 69a:	095b01f3          	0x95b01f3
 69e:	1afc                	addi	a5,sp,380
	...
 6a8:	0124                	addi	s1,sp,136
 6aa:	0000                	unimp
 6ac:	0148                	addi	a0,sp,132
 6ae:	0000                	unimp
 6b0:	0001                	nop
 6b2:	945e                	add	s0,s0,s7
 6b4:	0001                	nop
 6b6:	9e00                	0x9e00
 6b8:	0001                	nop
 6ba:	0800                	addi	s0,sp,16
 6bc:	f300                	fsw	fs0,32(a4)
 6be:	5b01                	li	s6,-32
 6c0:	fc09                	bnez	s0,5da <_min_stack-0x1a26>
 6c2:	231a                	fld	ft6,384(sp)
 6c4:	9e04                	0x9e04
 6c6:	0001                	nop
 6c8:	ac00                	fsd	fs0,24(s0)
 6ca:	0001                	nop
 6cc:	0600                	addi	s0,sp,768
 6ce:	f300                	fsw	fs0,32(a4)
 6d0:	5b01                	li	s6,-32
 6d2:	fc09                	bnez	s0,5ec <_min_stack-0x1a14>
 6d4:	001a                	c.slli	zero,0x6
 6d6:	0000                	unimp
 6d8:	0000                	unimp
 6da:	0000                	unimp
 6dc:	3c00                	fld	fs0,56(s0)
 6de:	0001                	nop
 6e0:	6800                	flw	fs0,16(s0)
 6e2:	0001                	nop
 6e4:	0100                	addi	s0,sp,128
 6e6:	5a00                	lw	s0,48(a2)
 6e8:	018a                	slli	gp,gp,0x2
 6ea:	0000                	unimp
 6ec:	0194                	addi	a3,sp,192
 6ee:	0000                	unimp
 6f0:	0006                	c.slli	zero,0x1
 6f2:	095b01f3          	0x95b01f3
 6f6:	1afc                	addi	a5,sp,380
 6f8:	019e                	slli	gp,gp,0x7
 6fa:	0000                	unimp
 6fc:	01ac                	addi	a1,sp,200
 6fe:	0000                	unimp
 700:	0008                	0x8
 702:	095b01f3          	0x95b01f3
 706:	1afc                	addi	a5,sp,380
 708:	01ac0423          	sb	s10,8(s8)
 70c:	0000                	unimp
 70e:	01b0                	addi	a2,sp,200
 710:	0000                	unimp
 712:	0001                	nop
 714:	b05e                	fsd	fs7,32(sp)
 716:	0001                	nop
 718:	b400                	fsd	fs0,40(s0)
 71a:	0001                	nop
 71c:	0200                	addi	s0,sp,256
 71e:	7600                	flw	fs0,40(a2)
 720:	0008                	0x8
 722:	0000                	unimp
 724:	0000                	unimp
 726:	0000                	unimp
 728:	1a00                	addi	s0,sp,304
 72a:	0001                	nop
 72c:	2000                	fld	fs0,0(s0)
 72e:	0001                	nop
 730:	0600                	addi	s0,sp,768
 732:	f300                	fsw	fs0,32(a4)
 734:	5b01                	li	s6,-32
 736:	fc09                	bnez	s0,650 <_min_stack-0x19b0>
 738:	501a                	0x501a
 73a:	0001                	nop
 73c:	6e00                	flw	fs0,24(a2)
 73e:	0001                	nop
 740:	0100                	addi	s0,sp,128
 742:	6100                	flw	fs0,0(a0)
 744:	016e                	slli	sp,sp,0x1b
 746:	0000                	unimp
 748:	0176                	slli	sp,sp,0x1d
 74a:	0000                	unimp
 74c:	0001                	nop
 74e:	845e                	mv	s0,s7
 750:	0001                	nop
 752:	8a00                	0x8a00
 754:	0001                	nop
 756:	0100                	addi	s0,sp,128
 758:	6100                	flw	fs0,0(a0)
 75a:	018a                	slli	gp,gp,0x2
 75c:	0000                	unimp
 75e:	0194                	addi	a3,sp,192
 760:	0000                	unimp
 762:	0008                	0x8
 764:	095b01f3          	0x95b01f3
 768:	1afc                	addi	a5,sp,380
 76a:	01ac0423          	sb	s10,8(s8)
 76e:	0000                	unimp
 770:	01c2                	slli	gp,gp,0x10
 772:	0000                	unimp
 774:	0001                	nop
 776:	0061                	c.nop	24
	...
 780:	0000                	unimp
 782:	2400                	fld	fs0,8(s0)
 784:	0000                	unimp
 786:	0100                	addi	s0,sp,128
 788:	5a00                	lw	s0,48(a2)
 78a:	0024                	addi	s1,sp,8
 78c:	0000                	unimp
 78e:	002e                	c.slli	zero,0xb
 790:	0000                	unimp
 792:	0001                	nop
 794:	2e5d                	jal	b4a <_min_stack-0x14b6>
 796:	0000                	unimp
 798:	3800                	fld	fs0,48(s0)
 79a:	0000                	unimp
 79c:	0100                	addi	s0,sp,128
 79e:	5a00                	lw	s0,48(a2)
 7a0:	0080                	addi	s0,sp,64
 7a2:	0000                	unimp
 7a4:	0088                	addi	a0,sp,64
 7a6:	0000                	unimp
 7a8:	0001                	nop
 7aa:	885d                	andi	s0,s0,23
 7ac:	0000                	unimp
 7ae:	9a00                	0x9a00
 7b0:	0000                	unimp
 7b2:	0100                	addi	s0,sp,128
 7b4:	5a00                	lw	s0,48(a2)
 7b6:	009a                	slli	ra,ra,0x6
 7b8:	0000                	unimp
 7ba:	00a0                	addi	s0,sp,72
 7bc:	0000                	unimp
 7be:	0001                	nop
 7c0:	a05d                	j	866 <_min_stack-0x179a>
 7c2:	0000                	unimp
 7c4:	a800                	fsd	fs0,16(s0)
 7c6:	0000                	unimp
 7c8:	0100                	addi	s0,sp,128
 7ca:	5a00                	lw	s0,48(a2)
 7cc:	00a8                	addi	a0,sp,72
 7ce:	0000                	unimp
 7d0:	00ae                	slli	ra,ra,0xb
 7d2:	0000                	unimp
 7d4:	0001                	nop
 7d6:	ae5d                	j	b8c <_min_stack-0x1474>
 7d8:	0000                	unimp
 7da:	b600                	fsd	fs0,40(a2)
 7dc:	0000                	unimp
 7de:	0100                	addi	s0,sp,128
 7e0:	5a00                	lw	s0,48(a2)
 7e2:	00b6                	slli	ra,ra,0xd
 7e4:	0000                	unimp
 7e6:	00ba                	slli	ra,ra,0xe
 7e8:	0000                	unimp
 7ea:	0001                	nop
 7ec:	ba5d                	j	1a2 <_min_stack-0x1e5e>
 7ee:	0000                	unimp
 7f0:	c200                	sw	s0,0(a2)
 7f2:	0000                	unimp
 7f4:	0100                	addi	s0,sp,128
 7f6:	5a00                	lw	s0,48(a2)
 7f8:	00c2                	slli	ra,ra,0x10
 7fa:	0000                	unimp
 7fc:	00c8                	addi	a0,sp,68
 7fe:	0000                	unimp
 800:	0001                	nop
 802:	c85d                	beqz	s0,8b8 <_min_stack-0x1748>
 804:	0000                	unimp
 806:	d000                	sw	s0,32(s0)
 808:	0000                	unimp
 80a:	0100                	addi	s0,sp,128
 80c:	5a00                	lw	s0,48(a2)
 80e:	00d0                	addi	a2,sp,68
 810:	0000                	unimp
 812:	00d4                	addi	a3,sp,68
 814:	0000                	unimp
 816:	0001                	nop
 818:	d45d                	beqz	s0,7c6 <_min_stack-0x183a>
 81a:	0000                	unimp
 81c:	d800                	sw	s0,48(s0)
 81e:	0000                	unimp
 820:	0100                	addi	s0,sp,128
 822:	5a00                	lw	s0,48(a2)
 824:	00d8                	addi	a4,sp,68
 826:	0000                	unimp
 828:	00dc                	addi	a5,sp,68
 82a:	0000                	unimp
 82c:	0001                	nop
 82e:	005d                	c.nop	23
	...
 838:	0000                	unimp
 83a:	2000                	fld	fs0,0(s0)
 83c:	0000                	unimp
 83e:	0100                	addi	s0,sp,128
 840:	5b00                	lw	s0,48(a4)
 842:	0020                	addi	s0,sp,8
 844:	0000                	unimp
 846:	0028                	addi	a0,sp,8
 848:	0000                	unimp
 84a:	0001                	nop
 84c:	285e                	fld	fa6,464(sp)
 84e:	0000                	unimp
 850:	2c00                	fld	fs0,24(s0)
 852:	0000                	unimp
 854:	0300                	addi	s0,sp,384
 856:	7e00                	flw	fs0,56(a2)
 858:	9f20                	0x9f20
 85a:	002c                	addi	a1,sp,8
 85c:	0000                	unimp
 85e:	0038                	addi	a4,sp,8
 860:	0000                	unimp
 862:	0001                	nop
 864:	7c5e                	flw	fs8,244(sp)
 866:	0000                	unimp
 868:	8800                	0x8800
 86a:	0000                	unimp
 86c:	0300                	addi	s0,sp,384
 86e:	7e00                	flw	fs0,56(a2)
 870:	9f20                	0x9f20
 872:	0088                	addi	a0,sp,64
 874:	0000                	unimp
 876:	008c                	addi	a1,sp,64
 878:	0000                	unimp
 87a:	0001                	nop
 87c:	00008c5b          	0x8c5b
 880:	9200                	0x9200
 882:	0000                	unimp
 884:	0100                	addi	s0,sp,128
 886:	5e00                	lw	s0,56(a2)
 888:	0092                	slli	ra,ra,0x4
 88a:	0000                	unimp
 88c:	0096                	slli	ra,ra,0x5
 88e:	0000                	unimp
 890:	0001                	nop
 892:	0000965b          	0x965b
 896:	a000                	fsd	fs0,0(s0)
 898:	0000                	unimp
 89a:	0100                	addi	s0,sp,128
 89c:	5e00                	lw	s0,56(a2)
 89e:	00a0                	addi	s0,sp,72
 8a0:	0000                	unimp
 8a2:	00a8                	addi	a0,sp,72
 8a4:	0000                	unimp
 8a6:	0001                	nop
 8a8:	0000a85b          	0xa85b
 8ac:	ae00                	fsd	fs0,24(a2)
 8ae:	0000                	unimp
 8b0:	0100                	addi	s0,sp,128
 8b2:	5e00                	lw	s0,56(a2)
 8b4:	00ae                	slli	ra,ra,0xb
 8b6:	0000                	unimp
 8b8:	00b2                	slli	ra,ra,0xc
 8ba:	0000                	unimp
 8bc:	0001                	nop
 8be:	0000b25b          	0xb25b
 8c2:	ba00                	fsd	fs0,48(a2)
 8c4:	0000                	unimp
 8c6:	0100                	addi	s0,sp,128
 8c8:	5e00                	lw	s0,56(a2)
 8ca:	00ba                	slli	ra,ra,0xe
 8cc:	0000                	unimp
 8ce:	00be                	slli	ra,ra,0xf
 8d0:	0000                	unimp
 8d2:	0001                	nop
 8d4:	0000be5b          	0xbe5b
 8d8:	c800                	sw	s0,16(s0)
 8da:	0000                	unimp
 8dc:	0100                	addi	s0,sp,128
 8de:	5e00                	lw	s0,56(a2)
 8e0:	00c8                	addi	a0,sp,68
 8e2:	0000                	unimp
 8e4:	00cc                	addi	a1,sp,68
 8e6:	0000                	unimp
 8e8:	0001                	nop
 8ea:	0000cc5b          	0xcc5b
 8ee:	d400                	sw	s0,40(s0)
 8f0:	0000                	unimp
 8f2:	0100                	addi	s0,sp,128
 8f4:	5e00                	lw	s0,56(a2)
 8f6:	00d4                	addi	a3,sp,68
 8f8:	0000                	unimp
 8fa:	00da                	slli	ra,ra,0x16
 8fc:	0000                	unimp
 8fe:	0001                	nop
 900:	0000da5b          	0xda5b
 904:	dc00                	sw	s0,56(s0)
 906:	0000                	unimp
 908:	0100                	addi	s0,sp,128
 90a:	5e00                	lw	s0,56(a2)
	...
 918:	0026                	c.slli	zero,0x9
 91a:	0000                	unimp
 91c:	0001                	nop
 91e:	265c                	fld	fa5,136(a2)
 920:	0000                	unimp
 922:	7a00                	flw	fs0,48(a2)
 924:	0000                	unimp
 926:	0100                	addi	s0,sp,128
 928:	5c00                	lw	s0,56(s0)
 92a:	007a                	c.slli	zero,0x1e
 92c:	0000                	unimp
 92e:	0080                	addi	s0,sp,64
 930:	0000                	unimp
 932:	087c0003          	lb	zero,135(s8)
 936:	809f 0000 dc00      	0xdc000000809f
 93c:	0000                	unimp
 93e:	0100                	addi	s0,sp,128
 940:	5c00                	lw	s0,56(s0)
	...
 94a:	0028                	addi	a0,sp,8
 94c:	0000                	unimp
 94e:	002e                	c.slli	zero,0xb
 950:	0000                	unimp
 952:	0001                	nop
 954:	0000305b          	0x305b
 958:	4200                	lw	s0,0(a2)
 95a:	0000                	unimp
 95c:	0100                	addi	s0,sp,128
 95e:	5b00                	lw	s0,48(a4)
 960:	0044                	addi	s1,sp,4
 962:	0000                	unimp
 964:	004e                	c.slli	zero,0x13
 966:	0000                	unimp
 968:	0001                	nop
 96a:	00004e5b          	0x4e5b
 96e:	5800                	lw	s0,48(s0)
 970:	0000                	unimp
 972:	0100                	addi	s0,sp,128
 974:	6000                	flw	fs0,0(s0)
 976:	005c                	addi	a5,sp,4
 978:	0000                	unimp
 97a:	006c                	addi	a1,sp,12
 97c:	0000                	unimp
 97e:	0001                	nop
 980:	6e60                	flw	fs0,92(a2)
 982:	0000                	unimp
 984:	8800                	0x8800
 986:	0000                	unimp
 988:	0100                	addi	s0,sp,128
 98a:	5b00                	lw	s0,48(a4)
 98c:	0092                	slli	ra,ra,0x4
 98e:	0000                	unimp
 990:	009e                	slli	ra,ra,0x7
 992:	0000                	unimp
 994:	0002                	c.slli64	zero
 996:	009e007b          	0x9e007b
 99a:	0000                	unimp
 99c:	00a0                	addi	s0,sp,72
 99e:	0000                	unimp
 9a0:	0002                	c.slli64	zero
 9a2:	187e                	slli	a6,a6,0x3f
 9a4:	00ae                	slli	ra,ra,0xb
 9a6:	0000                	unimp
 9a8:	00ba                	slli	ra,ra,0xe
 9aa:	0000                	unimp
 9ac:	0002                	c.slli64	zero
 9ae:	00c8007b          	0xc8007b
 9b2:	0000                	unimp
 9b4:	00da                	slli	ra,ra,0x16
 9b6:	0000                	unimp
 9b8:	0002                	c.slli64	zero
 9ba:	00da007b          	0xda007b
 9be:	0000                	unimp
 9c0:	00dc                	addi	a5,sp,68
 9c2:	0000                	unimp
 9c4:	0002                	c.slli64	zero
 9c6:	007e                	c.slli	zero,0x1f
	...
 9d0:	001c                	0x1c
 9d2:	0000                	unimp
 9d4:	0028                	addi	a0,sp,8
 9d6:	0000                	unimp
 9d8:	0002                	c.slli64	zero
 9da:	0028007b          	0x28007b
 9de:	0000                	unimp
 9e0:	0038                	addi	a4,sp,8
 9e2:	0000                	unimp
 9e4:	0001                	nop
 9e6:	3c60                	fld	fs0,248(s0)
 9e8:	0000                	unimp
 9ea:	4e00                	lw	s0,24(a2)
 9ec:	0000                	unimp
 9ee:	0100                	addi	s0,sp,128
 9f0:	6000                	flw	fs0,0(s0)
 9f2:	0050                	addi	a2,sp,4
 9f4:	0000                	unimp
 9f6:	0062                	c.slli	zero,0x18
 9f8:	0000                	unimp
 9fa:	0001                	nop
 9fc:	0000645b          	0x645b
 a00:	7400                	flw	fs0,40(s0)
 a02:	0000                	unimp
 a04:	0100                	addi	s0,sp,128
 a06:	5a00                	lw	s0,48(a2)
 a08:	0078                	addi	a4,sp,12
 a0a:	0000                	unimp
 a0c:	0088                	addi	a0,sp,64
 a0e:	0000                	unimp
 a10:	0001                	nop
 a12:	8860                	0x8860
 a14:	0000                	unimp
 a16:	9200                	0x9200
 a18:	0000                	unimp
 a1a:	0200                	addi	s0,sp,256
 a1c:	7b00                	flw	fs0,48(a4)
 a1e:	a000                	fsd	fs0,0(s0)
 a20:	0000                	unimp
 a22:	ae00                	fsd	fs0,24(a2)
 a24:	0000                	unimp
 a26:	0200                	addi	s0,sp,256
 a28:	7b00                	flw	fs0,48(a4)
 a2a:	ba00                	fsd	fs0,48(a2)
 a2c:	0000                	unimp
 a2e:	c600                	sw	s0,8(a2)
 a30:	0000                	unimp
 a32:	0200                	addi	s0,sp,256
 a34:	7b00                	flw	fs0,48(a4)
 a36:	c600                	sw	s0,8(a2)
 a38:	0000                	unimp
 a3a:	c800                	sw	s0,16(s0)
 a3c:	0000                	unimp
 a3e:	0200                	addi	s0,sp,256
 a40:	7e00                	flw	fs0,56(a2)
 a42:	000c                	0xc
 a44:	0000                	unimp
 a46:	0000                	unimp
 a48:	0000                	unimp
	...
