
main.elf:     format de fichier elf32-littleriscv
architecture: riscv:rv32, fanions 0x00000112:
EXEC_P, HAS_SYMS, D_PAGED
adresse de départ 0x00100084

Sections :
Idx Name          Taille    VMA       LMA       Off fich  Algn
  0 .vectors      00000084  00100000  00100000  00001000  2**0
                  CONTENTS, ALLOC, LOAD, READONLY, CODE
  1 .text         00000af4  00100084  00100084  00001084  2**2
                  CONTENTS, ALLOC, LOAD, READONLY, CODE
  2 .rodata       00000050  00100b78  00100b78  00001b78  2**2
                  CONTENTS, ALLOC, LOAD, READONLY, DATA
  3 .srodata      00000004  00100bc8  00100bc8  00001bc8  2**2
                  CONTENTS, ALLOC, LOAD, READONLY, DATA
  4 .data         0000000a  00100bcc  00100bcc  00001bcc  2**2
                  CONTENTS, ALLOC, LOAD, DATA
  5 .sdata        00000004  00100bd8  00100bd8  00001bd8  2**2
                  CONTENTS, ALLOC, LOAD, DATA
  6 .bss          00001010  00100be0  00100be0  00001bdc  2**3
                  ALLOC
  7 .stack        00002000  001f8000  001f8000  00002000  2**0
                  ALLOC
  8 .debug_info   000009ed  00000000  00000000  00001bdc  2**0
                  CONTENTS, READONLY, DEBUGGING
  9 .debug_abbrev 000003cc  00000000  00000000  000025c9  2**0
                  CONTENTS, READONLY, DEBUGGING
 10 .debug_loc    00001a46  00000000  00000000  00002995  2**0
                  CONTENTS, READONLY, DEBUGGING
 11 .debug_aranges 00000088  00000000  00000000  000043e0  2**3
                  CONTENTS, READONLY, DEBUGGING
 12 .debug_ranges 000005e0  00000000  00000000  00004468  2**3
                  CONTENTS, READONLY, DEBUGGING
 13 .debug_line   00001e2f  00000000  00000000  00004a48  2**0
                  CONTENTS, READONLY, DEBUGGING
 14 .debug_str    0000039c  00000000  00000000  00006877  2**0
                  CONTENTS, READONLY, DEBUGGING
 15 .comment      00000028  00000000  00000000  00006c13  2**0
                  CONTENTS, READONLY
 16 .riscv.attributes 00000021  00000000  00000000  00006c3b  2**0
                  CONTENTS, READONLY
 17 .debug_frame  00000188  00000000  00000000  00006c5c  2**2
                  CONTENTS, READONLY, DEBUGGING

Déassemblage de la section .vectors :

00100000 <_stack_start-0x100000>:

  // All unimplemented interrupts/exceptions go to the default_exc_handler.
  .org 0x00
  .rept 7
  jal x0, default_exc_handler
  .endr
  100000:	1c90006f          	j	1009c8 <default_exc_handler>
  100004:	1c50006f          	j	1009c8 <default_exc_handler>
  100008:	1c10006f          	j	1009c8 <default_exc_handler>
  10000c:	1bd0006f          	j	1009c8 <default_exc_handler>
  100010:	1b90006f          	j	1009c8 <default_exc_handler>
  100014:	1b50006f          	j	1009c8 <default_exc_handler>
  100018:	1b10006f          	j	1009c8 <default_exc_handler>
  jal x0, timer_handler
  10001c:	1b10006f          	j	1009cc <timer_handler>
  .rept 23
  jal x0, default_exc_handler
  .endr
  100020:	1a90006f          	j	1009c8 <default_exc_handler>
  100024:	1a50006f          	j	1009c8 <default_exc_handler>
  100028:	1a10006f          	j	1009c8 <default_exc_handler>
  10002c:	19d0006f          	j	1009c8 <default_exc_handler>
  100030:	1990006f          	j	1009c8 <default_exc_handler>
  100034:	1950006f          	j	1009c8 <default_exc_handler>
  100038:	1910006f          	j	1009c8 <default_exc_handler>
  10003c:	18d0006f          	j	1009c8 <default_exc_handler>
  100040:	1890006f          	j	1009c8 <default_exc_handler>
  100044:	1850006f          	j	1009c8 <default_exc_handler>
  100048:	1810006f          	j	1009c8 <default_exc_handler>
  10004c:	17d0006f          	j	1009c8 <default_exc_handler>
  100050:	1790006f          	j	1009c8 <default_exc_handler>
  100054:	1750006f          	j	1009c8 <default_exc_handler>
  100058:	1710006f          	j	1009c8 <default_exc_handler>
  10005c:	16d0006f          	j	1009c8 <default_exc_handler>
  100060:	1690006f          	j	1009c8 <default_exc_handler>
  100064:	1650006f          	j	1009c8 <default_exc_handler>
  100068:	1610006f          	j	1009c8 <default_exc_handler>
  10006c:	15d0006f          	j	1009c8 <default_exc_handler>
  100070:	1590006f          	j	1009c8 <default_exc_handler>
  100074:	1550006f          	j	1009c8 <default_exc_handler>
  100078:	1510006f          	j	1009c8 <default_exc_handler>
  10007c:	0000                	unimp
  10007e:	0000                	unimp

  // reset vector
  .org 0x80
  jal x0, reset_handler
  100080:	1510006f          	j	1009d0 <reset_handler>

Déassemblage de la section .text :

00100084 <putchar>:
// SPDX-License-Identifier: Apache-2.0

#include "simple_system_common.h"

int putchar(int c) {
  DEV_WRITE(SIM_CTRL_BASE + SIM_CTRL_OUT, (unsigned char)c);
  100084:	0ff57713          	andi	a4,a0,255
  100088:	000207b7          	lui	a5,0x20
  10008c:	00e7a023          	sw	a4,0(a5) # 20000 <_stack_len+0x18000>

  return c;
}
  100090:	00008067          	ret

00100094 <puts>:

int puts(const char *str) {
  while (*str) {
  100094:	00054783          	lbu	a5,0(a0)
  100098:	00078c63          	beqz	a5,1000b0 <puts+0x1c>
  DEV_WRITE(SIM_CTRL_BASE + SIM_CTRL_OUT, (unsigned char)c);
  10009c:	00020737          	lui	a4,0x20
    putchar(*str++);
  1000a0:	00150513          	addi	a0,a0,1
  DEV_WRITE(SIM_CTRL_BASE + SIM_CTRL_OUT, (unsigned char)c);
  1000a4:	00f72023          	sw	a5,0(a4) # 20000 <_stack_len+0x18000>
  while (*str) {
  1000a8:	00054783          	lbu	a5,0(a0)
  1000ac:	fe079ae3          	bnez	a5,1000a0 <puts+0xc>
  }

  return 0;
}
  1000b0:	00000513          	li	a0,0
  1000b4:	00008067          	ret

001000b8 <puthex>:
void puthex(uint32_t h) {
  int cur_digit;
  // Iterate through h taking top 4 bits each time and outputting ASCII of hex
  // digit for those 4 bits
  for (int i = 0; i < 8; i++) {
    cur_digit = h >> 28;
  1000b8:	01c55793          	srli	a5,a0,0x1c

    if (cur_digit < 10)
  1000bc:	00900713          	li	a4,9
  1000c0:	0cf77a63          	bgeu	a4,a5,100194 <puthex+0xdc>
      putchar('0' + cur_digit);
    else
      putchar('A' - 10 + cur_digit);
  1000c4:	03778793          	addi	a5,a5,55
  DEV_WRITE(SIM_CTRL_BASE + SIM_CTRL_OUT, (unsigned char)c);
  1000c8:	00020737          	lui	a4,0x20
  1000cc:	00f72023          	sw	a5,0(a4) # 20000 <_stack_len+0x18000>

    h <<= 4;
  1000d0:	00451793          	slli	a5,a0,0x4
    cur_digit = h >> 28;
  1000d4:	01c7d793          	srli	a5,a5,0x1c
    if (cur_digit < 10)
  1000d8:	00900713          	li	a4,9
  1000dc:	0cf77a63          	bgeu	a4,a5,1001b0 <puthex+0xf8>
      putchar('A' - 10 + cur_digit);
  1000e0:	03778793          	addi	a5,a5,55
  DEV_WRITE(SIM_CTRL_BASE + SIM_CTRL_OUT, (unsigned char)c);
  1000e4:	00020737          	lui	a4,0x20
  1000e8:	00f72023          	sw	a5,0(a4) # 20000 <_stack_len+0x18000>
    h <<= 4;
  1000ec:	00851793          	slli	a5,a0,0x8
    cur_digit = h >> 28;
  1000f0:	01c7d793          	srli	a5,a5,0x1c
    if (cur_digit < 10)
  1000f4:	00900713          	li	a4,9
  1000f8:	0cf77a63          	bgeu	a4,a5,1001cc <puthex+0x114>
      putchar('A' - 10 + cur_digit);
  1000fc:	03778793          	addi	a5,a5,55
  DEV_WRITE(SIM_CTRL_BASE + SIM_CTRL_OUT, (unsigned char)c);
  100100:	00020737          	lui	a4,0x20
  100104:	00f72023          	sw	a5,0(a4) # 20000 <_stack_len+0x18000>
    h <<= 4;
  100108:	00c51793          	slli	a5,a0,0xc
    cur_digit = h >> 28;
  10010c:	01c7d793          	srli	a5,a5,0x1c
    if (cur_digit < 10)
  100110:	00900713          	li	a4,9
  100114:	0cf77a63          	bgeu	a4,a5,1001e8 <puthex+0x130>
      putchar('A' - 10 + cur_digit);
  100118:	03778793          	addi	a5,a5,55
  DEV_WRITE(SIM_CTRL_BASE + SIM_CTRL_OUT, (unsigned char)c);
  10011c:	00020737          	lui	a4,0x20
  100120:	00f72023          	sw	a5,0(a4) # 20000 <_stack_len+0x18000>
    h <<= 4;
  100124:	01051793          	slli	a5,a0,0x10
    cur_digit = h >> 28;
  100128:	01c7d793          	srli	a5,a5,0x1c
    if (cur_digit < 10)
  10012c:	00900713          	li	a4,9
  100130:	0cf77a63          	bgeu	a4,a5,100204 <puthex+0x14c>
      putchar('A' - 10 + cur_digit);
  100134:	03778793          	addi	a5,a5,55
  DEV_WRITE(SIM_CTRL_BASE + SIM_CTRL_OUT, (unsigned char)c);
  100138:	00020737          	lui	a4,0x20
  10013c:	00f72023          	sw	a5,0(a4) # 20000 <_stack_len+0x18000>
    h <<= 4;
  100140:	01451793          	slli	a5,a0,0x14
    cur_digit = h >> 28;
  100144:	01c7d793          	srli	a5,a5,0x1c
    if (cur_digit < 10)
  100148:	00900713          	li	a4,9
  10014c:	0cf77a63          	bgeu	a4,a5,100220 <puthex+0x168>
      putchar('A' - 10 + cur_digit);
  100150:	03778793          	addi	a5,a5,55
  DEV_WRITE(SIM_CTRL_BASE + SIM_CTRL_OUT, (unsigned char)c);
  100154:	00020737          	lui	a4,0x20
  100158:	00f72023          	sw	a5,0(a4) # 20000 <_stack_len+0x18000>
    h <<= 4;
  10015c:	01851793          	slli	a5,a0,0x18
    cur_digit = h >> 28;
  100160:	01c7d793          	srli	a5,a5,0x1c
    if (cur_digit < 10)
  100164:	00900713          	li	a4,9
  100168:	0cf77a63          	bgeu	a4,a5,10023c <puthex+0x184>
      putchar('A' - 10 + cur_digit);
  10016c:	03778793          	addi	a5,a5,55
  DEV_WRITE(SIM_CTRL_BASE + SIM_CTRL_OUT, (unsigned char)c);
  100170:	00020737          	lui	a4,0x20
  100174:	00f72023          	sw	a5,0(a4) # 20000 <_stack_len+0x18000>
    cur_digit = h >> 28;
  100178:	00f57513          	andi	a0,a0,15
    if (cur_digit < 10)
  10017c:	00900793          	li	a5,9
  100180:	0ca7ea63          	bltu	a5,a0,100254 <puthex+0x19c>
      putchar('0' + cur_digit);
  100184:	03050513          	addi	a0,a0,48
  DEV_WRITE(SIM_CTRL_BASE + SIM_CTRL_OUT, (unsigned char)c);
  100188:	000207b7          	lui	a5,0x20
  10018c:	00a7a023          	sw	a0,0(a5) # 20000 <_stack_len+0x18000>
  return c;
  100190:	00008067          	ret
      putchar('0' + cur_digit);
  100194:	03078793          	addi	a5,a5,48
  DEV_WRITE(SIM_CTRL_BASE + SIM_CTRL_OUT, (unsigned char)c);
  100198:	00020737          	lui	a4,0x20
  10019c:	00f72023          	sw	a5,0(a4) # 20000 <_stack_len+0x18000>
    h <<= 4;
  1001a0:	00451793          	slli	a5,a0,0x4
    cur_digit = h >> 28;
  1001a4:	01c7d793          	srli	a5,a5,0x1c
    if (cur_digit < 10)
  1001a8:	00900713          	li	a4,9
  1001ac:	f2f76ae3          	bltu	a4,a5,1000e0 <puthex+0x28>
      putchar('0' + cur_digit);
  1001b0:	03078793          	addi	a5,a5,48
  DEV_WRITE(SIM_CTRL_BASE + SIM_CTRL_OUT, (unsigned char)c);
  1001b4:	00020737          	lui	a4,0x20
  1001b8:	00f72023          	sw	a5,0(a4) # 20000 <_stack_len+0x18000>
    h <<= 4;
  1001bc:	00851793          	slli	a5,a0,0x8
    cur_digit = h >> 28;
  1001c0:	01c7d793          	srli	a5,a5,0x1c
    if (cur_digit < 10)
  1001c4:	00900713          	li	a4,9
  1001c8:	f2f76ae3          	bltu	a4,a5,1000fc <puthex+0x44>
      putchar('0' + cur_digit);
  1001cc:	03078793          	addi	a5,a5,48
  DEV_WRITE(SIM_CTRL_BASE + SIM_CTRL_OUT, (unsigned char)c);
  1001d0:	00020737          	lui	a4,0x20
  1001d4:	00f72023          	sw	a5,0(a4) # 20000 <_stack_len+0x18000>
    h <<= 4;
  1001d8:	00c51793          	slli	a5,a0,0xc
    cur_digit = h >> 28;
  1001dc:	01c7d793          	srli	a5,a5,0x1c
    if (cur_digit < 10)
  1001e0:	00900713          	li	a4,9
  1001e4:	f2f76ae3          	bltu	a4,a5,100118 <puthex+0x60>
      putchar('0' + cur_digit);
  1001e8:	03078793          	addi	a5,a5,48
  DEV_WRITE(SIM_CTRL_BASE + SIM_CTRL_OUT, (unsigned char)c);
  1001ec:	00020737          	lui	a4,0x20
  1001f0:	00f72023          	sw	a5,0(a4) # 20000 <_stack_len+0x18000>
    h <<= 4;
  1001f4:	01051793          	slli	a5,a0,0x10
    cur_digit = h >> 28;
  1001f8:	01c7d793          	srli	a5,a5,0x1c
    if (cur_digit < 10)
  1001fc:	00900713          	li	a4,9
  100200:	f2f76ae3          	bltu	a4,a5,100134 <puthex+0x7c>
      putchar('0' + cur_digit);
  100204:	03078793          	addi	a5,a5,48
  DEV_WRITE(SIM_CTRL_BASE + SIM_CTRL_OUT, (unsigned char)c);
  100208:	00020737          	lui	a4,0x20
  10020c:	00f72023          	sw	a5,0(a4) # 20000 <_stack_len+0x18000>
    h <<= 4;
  100210:	01451793          	slli	a5,a0,0x14
    cur_digit = h >> 28;
  100214:	01c7d793          	srli	a5,a5,0x1c
    if (cur_digit < 10)
  100218:	00900713          	li	a4,9
  10021c:	f2f76ae3          	bltu	a4,a5,100150 <puthex+0x98>
      putchar('0' + cur_digit);
  100220:	03078793          	addi	a5,a5,48
  DEV_WRITE(SIM_CTRL_BASE + SIM_CTRL_OUT, (unsigned char)c);
  100224:	00020737          	lui	a4,0x20
  100228:	00f72023          	sw	a5,0(a4) # 20000 <_stack_len+0x18000>
    h <<= 4;
  10022c:	01851793          	slli	a5,a0,0x18
    cur_digit = h >> 28;
  100230:	01c7d793          	srli	a5,a5,0x1c
    if (cur_digit < 10)
  100234:	00900713          	li	a4,9
  100238:	f2f76ae3          	bltu	a4,a5,10016c <puthex+0xb4>
      putchar('0' + cur_digit);
  10023c:	03078793          	addi	a5,a5,48
  DEV_WRITE(SIM_CTRL_BASE + SIM_CTRL_OUT, (unsigned char)c);
  100240:	00020737          	lui	a4,0x20
  100244:	00f72023          	sw	a5,0(a4) # 20000 <_stack_len+0x18000>
    cur_digit = h >> 28;
  100248:	00f57513          	andi	a0,a0,15
    if (cur_digit < 10)
  10024c:	00900793          	li	a5,9
  100250:	f2a7fae3          	bgeu	a5,a0,100184 <puthex+0xcc>
      putchar('A' - 10 + cur_digit);
  100254:	03750513          	addi	a0,a0,55
  DEV_WRITE(SIM_CTRL_BASE + SIM_CTRL_OUT, (unsigned char)c);
  100258:	000207b7          	lui	a5,0x20
  10025c:	00a7a023          	sw	a0,0(a5) # 20000 <_stack_len+0x18000>
  }
}
  100260:	00008067          	ret

00100264 <sim_halt>:

void sim_halt() { DEV_WRITE(SIM_CTRL_BASE + SIM_CTRL_CTRL, 1); }
  100264:	000207b7          	lui	a5,0x20
  100268:	00100713          	li	a4,1
  10026c:	00e7a223          	sw	a4,4(a5) # 20004 <_stack_len+0x18004>
  100270:	00008067          	ret

00100274 <pcount_reset>:

void pcount_reset() {
  asm volatile(
  100274:	b0201073          	csrw	minstret,zero
  100278:	b0001073          	csrw	mcycle,zero
  10027c:	b0301073          	csrw	mhpmcounter3,zero
  100280:	b0401073          	csrw	mhpmcounter4,zero
  100284:	b0501073          	csrw	mhpmcounter5,zero
  100288:	b0601073          	csrw	mhpmcounter6,zero
  10028c:	b0701073          	csrw	mhpmcounter7,zero
  100290:	b0801073          	csrw	mhpmcounter8,zero
  100294:	b0901073          	csrw	mhpmcounter9,zero
  100298:	b0a01073          	csrw	mhpmcounter10,zero
  10029c:	b0b01073          	csrw	mhpmcounter11,zero
  1002a0:	b0c01073          	csrw	mhpmcounter12,zero
  1002a4:	b0d01073          	csrw	mhpmcounter13,zero
  1002a8:	b0e01073          	csrw	mhpmcounter14,zero
  1002ac:	b0f01073          	csrw	mhpmcounter15,zero
  1002b0:	b1001073          	csrw	mhpmcounter16,zero
  1002b4:	b1101073          	csrw	mhpmcounter17,zero
  1002b8:	b1201073          	csrw	mhpmcounter18,zero
  1002bc:	b1301073          	csrw	mhpmcounter19,zero
  1002c0:	b1401073          	csrw	mhpmcounter20,zero
  1002c4:	b1501073          	csrw	mhpmcounter21,zero
  1002c8:	b1601073          	csrw	mhpmcounter22,zero
  1002cc:	b1701073          	csrw	mhpmcounter23,zero
  1002d0:	b1801073          	csrw	mhpmcounter24,zero
  1002d4:	b1901073          	csrw	mhpmcounter25,zero
  1002d8:	b1a01073          	csrw	mhpmcounter26,zero
  1002dc:	b1b01073          	csrw	mhpmcounter27,zero
  1002e0:	b1c01073          	csrw	mhpmcounter28,zero
  1002e4:	b1d01073          	csrw	mhpmcounter29,zero
  1002e8:	b1e01073          	csrw	mhpmcounter30,zero
  1002ec:	b1f01073          	csrw	mhpmcounter31,zero
  1002f0:	b8201073          	csrw	minstreth,zero
  1002f4:	b8001073          	csrw	mcycleh,zero
  1002f8:	b8301073          	csrw	mhpmcounter3h,zero
  1002fc:	b8401073          	csrw	mhpmcounter4h,zero
  100300:	b8501073          	csrw	mhpmcounter5h,zero
  100304:	b8601073          	csrw	mhpmcounter6h,zero
  100308:	b8701073          	csrw	mhpmcounter7h,zero
  10030c:	b8801073          	csrw	mhpmcounter8h,zero
  100310:	b8901073          	csrw	mhpmcounter9h,zero
  100314:	b8a01073          	csrw	mhpmcounter10h,zero
  100318:	b8b01073          	csrw	mhpmcounter11h,zero
  10031c:	b8c01073          	csrw	mhpmcounter12h,zero
  100320:	b8d01073          	csrw	mhpmcounter13h,zero
  100324:	b8e01073          	csrw	mhpmcounter14h,zero
  100328:	b8f01073          	csrw	mhpmcounter15h,zero
  10032c:	b9001073          	csrw	mhpmcounter16h,zero
  100330:	b9101073          	csrw	mhpmcounter17h,zero
  100334:	b9201073          	csrw	mhpmcounter18h,zero
  100338:	b9301073          	csrw	mhpmcounter19h,zero
  10033c:	b9401073          	csrw	mhpmcounter20h,zero
  100340:	b9501073          	csrw	mhpmcounter21h,zero
  100344:	b9601073          	csrw	mhpmcounter22h,zero
  100348:	b9701073          	csrw	mhpmcounter23h,zero
  10034c:	b9801073          	csrw	mhpmcounter24h,zero
  100350:	b9901073          	csrw	mhpmcounter25h,zero
  100354:	b9a01073          	csrw	mhpmcounter26h,zero
  100358:	b9b01073          	csrw	mhpmcounter27h,zero
  10035c:	b9c01073          	csrw	mhpmcounter28h,zero
  100360:	b9d01073          	csrw	mhpmcounter29h,zero
  100364:	b9e01073          	csrw	mhpmcounter30h,zero
  100368:	b9f01073          	csrw	mhpmcounter31h,zero
      "csrw mhpmcounter27h, x0\n"
      "csrw mhpmcounter28h, x0\n"
      "csrw mhpmcounter29h, x0\n"
      "csrw mhpmcounter30h, x0\n"
      "csrw mhpmcounter31h, x0\n");
}
  10036c:	00008067          	ret

00100370 <pcount_enable>:

void pcount_enable(int enable) {
  // Note cycle is disabled with everything else
  unsigned int inhibit_val = enable ? 0x0 : 0xFFFFFFFF;
  100370:	00153513          	seqz	a0,a0
  100374:	40a00533          	neg	a0,a0
  // mucounteren == mcountinhibit but binutils doesn't seem to known the
  // mcountinhibit name
  asm volatile("csrw  mucounteren, %0\n" : : "r"(inhibit_val));
  100378:	32051073          	csrw	mucounteren,a0
}
  10037c:	00008067          	ret

00100380 <get_mepc>:

unsigned int get_mepc() {
  uint32_t result;
  __asm__ volatile("csrr %0, mepc;" : "=r"(result));
  100380:	34102573          	csrr	a0,mepc
  return result;
}
  100384:	00008067          	ret

00100388 <get_mcause>:

unsigned int get_mcause() {
  uint32_t result;
  __asm__ volatile("csrr %0, mcause;" : "=r"(result));
  100388:	34202573          	csrr	a0,mcause
  return result;
}
  10038c:	00008067          	ret

00100390 <get_mtval>:

unsigned int get_mtval() {
  uint32_t result;
  __asm__ volatile("csrr %0, mtval;" : "=r"(result));
  100390:	34302573          	csrr	a0,mtval
  return result;
}
  100394:	00008067          	ret

00100398 <simple_exc_handler>:
  while (*str) {
  100398:	04500713          	li	a4,69
  10039c:	00000797          	auipc	a5,0x0
  1003a0:	7dc78793          	addi	a5,a5,2012 # 100b78 <main+0xe0>
  DEV_WRITE(SIM_CTRL_BASE + SIM_CTRL_OUT, (unsigned char)c);
  1003a4:	000206b7          	lui	a3,0x20
    putchar(*str++);
  1003a8:	00178793          	addi	a5,a5,1
  DEV_WRITE(SIM_CTRL_BASE + SIM_CTRL_OUT, (unsigned char)c);
  1003ac:	00e6a023          	sw	a4,0(a3) # 20000 <_stack_len+0x18000>
  while (*str) {
  1003b0:	0007c703          	lbu	a4,0(a5)
  1003b4:	fe071ae3          	bnez	a4,1003a8 <simple_exc_handler+0x10>
  1003b8:	03d00713          	li	a4,61
  1003bc:	00000797          	auipc	a5,0x0
  1003c0:	7cc78793          	addi	a5,a5,1996 # 100b88 <main+0xf0>
  DEV_WRITE(SIM_CTRL_BASE + SIM_CTRL_OUT, (unsigned char)c);
  1003c4:	000206b7          	lui	a3,0x20
    putchar(*str++);
  1003c8:	00178793          	addi	a5,a5,1
  DEV_WRITE(SIM_CTRL_BASE + SIM_CTRL_OUT, (unsigned char)c);
  1003cc:	00e6a023          	sw	a4,0(a3) # 20000 <_stack_len+0x18000>
  while (*str) {
  1003d0:	0007c703          	lbu	a4,0(a5)
  1003d4:	fe071ae3          	bnez	a4,1003c8 <simple_exc_handler+0x30>
  1003d8:	04d00713          	li	a4,77
  1003dc:	00000797          	auipc	a5,0x0
  1003e0:	7bc78793          	addi	a5,a5,1980 # 100b98 <main+0x100>
  DEV_WRITE(SIM_CTRL_BASE + SIM_CTRL_OUT, (unsigned char)c);
  1003e4:	000206b7          	lui	a3,0x20
    putchar(*str++);
  1003e8:	00178793          	addi	a5,a5,1
  DEV_WRITE(SIM_CTRL_BASE + SIM_CTRL_OUT, (unsigned char)c);
  1003ec:	00e6a023          	sw	a4,0(a3) # 20000 <_stack_len+0x18000>
  while (*str) {
  1003f0:	0007c703          	lbu	a4,0(a5)
  1003f4:	fe071ae3          	bnez	a4,1003e8 <simple_exc_handler+0x50>
  __asm__ volatile("csrr %0, mepc;" : "=r"(result));
  1003f8:	341027f3          	csrr	a5,mepc
    if (cur_digit < 10)
  1003fc:	00900613          	li	a2,9
    cur_digit = h >> 28;
  100400:	01c7d713          	srli	a4,a5,0x1c
    if (cur_digit < 10)
  100404:	42e67e63          	bgeu	a2,a4,100840 <simple_exc_handler+0x4a8>
      putchar('A' - 10 + cur_digit);
  100408:	03770713          	addi	a4,a4,55
  DEV_WRITE(SIM_CTRL_BASE + SIM_CTRL_OUT, (unsigned char)c);
  10040c:	00e6a023          	sw	a4,0(a3)
    h <<= 4;
  100410:	00479713          	slli	a4,a5,0x4
    cur_digit = h >> 28;
  100414:	01c75713          	srli	a4,a4,0x1c
    if (cur_digit < 10)
  100418:	00900693          	li	a3,9
  10041c:	40e6fa63          	bgeu	a3,a4,100830 <simple_exc_handler+0x498>
      putchar('A' - 10 + cur_digit);
  100420:	03770713          	addi	a4,a4,55
  DEV_WRITE(SIM_CTRL_BASE + SIM_CTRL_OUT, (unsigned char)c);
  100424:	000206b7          	lui	a3,0x20
  100428:	00e6a023          	sw	a4,0(a3) # 20000 <_stack_len+0x18000>
    h <<= 4;
  10042c:	00879713          	slli	a4,a5,0x8
    cur_digit = h >> 28;
  100430:	01c75713          	srli	a4,a4,0x1c
    if (cur_digit < 10)
  100434:	00900693          	li	a3,9
  100438:	3ee6f463          	bgeu	a3,a4,100820 <simple_exc_handler+0x488>
      putchar('A' - 10 + cur_digit);
  10043c:	03770713          	addi	a4,a4,55
  DEV_WRITE(SIM_CTRL_BASE + SIM_CTRL_OUT, (unsigned char)c);
  100440:	000206b7          	lui	a3,0x20
  100444:	00e6a023          	sw	a4,0(a3) # 20000 <_stack_len+0x18000>
    h <<= 4;
  100448:	00c79713          	slli	a4,a5,0xc
    cur_digit = h >> 28;
  10044c:	01c75713          	srli	a4,a4,0x1c
    if (cur_digit < 10)
  100450:	00900693          	li	a3,9
  100454:	3ae6fe63          	bgeu	a3,a4,100810 <simple_exc_handler+0x478>
      putchar('A' - 10 + cur_digit);
  100458:	03770713          	addi	a4,a4,55
  DEV_WRITE(SIM_CTRL_BASE + SIM_CTRL_OUT, (unsigned char)c);
  10045c:	000206b7          	lui	a3,0x20
  100460:	00e6a023          	sw	a4,0(a3) # 20000 <_stack_len+0x18000>
    h <<= 4;
  100464:	01079713          	slli	a4,a5,0x10
    cur_digit = h >> 28;
  100468:	01c75713          	srli	a4,a4,0x1c
    if (cur_digit < 10)
  10046c:	00900693          	li	a3,9
  100470:	38e6f863          	bgeu	a3,a4,100800 <simple_exc_handler+0x468>
      putchar('A' - 10 + cur_digit);
  100474:	03770713          	addi	a4,a4,55
  DEV_WRITE(SIM_CTRL_BASE + SIM_CTRL_OUT, (unsigned char)c);
  100478:	000206b7          	lui	a3,0x20
  10047c:	00e6a023          	sw	a4,0(a3) # 20000 <_stack_len+0x18000>
    h <<= 4;
  100480:	01479713          	slli	a4,a5,0x14
    cur_digit = h >> 28;
  100484:	01c75713          	srli	a4,a4,0x1c
    if (cur_digit < 10)
  100488:	00900693          	li	a3,9
  10048c:	36e6f263          	bgeu	a3,a4,1007f0 <simple_exc_handler+0x458>
      putchar('A' - 10 + cur_digit);
  100490:	03770713          	addi	a4,a4,55
  DEV_WRITE(SIM_CTRL_BASE + SIM_CTRL_OUT, (unsigned char)c);
  100494:	000206b7          	lui	a3,0x20
  100498:	00e6a023          	sw	a4,0(a3) # 20000 <_stack_len+0x18000>
    h <<= 4;
  10049c:	01879713          	slli	a4,a5,0x18
    cur_digit = h >> 28;
  1004a0:	01c75713          	srli	a4,a4,0x1c
    if (cur_digit < 10)
  1004a4:	00900693          	li	a3,9
  1004a8:	32e6fc63          	bgeu	a3,a4,1007e0 <simple_exc_handler+0x448>
      putchar('A' - 10 + cur_digit);
  1004ac:	03770713          	addi	a4,a4,55
  DEV_WRITE(SIM_CTRL_BASE + SIM_CTRL_OUT, (unsigned char)c);
  1004b0:	000206b7          	lui	a3,0x20
  1004b4:	00e6a023          	sw	a4,0(a3) # 20000 <_stack_len+0x18000>
    cur_digit = h >> 28;
  1004b8:	00f7f793          	andi	a5,a5,15
    if (cur_digit < 10)
  1004bc:	00900713          	li	a4,9
  1004c0:	30f76863          	bltu	a4,a5,1007d0 <simple_exc_handler+0x438>
      putchar('0' + cur_digit);
  1004c4:	03078793          	addi	a5,a5,48
  DEV_WRITE(SIM_CTRL_BASE + SIM_CTRL_OUT, (unsigned char)c);
  1004c8:	00020737          	lui	a4,0x20
  1004cc:	00f72023          	sw	a5,0(a4) # 20000 <_stack_len+0x18000>
  while (*str) {
  1004d0:	00a00713          	li	a4,10
  1004d4:	00000797          	auipc	a5,0x0
  1004d8:	6d478793          	addi	a5,a5,1748 # 100ba8 <main+0x110>
  DEV_WRITE(SIM_CTRL_BASE + SIM_CTRL_OUT, (unsigned char)c);
  1004dc:	000206b7          	lui	a3,0x20
    putchar(*str++);
  1004e0:	00178793          	addi	a5,a5,1
  DEV_WRITE(SIM_CTRL_BASE + SIM_CTRL_OUT, (unsigned char)c);
  1004e4:	00e6a023          	sw	a4,0(a3) # 20000 <_stack_len+0x18000>
  while (*str) {
  1004e8:	0007c703          	lbu	a4,0(a5)
  1004ec:	fe071ae3          	bnez	a4,1004e0 <simple_exc_handler+0x148>
  __asm__ volatile("csrr %0, mcause;" : "=r"(result));
  1004f0:	342027f3          	csrr	a5,mcause
    if (cur_digit < 10)
  1004f4:	00900613          	li	a2,9
    cur_digit = h >> 28;
  1004f8:	01c7d713          	srli	a4,a5,0x1c
    if (cur_digit < 10)
  1004fc:	2ce67463          	bgeu	a2,a4,1007c4 <simple_exc_handler+0x42c>
      putchar('A' - 10 + cur_digit);
  100500:	03770713          	addi	a4,a4,55
  DEV_WRITE(SIM_CTRL_BASE + SIM_CTRL_OUT, (unsigned char)c);
  100504:	00e6a023          	sw	a4,0(a3)
    h <<= 4;
  100508:	00479713          	slli	a4,a5,0x4
    cur_digit = h >> 28;
  10050c:	01c75713          	srli	a4,a4,0x1c
    if (cur_digit < 10)
  100510:	00900693          	li	a3,9
  100514:	2ae6f063          	bgeu	a3,a4,1007b4 <simple_exc_handler+0x41c>
      putchar('A' - 10 + cur_digit);
  100518:	03770713          	addi	a4,a4,55
  DEV_WRITE(SIM_CTRL_BASE + SIM_CTRL_OUT, (unsigned char)c);
  10051c:	000206b7          	lui	a3,0x20
  100520:	00e6a023          	sw	a4,0(a3) # 20000 <_stack_len+0x18000>
    h <<= 4;
  100524:	00879713          	slli	a4,a5,0x8
    cur_digit = h >> 28;
  100528:	01c75713          	srli	a4,a4,0x1c
    if (cur_digit < 10)
  10052c:	00900693          	li	a3,9
  100530:	26e6fa63          	bgeu	a3,a4,1007a4 <simple_exc_handler+0x40c>
      putchar('A' - 10 + cur_digit);
  100534:	03770713          	addi	a4,a4,55
  DEV_WRITE(SIM_CTRL_BASE + SIM_CTRL_OUT, (unsigned char)c);
  100538:	000206b7          	lui	a3,0x20
  10053c:	00e6a023          	sw	a4,0(a3) # 20000 <_stack_len+0x18000>
    h <<= 4;
  100540:	00c79713          	slli	a4,a5,0xc
    cur_digit = h >> 28;
  100544:	01c75713          	srli	a4,a4,0x1c
    if (cur_digit < 10)
  100548:	00900693          	li	a3,9
  10054c:	24e6f463          	bgeu	a3,a4,100794 <simple_exc_handler+0x3fc>
      putchar('A' - 10 + cur_digit);
  100550:	03770713          	addi	a4,a4,55
  DEV_WRITE(SIM_CTRL_BASE + SIM_CTRL_OUT, (unsigned char)c);
  100554:	000206b7          	lui	a3,0x20
  100558:	00e6a023          	sw	a4,0(a3) # 20000 <_stack_len+0x18000>
    h <<= 4;
  10055c:	01079713          	slli	a4,a5,0x10
    cur_digit = h >> 28;
  100560:	01c75713          	srli	a4,a4,0x1c
    if (cur_digit < 10)
  100564:	00900693          	li	a3,9
  100568:	20e6fe63          	bgeu	a3,a4,100784 <simple_exc_handler+0x3ec>
      putchar('A' - 10 + cur_digit);
  10056c:	03770713          	addi	a4,a4,55
  DEV_WRITE(SIM_CTRL_BASE + SIM_CTRL_OUT, (unsigned char)c);
  100570:	000206b7          	lui	a3,0x20
  100574:	00e6a023          	sw	a4,0(a3) # 20000 <_stack_len+0x18000>
    h <<= 4;
  100578:	01479713          	slli	a4,a5,0x14
    cur_digit = h >> 28;
  10057c:	01c75713          	srli	a4,a4,0x1c
    if (cur_digit < 10)
  100580:	00900693          	li	a3,9
  100584:	1ee6f863          	bgeu	a3,a4,100774 <simple_exc_handler+0x3dc>
      putchar('A' - 10 + cur_digit);
  100588:	03770713          	addi	a4,a4,55
  DEV_WRITE(SIM_CTRL_BASE + SIM_CTRL_OUT, (unsigned char)c);
  10058c:	000206b7          	lui	a3,0x20
  100590:	00e6a023          	sw	a4,0(a3) # 20000 <_stack_len+0x18000>
    h <<= 4;
  100594:	01879713          	slli	a4,a5,0x18
    cur_digit = h >> 28;
  100598:	01c75713          	srli	a4,a4,0x1c
    if (cur_digit < 10)
  10059c:	00900693          	li	a3,9
  1005a0:	1ce6f263          	bgeu	a3,a4,100764 <simple_exc_handler+0x3cc>
      putchar('A' - 10 + cur_digit);
  1005a4:	03770713          	addi	a4,a4,55
  DEV_WRITE(SIM_CTRL_BASE + SIM_CTRL_OUT, (unsigned char)c);
  1005a8:	000206b7          	lui	a3,0x20
  1005ac:	00e6a023          	sw	a4,0(a3) # 20000 <_stack_len+0x18000>
    cur_digit = h >> 28;
  1005b0:	00f7f793          	andi	a5,a5,15
    if (cur_digit < 10)
  1005b4:	00900713          	li	a4,9
  1005b8:	18f76e63          	bltu	a4,a5,100754 <simple_exc_handler+0x3bc>
      putchar('0' + cur_digit);
  1005bc:	03078793          	addi	a5,a5,48
  DEV_WRITE(SIM_CTRL_BASE + SIM_CTRL_OUT, (unsigned char)c);
  1005c0:	00020737          	lui	a4,0x20
  1005c4:	00f72023          	sw	a5,0(a4) # 20000 <_stack_len+0x18000>
  while (*str) {
  1005c8:	00a00713          	li	a4,10
  1005cc:	00000797          	auipc	a5,0x0
  1005d0:	5ec78793          	addi	a5,a5,1516 # 100bb8 <main+0x120>
  DEV_WRITE(SIM_CTRL_BASE + SIM_CTRL_OUT, (unsigned char)c);
  1005d4:	000206b7          	lui	a3,0x20
    putchar(*str++);
  1005d8:	00178793          	addi	a5,a5,1
  DEV_WRITE(SIM_CTRL_BASE + SIM_CTRL_OUT, (unsigned char)c);
  1005dc:	00e6a023          	sw	a4,0(a3) # 20000 <_stack_len+0x18000>
  while (*str) {
  1005e0:	0007c703          	lbu	a4,0(a5)
  1005e4:	fe071ae3          	bnez	a4,1005d8 <simple_exc_handler+0x240>
  __asm__ volatile("csrr %0, mtval;" : "=r"(result));
  1005e8:	343027f3          	csrr	a5,mtval
    if (cur_digit < 10)
  1005ec:	00900613          	li	a2,9
    cur_digit = h >> 28;
  1005f0:	01c7d713          	srli	a4,a5,0x1c
    if (cur_digit < 10)
  1005f4:	14e67a63          	bgeu	a2,a4,100748 <simple_exc_handler+0x3b0>
      putchar('A' - 10 + cur_digit);
  1005f8:	03770713          	addi	a4,a4,55
  DEV_WRITE(SIM_CTRL_BASE + SIM_CTRL_OUT, (unsigned char)c);
  1005fc:	00e6a023          	sw	a4,0(a3)
    h <<= 4;
  100600:	00479713          	slli	a4,a5,0x4
    cur_digit = h >> 28;
  100604:	01c75713          	srli	a4,a4,0x1c
    if (cur_digit < 10)
  100608:	00900693          	li	a3,9
  10060c:	12e6f663          	bgeu	a3,a4,100738 <simple_exc_handler+0x3a0>
      putchar('A' - 10 + cur_digit);
  100610:	03770713          	addi	a4,a4,55
  DEV_WRITE(SIM_CTRL_BASE + SIM_CTRL_OUT, (unsigned char)c);
  100614:	000206b7          	lui	a3,0x20
  100618:	00e6a023          	sw	a4,0(a3) # 20000 <_stack_len+0x18000>
    h <<= 4;
  10061c:	00879713          	slli	a4,a5,0x8
    cur_digit = h >> 28;
  100620:	01c75713          	srli	a4,a4,0x1c
    if (cur_digit < 10)
  100624:	00900693          	li	a3,9
  100628:	10e6f063          	bgeu	a3,a4,100728 <simple_exc_handler+0x390>
      putchar('A' - 10 + cur_digit);
  10062c:	03770713          	addi	a4,a4,55
  DEV_WRITE(SIM_CTRL_BASE + SIM_CTRL_OUT, (unsigned char)c);
  100630:	000206b7          	lui	a3,0x20
  100634:	00e6a023          	sw	a4,0(a3) # 20000 <_stack_len+0x18000>
    h <<= 4;
  100638:	00c79713          	slli	a4,a5,0xc
    cur_digit = h >> 28;
  10063c:	01c75713          	srli	a4,a4,0x1c
    if (cur_digit < 10)
  100640:	00900693          	li	a3,9
  100644:	0ce6fa63          	bgeu	a3,a4,100718 <simple_exc_handler+0x380>
      putchar('A' - 10 + cur_digit);
  100648:	03770713          	addi	a4,a4,55
  DEV_WRITE(SIM_CTRL_BASE + SIM_CTRL_OUT, (unsigned char)c);
  10064c:	000206b7          	lui	a3,0x20
  100650:	00e6a023          	sw	a4,0(a3) # 20000 <_stack_len+0x18000>
    h <<= 4;
  100654:	01079713          	slli	a4,a5,0x10
    cur_digit = h >> 28;
  100658:	01c75713          	srli	a4,a4,0x1c
    if (cur_digit < 10)
  10065c:	00900693          	li	a3,9
  100660:	0ae6f463          	bgeu	a3,a4,100708 <simple_exc_handler+0x370>
      putchar('A' - 10 + cur_digit);
  100664:	03770713          	addi	a4,a4,55
  DEV_WRITE(SIM_CTRL_BASE + SIM_CTRL_OUT, (unsigned char)c);
  100668:	000206b7          	lui	a3,0x20
  10066c:	00e6a023          	sw	a4,0(a3) # 20000 <_stack_len+0x18000>
    h <<= 4;
  100670:	01479713          	slli	a4,a5,0x14
    cur_digit = h >> 28;
  100674:	01c75713          	srli	a4,a4,0x1c
    if (cur_digit < 10)
  100678:	00900693          	li	a3,9
  10067c:	06e6fe63          	bgeu	a3,a4,1006f8 <simple_exc_handler+0x360>
      putchar('A' - 10 + cur_digit);
  100680:	03770713          	addi	a4,a4,55
  DEV_WRITE(SIM_CTRL_BASE + SIM_CTRL_OUT, (unsigned char)c);
  100684:	000206b7          	lui	a3,0x20
  100688:	00e6a023          	sw	a4,0(a3) # 20000 <_stack_len+0x18000>
    h <<= 4;
  10068c:	01879713          	slli	a4,a5,0x18
    cur_digit = h >> 28;
  100690:	01c75713          	srli	a4,a4,0x1c
    if (cur_digit < 10)
  100694:	00900693          	li	a3,9
  100698:	04e6f863          	bgeu	a3,a4,1006e8 <simple_exc_handler+0x350>
      putchar('A' - 10 + cur_digit);
  10069c:	03770713          	addi	a4,a4,55
  DEV_WRITE(SIM_CTRL_BASE + SIM_CTRL_OUT, (unsigned char)c);
  1006a0:	000206b7          	lui	a3,0x20
  1006a4:	00e6a023          	sw	a4,0(a3) # 20000 <_stack_len+0x18000>
    cur_digit = h >> 28;
  1006a8:	00f7f793          	andi	a5,a5,15
    if (cur_digit < 10)
  1006ac:	00900713          	li	a4,9
  1006b0:	02f76463          	bltu	a4,a5,1006d8 <simple_exc_handler+0x340>
      putchar('0' + cur_digit);
  1006b4:	03078793          	addi	a5,a5,48
  DEV_WRITE(SIM_CTRL_BASE + SIM_CTRL_OUT, (unsigned char)c);
  1006b8:	00020737          	lui	a4,0x20
  1006bc:	00f72023          	sw	a5,0(a4) # 20000 <_stack_len+0x18000>
  1006c0:	000207b7          	lui	a5,0x20
  1006c4:	00a00713          	li	a4,10
  1006c8:	00e7a023          	sw	a4,0(a5) # 20000 <_stack_len+0x18000>
void sim_halt() { DEV_WRITE(SIM_CTRL_BASE + SIM_CTRL_CTRL, 1); }
  1006cc:	00100713          	li	a4,1
  1006d0:	00e7a223          	sw	a4,4(a5)
  puts("\nMCAUSE: 0x%0X");puthex(get_mcause());
  puts("\nMTVAL:  0x%0X");puthex(get_mtval());
  putchar('\n');
  sim_halt();

  while(1);
  1006d4:	0000006f          	j	1006d4 <simple_exc_handler+0x33c>
      putchar('A' - 10 + cur_digit);
  1006d8:	03778793          	addi	a5,a5,55
  DEV_WRITE(SIM_CTRL_BASE + SIM_CTRL_OUT, (unsigned char)c);
  1006dc:	00020737          	lui	a4,0x20
  1006e0:	00f72023          	sw	a5,0(a4) # 20000 <_stack_len+0x18000>
  return c;
  1006e4:	fddff06f          	j	1006c0 <simple_exc_handler+0x328>
      putchar('0' + cur_digit);
  1006e8:	03070713          	addi	a4,a4,48
  DEV_WRITE(SIM_CTRL_BASE + SIM_CTRL_OUT, (unsigned char)c);
  1006ec:	000206b7          	lui	a3,0x20
  1006f0:	00e6a023          	sw	a4,0(a3) # 20000 <_stack_len+0x18000>
  return c;
  1006f4:	fb5ff06f          	j	1006a8 <simple_exc_handler+0x310>
      putchar('0' + cur_digit);
  1006f8:	03070713          	addi	a4,a4,48
  DEV_WRITE(SIM_CTRL_BASE + SIM_CTRL_OUT, (unsigned char)c);
  1006fc:	000206b7          	lui	a3,0x20
  100700:	00e6a023          	sw	a4,0(a3) # 20000 <_stack_len+0x18000>
  return c;
  100704:	f89ff06f          	j	10068c <simple_exc_handler+0x2f4>
      putchar('0' + cur_digit);
  100708:	03070713          	addi	a4,a4,48
  DEV_WRITE(SIM_CTRL_BASE + SIM_CTRL_OUT, (unsigned char)c);
  10070c:	000206b7          	lui	a3,0x20
  100710:	00e6a023          	sw	a4,0(a3) # 20000 <_stack_len+0x18000>
  return c;
  100714:	f5dff06f          	j	100670 <simple_exc_handler+0x2d8>
      putchar('0' + cur_digit);
  100718:	03070713          	addi	a4,a4,48
  DEV_WRITE(SIM_CTRL_BASE + SIM_CTRL_OUT, (unsigned char)c);
  10071c:	000206b7          	lui	a3,0x20
  100720:	00e6a023          	sw	a4,0(a3) # 20000 <_stack_len+0x18000>
  return c;
  100724:	f31ff06f          	j	100654 <simple_exc_handler+0x2bc>
      putchar('0' + cur_digit);
  100728:	03070713          	addi	a4,a4,48
  DEV_WRITE(SIM_CTRL_BASE + SIM_CTRL_OUT, (unsigned char)c);
  10072c:	000206b7          	lui	a3,0x20
  100730:	00e6a023          	sw	a4,0(a3) # 20000 <_stack_len+0x18000>
  return c;
  100734:	f05ff06f          	j	100638 <simple_exc_handler+0x2a0>
      putchar('0' + cur_digit);
  100738:	03070713          	addi	a4,a4,48
  DEV_WRITE(SIM_CTRL_BASE + SIM_CTRL_OUT, (unsigned char)c);
  10073c:	000206b7          	lui	a3,0x20
  100740:	00e6a023          	sw	a4,0(a3) # 20000 <_stack_len+0x18000>
  return c;
  100744:	ed9ff06f          	j	10061c <simple_exc_handler+0x284>
      putchar('0' + cur_digit);
  100748:	03070713          	addi	a4,a4,48
  DEV_WRITE(SIM_CTRL_BASE + SIM_CTRL_OUT, (unsigned char)c);
  10074c:	00e6a023          	sw	a4,0(a3)
  return c;
  100750:	eb1ff06f          	j	100600 <simple_exc_handler+0x268>
      putchar('A' - 10 + cur_digit);
  100754:	03778793          	addi	a5,a5,55
  DEV_WRITE(SIM_CTRL_BASE + SIM_CTRL_OUT, (unsigned char)c);
  100758:	00020737          	lui	a4,0x20
  10075c:	00f72023          	sw	a5,0(a4) # 20000 <_stack_len+0x18000>
  return c;
  100760:	e69ff06f          	j	1005c8 <simple_exc_handler+0x230>
      putchar('0' + cur_digit);
  100764:	03070713          	addi	a4,a4,48
  DEV_WRITE(SIM_CTRL_BASE + SIM_CTRL_OUT, (unsigned char)c);
  100768:	000206b7          	lui	a3,0x20
  10076c:	00e6a023          	sw	a4,0(a3) # 20000 <_stack_len+0x18000>
  return c;
  100770:	e41ff06f          	j	1005b0 <simple_exc_handler+0x218>
      putchar('0' + cur_digit);
  100774:	03070713          	addi	a4,a4,48
  DEV_WRITE(SIM_CTRL_BASE + SIM_CTRL_OUT, (unsigned char)c);
  100778:	000206b7          	lui	a3,0x20
  10077c:	00e6a023          	sw	a4,0(a3) # 20000 <_stack_len+0x18000>
  return c;
  100780:	e15ff06f          	j	100594 <simple_exc_handler+0x1fc>
      putchar('0' + cur_digit);
  100784:	03070713          	addi	a4,a4,48
  DEV_WRITE(SIM_CTRL_BASE + SIM_CTRL_OUT, (unsigned char)c);
  100788:	000206b7          	lui	a3,0x20
  10078c:	00e6a023          	sw	a4,0(a3) # 20000 <_stack_len+0x18000>
  return c;
  100790:	de9ff06f          	j	100578 <simple_exc_handler+0x1e0>
      putchar('0' + cur_digit);
  100794:	03070713          	addi	a4,a4,48
  DEV_WRITE(SIM_CTRL_BASE + SIM_CTRL_OUT, (unsigned char)c);
  100798:	000206b7          	lui	a3,0x20
  10079c:	00e6a023          	sw	a4,0(a3) # 20000 <_stack_len+0x18000>
  return c;
  1007a0:	dbdff06f          	j	10055c <simple_exc_handler+0x1c4>
      putchar('0' + cur_digit);
  1007a4:	03070713          	addi	a4,a4,48
  DEV_WRITE(SIM_CTRL_BASE + SIM_CTRL_OUT, (unsigned char)c);
  1007a8:	000206b7          	lui	a3,0x20
  1007ac:	00e6a023          	sw	a4,0(a3) # 20000 <_stack_len+0x18000>
  return c;
  1007b0:	d91ff06f          	j	100540 <simple_exc_handler+0x1a8>
      putchar('0' + cur_digit);
  1007b4:	03070713          	addi	a4,a4,48
  DEV_WRITE(SIM_CTRL_BASE + SIM_CTRL_OUT, (unsigned char)c);
  1007b8:	000206b7          	lui	a3,0x20
  1007bc:	00e6a023          	sw	a4,0(a3) # 20000 <_stack_len+0x18000>
  return c;
  1007c0:	d65ff06f          	j	100524 <simple_exc_handler+0x18c>
      putchar('0' + cur_digit);
  1007c4:	03070713          	addi	a4,a4,48
  DEV_WRITE(SIM_CTRL_BASE + SIM_CTRL_OUT, (unsigned char)c);
  1007c8:	00e6a023          	sw	a4,0(a3)
  return c;
  1007cc:	d3dff06f          	j	100508 <simple_exc_handler+0x170>
      putchar('A' - 10 + cur_digit);
  1007d0:	03778793          	addi	a5,a5,55
  DEV_WRITE(SIM_CTRL_BASE + SIM_CTRL_OUT, (unsigned char)c);
  1007d4:	00020737          	lui	a4,0x20
  1007d8:	00f72023          	sw	a5,0(a4) # 20000 <_stack_len+0x18000>
  return c;
  1007dc:	cf5ff06f          	j	1004d0 <simple_exc_handler+0x138>
      putchar('0' + cur_digit);
  1007e0:	03070713          	addi	a4,a4,48
  DEV_WRITE(SIM_CTRL_BASE + SIM_CTRL_OUT, (unsigned char)c);
  1007e4:	000206b7          	lui	a3,0x20
  1007e8:	00e6a023          	sw	a4,0(a3) # 20000 <_stack_len+0x18000>
  return c;
  1007ec:	ccdff06f          	j	1004b8 <simple_exc_handler+0x120>
      putchar('0' + cur_digit);
  1007f0:	03070713          	addi	a4,a4,48
  DEV_WRITE(SIM_CTRL_BASE + SIM_CTRL_OUT, (unsigned char)c);
  1007f4:	000206b7          	lui	a3,0x20
  1007f8:	00e6a023          	sw	a4,0(a3) # 20000 <_stack_len+0x18000>
  return c;
  1007fc:	ca1ff06f          	j	10049c <simple_exc_handler+0x104>
      putchar('0' + cur_digit);
  100800:	03070713          	addi	a4,a4,48
  DEV_WRITE(SIM_CTRL_BASE + SIM_CTRL_OUT, (unsigned char)c);
  100804:	000206b7          	lui	a3,0x20
  100808:	00e6a023          	sw	a4,0(a3) # 20000 <_stack_len+0x18000>
  return c;
  10080c:	c75ff06f          	j	100480 <simple_exc_handler+0xe8>
      putchar('0' + cur_digit);
  100810:	03070713          	addi	a4,a4,48
  DEV_WRITE(SIM_CTRL_BASE + SIM_CTRL_OUT, (unsigned char)c);
  100814:	000206b7          	lui	a3,0x20
  100818:	00e6a023          	sw	a4,0(a3) # 20000 <_stack_len+0x18000>
  return c;
  10081c:	c49ff06f          	j	100464 <simple_exc_handler+0xcc>
      putchar('0' + cur_digit);
  100820:	03070713          	addi	a4,a4,48
  DEV_WRITE(SIM_CTRL_BASE + SIM_CTRL_OUT, (unsigned char)c);
  100824:	000206b7          	lui	a3,0x20
  100828:	00e6a023          	sw	a4,0(a3) # 20000 <_stack_len+0x18000>
  return c;
  10082c:	c1dff06f          	j	100448 <simple_exc_handler+0xb0>
      putchar('0' + cur_digit);
  100830:	03070713          	addi	a4,a4,48
  DEV_WRITE(SIM_CTRL_BASE + SIM_CTRL_OUT, (unsigned char)c);
  100834:	000206b7          	lui	a3,0x20
  100838:	00e6a023          	sw	a4,0(a3) # 20000 <_stack_len+0x18000>
  return c;
  10083c:	bf1ff06f          	j	10042c <simple_exc_handler+0x94>
      putchar('0' + cur_digit);
  100840:	03070713          	addi	a4,a4,48
  DEV_WRITE(SIM_CTRL_BASE + SIM_CTRL_OUT, (unsigned char)c);
  100844:	00e6a023          	sw	a4,0(a3)
  return c;
  100848:	bc9ff06f          	j	100410 <simple_exc_handler+0x78>

0010084c <timer_enable>:
  current_time += time_base;
  timecmp_update(current_time);
}

void timer_enable(uint64_t time_base) {
  time_elapsed = 0;
  10084c:	00000797          	auipc	a5,0x0
  100850:	39478793          	addi	a5,a5,916 # 100be0 <time_elapsed>
  100854:	00000693          	li	a3,0
  100858:	00d7a023          	sw	a3,0(a5)
  10085c:	00000713          	li	a4,0
  100860:	00e7a223          	sw	a4,4(a5)
  time_increment = time_base;
  100864:	00000797          	auipc	a5,0x0
  100868:	38a7a223          	sw	a0,900(a5) # 100be8 <time_increment>
  10086c:	00000797          	auipc	a5,0x0
  100870:	38b7a023          	sw	a1,896(a5) # 100bec <time_increment+0x4>
uint64_t timer_read(void) {
  uint32_t current_timeh;
  uint32_t current_time;
  // check if time overflowed while reading and try again
  do {
    current_timeh = DEV_READ(TIMER_BASE + TIMER_MTIMEH, 0);
  100874:	000307b7          	lui	a5,0x30
  100878:	0047a703          	lw	a4,4(a5) # 30004 <_stack_len+0x28004>
    current_time = DEV_READ(TIMER_BASE + TIMER_MTIME, 0);
  10087c:	0007a603          	lw	a2,0(a5)
  } while (current_timeh != DEV_READ(TIMER_BASE + TIMER_MTIMEH, 0));
  100880:	0047a683          	lw	a3,4(a5)
  100884:	fed71ae3          	bne	a4,a3,100878 <timer_enable+0x2c>
  current_time += time_base;
  100888:	00a60533          	add	a0,a2,a0
  10088c:	00c53633          	sltu	a2,a0,a2
  100890:	00b70733          	add	a4,a4,a1
  uint64_t final_time = ((uint64_t)current_timeh << 32) | current_time;
  return final_time;
}

void timecmp_update(uint64_t new_time) {
  DEV_WRITE(TIMER_BASE + TIMER_MTIMECMP, -1);
  100894:	fff00693          	li	a3,-1
  100898:	00d7a423          	sw	a3,8(a5)
  current_time += time_base;
  10089c:	00e60733          	add	a4,a2,a4
  DEV_WRITE(TIMER_BASE + TIMER_MTIMECMPH, new_time >> 32);
  1008a0:	00e7a623          	sw	a4,12(a5)
  DEV_WRITE(TIMER_BASE + TIMER_MTIMECMP, new_time);
  1008a4:	00a7a423          	sw	a0,8(a5)
  asm volatile("csrs  mie, %0\n" : : "r"(0x80));
  1008a8:	08000793          	li	a5,128
  1008ac:	3047a073          	csrs	mie,a5
  asm volatile("csrs  mstatus, %0\n" : : "r"(0x8));
  1008b0:	00800793          	li	a5,8
  1008b4:	3007a073          	csrs	mstatus,a5
}
  1008b8:	00008067          	ret

001008bc <timer_disable>:
void timer_disable(void) { asm volatile("csrc  mie, %0\n" : : "r"(0x80)); }
  1008bc:	08000793          	li	a5,128
  1008c0:	3047b073          	csrc	mie,a5
  1008c4:	00008067          	ret

001008c8 <timer_read>:
    current_timeh = DEV_READ(TIMER_BASE + TIMER_MTIMEH, 0);
  1008c8:	000307b7          	lui	a5,0x30
  1008cc:	0047a703          	lw	a4,4(a5) # 30004 <_stack_len+0x28004>
    current_time = DEV_READ(TIMER_BASE + TIMER_MTIME, 0);
  1008d0:	0007a503          	lw	a0,0(a5)
  } while (current_timeh != DEV_READ(TIMER_BASE + TIMER_MTIMEH, 0));
  1008d4:	0047a583          	lw	a1,4(a5)
  1008d8:	fee59ae3          	bne	a1,a4,1008cc <timer_read+0x4>
}
  1008dc:	00008067          	ret

001008e0 <timecmp_update>:
  DEV_WRITE(TIMER_BASE + TIMER_MTIMECMP, -1);
  1008e0:	000307b7          	lui	a5,0x30
  1008e4:	fff00713          	li	a4,-1
  1008e8:	00e7a423          	sw	a4,8(a5) # 30008 <_stack_len+0x28008>
  DEV_WRITE(TIMER_BASE + TIMER_MTIMECMPH, new_time >> 32);
  1008ec:	00b7a623          	sw	a1,12(a5)
  DEV_WRITE(TIMER_BASE + TIMER_MTIMECMP, new_time);
  1008f0:	00a7a423          	sw	a0,8(a5)
}
  1008f4:	00008067          	ret

001008f8 <get_elapsed_time>:

uint64_t get_elapsed_time(void) { return time_elapsed; }
  1008f8:	00000797          	auipc	a5,0x0
  1008fc:	2e878793          	addi	a5,a5,744 # 100be0 <time_elapsed>
  100900:	0007a503          	lw	a0,0(a5)
  100904:	0047a583          	lw	a1,4(a5)
  100908:	00008067          	ret

0010090c <simple_timer_handler>:

void simple_timer_handler(void) __attribute__((interrupt));

void simple_timer_handler(void) {
  10090c:	fe010113          	addi	sp,sp,-32
  100910:	00f12423          	sw	a5,8(sp)
  increment_timecmp(time_increment);
  100914:	00000797          	auipc	a5,0x0
  100918:	2d478793          	addi	a5,a5,724 # 100be8 <time_increment>
void simple_timer_handler(void) {
  10091c:	00a12e23          	sw	a0,28(sp)
  100920:	00b12c23          	sw	a1,24(sp)
  increment_timecmp(time_increment);
  100924:	0047a503          	lw	a0,4(a5)
  100928:	0007a583          	lw	a1,0(a5)
void simple_timer_handler(void) {
  10092c:	00c12a23          	sw	a2,20(sp)
  100930:	00d12823          	sw	a3,16(sp)
  100934:	00e12623          	sw	a4,12(sp)
  100938:	01012223          	sw	a6,4(sp)
  10093c:	01112023          	sw	a7,0(sp)
    current_timeh = DEV_READ(TIMER_BASE + TIMER_MTIMEH, 0);
  100940:	000307b7          	lui	a5,0x30
  100944:	0047a703          	lw	a4,4(a5) # 30004 <_stack_len+0x28004>
    current_time = DEV_READ(TIMER_BASE + TIMER_MTIME, 0);
  100948:	0007a603          	lw	a2,0(a5)
  } while (current_timeh != DEV_READ(TIMER_BASE + TIMER_MTIMEH, 0));
  10094c:	0047a683          	lw	a3,4(a5)
  100950:	fed71ae3          	bne	a4,a3,100944 <simple_timer_handler+0x38>
  current_time += time_base;
  100954:	00b606b3          	add	a3,a2,a1
  100958:	00c6b633          	sltu	a2,a3,a2
  10095c:	00a70733          	add	a4,a4,a0
  DEV_WRITE(TIMER_BASE + TIMER_MTIMECMP, -1);
  100960:	fff00593          	li	a1,-1
  100964:	00b7a423          	sw	a1,8(a5)
  current_time += time_base;
  100968:	00e60733          	add	a4,a2,a4
  DEV_WRITE(TIMER_BASE + TIMER_MTIMECMPH, new_time >> 32);
  10096c:	00e7a623          	sw	a4,12(a5)
  DEV_WRITE(TIMER_BASE + TIMER_MTIMECMP, new_time);
  100970:	00d7a423          	sw	a3,8(a5)
  time_elapsed++;
  100974:	00000597          	auipc	a1,0x0
  100978:	26c58593          	addi	a1,a1,620 # 100be0 <time_elapsed>
  10097c:	0005a803          	lw	a6,0(a1)
  100980:	0045a883          	lw	a7,4(a1)
}
  100984:	01012683          	lw	a3,16(sp)
  time_elapsed++;
  100988:	00180513          	addi	a0,a6,1
  10098c:	01053633          	sltu	a2,a0,a6
  100990:	011607b3          	add	a5,a2,a7
  100994:	00a5a023          	sw	a0,0(a1)
  100998:	00f5a223          	sw	a5,4(a1)
}
  10099c:	01c12503          	lw	a0,28(sp)
  1009a0:	01812583          	lw	a1,24(sp)
  1009a4:	01412603          	lw	a2,20(sp)
  1009a8:	00c12703          	lw	a4,12(sp)
  1009ac:	00812783          	lw	a5,8(sp)
  1009b0:	00412803          	lw	a6,4(sp)
  1009b4:	00012883          	lw	a7,0(sp)
  1009b8:	02010113          	addi	sp,sp,32
  1009bc:	30200073          	mret

001009c0 <afunction>:

int afunction(int a, int b)
{
  return a+b;
}
  1009c0:	00b50533          	add	a0,a0,a1
  1009c4:	00008067          	ret

001009c8 <default_exc_handler>:
  jal x0, simple_exc_handler
  1009c8:	9d1ff06f          	j	100398 <simple_exc_handler>

001009cc <timer_handler>:
  jal x0, simple_timer_handler
  1009cc:	f41ff06f          	j	10090c <simple_timer_handler>

001009d0 <reset_handler>:
  mv  x1, x0
  1009d0:	00000093          	li	ra,0
  mv  x2, x1
  1009d4:	00008113          	mv	sp,ra
  mv  x3, x1
  1009d8:	00008193          	mv	gp,ra
  mv  x4, x1
  1009dc:	00008213          	mv	tp,ra
  mv  x5, x1
  1009e0:	00008293          	mv	t0,ra
  mv  x6, x1
  1009e4:	00008313          	mv	t1,ra
  mv  x7, x1
  1009e8:	00008393          	mv	t2,ra
  mv  x8, x1
  1009ec:	00008413          	mv	s0,ra
  mv  x9, x1
  1009f0:	00008493          	mv	s1,ra
  mv x10, x1
  1009f4:	00008513          	mv	a0,ra
  mv x11, x1
  1009f8:	00008593          	mv	a1,ra
  mv x12, x1
  1009fc:	00008613          	mv	a2,ra
  mv x13, x1
  100a00:	00008693          	mv	a3,ra
  mv x14, x1
  100a04:	00008713          	mv	a4,ra
  mv x15, x1
  100a08:	00008793          	mv	a5,ra
  mv x16, x1
  100a0c:	00008813          	mv	a6,ra
  mv x17, x1
  100a10:	00008893          	mv	a7,ra
  mv x18, x1
  100a14:	00008913          	mv	s2,ra
  mv x19, x1
  100a18:	00008993          	mv	s3,ra
  mv x20, x1
  100a1c:	00008a13          	mv	s4,ra
  mv x21, x1
  100a20:	00008a93          	mv	s5,ra
  mv x22, x1
  100a24:	00008b13          	mv	s6,ra
  mv x23, x1
  100a28:	00008b93          	mv	s7,ra
  mv x24, x1
  100a2c:	00008c13          	mv	s8,ra
  mv x25, x1
  100a30:	00008c93          	mv	s9,ra
  mv x26, x1
  100a34:	00008d13          	mv	s10,ra
  mv x27, x1
  100a38:	00008d93          	mv	s11,ra
  mv x28, x1
  100a3c:	00008e13          	mv	t3,ra
  mv x29, x1
  100a40:	00008e93          	mv	t4,ra
  mv x30, x1
  100a44:	00008f13          	mv	t5,ra
  mv x31, x1
  100a48:	00008f93          	mv	t6,ra
  la   x2, _stack_start
  100a4c:	000ff117          	auipc	sp,0xff
  100a50:	5b410113          	addi	sp,sp,1460 # 200000 <_stack_start>

00100a54 <_start>:
  la x26, _bss_start
  100a54:	00000d17          	auipc	s10,0x0
  100a58:	18cd0d13          	addi	s10,s10,396 # 100be0 <time_elapsed>
  la x27, _bss_end
  100a5c:	00001d97          	auipc	s11,0x1
  100a60:	194d8d93          	addi	s11,s11,404 # 101bf0 <_bss_end>
  bge x26, x27, zero_loop_end
  100a64:	01bd5863          	bge	s10,s11,100a74 <main_entry>

00100a68 <zero_loop>:
  sw x0, 0(x26)
  100a68:	000d2023          	sw	zero,0(s10)
  addi x26, x26, 4
  100a6c:	004d0d13          	addi	s10,s10,4
  ble x26, x27, zero_loop
  100a70:	ffaddce3          	bge	s11,s10,100a68 <zero_loop>

00100a74 <main_entry>:
  addi x10, x0, 0
  100a74:	00000513          	li	a0,0
  addi x11, x0, 0
  100a78:	00000593          	li	a1,0
  jal x1, main
  100a7c:	01c000ef          	jal	ra,100a98 <main>
  li x5, SIM_CTRL_BASE + SIM_CTRL_CTRL
  100a80:	000202b7          	lui	t0,0x20
  100a84:	00428293          	addi	t0,t0,4 # 20004 <_stack_len+0x18004>
  li x6, 1
  100a88:	00100313          	li	t1,1
  sw x6, 0(x5)
  100a8c:	0062a023          	sw	t1,0(t0)

00100a90 <sleep_loop>:
  wfi
  100a90:	10500073          	wfi
  j sleep_loop
  100a94:	ffdff06f          	j	100a90 <sleep_loop>

00100a98 <main>:
int main() {
  int a=0xDEADBEAF;
  int b=a/2;
  register unsigned int gp asm("gp");

  int c=afunction(a,acste);
  100a98:	55aa55b7          	lui	a1,0x55aa5
  100a9c:	deadc537          	lui	a0,0xdeadc
int main() {
  100aa0:	ff010113          	addi	sp,sp,-16
  int c=afunction(a,acste);
  100aa4:	5aa58593          	addi	a1,a1,1450 # 55aa55aa <_stack_start+0x558a55aa>
  100aa8:	eaf50513          	addi	a0,a0,-337 # deadbeaf <_stack_start+0xde8dbeaf>
int main() {
  100aac:	00112623          	sw	ra,12(sp)
  int c=afunction(a,acste);
  100ab0:	f11ff0ef          	jal	ra,1009c0 <afunction>

  int i=0;
  for (i=0;i<10;i++)
  {
    uninitialised_global[4000+i]=initialised_global[i];
  100ab4:	00000717          	auipc	a4,0x0
  100ab8:	11870713          	addi	a4,a4,280 # 100bcc <initialised_global>
  100abc:	00074603          	lbu	a2,0(a4)
    (*stdout_uint)=uninitialised_global[4000+i];
  100ac0:	00000797          	auipc	a5,0x0
  100ac4:	11878793          	addi	a5,a5,280 # 100bd8 <stdout_uint>
  100ac8:	0007a783          	lw	a5,0(a5)
    uninitialised_global[4000+i]=initialised_global[i];
  100acc:	00001697          	auipc	a3,0x1
  100ad0:	12468693          	addi	a3,a3,292 # 101bf0 <_bss_end>
  100ad4:	fac68023          	sb	a2,-96(a3)
    (*stdout_uint)=uninitialised_global[4000+i];
  100ad8:	00c7a023          	sw	a2,0(a5)
    uninitialised_global[4000+i]=initialised_global[i];
  100adc:	00174603          	lbu	a2,1(a4)
  (*stdout_uint)=(unsigned int)uninitialised_global;
  (*stdout_uint)=(unsigned int)initialised_global;
  (*stdout_uint)=gp;

  return 0;
}
  100ae0:	00000513          	li	a0,0
    uninitialised_global[4000+i]=initialised_global[i];
  100ae4:	fac680a3          	sb	a2,-95(a3)
    (*stdout_uint)=uninitialised_global[4000+i];
  100ae8:	00c7a023          	sw	a2,0(a5)
    uninitialised_global[4000+i]=initialised_global[i];
  100aec:	00274603          	lbu	a2,2(a4)
  100af0:	fac68123          	sb	a2,-94(a3)
    (*stdout_uint)=uninitialised_global[4000+i];
  100af4:	00c7a023          	sw	a2,0(a5)
    uninitialised_global[4000+i]=initialised_global[i];
  100af8:	00374603          	lbu	a2,3(a4)
  100afc:	fac681a3          	sb	a2,-93(a3)
    (*stdout_uint)=uninitialised_global[4000+i];
  100b00:	00c7a023          	sw	a2,0(a5)
    uninitialised_global[4000+i]=initialised_global[i];
  100b04:	00474603          	lbu	a2,4(a4)
  100b08:	fac68223          	sb	a2,-92(a3)
    (*stdout_uint)=uninitialised_global[4000+i];
  100b0c:	00c7a023          	sw	a2,0(a5)
    uninitialised_global[4000+i]=initialised_global[i];
  100b10:	00574603          	lbu	a2,5(a4)
  100b14:	fac682a3          	sb	a2,-91(a3)
    (*stdout_uint)=uninitialised_global[4000+i];
  100b18:	00c7a023          	sw	a2,0(a5)
    uninitialised_global[4000+i]=initialised_global[i];
  100b1c:	00674603          	lbu	a2,6(a4)
  100b20:	fac68323          	sb	a2,-90(a3)
    (*stdout_uint)=uninitialised_global[4000+i];
  100b24:	00c7a023          	sw	a2,0(a5)
    uninitialised_global[4000+i]=initialised_global[i];
  100b28:	00774603          	lbu	a2,7(a4)
  100b2c:	fac683a3          	sb	a2,-89(a3)
    (*stdout_uint)=uninitialised_global[4000+i];
  100b30:	00c7a023          	sw	a2,0(a5)
    uninitialised_global[4000+i]=initialised_global[i];
  100b34:	00874603          	lbu	a2,8(a4)
  100b38:	fac68423          	sb	a2,-88(a3)
    (*stdout_uint)=uninitialised_global[4000+i];
  100b3c:	00c7a023          	sw	a2,0(a5)
    uninitialised_global[4000+i]=initialised_global[i];
  100b40:	00974603          	lbu	a2,9(a4)
  100b44:	fac684a3          	sb	a2,-87(a3)
  (*stdout_uint)=0x12345678;
  100b48:	123456b7          	lui	a3,0x12345
    (*stdout_uint)=uninitialised_global[4000+i];
  100b4c:	00c7a023          	sw	a2,0(a5)
  (*stdout_uint)=0x12345678;
  100b50:	67868693          	addi	a3,a3,1656 # 12345678 <_stack_start+0x12145678>
  100b54:	00d7a023          	sw	a3,0(a5)
  (*stdout_uint)=(unsigned int)uninitialised_global;
  100b58:	00000697          	auipc	a3,0x0
  100b5c:	09868693          	addi	a3,a3,152 # 100bf0 <uninitialised_global>
  100b60:	00d7a023          	sw	a3,0(a5)
}
  100b64:	00c12083          	lw	ra,12(sp)
  (*stdout_uint)=(unsigned int)initialised_global;
  100b68:	00e7a023          	sw	a4,0(a5)
  (*stdout_uint)=gp;
  100b6c:	0037a023          	sw	gp,0(a5)
}
  100b70:	01010113          	addi	sp,sp,16
  100b74:	00008067          	ret

Déassemblage de la section .rodata :

00100b78 <.rodata>:
  100b78:	5845                	li	a6,-15
  100b7a:	54504543          	0x54504543
  100b7e:	4f49                	li	t5,18
  100b80:	214e                	fld	ft2,208(sp)
  100b82:	2121                	jal	100f8a <uninitialised_global+0x39a>
  100b84:	000a                	c.slli	zero,0x2
  100b86:	0000                	unimp
  100b88:	3d3d                	jal	1009c6 <afunction+0x6>
  100b8a:	3d3d                	jal	1009c8 <default_exc_handler>
  100b8c:	3d3d                	jal	1009ca <default_exc_handler+0x2>
  100b8e:	3d3d                	jal	1009cc <timer_handler>
  100b90:	3d3d                	jal	1009ce <timer_handler+0x2>
  100b92:	3d3d                	jal	1009d0 <reset_handler>
  100b94:	000a                	c.slli	zero,0x2
  100b96:	0000                	unimp
  100b98:	454d                	li	a0,19
  100b9a:	4350                	lw	a2,4(a4)
  100b9c:	203a                	fld	ft0,392(sp)
  100b9e:	2020                	fld	fs0,64(s0)
  100ba0:	7830                	flw	fa2,112(s0)
  100ba2:	3025                	jal	1003ca <simple_exc_handler+0x32>
  100ba4:	0058                	addi	a4,sp,4
  100ba6:	0000                	unimp
  100ba8:	4d0a                	lw	s10,128(sp)
  100baa:	53554143          	fmadd.d	ft2,fa0,fs5,fa0,rmm
  100bae:	3a45                	jal	10055e <simple_exc_handler+0x1c6>
  100bb0:	3020                	fld	fs0,96(s0)
  100bb2:	2578                	fld	fa4,200(a0)
  100bb4:	5830                	lw	a2,112(s0)
  100bb6:	0000                	unimp
  100bb8:	4d0a                	lw	s10,128(sp)
  100bba:	5654                	lw	a3,44(a2)
  100bbc:	4c41                	li	s8,16
  100bbe:	203a                	fld	ft0,392(sp)
  100bc0:	3020                	fld	fs0,96(s0)
  100bc2:	2578                	fld	fa4,200(a0)
  100bc4:	5830                	lw	a2,112(s0)
	...

Déassemblage de la section .srodata :

00100bc8 <acste>:
const int acste=0x55AA55AA;
  100bc8:	55aa                	lw	a1,168(sp)
  100bca:	55aa                	lw	a1,168(sp)

Déassemblage de la section .data :

00100bcc <initialised_global>:
char initialised_global[]="DEADBEAF\n";
  100bcc:	4544                	lw	s1,12(a0)
  100bce:	4441                	li	s0,16
  100bd0:	4542                	lw	a0,16(sp)
  100bd2:	4641                	li	a2,16
  100bd4:	000a                	c.slli	zero,0x2

Déassemblage de la section .sdata :

00100bd8 <stdout_uint>:
volatile unsigned int *stdout_uint=(void*)0xFFFF0000;
  100bd8:	0000                	unimp
  100bda:	ffff                	0xffff

Déassemblage de la section .bss :

00100be0 <time_elapsed>:
	...

00100be8 <time_increment>:
	...

00100bf0 <uninitialised_global>:
	...

Déassemblage de la section .stack :

001f8000 <_stack-0x2000>:
	...

Déassemblage de la section .debug_info :

00000000 <.debug_info>:
   0:	082a                	slli	a6,a6,0xa
   2:	0000                	unimp
   4:	0004                	0x4
   6:	0000                	unimp
   8:	0000                	unimp
   a:	0104                	addi	s1,sp,128
   c:	009d                	addi	ra,ra,7
   e:	0000                	unimp
  10:	880c                	0x880c
  12:	0001                	nop
  14:	3900                	fld	fs0,48(a0)
  16:	0000                	unimp
  18:	8400                	0x8400
  1a:	1000                	addi	s0,sp,32
  1c:	3c00                	fld	fs0,56(s0)
  1e:	0009                	c.nop	2
  20:	0000                	unimp
  22:	0000                	unimp
  24:	0200                	addi	s0,sp,256
  26:	0708                	addi	a0,sp,896
  28:	01f8                	addi	a4,sp,204
  2a:	0000                	unimp
  2c:	0402                	c.slli64	s0
  2e:	00020207          	0x20207
  32:	0200                	addi	s0,sp,256
  34:	0601                	addi	a2,a2,0
  36:	0000012b          	0x12b
  3a:	0202                	c.slli64	tp
  3c:	7005                	c.lui	zero,0xfffe1
  3e:	0002                	c.slli64	zero
  40:	0200                	addi	s0,sp,256
  42:	0504                	addi	s1,sp,640
  44:	0246                	slli	tp,tp,0x11
  46:	0000                	unimp
  48:	0802                	c.slli64	a6
  4a:	4105                	li	sp,1
  4c:	0002                	c.slli64	zero
  4e:	0200                	addi	s0,sp,256
  50:	0801                	addi	a6,a6,0
  52:	0129                	addi	sp,sp,10
  54:	0000                	unimp
  56:	0202                	c.slli64	tp
  58:	00013707          	fld	fa4,0(sp)
  5c:	0300                	addi	s0,sp,384
  5e:	0295                	addi	t0,t0,5
  60:	0000                	unimp
  62:	3402                	fld	fs0,32(sp)
  64:	6919                	lui	s2,0x6
  66:	0000                	unimp
  68:	0200                	addi	s0,sp,256
  6a:	0704                	addi	s1,sp,896
  6c:	01fd                	addi	gp,gp,31
  6e:	0000                	unimp
  70:	00009403          	lh	s0,0(ra)
  74:	0200                	addi	s0,sp,256
  76:	00251937          	lui	s2,0x251
  7a:	0000                	unimp
  7c:	7004                	flw	fs1,32(s0)
  7e:	0000                	unimp
  80:	0500                	addi	s0,sp,640
  82:	0504                	addi	s1,sp,640
  84:	6e69                	lui	t3,0x1a
  86:	0074                	addi	a3,sp,12
  88:	4f06                	lw	t5,64(sp)
  8a:	0002                	c.slli64	zero
  8c:	0100                	addi	s0,sp,128
  8e:	007c138f          	0x7c138f
  92:	0000                	unimp
  94:	0305                	addi	t1,t1,1
  96:	0be0                	addi	s0,sp,476
  98:	0010                	0x10
  9a:	3206                	fld	ft4,96(sp)
  9c:	0002                	c.slli64	zero
  9e:	0100                	addi	s0,sp,128
  a0:	0a90                	addi	a2,sp,336
  a2:	0070                	addi	a2,sp,12
  a4:	0000                	unimp
  a6:	0305                	addi	t1,t1,1
  a8:	0be8                	addi	a0,sp,476
  aa:	0010                	0x10
  ac:	0002b607          	fld	fa2,0(t0)
  b0:	0100                	addi	s0,sp,128
  b2:	090c06bb          	0x90c06bb
  b6:	0010                	0x10
  b8:	00b4                	addi	a3,sp,72
  ba:	0000                	unimp
  bc:	9c01                	0x9c01
  be:	013c                	addi	a5,sp,136
  c0:	0000                	unimp
  c2:	5808                	lw	a0,48(s0)
  c4:	0002                	c.slli64	zero
  c6:	2c00                	fld	fs0,24(s0)
  c8:	1009                	c.nop	-30
  ca:	8000                	0x8000
  cc:	0005                	c.nop	1
  ce:	0100                	addi	s0,sp,128
  d0:	03bc                	addi	a5,sp,456
  d2:	6509                	lui	a0,0x2
  d4:	0002                	c.slli64	zero
  d6:	0000                	unimp
  d8:	0000                	unimp
  da:	0a00                	addi	s0,sp,272
  dc:	0580                	addi	s0,sp,704
  de:	0000                	unimp
  e0:	0002710b          	0x2710b
  e4:	2c00                	fld	fs0,24(s0)
  e6:	0000                	unimp
  e8:	0c00                	addi	s0,sp,528
  ea:	016c                	addi	a1,sp,140
  ec:	0000                	unimp
  ee:	0940                	addi	s0,sp,148
  f0:	0010                	0x10
  f2:	0014                	0x14
  f4:	0000                	unimp
  f6:	9301                	srli	a4,a4,0x20
  f8:	00011f1b          	0x11f1b
  fc:	0d00                	addi	s0,sp,656
  fe:	0940                	addi	s0,sp,148
 100:	0010                	0x10
 102:	0014                	0x14
 104:	0000                	unimp
 106:	00017d0b          	0x17d0b
 10a:	6100                	flw	fs0,0(a0)
 10c:	0000                	unimp
 10e:	0b00                	addi	s0,sp,400
 110:	0189                	addi	gp,gp,2
 112:	0000                	unimp
 114:	0074                	addi	a3,sp,12
 116:	0000                	unimp
 118:	950e                	add	a0,a0,gp
 11a:	0001                	nop
 11c:	0000                	unimp
 11e:	0800                	addi	s0,sp,16
 120:	0152                	slli	sp,sp,0x14
 122:	0000                	unimp
 124:	0960                	addi	s0,sp,156
 126:	0010                	0x10
 128:	0598                	addi	a4,sp,704
 12a:	0000                	unimp
 12c:	9501                	srai	a0,a0,0x20
 12e:	015f0903          	lb	s2,21(t5)
 132:	0000                	unimp
 134:	00000087          	0x87
 138:	0000                	unimp
 13a:	0000                	unimp
 13c:	00027a0f          	0x27a0f
 140:	0100                	addi	s0,sp,128
 142:	00700ab7          	lui	s5,0x700
 146:	0000                	unimp
 148:	08f8                	addi	a4,sp,92
 14a:	0010                	0x10
 14c:	0014                	0x14
 14e:	0000                	unimp
 150:	9c01                	0x9c01
 152:	5210                	lw	a2,32(a2)
 154:	0001                	nop
 156:	0100                	addi	s0,sp,128
 158:	06b1                	addi	a3,a3,12
 15a:	6c01                	0x6c01
 15c:	0001                	nop
 15e:	1100                	addi	s0,sp,160
 160:	00000267          	jalr	tp,zero # 0 <_min_stack-0x2000>
 164:	b101                	j	fffffd64 <_stack_start+0xffdffd64>
 166:	701e                	flw	ft0,228(sp)
 168:	0000                	unimp
 16a:	0000                	unimp
 16c:	5c12                	lw	s8,36(sp)
 16e:	0002                	c.slli64	zero
 170:	0100                	addi	s0,sp,128
 172:	0aa5                	addi	s5,s5,9
 174:	0070                	addi	a2,sp,12
 176:	0000                	unimp
 178:	a201                	j	278 <_min_stack-0x1d88>
 17a:	0001                	nop
 17c:	1300                	addi	s0,sp,416
 17e:	0216                	slli	tp,tp,0x5
 180:	0000                	unimp
 182:	a601                	j	482 <_min_stack-0x1b7e>
 184:	5d0c                	lw	a1,56(a0)
 186:	0000                	unimp
 188:	1300                	addi	s0,sp,416
 18a:	002c                	addi	a1,sp,8
 18c:	0000                	unimp
 18e:	a701                	j	88e <_min_stack-0x1772>
 190:	5d0c                	lw	a1,56(a0)
 192:	0000                	unimp
 194:	1300                	addi	s0,sp,416
 196:	0161                	addi	sp,sp,24
 198:	0000                	unimp
 19a:	ad01                	j	7aa <_min_stack-0x1856>
 19c:	700c                	flw	fa1,32(s0)
 19e:	0000                	unimp
 1a0:	0000                	unimp
 1a2:	2414                	fld	fa3,8(s0)
 1a4:	0002                	c.slli64	zero
 1a6:	0100                	addi	s0,sp,128
 1a8:	08bc06a3          	sb	a1,141(s8)
 1ac:	0010                	0x10
 1ae:	000c                	0xc
 1b0:	0000                	unimp
 1b2:	9c01                	0x9c01
 1b4:	0002d807          	0x2d807
 1b8:	0100                	addi	s0,sp,128
 1ba:	0698                	addi	a4,sp,832
 1bc:	084c                	addi	a1,sp,20
 1be:	0010                	0x10
 1c0:	0070                	addi	a2,sp,12
 1c2:	0000                	unimp
 1c4:	9c01                	0x9c01
 1c6:	0258                	addi	a4,sp,260
 1c8:	0000                	unimp
 1ca:	7e15                	lui	t3,0xfffe5
 1cc:	0001                	nop
 1ce:	0100                	addi	s0,sp,128
 1d0:	1c98                	addi	a4,sp,624
 1d2:	0070                	addi	a2,sp,12
 1d4:	0000                	unimp
 1d6:	009f 0000 5816      	0x58160000009f
 1dc:	0002                	c.slli64	zero
 1de:	7400                	flw	fs0,40(s0)
 1e0:	1008                	addi	a0,sp,32
 1e2:	3400                	fld	fs0,40(s0)
 1e4:	0000                	unimp
 1e6:	0100                	addi	s0,sp,128
 1e8:	039c                	addi	a5,sp,448
 1ea:	6509                	lui	a0,0x2
 1ec:	0002                	c.slli64	zero
 1ee:	c700                	sw	s0,8(a4)
 1f0:	0000                	unimp
 1f2:	0d00                	addi	s0,sp,656
 1f4:	0874                	addi	a3,sp,28
 1f6:	0010                	0x10
 1f8:	0034                	addi	a3,sp,8
 1fa:	0000                	unimp
 1fc:	0002710b          	0x2710b
 200:	f300                	fsw	fs0,32(a4)
 202:	0000                	unimp
 204:	0c00                	addi	s0,sp,528
 206:	016c                	addi	a1,sp,140
 208:	0000                	unimp
 20a:	0874                	addi	a3,sp,28
 20c:	0010                	0x10
 20e:	0014                	0x14
 210:	0000                	unimp
 212:	9301                	srli	a4,a4,0x20
 214:	00023b1b          	0x23b1b
 218:	0d00                	addi	s0,sp,656
 21a:	0874                	addi	a3,sp,28
 21c:	0010                	0x10
 21e:	0014                	0x14
 220:	0000                	unimp
 222:	00017d0b          	0x17d0b
 226:	2800                	fld	fs0,16(s0)
 228:	0001                	nop
 22a:	0b00                	addi	s0,sp,400
 22c:	0189                	addi	gp,gp,2
 22e:	0000                	unimp
 230:	0000013b          	0x13b
 234:	950e                	add	a0,a0,gp
 236:	0001                	nop
 238:	0000                	unimp
 23a:	0800                	addi	s0,sp,16
 23c:	0152                	slli	sp,sp,0x14
 23e:	0000                	unimp
 240:	0894                	addi	a3,sp,80
 242:	0010                	0x10
 244:	0568                	addi	a0,sp,652
 246:	0000                	unimp
 248:	9501                	srai	a0,a0,0x20
 24a:	015f0903          	lb	s2,21(t5)
 24e:	0000                	unimp
 250:	014e                	slli	sp,sp,0x13
 252:	0000                	unimp
 254:	0000                	unimp
 256:	0000                	unimp
 258:	00016c17          	auipc	s8,0x16
 25c:	0100                	addi	s0,sp,128
 25e:	1492                	slli	s1,s1,0x24
 260:	00027e03          	0x27e03
 264:	1100                	addi	s0,sp,160
 266:	017e                	slli	sp,sp,0x1f
 268:	0000                	unimp
 26a:	9201                	srli	a2,a2,0x20
 26c:	0000702f          	0x702f
 270:	1300                	addi	s0,sp,416
 272:	002c                	addi	a1,sp,8
 274:	0000                	unimp
 276:	9301                	srli	a4,a4,0x20
 278:	700c                	flw	fa1,32(s0)
 27a:	0000                	unimp
 27c:	0000                	unimp
 27e:	00000b07          	0xb07
 282:	0100                	addi	s0,sp,128
 284:	03980683          	lb	a3,57(a6)
 288:	0010                	0x10
 28a:	04b4                	addi	a3,sp,584
 28c:	0000                	unimp
 28e:	9c01                	0x9c01
 290:	000005a3          	sb	zero,11(zero) # b <_min_stack-0x1ff5>
 294:	7f18                	flw	fa4,56(a4)
 296:	0006                	c.slli	zero,0x1
 298:	9800                	0x9800
 29a:	28001003          	lh	zero,640(zero) # 280 <_min_stack-0x1d80>
 29e:	0001                	nop
 2a0:	0100                	addi	s0,sp,128
 2a2:	0384                	addi	s1,sp,448
 2a4:	02cc                	addi	a1,sp,324
 2a6:	0000                	unimp
 2a8:	9009                	srli	s0,s0,0x22
 2aa:	0006                	c.slli	zero,0x1
 2ac:	6600                	flw	fs0,8(a2)
 2ae:	0001                	nop
 2b0:	0800                	addi	s0,sp,16
 2b2:	000006af          	0x6af
 2b6:	03a4                	addi	s1,sp,456
 2b8:	0010                	0x10
 2ba:	0140                	addi	s0,sp,132
 2bc:	0000                	unimp
 2be:	0f01                	addi	t5,t5,0
 2c0:	0905                	addi	s2,s2,1
 2c2:	06c0                	addi	s0,sp,836
 2c4:	0000                	unimp
 2c6:	0189                	addi	gp,gp,2
 2c8:	0000                	unimp
 2ca:	0000                	unimp
 2cc:	7f18                	flw	fa4,56(a4)
 2ce:	0006                	c.slli	zero,0x1
 2d0:	b800                	fsd	fs0,48(s0)
 2d2:	58001003          	lh	zero,1408(zero) # 580 <_min_stack-0x1a80>
 2d6:	0001                	nop
 2d8:	0100                	addi	s0,sp,128
 2da:	0385                	addi	t2,t2,1
 2dc:	0304                	addi	s1,sp,384
 2de:	0000                	unimp
 2e0:	9009                	srli	s0,s0,0x22
 2e2:	0006                	c.slli	zero,0x1
 2e4:	a100                	fsd	fs0,0(a0)
 2e6:	0001                	nop
 2e8:	0800                	addi	s0,sp,16
 2ea:	000006af          	0x6af
 2ee:	03c4                	addi	s1,sp,452
 2f0:	0010                	0x10
 2f2:	0178                	addi	a4,sp,140
 2f4:	0000                	unimp
 2f6:	0f01                	addi	t5,t5,0
 2f8:	0905                	addi	s2,s2,1
 2fa:	06c0                	addi	s0,sp,836
 2fc:	0000                	unimp
 2fe:	01b4                	addi	a3,sp,200
 300:	0000                	unimp
 302:	0000                	unimp
 304:	7f18                	flw	fa4,56(a4)
 306:	0006                	c.slli	zero,0x1
 308:	d800                	sw	s0,48(s0)
 30a:	90001003          	lh	zero,-1792(zero) # fffff900 <_stack_start+0xffdff900>
 30e:	0001                	nop
 310:	0100                	addi	s0,sp,128
 312:	0386                	slli	t2,t2,0x1
 314:	033c                	addi	a5,sp,392
 316:	0000                	unimp
 318:	9009                	srli	s0,s0,0x22
 31a:	0006                	c.slli	zero,0x1
 31c:	cc00                	sw	s0,24(s0)
 31e:	0001                	nop
 320:	0800                	addi	s0,sp,16
 322:	000006af          	0x6af
 326:	03e4                	addi	s1,sp,460
 328:	0010                	0x10
 32a:	01a8                	addi	a0,sp,200
 32c:	0000                	unimp
 32e:	0f01                	addi	t5,t5,0
 330:	0905                	addi	s2,s2,1
 332:	06c0                	addi	s0,sp,836
 334:	0000                	unimp
 336:	01df 0000 0000      	0x1df
 33c:	df0c                	sw	a1,56(a4)
 33e:	0005                	c.nop	1
 340:	f800                	fsw	fs0,48(s0)
 342:	04001003          	lh	zero,64(zero) # 40 <_min_stack-0x1fc0>
 346:	0000                	unimp
 348:	0100                	addi	s0,sp,128
 34a:	2086                	fld	ft1,64(sp)
 34c:	0360                	addi	s0,sp,396
 34e:	0000                	unimp
 350:	f80d                	bnez	s0,282 <_min_stack-0x1d7e>
 352:	04001003          	lh	zero,64(zero) # 40 <_min_stack-0x1fc0>
 356:	0000                	unimp
 358:	0e00                	addi	s0,sp,784
 35a:	05f0                	addi	a2,sp,716
 35c:	0000                	unimp
 35e:	0000                	unimp
 360:	4f18                	lw	a4,24(a4)
 362:	0006                	c.slli	zero,0x1
 364:	fc00                	fsw	fs0,56(s0)
 366:	c0001003          	lh	zero,-1024(zero) # fffffc00 <_stack_start+0xffdffc00>
 36a:	0001                	nop
 36c:	0100                	addi	s0,sp,128
 36e:	1986                	slli	s3,s3,0x21
 370:	03d4                	addi	a3,sp,452
 372:	0000                	unimp
 374:	5c09                	li	s8,-30
 376:	0006                	c.slli	zero,0x1
 378:	f700                	fsw	fs0,40(a4)
 37a:	0001                	nop
 37c:	0a00                	addi	s0,sp,272
 37e:	01c0                	addi	s0,sp,196
 380:	0000                	unimp
 382:	0006660b          	0x6660b
 386:	8000                	0x8000
 388:	19000003          	lb	zero,400(zero) # 190 <_min_stack-0x1e70>
 38c:	0742                	slli	a4,a4,0x10
 38e:	0000                	unimp
 390:	01c0                	addi	s0,sp,196
 392:	0000                	unimp
 394:	730e                	flw	ft6,224(sp)
 396:	0006                	c.slli	zero,0x1
 398:	1800                	addi	s0,sp,48
 39a:	000006af          	0x6af
 39e:	0408                	addi	a0,sp,512
 3a0:	0010                	0x10
 3a2:	01d8                	addi	a4,sp,196
 3a4:	0000                	unimp
 3a6:	1f01                	addi	t5,t5,-32
 3a8:	0003b707          	fld	fa4,0(t2)
 3ac:	0900                	addi	s0,sp,144
 3ae:	06c0                	addi	s0,sp,836
 3b0:	0000                	unimp
 3b2:	057d                	addi	a0,a0,31
 3b4:	0000                	unimp
 3b6:	0800                	addi	s0,sp,16
 3b8:	000006af          	0x6af
 3bc:	04c4                	addi	s1,sp,580
 3be:	0010                	0x10
 3c0:	0260                	addi	s0,sp,268
 3c2:	0000                	unimp
 3c4:	1d01                	addi	s10,s10,-32
 3c6:	06c00907          	0x6c00907
 3ca:	0000                	unimp
 3cc:	0645                	addi	a2,a2,17
 3ce:	0000                	unimp
 3d0:	0000                	unimp
 3d2:	0000                	unimp
 3d4:	7f0c                	flw	fa1,56(a4)
 3d6:	0006                	c.slli	zero,0x1
 3d8:	d000                	sw	s0,32(s0)
 3da:	1004                	addi	s1,sp,32
 3dc:	2000                	fld	fs0,0(s0)
 3de:	0000                	unimp
 3e0:	0100                	addi	s0,sp,128
 3e2:	040c0387          	0x40c0387
 3e6:	0000                	unimp
 3e8:	9009                	srli	s0,s0,0x22
 3ea:	0006                	c.slli	zero,0x1
 3ec:	0d00                	addi	s0,sp,656
 3ee:	08000007          	0x8000007
 3f2:	000006af          	0x6af
 3f6:	04dc                	addi	a5,sp,580
 3f8:	0010                	0x10
 3fa:	02e8                	addi	a0,sp,332
 3fc:	0000                	unimp
 3fe:	0f01                	addi	t5,t5,0
 400:	0905                	addi	s2,s2,1
 402:	06c0                	addi	s0,sp,836
 404:	0000                	unimp
 406:	0720                	addi	s0,sp,904
 408:	0000                	unimp
 40a:	0000                	unimp
 40c:	c10c                	sw	a1,0(a0)
 40e:	0005                	c.nop	1
 410:	f000                	fsw	fs0,32(s0)
 412:	1004                	addi	s1,sp,32
 414:	0400                	addi	s0,sp,512
 416:	0000                	unimp
 418:	0100                	addi	s0,sp,128
 41a:	04302287          	flw	ft5,67(zero) # 43 <_min_stack-0x1fbd>
 41e:	0000                	unimp
 420:	f00d                	bnez	s0,342 <_min_stack-0x1cbe>
 422:	1004                	addi	s1,sp,32
 424:	0400                	addi	s0,sp,512
 426:	0000                	unimp
 428:	0e00                	addi	s0,sp,784
 42a:	05d2                	slli	a1,a1,0x14
 42c:	0000                	unimp
 42e:	0000                	unimp
 430:	4f18                	lw	a4,24(a4)
 432:	0006                	c.slli	zero,0x1
 434:	f400                	fsw	fs0,40(s0)
 436:	1004                	addi	s1,sp,32
 438:	0000                	unimp
 43a:	01000003          	lb	zero,16(zero) # 10 <_min_stack-0x1ff0>
 43e:	04a41b87          	0x4a41b87
 442:	0000                	unimp
 444:	5c09                	li	s8,-30
 446:	0006                	c.slli	zero,0x1
 448:	3800                	fld	fs0,48(s0)
 44a:	0a000007          	0xa000007
 44e:	0300                	addi	s0,sp,384
 450:	0000                	unimp
 452:	0006660b          	0x6660b
 456:	c100                	sw	s0,0(a0)
 458:	0008                	0x8
 45a:	1900                	addi	s0,sp,176
 45c:	0742                	slli	a4,a4,0x10
 45e:	0000                	unimp
 460:	0300                	addi	s0,sp,384
 462:	0000                	unimp
 464:	730e                	flw	ft6,224(sp)
 466:	0006                	c.slli	zero,0x1
 468:	1800                	addi	s0,sp,48
 46a:	000006af          	0x6af
 46e:	0500                	addi	s0,sp,640
 470:	0010                	0x10
 472:	0318                	addi	a4,sp,384
 474:	0000                	unimp
 476:	1f01                	addi	t5,t5,-32
 478:	00048707          	0x48707
 47c:	0900                	addi	s0,sp,144
 47e:	06c0                	addi	s0,sp,836
 480:	0000                	unimp
 482:	0abe                	slli	s5,s5,0xf
 484:	0000                	unimp
 486:	0800                	addi	s0,sp,16
 488:	000006af          	0x6af
 48c:	05bc                	addi	a5,sp,712
 48e:	0010                	0x10
 490:	03a0                	addi	s0,sp,456
 492:	0000                	unimp
 494:	1d01                	addi	s10,s10,-32
 496:	06c00907          	0x6c00907
 49a:	0000                	unimp
 49c:	0b86                	slli	s7,s7,0x1
 49e:	0000                	unimp
 4a0:	0000                	unimp
 4a2:	0000                	unimp
 4a4:	7f0c                	flw	fa1,56(a4)
 4a6:	0006                	c.slli	zero,0x1
 4a8:	c800                	sw	s0,16(s0)
 4aa:	1005                	c.nop	-31
 4ac:	2000                	fld	fs0,0(s0)
 4ae:	0000                	unimp
 4b0:	0100                	addi	s0,sp,128
 4b2:	0388                	addi	a0,sp,448
 4b4:	04dc                	addi	a5,sp,580
 4b6:	0000                	unimp
 4b8:	9009                	srli	s0,s0,0x22
 4ba:	0006                	c.slli	zero,0x1
 4bc:	4e00                	lw	s0,24(a2)
 4be:	000c                	0xc
 4c0:	0800                	addi	s0,sp,16
 4c2:	000006af          	0x6af
 4c6:	05d4                	addi	a3,sp,708
 4c8:	0010                	0x10
 4ca:	0428                	addi	a0,sp,520
 4cc:	0000                	unimp
 4ce:	0f01                	addi	t5,t5,0
 4d0:	0905                	addi	s2,s2,1
 4d2:	06c0                	addi	s0,sp,836
 4d4:	0000                	unimp
 4d6:	0c61                	addi	s8,s8,24
 4d8:	0000                	unimp
 4da:	0000                	unimp
 4dc:	a30c                	fsd	fa1,0(a4)
 4de:	0005                	c.nop	1
 4e0:	e800                	fsw	fs0,16(s0)
 4e2:	1005                	c.nop	-31
 4e4:	0400                	addi	s0,sp,512
 4e6:	0000                	unimp
 4e8:	0100                	addi	s0,sp,128
 4ea:	2288                	fld	fa0,0(a3)
 4ec:	0500                	addi	s0,sp,640
 4ee:	0000                	unimp
 4f0:	e80d                	bnez	s0,522 <_min_stack-0x1ade>
 4f2:	1005                	c.nop	-31
 4f4:	0400                	addi	s0,sp,512
 4f6:	0000                	unimp
 4f8:	0e00                	addi	s0,sp,784
 4fa:	05b4                	addi	a3,sp,712
 4fc:	0000                	unimp
 4fe:	0000                	unimp
 500:	4f18                	lw	a4,24(a4)
 502:	0006                	c.slli	zero,0x1
 504:	ec00                	fsw	fs0,24(s0)
 506:	1005                	c.nop	-31
 508:	4000                	lw	s0,0(s0)
 50a:	0004                	0x4
 50c:	0100                	addi	s0,sp,128
 50e:	1b88                	addi	a0,sp,496
 510:	0574                	addi	a3,sp,652
 512:	0000                	unimp
 514:	5c09                	li	s8,-30
 516:	0006                	c.slli	zero,0x1
 518:	7900                	flw	fs0,48(a0)
 51a:	000c                	0xc
 51c:	0a00                	addi	s0,sp,272
 51e:	0440                	addi	s0,sp,516
 520:	0000                	unimp
 522:	0006660b          	0x6660b
 526:	f600                	fsw	fs0,40(a2)
 528:	000d                	c.nop	3
 52a:	1900                	addi	s0,sp,176
 52c:	0742                	slli	a4,a4,0x10
 52e:	0000                	unimp
 530:	0440                	addi	s0,sp,516
 532:	0000                	unimp
 534:	730e                	flw	ft6,224(sp)
 536:	0006                	c.slli	zero,0x1
 538:	1800                	addi	s0,sp,48
 53a:	000006af          	0x6af
 53e:	05f8                	addi	a4,sp,716
 540:	0010                	0x10
 542:	0458                	addi	a4,sp,516
 544:	0000                	unimp
 546:	1f01                	addi	t5,t5,-32
 548:	00055707          	0x55707
 54c:	0900                	addi	s0,sp,144
 54e:	06c0                	addi	s0,sp,836
 550:	0000                	unimp
 552:	00000ff3          	0xff3
 556:	0800                	addi	s0,sp,16
 558:	000006af          	0x6af
 55c:	06b4                	addi	a3,sp,840
 55e:	0010                	0x10
 560:	04e0                	addi	s0,sp,588
 562:	0000                	unimp
 564:	1d01                	addi	s10,s10,-32
 566:	06c00907          	0x6c00907
 56a:	0000                	unimp
 56c:	000010bb          	0x10bb
 570:	0000                	unimp
 572:	0000                	unimp
 574:	af0c                	fsd	fa1,24(a4)
 576:	0006                	c.slli	zero,0x1
 578:	c000                	sw	s0,0(s0)
 57a:	1006                	c.slli	zero,0x21
 57c:	0c00                	addi	s0,sp,528
 57e:	0000                	unimp
 580:	0100                	addi	s0,sp,128
 582:	0389                	addi	t2,t2,2
 584:	0592                	slli	a1,a1,0x4
 586:	0000                	unimp
 588:	c009                	beqz	s0,58a <_min_stack-0x1a76>
 58a:	0006                	c.slli	zero,0x1
 58c:	8300                	0x8300
 58e:	0011                	c.nop	4
 590:	0000                	unimp
 592:	461a                	lw	a2,132(sp)
 594:	0006                	c.slli	zero,0x1
 596:	cc00                	sw	s0,24(s0)
 598:	1006                	c.slli	zero,0x21
 59a:	0800                	addi	s0,sp,16
 59c:	0000                	unimp
 59e:	0100                	addi	s0,sp,128
 5a0:	038a                	slli	t2,t2,0x2
 5a2:	1b00                	addi	s0,sp,432
 5a4:	02ac                	addi	a1,sp,328
 5a6:	0000                	unimp
 5a8:	7d01                	lui	s10,0xfffe0
 5aa:	2c0e                	fld	fs8,192(sp)
 5ac:	0000                	unimp
 5ae:	0100                	addi	s0,sp,128
 5b0:	05c1                	addi	a1,a1,16
 5b2:	0000                	unimp
 5b4:	00020f13          	mv	t5,tp
 5b8:	0100                	addi	s0,sp,128
 5ba:	0c7e                	slli	s8,s8,0x1f
 5bc:	005d                	c.nop	23
 5be:	0000                	unimp
 5c0:	1b00                	addi	s0,sp,432
 5c2:	0000                	unimp
 5c4:	0000                	unimp
 5c6:	7701                	lui	a4,0xfffe0
 5c8:	2c0e                	fld	fs8,192(sp)
 5ca:	0000                	unimp
 5cc:	0100                	addi	s0,sp,128
 5ce:	05df 0000 0f13      	0xf13000005df
 5d4:	0002                	c.slli64	zero
 5d6:	0100                	addi	s0,sp,128
 5d8:	0c78                	addi	a4,sp,540
 5da:	005d                	c.nop	23
 5dc:	0000                	unimp
 5de:	1b00                	addi	s0,sp,432
 5e0:	000002a3          	sb	zero,5(zero) # 5 <_min_stack-0x1ffb>
 5e4:	7101                	addi	sp,sp,-512
 5e6:	2c0e                	fld	fs8,192(sp)
 5e8:	0000                	unimp
 5ea:	0100                	addi	s0,sp,128
 5ec:	05fd                	addi	a1,a1,31
 5ee:	0000                	unimp
 5f0:	00020f13          	mv	t5,tp
 5f4:	0100                	addi	s0,sp,128
 5f6:	0c72                	slli	s8,s8,0x1c
 5f8:	005d                	c.nop	23
 5fa:	0000                	unimp
 5fc:	0700                	addi	s0,sp,896
 5fe:	001e                	c.slli	zero,0x7
 600:	0000                	unimp
 602:	6901                	0x6901
 604:	7006                	flw	ft0,96(sp)
 606:	10001003          	lh	zero,256(zero) # 100 <_min_stack-0x1f00>
 60a:	0000                	unimp
 60c:	0100                	addi	s0,sp,128
 60e:	349c                	fld	fa5,40(s1)
 610:	0006                	c.slli	zero,0x1
 612:	1500                	addi	s0,sp,672
 614:	02de                	slli	t0,t0,0x17
 616:	0000                	unimp
 618:	6901                	0x6901
 61a:	8118                	0x8118
 61c:	0000                	unimp
 61e:	9700                	0x9700
 620:	0011                	c.nop	4
 622:	1c00                	addi	s0,sp,560
 624:	011d                	addi	sp,sp,7
 626:	0000                	unimp
 628:	6b01                	0x6b01
 62a:	2c10                	fld	fa2,24(s0)
 62c:	0000                	unimp
 62e:	b800                	fsd	fs0,48(s0)
 630:	0011                	c.nop	4
 632:	0000                	unimp
 634:	cb1d                	beqz	a4,66a <_min_stack-0x1996>
 636:	0002                	c.slli64	zero
 638:	0100                	addi	s0,sp,128
 63a:	02740627          	0x2740627
 63e:	0010                	0x10
 640:	00fc                	addi	a5,sp,76
 642:	0000                	unimp
 644:	9c01                	0x9c01
 646:	141e                	slli	s0,s0,0x27
 648:	0001                	nop
 64a:	0100                	addi	s0,sp,128
 64c:	0625                	addi	a2,a2,9
 64e:	1001                	c.nop	-32
 650:	02e5                	addi	t0,t0,25
 652:	0000                	unimp
 654:	1501                	addi	a0,a0,-32
 656:	0106                	slli	sp,sp,0x1
 658:	067f                	0x67f
 65a:	0000                	unimp
 65c:	681f 0100 1615      	0x16150100681f
 662:	005d                	c.nop	23
 664:	0000                	unimp
 666:	00028b13          	mv	s6,t0
 66a:	0100                	addi	s0,sp,128
 66c:	0716                	slli	a4,a4,0x5
 66e:	0081                	addi	ra,ra,0
 670:	0000                	unimp
 672:	2120                	fld	fs0,64(a0)
 674:	0069                	c.nop	26
 676:	1901                	addi	s2,s2,-32
 678:	810c                	0x810c
 67a:	0000                	unimp
 67c:	0000                	unimp
 67e:	1200                	addi	s0,sp,288
 680:	029e                	slli	t0,t0,0x7
 682:	0000                	unimp
 684:	0d01                	addi	s10,s10,0
 686:	8105                	srli	a0,a0,0x1
 688:	0000                	unimp
 68a:	0100                	addi	s0,sp,128
 68c:	069d                	addi	a3,a3,7
 68e:	0000                	unimp
 690:	731f 7274 0100      	0x1007274731f
 696:	160d                	addi	a2,a2,-29
 698:	069d                	addi	a3,a3,7
 69a:	0000                	unimp
 69c:	2200                	fld	fs0,0(a2)
 69e:	aa04                	fsd	fs1,16(a2)
 6a0:	0006                	c.slli	zero,0x1
 6a2:	0200                	addi	s0,sp,256
 6a4:	0801                	addi	a6,a6,0
 6a6:	0132                	slli	sp,sp,0xc
 6a8:	0000                	unimp
 6aa:	0006a323          	sw	zero,6(a3)
 6ae:	1200                	addi	s0,sp,288
 6b0:	014a                	slli	sp,sp,0x12
 6b2:	0000                	unimp
 6b4:	0701                	addi	a4,a4,0
 6b6:	8105                	srli	a0,a0,0x1
 6b8:	0000                	unimp
 6ba:	0100                	addi	s0,sp,128
 6bc:	000006cb          	fnmsub.s	fa3,ft0,ft0,ft0,rne
 6c0:	631f 0100 1107      	0x11070100631f
 6c6:	0081                	addi	ra,ra,0
 6c8:	0000                	unimp
 6ca:	2400                	fld	fs0,8(s0)
 6cc:	000006af          	0x6af
 6d0:	0084                	addi	s1,sp,64
 6d2:	0010                	0x10
 6d4:	0010                	0x10
 6d6:	0000                	unimp
 6d8:	9c01                	0x9c01
 6da:	06e6                	slli	a3,a3,0x19
 6dc:	0000                	unimp
 6de:	c025                	beqz	s0,73e <_min_stack-0x18c2>
 6e0:	0006                	c.slli	zero,0x1
 6e2:	0100                	addi	s0,sp,128
 6e4:	005a                	c.slli	zero,0x16
 6e6:	7f24                	flw	fs1,120(a4)
 6e8:	0006                	c.slli	zero,0x1
 6ea:	9400                	0x9400
 6ec:	1000                	addi	s0,sp,32
 6ee:	2400                	fld	fs0,8(s0)
 6f0:	0000                	unimp
 6f2:	0100                	addi	s0,sp,128
 6f4:	1d9c                	addi	a5,sp,752
 6f6:	09000007          	0x9000007
 6fa:	0690                	addi	a2,sp,832
 6fc:	0000                	unimp
 6fe:	000011e7          	0x11e7
 702:	af08                	fsd	fa0,24(a4)
 704:	0006                	c.slli	zero,0x1
 706:	9c00                	0x9c00
 708:	1000                	addi	s0,sp,32
 70a:	0000                	unimp
 70c:	0000                	unimp
 70e:	0100                	addi	s0,sp,128
 710:	c009050f          	0xc009050f
 714:	0006                	c.slli	zero,0x1
 716:	0500                	addi	s0,sp,640
 718:	0012                	c.slli	zero,0x4
 71a:	0000                	unimp
 71c:	2400                	fld	fs0,8(s0)
 71e:	0000064f          	fnmadd.s	fa2,ft0,ft0,ft0,rne
 722:	00b8                	addi	a4,sp,72
 724:	0010                	0x10
 726:	01ac                	addi	a1,sp,200
 728:	0000                	unimp
 72a:	9c01                	0x9c01
 72c:	078a                	slli	a5,a5,0x2
 72e:	0000                	unimp
 730:	5c09                	li	s8,-30
 732:	0006                	c.slli	zero,0x1
 734:	1d00                	addi	s0,sp,688
 736:	0012                	c.slli	zero,0x4
 738:	0b00                	addi	s0,sp,400
 73a:	0666                	slli	a2,a2,0x19
 73c:	0000                	unimp
 73e:	1471                	addi	s0,s0,-4
 740:	0000                	unimp
 742:	b80d                	j	ffffff74 <_stack_start+0xffdfff74>
 744:	1000                	addi	s0,sp,32
 746:	a800                	fsd	fs0,16(s0)
 748:	0001                	nop
 74a:	0e00                	addi	s0,sp,784
 74c:	00000673          	0x673
 750:	af18                	fsd	fa4,24(a4)
 752:	0006                	c.slli	zero,0x1
 754:	c400                	sw	s0,8(s0)
 756:	1000                	addi	s0,sp,32
 758:	1800                	addi	s0,sp,48
 75a:	0000                	unimp
 75c:	0100                	addi	s0,sp,128
 75e:	071f 076e 0000      	0x76e071f
 764:	c009                	beqz	s0,766 <_min_stack-0x189a>
 766:	0006                	c.slli	zero,0x1
 768:	c500                	sw	s0,8(a0)
 76a:	0016                	c.slli	zero,0x5
 76c:	0000                	unimp
 76e:	af08                	fsd	fa0,24(a4)
 770:	0006                	c.slli	zero,0x1
 772:	8400                	0x8400
 774:	1001                	c.nop	-32
 776:	a000                	fsd	fs0,0(s0)
 778:	0000                	unimp
 77a:	0100                	addi	s0,sp,128
 77c:	071d                	addi	a4,a4,7
 77e:	c009                	beqz	s0,780 <_min_stack-0x1880>
 780:	0006                	c.slli	zero,0x1
 782:	2f00                	fld	fs0,24(a4)
 784:	0018                	0x18
 786:	0000                	unimp
 788:	0000                	unimp
 78a:	4626                	lw	a2,72(sp)
 78c:	0006                	c.slli	zero,0x1
 78e:	6400                	flw	fs0,8(s0)
 790:	1002                	c.slli	zero,0x20
 792:	1000                	addi	s0,sp,32
 794:	0000                	unimp
 796:	0100                	addi	s0,sp,128
 798:	249c                	fld	fa5,8(s1)
 79a:	05df 0000 0380      	0x380000005df
 7a0:	0010                	0x10
 7a2:	0008                	0x8
 7a4:	0000                	unimp
 7a6:	9c01                	0x9c01
 7a8:	07b4                	addi	a3,sp,968
 7aa:	0000                	unimp
 7ac:	0005f027          	0x5f027
 7b0:	0100                	addi	s0,sp,128
 7b2:	005a                	c.slli	zero,0x16
 7b4:	c124                	sw	s1,64(a0)
 7b6:	0005                	c.nop	1
 7b8:	8800                	0x8800
 7ba:	08001003          	lh	zero,128(zero) # 80 <_min_stack-0x1f80>
 7be:	0000                	unimp
 7c0:	0100                	addi	s0,sp,128
 7c2:	cf9c                	sw	a5,24(a5)
 7c4:	27000007          	0x27000007
 7c8:	05d2                	slli	a1,a1,0x14
 7ca:	0000                	unimp
 7cc:	5a01                	li	s4,-32
 7ce:	2400                	fld	fs0,8(s0)
 7d0:	000005a3          	sb	zero,11(zero) # b <_min_stack-0x1ff5>
 7d4:	0390                	addi	a2,sp,448
 7d6:	0010                	0x10
 7d8:	0008                	0x8
 7da:	0000                	unimp
 7dc:	9c01                	0x9c01
 7de:	07ea                	slli	a5,a5,0x1a
 7e0:	0000                	unimp
 7e2:	0005b427          	fsd	ft0,8(a1)
 7e6:	0100                	addi	s0,sp,128
 7e8:	005a                	c.slli	zero,0x16
 7ea:	6c24                	flw	fs1,88(s0)
 7ec:	0001                	nop
 7ee:	c800                	sw	s0,16(s0)
 7f0:	1008                	addi	a0,sp,32
 7f2:	1800                	addi	s0,sp,48
 7f4:	0000                	unimp
 7f6:	0100                	addi	s0,sp,128
 7f8:	119c                	addi	a5,sp,224
 7fa:	0008                	0x8
 7fc:	2700                	fld	fs0,8(a4)
 7fe:	017d                	addi	sp,sp,31
 800:	0000                	unimp
 802:	5e01                	li	t3,-32
 804:	00018927          	0x18927
 808:	0100                	addi	s0,sp,128
 80a:	0e5a                	slli	t3,t3,0x16
 80c:	0195                	addi	gp,gp,5
 80e:	0000                	unimp
 810:	2800                	fld	fs0,16(s0)
 812:	0152                	slli	sp,sp,0x14
 814:	0000                	unimp
 816:	08e0                	addi	s0,sp,92
 818:	0010                	0x10
 81a:	0018                	0x18
 81c:	0000                	unimp
 81e:	9c01                	0x9c01
 820:	5f25                	li	t5,-23
 822:	0001                	nop
 824:	0600                	addi	s0,sp,768
 826:	935a                	add	t1,t1,s6
 828:	5b04                	lw	s1,48(a4)
 82a:	00000493          	li	s1,0
 82e:	00000137          	lui	sp,0x0
 832:	0004                	0x4
 834:	0264                	addi	s1,sp,268
 836:	0000                	unimp
 838:	0104                	addi	s1,sp,128
 83a:	009d                	addi	ra,ra,7
 83c:	0000                	unimp
 83e:	060c                	addi	a1,sp,768
 840:	39000003          	lb	zero,912(zero) # 390 <_min_stack-0x1c70>
 844:	0000                	unimp
 846:	b000                	fsd	fs0,32(s0)
 848:	0005                	c.nop	1
 84a:	0000                	unimp
 84c:	0000                	unimp
 84e:	5200                	lw	s0,32(a2)
 850:	0019                	c.nop	6
 852:	0200                	addi	s0,sp,256
 854:	0042                	c.slli	zero,0x10
 856:	0000                	unimp
 858:	0036                	c.slli	zero,0xd
 85a:	0000                	unimp
 85c:	00003603          	0x3603
 860:	ff00                	fsw	fs0,56(a4)
 862:	0404000f          	0x404000f
 866:	00020207          	0x20207
 86a:	0500                	addi	s0,sp,640
 86c:	0036                	c.slli	zero,0xd
 86e:	0000                	unimp
 870:	0104                	addi	s1,sp,128
 872:	3208                	fld	fa0,32(a2)
 874:	0001                	nop
 876:	0600                	addi	s0,sp,768
 878:	02ec                	addi	a1,sp,332
 87a:	0000                	unimp
 87c:	0301                	addi	t1,t1,0
 87e:	2506                	fld	fa0,64(sp)
 880:	0000                	unimp
 882:	0500                	addi	s0,sp,640
 884:	100bf003          	0x100bf003
 888:	0200                	addi	s0,sp,256
 88a:	0042                	c.slli	zero,0x10
 88c:	0000                	unimp
 88e:	0000006b          	0x6b
 892:	00003607          	fld	fa2,0(zero) # 0 <_min_stack-0x2000>
 896:	0900                	addi	s0,sp,144
 898:	0600                	addi	s0,sp,768
 89a:	02ee                	slli	t0,t0,0x1b
 89c:	0000                	unimp
 89e:	0401                	addi	s0,s0,0
 8a0:	5b06                	lw	s6,96(sp)
 8a2:	0000                	unimp
 8a4:	0500                	addi	s0,sp,640
 8a6:	100bcc03          	lbu	s8,256(s7)
 8aa:	0600                	addi	s0,sp,768
 8ac:	0319                	addi	t1,t1,6
 8ae:	0000                	unimp
 8b0:	0601                	addi	a2,a2,0
 8b2:	0000960b          	0x960b
 8b6:	0500                	addi	s0,sp,640
 8b8:	100bc803          	lbu	a6,256(s7)
 8bc:	0800                	addi	s0,sp,16
 8be:	0504                	addi	s1,sp,640
 8c0:	6e69                	lui	t3,0x1a
 8c2:	0074                	addi	a3,sp,12
 8c4:	8f09                	sub	a4,a4,a0
 8c6:	0000                	unimp
 8c8:	0600                	addi	s0,sp,768
 8ca:	030d                	addi	t1,t1,3
 8cc:	0000                	unimp
 8ce:	0801                	addi	a6,a6,0
 8d0:	ad18                	fsd	fa4,24(a0)
 8d2:	0000                	unimp
 8d4:	0500                	addi	s0,sp,640
 8d6:	100bd803          	lhu	a6,256(s7)
 8da:	0a00                	addi	s0,sp,272
 8dc:	3d04                	fld	fs1,56(a0)
 8de:	0000                	unimp
 8e0:	0b00                	addi	s0,sp,400
 8e2:	0301                	addi	t1,t1,0
 8e4:	0000                	unimp
 8e6:	0a01                	addi	s4,s4,0
 8e8:	8f05                	sub	a4,a4,s1
 8ea:	0000                	unimp
 8ec:	9800                	0x9800
 8ee:	100a                	c.slli	zero,0x22
 8f0:	e000                	fsw	fs0,0(s0)
 8f2:	0000                	unimp
 8f4:	0100                	addi	s0,sp,128
 8f6:	2e9c                	fld	fa5,24(a3)
 8f8:	0001                	nop
 8fa:	0c00                	addi	s0,sp,528
 8fc:	0061                	c.nop	24
 8fe:	0b01                	addi	s6,s6,0
 900:	00008f07          	0x8f07
 904:	af00                	fsd	fs0,24(a4)
 906:	b6fd                	j	4f4 <_min_stack-0x1b0c>
 908:	7df5                	lui	s11,0xffffd
 90a:	620c                	flw	fa1,0(a2)
 90c:	0100                	addi	s0,sp,128
 90e:	070c                	addi	a1,sp,896
 910:	0000008f          	0x8f
 914:	bed8                	fsd	fa4,184(a3)
 916:	0d7efadb          	0xd7efadb
 91a:	01007067          	0x1007067
 91e:	190d                	addi	s2,s2,-29
 920:	0036                	c.slli	zero,0xd
 922:	0000                	unimp
 924:	5301                	li	t1,-32
 926:	630e                	flw	ft6,192(sp)
 928:	0100                	addi	s0,sp,128
 92a:	008f070f          	0x8f070f
 92e:	0000                	unimp
 930:	0100690f          	0x100690f
 934:	0711                	addi	a4,a4,4
 936:	0000008f          	0x8f
 93a:	1999                	addi	s3,s3,-26
 93c:	0000                	unimp
 93e:	b410                	fsd	fa2,40(s0)
 940:	100a                	c.slli	zero,0x22
 942:	2e00                	fld	fs0,24(a2)
 944:	0001                	nop
 946:	1100                	addi	s0,sp,160
 948:	5a01                	li	s4,-32
 94a:	1106                	slli	sp,sp,0x21
 94c:	f5b6fdaf          	0xf5b6fdaf
 950:	117d                	addi	sp,sp,-1
 952:	5b01                	li	s6,-32
 954:	0c05                	addi	s8,s8,1
 956:	55aa                	lw	a1,168(sp)
 958:	55aa                	lw	a1,168(sp)
 95a:	0000                	unimp
 95c:	1f12                	slli	t5,t5,0x24
 95e:	1f000003          	lb	zero,496(zero) # 1f0 <_min_stack-0x1e10>
 962:	02000003          	lb	zero,32(zero) # 20 <_min_stack-0x1fe0>
 966:	0504                	addi	s1,sp,640
 968:	5e00                	lw	s0,56(a2)
 96a:	0000                	unimp
 96c:	0400                	addi	s0,sp,512
 96e:	5b00                	lw	s0,48(a4)
 970:	04000003          	lb	zero,64(zero) # 40 <_min_stack-0x1fc0>
 974:	9d01                	0x9d01
 976:	0000                	unimp
 978:	0c00                	addi	s0,sp,528
 97a:	0329                	addi	t1,t1,10
 97c:	0000                	unimp
 97e:	0039                	c.nop	14
 980:	0000                	unimp
 982:	09c0                	addi	s0,sp,212
 984:	0010                	0x10
 986:	0008                	0x8
 988:	0000                	unimp
 98a:	1c1a                	slli	s8,s8,0x26
 98c:	0000                	unimp
 98e:	1f02                	slli	t5,t5,0x20
 990:	01000003          	lb	zero,16(zero) # 10 <_min_stack-0x1ff0>
 994:	0502                	c.slli64	a0
 996:	005a                	c.slli	zero,0x16
 998:	0000                	unimp
 99a:	09c0                	addi	s0,sp,212
 99c:	0010                	0x10
 99e:	0008                	0x8
 9a0:	0000                	unimp
 9a2:	9c01                	0x9c01
 9a4:	005a                	c.slli	zero,0x16
 9a6:	0000                	unimp
 9a8:	01006103          	0x1006103
 9ac:	1302                	slli	t1,t1,0x20
 9ae:	005a                	c.slli	zero,0x16
 9b0:	0000                	unimp
 9b2:	1a25                	addi	s4,s4,-23
 9b4:	0000                	unimp
 9b6:	6204                	flw	fs1,0(a2)
 9b8:	0100                	addi	s0,sp,128
 9ba:	1a02                	slli	s4,s4,0x20
 9bc:	005a                	c.slli	zero,0x16
 9be:	0000                	unimp
 9c0:	5b01                	li	s6,-32
 9c2:	0500                	addi	s0,sp,640
 9c4:	0504                	addi	s1,sp,640
 9c6:	6e69                	lui	t3,0x1a
 9c8:	0074                	addi	a3,sp,12
 9ca:	1e00                	addi	s0,sp,816
 9cc:	0000                	unimp
 9ce:	0200                	addi	s0,sp,256
 9d0:	ba00                	fsd	fs0,48(a2)
 9d2:	04000003          	lb	zero,64(zero) # 40 <_min_stack-0x1fc0>
 9d6:	6201                	0x6201
 9d8:	001c                	0x1c
 9da:	c000                	sw	s0,0(s0)
 9dc:	0005                	c.nop	1
 9de:	3000                	fld	fs0,32(s0)
 9e0:	39000003          	lb	zero,912(zero) # 390 <_min_stack-0x1c70>
 9e4:	0000                	unimp
 9e6:	9000                	0x9000
 9e8:	01000003          	lb	zero,16(zero) # 10 <_min_stack-0x1ff0>
 9ec:	80              	Adresse 0x00000000000009ec hors limites.


Déassemblage de la section .debug_abbrev :

00000000 <.debug_abbrev>:
   0:	1101                	addi	sp,sp,-32
   2:	2501                	jal	602 <_min_stack-0x19fe>
   4:	130e                	slli	t1,t1,0x23
   6:	1b0e030b          	0x1b0e030b
   a:	110e                	slli	sp,sp,0x23
   c:	1201                	addi	tp,tp,-32
   e:	1006                	c.slli	zero,0x21
  10:	02000017          	auipc	zero,0x2000
  14:	0024                	addi	s1,sp,8
  16:	0b3e0b0b          	0xb3e0b0b
  1a:	00000e03          	lb	t3,0(zero) # 0 <_min_stack-0x2000>
  1e:	03001603          	lh	a2,48(zero) # 30 <_min_stack-0x1fd0>
  22:	3a0e                	fld	fs4,224(sp)
  24:	390b3b0b          	0x390b3b0b
  28:	0013490b          	0x13490b
  2c:	0400                	addi	s0,sp,512
  2e:	0035                	c.nop	13
  30:	1349                	addi	t1,t1,-14
  32:	0000                	unimp
  34:	2405                	jal	254 <_min_stack-0x1dac>
  36:	0b00                	addi	s0,sp,400
  38:	030b3e0b          	0x30b3e0b
  3c:	0008                	0x8
  3e:	0600                	addi	s0,sp,768
  40:	0034                	addi	a3,sp,8
  42:	0b3a0e03          	lb	t3,179(s4)
  46:	0b390b3b          	0xb390b3b
  4a:	1349                	addi	t1,t1,-14
  4c:	1802193f 2e070000 	0x2e0700001802193f
  54:	3f01                	jal	ffffff64 <_stack_start+0xffdfff64>
  56:	0319                	addi	t1,t1,6
  58:	3a0e                	fld	fs4,224(sp)
  5a:	390b3b0b          	0x390b3b0b
  5e:	1119270b          	0x1119270b
  62:	1201                	addi	tp,tp,-32
  64:	4006                	0x4006
  66:	9718                	0x9718
  68:	1942                	slli	s2,s2,0x30
  6a:	1301                	addi	t1,t1,-32
  6c:	0000                	unimp
  6e:	1d08                	addi	a0,sp,688
  70:	3101                	jal	fffffc70 <_stack_start+0xffdffc70>
  72:	55015213          	0x55015213
  76:	590b5817          	auipc	a6,0x590b5
  7a:	000b570b          	0xb570b
  7e:	0900                	addi	s0,sp,144
  80:	0005                	c.nop	1
  82:	1331                	addi	t1,t1,-20
  84:	1702                	slli	a4,a4,0x20
  86:	0000                	unimp
  88:	0b0a                	slli	s6,s6,0x2
  8a:	5501                	li	a0,-32
  8c:	0b000017          	auipc	zero,0xb000
  90:	0034                	addi	a3,sp,8
  92:	1331                	addi	t1,t1,-20
  94:	1702                	slli	a4,a4,0x20
  96:	0000                	unimp
  98:	1d0c                	addi	a1,sp,688
  9a:	3101                	jal	fffffc9a <_stack_start+0xffdffc9a>
  9c:	12011113          	0x12011113
  a0:	5806                	lw	a6,96(sp)
  a2:	570b590b          	0x570b590b
  a6:	0013010b          	0x13010b
  aa:	0d00                	addi	s0,sp,656
  ac:	0111010b          	0x111010b
  b0:	0612                	slli	a2,a2,0x4
  b2:	0000                	unimp
  b4:	340e                	fld	fs0,224(sp)
  b6:	3100                	fld	fs0,32(a0)
  b8:	0f000013          	li	zero,240
  bc:	002e                	c.slli	zero,0xb
  be:	0e03193f 0b3b0b3a 	0xb3b0b3a0e03193f
  c6:	0b39                	addi	s6,s6,14
  c8:	13491927          	0x13491927
  cc:	0111                	addi	sp,sp,4
  ce:	0612                	slli	a2,a2,0x4
  d0:	1840                	addi	s0,sp,52
  d2:	00194297          	auipc	t0,0x194
  d6:	1000                	addi	s0,sp,32
  d8:	012e                	slli	sp,sp,0xb
  da:	0e03193f 0b3b0b3a 	0xb3b0b3a0e03193f
  e2:	0b39                	addi	s6,s6,14
  e4:	0b201927          	0xb201927
  e8:	1301                	addi	t1,t1,-32
  ea:	0000                	unimp
  ec:	0511                	addi	a0,a0,4
  ee:	0300                	addi	s0,sp,384
  f0:	3a0e                	fld	fs4,224(sp)
  f2:	390b3b0b          	0x390b3b0b
  f6:	0013490b          	0x13490b
  fa:	1200                	addi	s0,sp,288
  fc:	012e                	slli	sp,sp,0xb
  fe:	0e03193f 0b3b0b3a 	0xb3b0b3a0e03193f
 106:	0b39                	addi	s6,s6,14
 108:	13491927          	0x13491927
 10c:	0b20                	addi	s0,sp,408
 10e:	1301                	addi	t1,t1,-32
 110:	0000                	unimp
 112:	03003413          	sltiu	s0,zero,48
 116:	3a0e                	fld	fs4,224(sp)
 118:	390b3b0b          	0x390b3b0b
 11c:	0013490b          	0x13490b
 120:	1400                	addi	s0,sp,544
 122:	002e                	c.slli	zero,0xb
 124:	0e03193f 0b3b0b3a 	0xb3b0b3a0e03193f
 12c:	0b39                	addi	s6,s6,14
 12e:	01111927          	0x1111927
 132:	0612                	slli	a2,a2,0x4
 134:	1840                	addi	s0,sp,52
 136:	00194297          	auipc	t0,0x194
 13a:	1500                	addi	s0,sp,672
 13c:	0005                	c.nop	1
 13e:	0b3a0e03          	lb	t3,179(s4)
 142:	0b390b3b          	0xb390b3b
 146:	1349                	addi	t1,t1,-14
 148:	1702                	slli	a4,a4,0x20
 14a:	0000                	unimp
 14c:	1d16                	slli	s10,s10,0x25
 14e:	3101                	jal	fffffd4e <_stack_start+0xffdffd4e>
 150:	12011113          	0x12011113
 154:	5806                	lw	a6,96(sp)
 156:	570b590b          	0x570b590b
 15a:	1700000b          	0x1700000b
 15e:	012e                	slli	sp,sp,0xb
 160:	0b3a0e03          	lb	t3,179(s4)
 164:	0b390b3b          	0xb390b3b
 168:	0b201927          	0xb201927
 16c:	1301                	addi	t1,t1,-32
 16e:	0000                	unimp
 170:	1d18                	addi	a4,sp,688
 172:	3101                	jal	fffffd72 <_stack_start+0xffdffd72>
 174:	55015213          	0x55015213
 178:	590b5817          	auipc	a6,0x590b5
 17c:	010b570b          	0x10b570b
 180:	19000013          	li	zero,400
 184:	1331010b          	0x1331010b
 188:	1755                	addi	a4,a4,-11
 18a:	0000                	unimp
 18c:	1d1a                	slli	s10,s10,0x26
 18e:	3100                	fld	fs0,32(a0)
 190:	12011113          	0x12011113
 194:	5806                	lw	a6,96(sp)
 196:	570b590b          	0x570b590b
 19a:	1b00000b          	0x1b00000b
 19e:	012e                	slli	sp,sp,0xb
 1a0:	0e03193f 0b3b0b3a 	0xb3b0b3a0e03193f
 1a8:	0b39                	addi	s6,s6,14
 1aa:	1349                	addi	t1,t1,-14
 1ac:	0b20                	addi	s0,sp,408
 1ae:	1301                	addi	t1,t1,-32
 1b0:	0000                	unimp
 1b2:	341c                	fld	fa5,40(s0)
 1b4:	0300                	addi	s0,sp,384
 1b6:	3a0e                	fld	fs4,224(sp)
 1b8:	390b3b0b          	0x390b3b0b
 1bc:	0213490b          	0x213490b
 1c0:	1d000017          	auipc	zero,0x1d000
 1c4:	002e                	c.slli	zero,0xb
 1c6:	0e03193f 0b3b0b3a 	0xb3b0b3a0e03193f
 1ce:	0b39                	addi	s6,s6,14
 1d0:	0111                	addi	sp,sp,4
 1d2:	0612                	slli	a2,a2,0x4
 1d4:	1840                	addi	s0,sp,52
 1d6:	00194297          	auipc	t0,0x194
 1da:	1e00                	addi	s0,sp,816
 1dc:	002e                	c.slli	zero,0xb
 1de:	0e03193f 0b3b0b3a 	0xb3b0b3a0e03193f
 1e6:	0b39                	addi	s6,s6,14
 1e8:	0b20                	addi	s0,sp,408
 1ea:	0000                	unimp
 1ec:	051f 0300 3a08      	0x3a080300051f
 1f2:	390b3b0b          	0x390b3b0b
 1f6:	0013490b          	0x13490b
 1fa:	2000                	fld	fs0,0(s0)
 1fc:	0000010b          	0x10b
 200:	3421                	jal	fffffc08 <_stack_start+0xffdffc08>
 202:	0300                	addi	s0,sp,384
 204:	3a08                	fld	fa0,48(a2)
 206:	390b3b0b          	0x390b3b0b
 20a:	0013490b          	0x13490b
 20e:	2200                	fld	fs0,0(a2)
 210:	0b0b000f          	0xb0b000f
 214:	1349                	addi	t1,t1,-14
 216:	0000                	unimp
 218:	49002623          	sw	a6,1164(zero) # 48c <_min_stack-0x1b74>
 21c:	24000013          	li	zero,576
 220:	012e                	slli	sp,sp,0xb
 222:	1331                	addi	t1,t1,-20
 224:	0111                	addi	sp,sp,4
 226:	0612                	slli	a2,a2,0x4
 228:	1840                	addi	s0,sp,52
 22a:	01194297          	auipc	t0,0x1194
 22e:	25000013          	li	zero,592
 232:	0005                	c.nop	1
 234:	1331                	addi	t1,t1,-20
 236:	1802                	slli	a6,a6,0x20
 238:	0000                	unimp
 23a:	2e26                	fld	ft8,72(sp)
 23c:	3100                	fld	fs0,32(a0)
 23e:	12011113          	0x12011113
 242:	4006                	0x4006
 244:	9718                	0x9718
 246:	1942                	slli	s2,s2,0x30
 248:	0000                	unimp
 24a:	31003427          	fsd	fa6,776(zero) # 308 <_min_stack-0x1cf8>
 24e:	00180213          	addi	tp,a6,1 # 590b5179 <_stack_start+0x58eb5179>
 252:	2800                	fld	fs0,16(s0)
 254:	012e                	slli	sp,sp,0xb
 256:	1331                	addi	t1,t1,-20
 258:	0111                	addi	sp,sp,4
 25a:	0612                	slli	a2,a2,0x4
 25c:	1840                	addi	s0,sp,52
 25e:	00194297          	auipc	t0,0x194
 262:	0000                	unimp
 264:	1101                	addi	sp,sp,-32
 266:	2501                	jal	866 <_min_stack-0x179a>
 268:	130e                	slli	t1,t1,0x23
 26a:	1b0e030b          	0x1b0e030b
 26e:	550e                	lw	a0,224(sp)
 270:	10011117          	auipc	sp,0x10011
 274:	02000017          	auipc	zero,0x2000
 278:	0101                	addi	sp,sp,0
 27a:	1349                	addi	t1,t1,-14
 27c:	1301                	addi	t1,t1,-32
 27e:	0000                	unimp
 280:	49002103          	lw	sp,1168(zero) # 490 <_min_stack-0x1b70>
 284:	00052f13          	slti	t5,a0,0
 288:	0400                	addi	s0,sp,512
 28a:	0024                	addi	s1,sp,8
 28c:	0b3e0b0b          	0xb3e0b0b
 290:	00000e03          	lb	t3,0(zero) # 0 <_min_stack-0x2000>
 294:	3505                	jal	b4 <_min_stack-0x1f4c>
 296:	4900                	lw	s0,16(a0)
 298:	06000013          	li	zero,96
 29c:	0034                	addi	a3,sp,8
 29e:	0b3a0e03          	lb	t3,179(s4)
 2a2:	0b390b3b          	0xb390b3b
 2a6:	1349                	addi	t1,t1,-14
 2a8:	1802193f 21070000 	0x210700001802193f
 2b0:	4900                	lw	s0,16(a0)
 2b2:	000b2f13          	slti	t5,s6,0
 2b6:	0800                	addi	s0,sp,16
 2b8:	0024                	addi	s1,sp,8
 2ba:	0b3e0b0b          	0xb3e0b0b
 2be:	00000803          	lb	a6,0(zero) # 0 <_min_stack-0x2000>
 2c2:	2609                	jal	5c4 <_min_stack-0x1a3c>
 2c4:	4900                	lw	s0,16(a0)
 2c6:	0a000013          	li	zero,160
 2ca:	0b0b000f          	0xb0b000f
 2ce:	1349                	addi	t1,t1,-14
 2d0:	0000                	unimp
 2d2:	3f012e0b          	0x3f012e0b
 2d6:	0319                	addi	t1,t1,6
 2d8:	3a0e                	fld	fs4,224(sp)
 2da:	390b3b0b          	0x390b3b0b
 2de:	1113490b          	0x1113490b
 2e2:	1201                	addi	tp,tp,-32
 2e4:	4006                	0x4006
 2e6:	9718                	0x9718
 2e8:	1942                	slli	s2,s2,0x30
 2ea:	1301                	addi	t1,t1,-32
 2ec:	0000                	unimp
 2ee:	340c                	fld	fa1,40(s0)
 2f0:	0300                	addi	s0,sp,384
 2f2:	3a08                	fld	fa0,48(a2)
 2f4:	390b3b0b          	0x390b3b0b
 2f8:	1c13490b          	0x1c13490b
 2fc:	000d                	c.nop	3
 2fe:	0d00                	addi	s0,sp,656
 300:	0034                	addi	a3,sp,8
 302:	0b3a0803          	lb	a6,179(s4)
 306:	0b390b3b          	0xb390b3b
 30a:	1349                	addi	t1,t1,-14
 30c:	1802                	slli	a6,a6,0x20
 30e:	0000                	unimp
 310:	340e                	fld	fs0,224(sp)
 312:	0300                	addi	s0,sp,384
 314:	3a08                	fld	fa0,48(a2)
 316:	390b3b0b          	0x390b3b0b
 31a:	0013490b          	0x13490b
 31e:	0f00                	addi	s0,sp,912
 320:	0034                	addi	a3,sp,8
 322:	0b3a0803          	lb	a6,179(s4)
 326:	0b390b3b          	0xb390b3b
 32a:	1349                	addi	t1,t1,-14
 32c:	1702                	slli	a4,a4,0x20
 32e:	0000                	unimp
 330:	8910                	0x8910
 332:	0182                	c.slli64	gp
 334:	1101                	addi	sp,sp,-32
 336:	3101                	jal	ffffff36 <_stack_start+0xffdfff36>
 338:	11000013          	li	zero,272
 33c:	828a                	mv	t0,sp
 33e:	0001                	nop
 340:	1802                	slli	a6,a6,0x20
 342:	4291                	li	t0,4
 344:	0018                	0x18
 346:	1200                	addi	s0,sp,288
 348:	002e                	c.slli	zero,0xb
 34a:	193c193f 0e030e6e 	0xe030e6e193c193f
 352:	0b3a                	slli	s6,s6,0xe
 354:	0b390b3b          	0xb390b3b
 358:	0000                	unimp
 35a:	0100                	addi	s0,sp,128
 35c:	0111                	addi	sp,sp,4
 35e:	0e25                	addi	t3,t3,9
 360:	0e030b13          	addi	s6,t1,224
 364:	01110e1b          	0x1110e1b
 368:	0612                	slli	a2,a2,0x4
 36a:	1710                	addi	a2,sp,928
 36c:	0000                	unimp
 36e:	2e02                	fld	ft8,0(sp)
 370:	3f01                	jal	280 <_min_stack-0x1d80>
 372:	0319                	addi	t1,t1,6
 374:	3a0e                	fld	fs4,224(sp)
 376:	390b3b0b          	0x390b3b0b
 37a:	4919270b          	0x4919270b
 37e:	12011113          	0x12011113
 382:	4006                	0x4006
 384:	9718                	0x9718
 386:	1942                	slli	s2,s2,0x30
 388:	1301                	addi	t1,t1,-32
 38a:	0000                	unimp
 38c:	03000503          	lb	a0,48(zero) # 30 <_min_stack-0x1fd0>
 390:	3a08                	fld	fa0,48(a2)
 392:	390b3b0b          	0x390b3b0b
 396:	0213490b          	0x213490b
 39a:	04000017          	auipc	zero,0x4000
 39e:	0005                	c.nop	1
 3a0:	0b3a0803          	lb	a6,179(s4)
 3a4:	0b390b3b          	0xb390b3b
 3a8:	1349                	addi	t1,t1,-14
 3aa:	1802                	slli	a6,a6,0x20
 3ac:	0000                	unimp
 3ae:	2405                	jal	5ce <_min_stack-0x1a32>
 3b0:	0b00                	addi	s0,sp,400
 3b2:	030b3e0b          	0x30b3e0b
 3b6:	0008                	0x8
 3b8:	0000                	unimp
 3ba:	1101                	addi	sp,sp,-32
 3bc:	1000                	addi	s0,sp,32
 3be:	5506                	lw	a0,96(sp)
 3c0:	0306                	slli	t1,t1,0x1
 3c2:	1b0e                	slli	s6,s6,0x23
 3c4:	250e                	fld	fa0,192(sp)
 3c6:	130e                	slli	t1,t1,0x23
 3c8:	0005                	c.nop	1
	...

Déassemblage de la section .debug_loc :

00000000 <.debug_loc>:
       0:	08a8                	addi	a0,sp,88
       2:	0000                	unimp
       4:	08e0                	addi	s0,sp,92
       6:	0000                	unimp
       8:	0006                	c.slli	zero,0x1
       a:	5a04935b          	0x5a04935b
       e:	08e00493          	li	s1,142
      12:	0000                	unimp
      14:	08e4                	addi	s1,sp,92
      16:	0000                	unimp
      18:	000a                	c.slli	zero,0x2
      1a:	100be803          	0x100be803
      1e:	9300                	0x9300
      20:	5a04                	lw	s1,48(a2)
      22:	00000493          	li	s1,0
      26:	0000                	unimp
      28:	0000                	unimp
      2a:	0000                	unimp
      2c:	08d0                	addi	a2,sp,84
      2e:	0000                	unimp
      30:	08d8                	addi	a4,sp,84
      32:	0000                	unimp
      34:	007e0013          	addi	zero,t3,7 # 1a007 <_stack_len+0x12007>
      38:	25f72cf7          	0x25f72cf7
      3c:	2008                	fld	fa0,0(s0)
      3e:	7c2425f7          	0x7c2425f7
      42:	f700                	fsw	fs0,40(a4)
      44:	f72c                	fsw	fa1,104(a4)
      46:	2125                	jal	46e <_min_stack-0x1b92>
      48:	e89f 0008 f000      	0xf0000008e89f
      4e:	0008                	0x8
      50:	0600                	addi	s0,sp,768
      52:	5d00                	lw	s0,56(a0)
      54:	935e0493          	addi	s1,t3,-1739
      58:	0004                	0x4
      5a:	0000                	unimp
      5c:	0000                	unimp
      5e:	0000                	unimp
      60:	c400                	sw	s0,8(s0)
      62:	0008                	0x8
      64:	d000                	sw	s0,32(s0)
      66:	0008                	0x8
      68:	0100                	addi	s0,sp,128
      6a:	5e00                	lw	s0,56(a2)
	...
      74:	08c8                	addi	a0,sp,84
      76:	0000                	unimp
      78:	08d0                	addi	a2,sp,84
      7a:	0000                	unimp
      7c:	0001                	nop
      7e:	005c                	addi	a5,sp,4
      80:	0000                	unimp
      82:	0000                	unimp
      84:	0000                	unimp
      86:	e800                	fsw	fs0,16(s0)
      88:	0008                	0x8
      8a:	f000                	fsw	fs0,32(s0)
      8c:	0008                	0x8
      8e:	0600                	addi	s0,sp,768
      90:	5d00                	lw	s0,56(a0)
      92:	935e0493          	addi	s1,t3,-1739
      96:	0004                	0x4
      98:	0000                	unimp
      9a:	0000                	unimp
      9c:	0000                	unimp
      9e:	c800                	sw	s0,16(s0)
      a0:	08000007          	0x8000007
      a4:	0008                	0x8
      a6:	0600                	addi	s0,sp,768
      a8:	5a00                	lw	s0,48(a2)
      aa:	935b0493          	addi	s1,s6,-1739
      ae:	0804                	addi	s1,sp,16
      b0:	0008                	0x8
      b2:	3800                	fld	fs0,48(s0)
      b4:	0008                	0x8
      b6:	0600                	addi	s0,sp,768
      b8:	f300                	fsw	fs0,32(a4)
      ba:	250af503          	0x250af503
      be:	009f 0000 0000      	0x9f
      c4:	0000                	unimp
      c6:	f000                	fsw	fs0,32(s0)
      c8:	08000007          	0x8000007
      cc:	0008                	0x8
      ce:	0600                	addi	s0,sp,768
      d0:	5a00                	lw	s0,48(a2)
      d2:	935b0493          	addi	s1,s6,-1739
      d6:	0804                	addi	s1,sp,16
      d8:	0008                	0x8
      da:	1800                	addi	s0,sp,48
      dc:	0008                	0x8
      de:	0a00                	addi	s0,sp,272
      e0:	0300                	addi	s0,sp,384
      e2:	0be8                	addi	a0,sp,476
      e4:	0010                	0x10
      e6:	935b0493          	addi	s1,s6,-1739
      ea:	0004                	0x4
      ec:	0000                	unimp
      ee:	0000                	unimp
      f0:	0000                	unimp
      f2:	0400                	addi	s0,sp,512
      f4:	0008                	0x8
      f6:	0c00                	addi	s0,sp,528
      f8:	0008                	0x8
      fa:	1300                	addi	s0,sp,416
      fc:	7e00                	flw	fs0,56(a2)
      fe:	f700                	fsw	fs0,40(a4)
     100:	f72c                	fsw	fa1,104(a4)
     102:	0825                	addi	a6,a6,9
     104:	f720                	fsw	fs0,104(a4)
     106:	2425                	jal	32e <_min_stack-0x1cd2>
     108:	007c                	addi	a5,sp,12
     10a:	25f72cf7          	0x25f72cf7
     10e:	9f21                	0x9f21
     110:	081c                	addi	a5,sp,16
     112:	0000                	unimp
     114:	0824                	addi	s1,sp,24
     116:	0000                	unimp
     118:	0006                	c.slli	zero,0x1
     11a:	935a                	add	t1,t1,s6
     11c:	5e04                	lw	s1,56(a2)
     11e:	00000493          	li	s1,0
     122:	0000                	unimp
     124:	0000                	unimp
     126:	0000                	unimp
     128:	07f8                	addi	a4,sp,972
     12a:	0000                	unimp
     12c:	0804                	addi	s1,sp,16
     12e:	0000                	unimp
     130:	0001                	nop
     132:	005e                	c.slli	zero,0x17
     134:	0000                	unimp
     136:	0000                	unimp
     138:	0000                	unimp
     13a:	fc00                	fsw	fs0,56(s0)
     13c:	04000007          	0x4000007
     140:	0008                	0x8
     142:	0100                	addi	s0,sp,128
     144:	5c00                	lw	s0,56(s0)
	...
     14e:	081c                	addi	a5,sp,16
     150:	0000                	unimp
     152:	0824                	addi	s1,sp,24
     154:	0000                	unimp
     156:	0006                	c.slli	zero,0x1
     158:	935a                	add	t1,t1,s6
     15a:	5e04                	lw	s1,56(a2)
     15c:	00000493          	li	s1,0
     160:	0000                	unimp
     162:	0000                	unimp
     164:	0000                	unimp
     166:	0314                	addi	a3,sp,384
     168:	0000                	unimp
     16a:	0324                	addi	s1,sp,392
     16c:	0000                	unimp
     16e:	0006                	c.slli	zero,0x1
     170:	100b7803          	0x100b7803
     174:	9f00                	0x9f00
     176:	0324                	addi	s1,sp,392
     178:	0000                	unimp
     17a:	0340                	addi	s0,sp,388
     17c:	0000                	unimp
     17e:	0001                	nop
     180:	005f 0000 0000      	0x5f
     186:	0000                	unimp
     188:	2800                	fld	fs0,16(s0)
     18a:	30000003          	lb	zero,768(zero) # 300 <_min_stack-0x1d00>
     18e:	06000003          	lb	zero,96(zero) # 60 <_min_stack-0x1fa0>
     192:	7e00                	flw	fs0,56(a2)
     194:	0800                	addi	s0,sp,16
     196:	1aff                	0x1aff
     198:	009f 0000 0000      	0x9f
     19e:	0000                	unimp
     1a0:	4400                	lw	s0,8(s0)
     1a2:	60000003          	lb	zero,1536(zero) # 600 <_min_stack-0x1a00>
     1a6:	01000003          	lb	zero,16(zero) # 10 <_min_stack-0x1ff0>
     1aa:	5f00                	lw	s0,56(a4)
	...
     1b4:	0348                	addi	a0,sp,388
     1b6:	0000                	unimp
     1b8:	0350                	addi	a2,sp,388
     1ba:	0000                	unimp
     1bc:	0006                	c.slli	zero,0x1
     1be:	007e                	c.slli	zero,0x1f
     1c0:	ff08                	fsw	fa0,56(a4)
     1c2:	9f1a                	add	t5,t5,t1
	...
     1cc:	0364                	addi	s1,sp,396
     1ce:	0000                	unimp
     1d0:	0374                	addi	a3,sp,396
     1d2:	0000                	unimp
     1d4:	0001                	nop
     1d6:	005f 0000 0000      	0x5f
     1dc:	0000                	unimp
     1de:	6800                	flw	fs0,16(s0)
     1e0:	70000003          	lb	zero,1792(zero) # 700 <_min_stack-0x1900>
     1e4:	06000003          	lb	zero,96(zero) # 60 <_min_stack-0x1fa0>
     1e8:	7e00                	flw	fs0,56(a2)
     1ea:	0800                	addi	s0,sp,16
     1ec:	1aff                	0x1aff
     1ee:	009f 0000 0000      	0x9f
     1f4:	0000                	unimp
     1f6:	7800                	flw	fs0,48(s0)
     1f8:	8c000003          	lb	zero,-1856(zero) # fffff8c0 <_stack_start+0xffdff8c0>
     1fc:	01000003          	lb	zero,16(zero) # 10 <_min_stack-0x1ff0>
     200:	5f00                	lw	s0,56(a4)
     202:	038c                	addi	a1,sp,448
     204:	0000                	unimp
     206:	0390                	addi	a2,sp,448
     208:	0000                	unimp
     20a:	0005                	c.nop	1
     20c:	007f                	0x7f
     20e:	2434                	fld	fa3,72(s0)
     210:	909f 0003 9400      	0x94000003909f
     216:	01000003          	lb	zero,16(zero) # 10 <_min_stack-0x1ff0>
     21a:	5e00                	lw	s0,56(a2)
     21c:	0394                	addi	a3,sp,448
     21e:	0000                	unimp
     220:	03a8                	addi	a0,sp,456
     222:	0000                	unimp
     224:	0005                	c.nop	1
     226:	007f                	0x7f
     228:	2434                	fld	fa3,72(s0)
     22a:	a89f 0003 ac00      	0xac000003a89f
     230:	05000003          	lb	zero,80(zero) # 50 <_min_stack-0x1fb0>
     234:	7f00                	flw	fs0,56(a4)
     236:	3800                	fld	fs0,48(s0)
     238:	9f24                	0x9f24
     23a:	03ac                	addi	a1,sp,456
     23c:	0000                	unimp
     23e:	03b0                	addi	a2,sp,456
     240:	0000                	unimp
     242:	0001                	nop
     244:	b05e                	fsd	fs7,32(sp)
     246:	c4000003          	lb	zero,-960(zero) # fffffc40 <_stack_start+0xffdffc40>
     24a:	05000003          	lb	zero,80(zero) # 50 <_min_stack-0x1fb0>
     24e:	7f00                	flw	fs0,56(a4)
     250:	3800                	fld	fs0,48(s0)
     252:	9f24                	0x9f24
     254:	03c4                	addi	s1,sp,452
     256:	0000                	unimp
     258:	03c8                	addi	a0,sp,452
     25a:	0000                	unimp
     25c:	0005                	c.nop	1
     25e:	007f                	0x7f
     260:	243c                	fld	fa5,72(s0)
     262:	c89f 0003 cc00      	0xcc000003c89f
     268:	01000003          	lb	zero,16(zero) # 10 <_min_stack-0x1ff0>
     26c:	5e00                	lw	s0,56(a2)
     26e:	03cc                	addi	a1,sp,452
     270:	0000                	unimp
     272:	03e0                	addi	s0,sp,460
     274:	0000                	unimp
     276:	0005                	c.nop	1
     278:	007f                	0x7f
     27a:	243c                	fld	fa5,72(s0)
     27c:	e09f 0003 e400      	0xe4000003e09f
     282:	05000003          	lb	zero,80(zero) # 50 <_min_stack-0x1fb0>
     286:	7f00                	flw	fs0,56(a4)
     288:	4000                	lw	s0,0(s0)
     28a:	9f24                	0x9f24
     28c:	03e4                	addi	s1,sp,460
     28e:	0000                	unimp
     290:	03e8                	addi	a0,sp,460
     292:	0000                	unimp
     294:	0001                	nop
     296:	e85e                	fsw	fs7,16(sp)
     298:	fc000003          	lb	zero,-64(zero) # ffffffc0 <_stack_start+0xffdfffc0>
     29c:	05000003          	lb	zero,80(zero) # 50 <_min_stack-0x1fb0>
     2a0:	7f00                	flw	fs0,56(a4)
     2a2:	4000                	lw	s0,0(s0)
     2a4:	9f24                	0x9f24
     2a6:	03fc                	addi	a5,sp,460
     2a8:	0000                	unimp
     2aa:	0400                	addi	s0,sp,512
     2ac:	0000                	unimp
     2ae:	0005                	c.nop	1
     2b0:	007f                	0x7f
     2b2:	2444                	fld	fs1,136(s0)
     2b4:	009f 0004 0400      	0x4000004009f
     2ba:	0004                	0x4
     2bc:	0100                	addi	s0,sp,128
     2be:	5e00                	lw	s0,56(a2)
     2c0:	0404                	addi	s1,sp,512
     2c2:	0000                	unimp
     2c4:	0418                	addi	a4,sp,512
     2c6:	0000                	unimp
     2c8:	0005                	c.nop	1
     2ca:	007f                	0x7f
     2cc:	2444                	fld	fs1,136(s0)
     2ce:	189f 0004 1c00      	0x1c000004189f
     2d4:	0004                	0x4
     2d6:	0500                	addi	s0,sp,640
     2d8:	7f00                	flw	fs0,56(a4)
     2da:	4800                	lw	s0,16(s0)
     2dc:	9f24                	0x9f24
     2de:	041c                	addi	a5,sp,512
     2e0:	0000                	unimp
     2e2:	0420                	addi	s0,sp,520
     2e4:	0000                	unimp
     2e6:	0001                	nop
     2e8:	205e                	fld	ft0,464(sp)
     2ea:	0004                	0x4
     2ec:	3400                	fld	fs0,40(s0)
     2ee:	0004                	0x4
     2f0:	0500                	addi	s0,sp,640
     2f2:	7f00                	flw	fs0,56(a4)
     2f4:	4800                	lw	s0,16(s0)
     2f6:	9f24                	0x9f24
     2f8:	0434                	addi	a3,sp,520
     2fa:	0000                	unimp
     2fc:	0438                	addi	a4,sp,520
     2fe:	0000                	unimp
     300:	0005                	c.nop	1
     302:	007f                	0x7f
     304:	244c                	fld	fa1,136(s0)
     306:	4c9f 0004 4c00      	0x4c0000044c9f
     30c:	02000007          	0x2000007
     310:	3000                	fld	fs0,32(s0)
     312:	5c9f 0007 6c00      	0x6c0000075c9f
     318:	05000007          	0x5000007
     31c:	7f00                	flw	fs0,56(a4)
     31e:	4800                	lw	s0,16(s0)
     320:	9f24                	0x9f24
     322:	076c                	addi	a1,sp,908
     324:	0000                	unimp
     326:	077c                	addi	a5,sp,908
     328:	0000                	unimp
     32a:	0005                	c.nop	1
     32c:	007f                	0x7f
     32e:	2444                	fld	fs1,136(s0)
     330:	7c9f 0007 8c00      	0x8c0000077c9f
     336:	05000007          	0x5000007
     33a:	7f00                	flw	fs0,56(a4)
     33c:	4000                	lw	s0,0(s0)
     33e:	9f24                	0x9f24
     340:	078c                	addi	a1,sp,960
     342:	0000                	unimp
     344:	079c                	addi	a5,sp,960
     346:	0000                	unimp
     348:	0005                	c.nop	1
     34a:	007f                	0x7f
     34c:	243c                	fld	fa5,72(s0)
     34e:	9c9f 0007 ac00      	0xac0000079c9f
     354:	05000007          	0x5000007
     358:	7f00                	flw	fs0,56(a4)
     35a:	3800                	fld	fs0,48(s0)
     35c:	9f24                	0x9f24
     35e:	07ac                	addi	a1,sp,968
     360:	0000                	unimp
     362:	07bc                	addi	a5,sp,968
     364:	0000                	unimp
     366:	0005                	c.nop	1
     368:	007f                	0x7f
     36a:	2434                	fld	fa3,72(s0)
     36c:	bc9f 0007 c800      	0xc8000007bc9f
     372:	01000007          	0x1000007
     376:	5f00                	lw	s0,56(a4)
	...
     380:	0380                	addi	s0,sp,448
     382:	0000                	unimp
     384:	0388                	addi	a0,sp,448
     386:	0000                	unimp
     388:	0001                	nop
     38a:	885e                	mv	a6,s7
     38c:	8c000003          	lb	zero,-1856(zero) # fffff8c0 <_stack_start+0xffdff8c0>
     390:	03000003          	lb	zero,48(zero) # 30 <_min_stack-0x1fd0>
     394:	7e00                	flw	fs0,56(a2)
     396:	9f49                	0x9f49
     398:	038c                	addi	a1,sp,448
     39a:	0000                	unimp
     39c:	0394                	addi	a3,sp,448
     39e:	0000                	unimp
     3a0:	0005                	c.nop	1
     3a2:	007f                	0x7f
     3a4:	254c                	fld	fa1,136(a0)
     3a6:	949f 0003 a000      	0xa0000003949f
     3ac:	01000003          	lb	zero,16(zero) # 10 <_min_stack-0x1ff0>
     3b0:	5e00                	lw	s0,56(a2)
     3b2:	03a0                	addi	s0,sp,456
     3b4:	0000                	unimp
     3b6:	03a8                	addi	a0,sp,456
     3b8:	0000                	unimp
     3ba:	497e0003          	lb	zero,1175(t3)
     3be:	a89f 0003 b000      	0xb0000003a89f
     3c4:	07000003          	lb	zero,112(zero) # 70 <_min_stack-0x1f90>
     3c8:	7f00                	flw	fs0,56(a4)
     3ca:	3400                	fld	fs0,40(s0)
     3cc:	4c24                	lw	s1,88(s0)
     3ce:	9f25                	0x9f25
     3d0:	03b0                	addi	a2,sp,456
     3d2:	0000                	unimp
     3d4:	03bc                	addi	a5,sp,456
     3d6:	0000                	unimp
     3d8:	0001                	nop
     3da:	bc5e                	fsd	fs7,56(sp)
     3dc:	c4000003          	lb	zero,-960(zero) # fffffc40 <_stack_start+0xffdffc40>
     3e0:	03000003          	lb	zero,48(zero) # 30 <_min_stack-0x1fd0>
     3e4:	7e00                	flw	fs0,56(a2)
     3e6:	9f49                	0x9f49
     3e8:	03c4                	addi	s1,sp,452
     3ea:	0000                	unimp
     3ec:	03cc                	addi	a1,sp,452
     3ee:	0000                	unimp
     3f0:	007f0007          	0x7f0007
     3f4:	2438                	fld	fa4,72(s0)
     3f6:	254c                	fld	fa1,136(a0)
     3f8:	cc9f 0003 d800      	0xd8000003cc9f
     3fe:	01000003          	lb	zero,16(zero) # 10 <_min_stack-0x1ff0>
     402:	5e00                	lw	s0,56(a2)
     404:	03d8                	addi	a4,sp,452
     406:	0000                	unimp
     408:	03e0                	addi	s0,sp,460
     40a:	0000                	unimp
     40c:	497e0003          	lb	zero,1175(t3)
     410:	e09f 0003 e800      	0xe8000003e09f
     416:	07000003          	lb	zero,112(zero) # 70 <_min_stack-0x1f90>
     41a:	7f00                	flw	fs0,56(a4)
     41c:	3c00                	fld	fs0,56(s0)
     41e:	4c24                	lw	s1,88(s0)
     420:	9f25                	0x9f25
     422:	03e8                	addi	a0,sp,460
     424:	0000                	unimp
     426:	03f4                	addi	a3,sp,460
     428:	0000                	unimp
     42a:	0001                	nop
     42c:	f45e                	fsw	fs7,40(sp)
     42e:	fc000003          	lb	zero,-64(zero) # ffffffc0 <_stack_start+0xffdfffc0>
     432:	03000003          	lb	zero,48(zero) # 30 <_min_stack-0x1fd0>
     436:	7e00                	flw	fs0,56(a2)
     438:	9f49                	0x9f49
     43a:	03fc                	addi	a5,sp,460
     43c:	0000                	unimp
     43e:	0404                	addi	s1,sp,512
     440:	0000                	unimp
     442:	007f0007          	0x7f0007
     446:	2440                	fld	fs0,136(s0)
     448:	254c                	fld	fa1,136(a0)
     44a:	049f 0004 1000      	0x10000004049f
     450:	0004                	0x4
     452:	0100                	addi	s0,sp,128
     454:	5e00                	lw	s0,56(a2)
     456:	0410                	addi	a2,sp,512
     458:	0000                	unimp
     45a:	0418                	addi	a4,sp,512
     45c:	0000                	unimp
     45e:	497e0003          	lb	zero,1175(t3)
     462:	189f 0004 2000      	0x20000004189f
     468:	0004                	0x4
     46a:	0700                	addi	s0,sp,896
     46c:	7f00                	flw	fs0,56(a4)
     46e:	4400                	lw	s0,8(s0)
     470:	4c24                	lw	s1,88(s0)
     472:	9f25                	0x9f25
     474:	0420                	addi	s0,sp,520
     476:	0000                	unimp
     478:	042c                	addi	a1,sp,520
     47a:	0000                	unimp
     47c:	0001                	nop
     47e:	2c5e                	fld	fs8,464(sp)
     480:	0004                	0x4
     482:	3400                	fld	fs0,40(s0)
     484:	0004                	0x4
     486:	0300                	addi	s0,sp,384
     488:	7e00                	flw	fs0,56(a2)
     48a:	9f49                	0x9f49
     48c:	0434                	addi	a3,sp,520
     48e:	0000                	unimp
     490:	0438                	addi	a4,sp,520
     492:	0000                	unimp
     494:	007f0007          	0x7f0007
     498:	2448                	fld	fa0,136(s0)
     49a:	254c                	fld	fa1,136(a0)
     49c:	389f 0004 4400      	0x44000004389f
     4a2:	0004                	0x4
     4a4:	0100                	addi	s0,sp,128
     4a6:	5f00                	lw	s0,56(a4)
     4a8:	0444                	addi	s1,sp,516
     4aa:	0000                	unimp
     4ac:	044c                	addi	a1,sp,516
     4ae:	0000                	unimp
     4b0:	507f0003          	lb	zero,1287(t5)
     4b4:	4c9f 0007 5000      	0x500000074c9f
     4ba:	01000007          	0x1000007
     4be:	5f00                	lw	s0,56(a4)
     4c0:	0750                	addi	a2,sp,900
     4c2:	0000                	unimp
     4c4:	075c                	addi	a5,sp,900
     4c6:	0000                	unimp
     4c8:	497f0003          	lb	zero,1175(t5)
     4cc:	5c9f 0007 6000      	0x600000075c9f
     4d2:	01000007          	0x1000007
     4d6:	5e00                	lw	s0,56(a2)
     4d8:	0760                	addi	s0,sp,908
     4da:	0000                	unimp
     4dc:	076c                	addi	a1,sp,908
     4de:	0000                	unimp
     4e0:	507e0003          	lb	zero,1287(t3)
     4e4:	6c9f 0007 7000      	0x700000076c9f
     4ea:	01000007          	0x1000007
     4ee:	5e00                	lw	s0,56(a2)
     4f0:	0770                	addi	a2,sp,908
     4f2:	0000                	unimp
     4f4:	077c                	addi	a5,sp,908
     4f6:	0000                	unimp
     4f8:	507e0003          	lb	zero,1287(t3)
     4fc:	7c9f 0007 8000      	0x800000077c9f
     502:	01000007          	0x1000007
     506:	5e00                	lw	s0,56(a2)
     508:	0780                	addi	s0,sp,960
     50a:	0000                	unimp
     50c:	078c                	addi	a1,sp,960
     50e:	0000                	unimp
     510:	507e0003          	lb	zero,1287(t3)
     514:	8c9f 0007 9000      	0x900000078c9f
     51a:	01000007          	0x1000007
     51e:	5e00                	lw	s0,56(a2)
     520:	0790                	addi	a2,sp,960
     522:	0000                	unimp
     524:	079c                	addi	a5,sp,960
     526:	0000                	unimp
     528:	507e0003          	lb	zero,1287(t3)
     52c:	9c9f 0007 a000      	0xa00000079c9f
     532:	01000007          	0x1000007
     536:	5e00                	lw	s0,56(a2)
     538:	07a0                	addi	s0,sp,968
     53a:	0000                	unimp
     53c:	07ac                	addi	a1,sp,968
     53e:	0000                	unimp
     540:	507e0003          	lb	zero,1287(t3)
     544:	ac9f 0007 b000      	0xb0000007ac9f
     54a:	01000007          	0x1000007
     54e:	5e00                	lw	s0,56(a2)
     550:	07b0                	addi	a2,sp,968
     552:	0000                	unimp
     554:	07bc                	addi	a5,sp,968
     556:	0000                	unimp
     558:	507e0003          	lb	zero,1287(t3)
     55c:	bc9f 0007 c000      	0xc0000007bc9f
     562:	01000007          	0x1000007
     566:	5e00                	lw	s0,56(a2)
     568:	07c0                	addi	s0,sp,964
     56a:	0000                	unimp
     56c:	07c8                	addi	a0,sp,964
     56e:	0000                	unimp
     570:	507e0003          	lb	zero,1287(t3)
     574:	009f 0000 0000      	0x9f
     57a:	0000                	unimp
     57c:	8400                	0x8400
     57e:	88000003          	lb	zero,-1920(zero) # fffff880 <_stack_start+0xffdff880>
     582:	03000003          	lb	zero,48(zero) # 30 <_min_stack-0x1fd0>
     586:	7e00                	flw	fs0,56(a2)
     588:	03889f37          	lui	t5,0x3889
     58c:	0000                	unimp
     58e:	038c                	addi	a1,sp,448
     590:	0000                	unimp
     592:	0001                	nop
     594:	9c5e                	add	s8,s8,s7
     596:	a0000003          	lb	zero,-1536(zero) # fffffa00 <_stack_start+0xffdffa00>
     59a:	03000003          	lb	zero,48(zero) # 30 <_min_stack-0x1fd0>
     59e:	7e00                	flw	fs0,56(a2)
     5a0:	03a09f37          	lui	t5,0x3a09
     5a4:	0000                	unimp
     5a6:	03a8                	addi	a0,sp,456
     5a8:	0000                	unimp
     5aa:	0001                	nop
     5ac:	b85e                	fsd	fs7,48(sp)
     5ae:	bc000003          	lb	zero,-1088(zero) # fffffbc0 <_stack_start+0xffdffbc0>
     5b2:	03000003          	lb	zero,48(zero) # 30 <_min_stack-0x1fd0>
     5b6:	7e00                	flw	fs0,56(a2)
     5b8:	03bc9f37          	lui	t5,0x3bc9
     5bc:	0000                	unimp
     5be:	03c4                	addi	s1,sp,452
     5c0:	0000                	unimp
     5c2:	0001                	nop
     5c4:	d45e                	sw	s7,40(sp)
     5c6:	d8000003          	lb	zero,-640(zero) # fffffd80 <_stack_start+0xffdffd80>
     5ca:	03000003          	lb	zero,48(zero) # 30 <_min_stack-0x1fd0>
     5ce:	7e00                	flw	fs0,56(a2)
     5d0:	03d89f37          	lui	t5,0x3d89
     5d4:	0000                	unimp
     5d6:	03e0                	addi	s0,sp,460
     5d8:	0000                	unimp
     5da:	0001                	nop
     5dc:	f05e                	fsw	fs7,32(sp)
     5de:	f4000003          	lb	zero,-192(zero) # ffffff40 <_stack_start+0xffdfff40>
     5e2:	03000003          	lb	zero,48(zero) # 30 <_min_stack-0x1fd0>
     5e6:	7e00                	flw	fs0,56(a2)
     5e8:	03f49f37          	lui	t5,0x3f49
     5ec:	0000                	unimp
     5ee:	03fc                	addi	a5,sp,460
     5f0:	0000                	unimp
     5f2:	0001                	nop
     5f4:	0c5e                	slli	s8,s8,0x17
     5f6:	0004                	0x4
     5f8:	1000                	addi	s0,sp,32
     5fa:	0004                	0x4
     5fc:	0300                	addi	s0,sp,384
     5fe:	7e00                	flw	fs0,56(a2)
     600:	04109f37          	lui	t5,0x4109
     604:	0000                	unimp
     606:	0418                	addi	a4,sp,512
     608:	0000                	unimp
     60a:	0001                	nop
     60c:	285e                	fld	fa6,464(sp)
     60e:	0004                	0x4
     610:	2c00                	fld	fs0,24(s0)
     612:	0004                	0x4
     614:	0300                	addi	s0,sp,384
     616:	7e00                	flw	fs0,56(a2)
     618:	042c9f37          	lui	t5,0x42c9
     61c:	0000                	unimp
     61e:	0434                	addi	a3,sp,520
     620:	0000                	unimp
     622:	0001                	nop
     624:	4c5e                	lw	s8,212(sp)
     626:	50000007          	0x50000007
     62a:	03000007          	0x3000007
     62e:	7f00                	flw	fs0,56(a4)
     630:	07509f37          	lui	t5,0x7509
     634:	0000                	unimp
     636:	075c                	addi	a5,sp,900
     638:	0000                	unimp
     63a:	0001                	nop
     63c:	005f 0000 0000      	0x5f
     642:	0000                	unimp
     644:	4000                	lw	s0,0(s0)
     646:	0004                	0x4
     648:	4400                	lw	s0,8(s0)
     64a:	0004                	0x4
     64c:	0300                	addi	s0,sp,384
     64e:	7f00                	flw	fs0,56(a4)
     650:	9f30                	0x9f30
     652:	0444                	addi	s1,sp,516
     654:	0000                	unimp
     656:	044c                	addi	a1,sp,516
     658:	0000                	unimp
     65a:	0001                	nop
     65c:	5c5f 0007 6000      	0x600000075c5f
     662:	03000007          	0x3000007
     666:	7e00                	flw	fs0,56(a2)
     668:	9f30                	0x9f30
     66a:	0760                	addi	s0,sp,908
     66c:	0000                	unimp
     66e:	076c                	addi	a1,sp,908
     670:	0000                	unimp
     672:	0001                	nop
     674:	6c5e                	flw	fs8,212(sp)
     676:	70000007          	0x70000007
     67a:	03000007          	0x3000007
     67e:	7e00                	flw	fs0,56(a2)
     680:	9f30                	0x9f30
     682:	0770                	addi	a2,sp,908
     684:	0000                	unimp
     686:	077c                	addi	a5,sp,908
     688:	0000                	unimp
     68a:	0001                	nop
     68c:	7c5e                	flw	fs8,244(sp)
     68e:	80000007          	0x80000007
     692:	03000007          	0x3000007
     696:	7e00                	flw	fs0,56(a2)
     698:	9f30                	0x9f30
     69a:	0780                	addi	s0,sp,960
     69c:	0000                	unimp
     69e:	078c                	addi	a1,sp,960
     6a0:	0000                	unimp
     6a2:	0001                	nop
     6a4:	8c5e                	mv	s8,s7
     6a6:	90000007          	0x90000007
     6aa:	03000007          	0x3000007
     6ae:	7e00                	flw	fs0,56(a2)
     6b0:	9f30                	0x9f30
     6b2:	0790                	addi	a2,sp,960
     6b4:	0000                	unimp
     6b6:	079c                	addi	a5,sp,960
     6b8:	0000                	unimp
     6ba:	0001                	nop
     6bc:	9c5e                	add	s8,s8,s7
     6be:	a0000007          	0xa0000007
     6c2:	03000007          	0x3000007
     6c6:	7e00                	flw	fs0,56(a2)
     6c8:	9f30                	0x9f30
     6ca:	07a0                	addi	s0,sp,968
     6cc:	0000                	unimp
     6ce:	07ac                	addi	a1,sp,968
     6d0:	0000                	unimp
     6d2:	0001                	nop
     6d4:	ac5e                	fsd	fs7,24(sp)
     6d6:	b0000007          	0xb0000007
     6da:	03000007          	0x3000007
     6de:	7e00                	flw	fs0,56(a2)
     6e0:	9f30                	0x9f30
     6e2:	07b0                	addi	a2,sp,968
     6e4:	0000                	unimp
     6e6:	07bc                	addi	a5,sp,968
     6e8:	0000                	unimp
     6ea:	0001                	nop
     6ec:	bc5e                	fsd	fs7,56(sp)
     6ee:	c0000007          	0xc0000007
     6f2:	03000007          	0x3000007
     6f6:	7e00                	flw	fs0,56(a2)
     6f8:	9f30                	0x9f30
     6fa:	07c0                	addi	s0,sp,964
     6fc:	0000                	unimp
     6fe:	07c8                	addi	a0,sp,964
     700:	0000                	unimp
     702:	0001                	nop
     704:	005e                	c.slli	zero,0x17
     706:	0000                	unimp
     708:	0000                	unimp
     70a:	0000                	unimp
     70c:	5c00                	lw	s0,56(s0)
     70e:	0004                	0x4
     710:	6c00                	flw	fs0,24(s0)
     712:	0004                	0x4
     714:	0100                	addi	s0,sp,128
     716:	5f00                	lw	s0,56(a4)
	...
     720:	0460                	addi	s0,sp,524
     722:	0000                	unimp
     724:	0468                	addi	a0,sp,524
     726:	0000                	unimp
     728:	0006                	c.slli	zero,0x1
     72a:	007e                	c.slli	zero,0x1f
     72c:	ff08                	fsw	fa0,56(a4)
     72e:	9f1a                	add	t5,t5,t1
	...
     738:	0470                	addi	a2,sp,524
     73a:	0000                	unimp
     73c:	0484                	addi	s1,sp,576
     73e:	0000                	unimp
     740:	0001                	nop
     742:	845f 0004 8800      	0x88000004845f
     748:	0004                	0x4
     74a:	0500                	addi	s0,sp,640
     74c:	7f00                	flw	fs0,56(a4)
     74e:	3400                	fld	fs0,40(s0)
     750:	9f24                	0x9f24
     752:	0488                	addi	a0,sp,576
     754:	0000                	unimp
     756:	048c                	addi	a1,sp,576
     758:	0000                	unimp
     75a:	0001                	nop
     75c:	8c5e                	mv	s8,s7
     75e:	0004                	0x4
     760:	a000                	fsd	fs0,0(s0)
     762:	0004                	0x4
     764:	0500                	addi	s0,sp,640
     766:	7f00                	flw	fs0,56(a4)
     768:	3400                	fld	fs0,40(s0)
     76a:	9f24                	0x9f24
     76c:	04a0                	addi	s0,sp,584
     76e:	0000                	unimp
     770:	04a4                	addi	s1,sp,584
     772:	0000                	unimp
     774:	0005                	c.nop	1
     776:	007f                	0x7f
     778:	2438                	fld	fa4,72(s0)
     77a:	a49f 0004 a800      	0xa8000004a49f
     780:	0004                	0x4
     782:	0100                	addi	s0,sp,128
     784:	5e00                	lw	s0,56(a2)
     786:	04a8                	addi	a0,sp,584
     788:	0000                	unimp
     78a:	04bc                	addi	a5,sp,584
     78c:	0000                	unimp
     78e:	0005                	c.nop	1
     790:	007f                	0x7f
     792:	2438                	fld	fa4,72(s0)
     794:	bc9f 0004 c000      	0xc0000004bc9f
     79a:	0004                	0x4
     79c:	0500                	addi	s0,sp,640
     79e:	7f00                	flw	fs0,56(a4)
     7a0:	3c00                	fld	fs0,56(s0)
     7a2:	9f24                	0x9f24
     7a4:	04c0                	addi	s0,sp,580
     7a6:	0000                	unimp
     7a8:	04c4                	addi	s1,sp,580
     7aa:	0000                	unimp
     7ac:	0001                	nop
     7ae:	c45e                	sw	s7,8(sp)
     7b0:	0004                	0x4
     7b2:	d800                	sw	s0,48(s0)
     7b4:	0004                	0x4
     7b6:	0500                	addi	s0,sp,640
     7b8:	7f00                	flw	fs0,56(a4)
     7ba:	3c00                	fld	fs0,56(s0)
     7bc:	9f24                	0x9f24
     7be:	04d8                	addi	a4,sp,580
     7c0:	0000                	unimp
     7c2:	04dc                	addi	a5,sp,580
     7c4:	0000                	unimp
     7c6:	0005                	c.nop	1
     7c8:	007f                	0x7f
     7ca:	2440                	fld	fs0,136(s0)
     7cc:	dc9f 0004 e000      	0xe0000004dc9f
     7d2:	0004                	0x4
     7d4:	0100                	addi	s0,sp,128
     7d6:	5e00                	lw	s0,56(a2)
     7d8:	04e0                	addi	s0,sp,588
     7da:	0000                	unimp
     7dc:	04f4                	addi	a3,sp,588
     7de:	0000                	unimp
     7e0:	0005                	c.nop	1
     7e2:	007f                	0x7f
     7e4:	2440                	fld	fs0,136(s0)
     7e6:	f49f 0004 f800      	0xf8000004f49f
     7ec:	0004                	0x4
     7ee:	0500                	addi	s0,sp,640
     7f0:	7f00                	flw	fs0,56(a4)
     7f2:	4400                	lw	s0,8(s0)
     7f4:	9f24                	0x9f24
     7f6:	04f8                	addi	a4,sp,588
     7f8:	0000                	unimp
     7fa:	04fc                	addi	a5,sp,588
     7fc:	0000                	unimp
     7fe:	0001                	nop
     800:	fc5e                	fsw	fs7,56(sp)
     802:	0004                	0x4
     804:	1000                	addi	s0,sp,32
     806:	0005                	c.nop	1
     808:	0500                	addi	s0,sp,640
     80a:	7f00                	flw	fs0,56(a4)
     80c:	4400                	lw	s0,8(s0)
     80e:	9f24                	0x9f24
     810:	0510                	addi	a2,sp,640
     812:	0000                	unimp
     814:	0514                	addi	a3,sp,640
     816:	0000                	unimp
     818:	0005                	c.nop	1
     81a:	007f                	0x7f
     81c:	2448                	fld	fa0,136(s0)
     81e:	149f 0005 1800      	0x18000005149f
     824:	0005                	c.nop	1
     826:	0100                	addi	s0,sp,128
     828:	5e00                	lw	s0,56(a2)
     82a:	0518                	addi	a4,sp,640
     82c:	0000                	unimp
     82e:	052c                	addi	a1,sp,648
     830:	0000                	unimp
     832:	0005                	c.nop	1
     834:	007f                	0x7f
     836:	2448                	fld	fa0,136(s0)
     838:	2c9f 0005 3000      	0x300000052c9f
     83e:	0005                	c.nop	1
     840:	0500                	addi	s0,sp,640
     842:	7f00                	flw	fs0,56(a4)
     844:	4c00                	lw	s0,24(s0)
     846:	9f24                	0x9f24
     848:	0544                	addi	s1,sp,644
     84a:	0000                	unimp
     84c:	06d0                	addi	a2,sp,836
     84e:	0000                	unimp
     850:	0002                	c.slli64	zero
     852:	9f30                	0x9f30
     854:	06e0                	addi	s0,sp,844
     856:	0000                	unimp
     858:	06f0                	addi	a2,sp,844
     85a:	0000                	unimp
     85c:	0005                	c.nop	1
     85e:	007f                	0x7f
     860:	2448                	fld	fa0,136(s0)
     862:	f09f 0006 0000      	0x6f09f
     868:	05000007          	0x5000007
     86c:	7f00                	flw	fs0,56(a4)
     86e:	4400                	lw	s0,8(s0)
     870:	9f24                	0x9f24
     872:	0700                	addi	s0,sp,896
     874:	0000                	unimp
     876:	0710                	addi	a2,sp,896
     878:	0000                	unimp
     87a:	0005                	c.nop	1
     87c:	007f                	0x7f
     87e:	2440                	fld	fs0,136(s0)
     880:	109f 0007 2000      	0x20000007109f
     886:	05000007          	0x5000007
     88a:	7f00                	flw	fs0,56(a4)
     88c:	3c00                	fld	fs0,56(s0)
     88e:	9f24                	0x9f24
     890:	0720                	addi	s0,sp,904
     892:	0000                	unimp
     894:	0730                	addi	a2,sp,904
     896:	0000                	unimp
     898:	0005                	c.nop	1
     89a:	007f                	0x7f
     89c:	2438                	fld	fa4,72(s0)
     89e:	309f 0007 4000      	0x40000007309f
     8a4:	05000007          	0x5000007
     8a8:	7f00                	flw	fs0,56(a4)
     8aa:	3400                	fld	fs0,40(s0)
     8ac:	9f24                	0x9f24
     8ae:	0740                	addi	s0,sp,900
     8b0:	0000                	unimp
     8b2:	074c                	addi	a1,sp,900
     8b4:	0000                	unimp
     8b6:	0001                	nop
     8b8:	005f 0000 0000      	0x5f
     8be:	0000                	unimp
     8c0:	7800                	flw	fs0,48(s0)
     8c2:	0004                	0x4
     8c4:	8000                	0x8000
     8c6:	0004                	0x4
     8c8:	0100                	addi	s0,sp,128
     8ca:	5e00                	lw	s0,56(a2)
     8cc:	0480                	addi	s0,sp,576
     8ce:	0000                	unimp
     8d0:	0484                	addi	s1,sp,576
     8d2:	0000                	unimp
     8d4:	497e0003          	lb	zero,1175(t3)
     8d8:	849f 0004 8c00      	0x8c000004849f
     8de:	0004                	0x4
     8e0:	0500                	addi	s0,sp,640
     8e2:	7f00                	flw	fs0,56(a4)
     8e4:	4c00                	lw	s0,24(s0)
     8e6:	9f25                	0x9f25
     8e8:	048c                	addi	a1,sp,576
     8ea:	0000                	unimp
     8ec:	0498                	addi	a4,sp,576
     8ee:	0000                	unimp
     8f0:	0001                	nop
     8f2:	985e                	add	a6,a6,s7
     8f4:	0004                	0x4
     8f6:	a000                	fsd	fs0,0(s0)
     8f8:	0004                	0x4
     8fa:	0300                	addi	s0,sp,384
     8fc:	7e00                	flw	fs0,56(a2)
     8fe:	9f49                	0x9f49
     900:	04a0                	addi	s0,sp,584
     902:	0000                	unimp
     904:	04a8                	addi	a0,sp,584
     906:	0000                	unimp
     908:	007f0007          	0x7f0007
     90c:	2434                	fld	fa3,72(s0)
     90e:	254c                	fld	fa1,136(a0)
     910:	a89f 0004 b400      	0xb4000004a89f
     916:	0004                	0x4
     918:	0100                	addi	s0,sp,128
     91a:	5e00                	lw	s0,56(a2)
     91c:	04b4                	addi	a3,sp,584
     91e:	0000                	unimp
     920:	04bc                	addi	a5,sp,584
     922:	0000                	unimp
     924:	497e0003          	lb	zero,1175(t3)
     928:	bc9f 0004 c400      	0xc4000004bc9f
     92e:	0004                	0x4
     930:	0700                	addi	s0,sp,896
     932:	7f00                	flw	fs0,56(a4)
     934:	3800                	fld	fs0,48(s0)
     936:	4c24                	lw	s1,88(s0)
     938:	9f25                	0x9f25
     93a:	04c4                	addi	s1,sp,580
     93c:	0000                	unimp
     93e:	04d0                	addi	a2,sp,580
     940:	0000                	unimp
     942:	0001                	nop
     944:	d05e                	sw	s7,32(sp)
     946:	0004                	0x4
     948:	d800                	sw	s0,48(s0)
     94a:	0004                	0x4
     94c:	0300                	addi	s0,sp,384
     94e:	7e00                	flw	fs0,56(a2)
     950:	9f49                	0x9f49
     952:	04d8                	addi	a4,sp,580
     954:	0000                	unimp
     956:	04e0                	addi	s0,sp,588
     958:	0000                	unimp
     95a:	007f0007          	0x7f0007
     95e:	243c                	fld	fa5,72(s0)
     960:	254c                	fld	fa1,136(a0)
     962:	e09f 0004 ec00      	0xec000004e09f
     968:	0004                	0x4
     96a:	0100                	addi	s0,sp,128
     96c:	5e00                	lw	s0,56(a2)
     96e:	04ec                	addi	a1,sp,588
     970:	0000                	unimp
     972:	04f4                	addi	a3,sp,588
     974:	0000                	unimp
     976:	497e0003          	lb	zero,1175(t3)
     97a:	f49f 0004 fc00      	0xfc000004f49f
     980:	0004                	0x4
     982:	0700                	addi	s0,sp,896
     984:	7f00                	flw	fs0,56(a4)
     986:	4000                	lw	s0,0(s0)
     988:	4c24                	lw	s1,88(s0)
     98a:	9f25                	0x9f25
     98c:	04fc                	addi	a5,sp,588
     98e:	0000                	unimp
     990:	0508                	addi	a0,sp,640
     992:	0000                	unimp
     994:	0001                	nop
     996:	085e                	slli	a6,a6,0x17
     998:	0005                	c.nop	1
     99a:	1000                	addi	s0,sp,32
     99c:	0005                	c.nop	1
     99e:	0300                	addi	s0,sp,384
     9a0:	7e00                	flw	fs0,56(a2)
     9a2:	9f49                	0x9f49
     9a4:	0510                	addi	a2,sp,640
     9a6:	0000                	unimp
     9a8:	0518                	addi	a4,sp,640
     9aa:	0000                	unimp
     9ac:	007f0007          	0x7f0007
     9b0:	2444                	fld	fs1,136(s0)
     9b2:	254c                	fld	fa1,136(a0)
     9b4:	189f 0005 2400      	0x24000005189f
     9ba:	0005                	c.nop	1
     9bc:	0100                	addi	s0,sp,128
     9be:	5e00                	lw	s0,56(a2)
     9c0:	0524                	addi	s1,sp,648
     9c2:	0000                	unimp
     9c4:	052c                	addi	a1,sp,648
     9c6:	0000                	unimp
     9c8:	497e0003          	lb	zero,1175(t3)
     9cc:	2c9f 0005 3000      	0x300000052c9f
     9d2:	0005                	c.nop	1
     9d4:	0700                	addi	s0,sp,896
     9d6:	7f00                	flw	fs0,56(a4)
     9d8:	4800                	lw	s0,16(s0)
     9da:	4c24                	lw	s1,88(s0)
     9dc:	9f25                	0x9f25
     9de:	0530                	addi	a2,sp,648
     9e0:	0000                	unimp
     9e2:	053c                	addi	a5,sp,648
     9e4:	0000                	unimp
     9e6:	0001                	nop
     9e8:	3c5f 0005 4400      	0x440000053c5f
     9ee:	0005                	c.nop	1
     9f0:	0300                	addi	s0,sp,384
     9f2:	7f00                	flw	fs0,56(a4)
     9f4:	9f50                	0x9f50
     9f6:	06d0                	addi	a2,sp,836
     9f8:	0000                	unimp
     9fa:	06d4                	addi	a3,sp,836
     9fc:	0000                	unimp
     9fe:	0001                	nop
     a00:	d45f 0006 e000      	0xe0000006d45f
     a06:	0006                	c.slli	zero,0x1
     a08:	0300                	addi	s0,sp,384
     a0a:	7f00                	flw	fs0,56(a4)
     a0c:	9f49                	0x9f49
     a0e:	06e0                	addi	s0,sp,844
     a10:	0000                	unimp
     a12:	06e4                	addi	s1,sp,844
     a14:	0000                	unimp
     a16:	0001                	nop
     a18:	e45e                	fsw	fs7,8(sp)
     a1a:	0006                	c.slli	zero,0x1
     a1c:	f000                	fsw	fs0,32(s0)
     a1e:	0006                	c.slli	zero,0x1
     a20:	0300                	addi	s0,sp,384
     a22:	7e00                	flw	fs0,56(a2)
     a24:	9f50                	0x9f50
     a26:	06f0                	addi	a2,sp,844
     a28:	0000                	unimp
     a2a:	06f4                	addi	a3,sp,844
     a2c:	0000                	unimp
     a2e:	0001                	nop
     a30:	f45e                	fsw	fs7,40(sp)
     a32:	0006                	c.slli	zero,0x1
     a34:	0000                	unimp
     a36:	03000007          	0x3000007
     a3a:	7e00                	flw	fs0,56(a2)
     a3c:	9f50                	0x9f50
     a3e:	0700                	addi	s0,sp,896
     a40:	0000                	unimp
     a42:	0704                	addi	s1,sp,896
     a44:	0000                	unimp
     a46:	0001                	nop
     a48:	045e                	slli	s0,s0,0x17
     a4a:	10000007          	0x10000007
     a4e:	03000007          	0x3000007
     a52:	7e00                	flw	fs0,56(a2)
     a54:	9f50                	0x9f50
     a56:	0710                	addi	a2,sp,896
     a58:	0000                	unimp
     a5a:	0714                	addi	a3,sp,896
     a5c:	0000                	unimp
     a5e:	0001                	nop
     a60:	145e                	slli	s0,s0,0x37
     a62:	20000007          	0x20000007
     a66:	03000007          	0x3000007
     a6a:	7e00                	flw	fs0,56(a2)
     a6c:	9f50                	0x9f50
     a6e:	0720                	addi	s0,sp,904
     a70:	0000                	unimp
     a72:	0724                	addi	s1,sp,904
     a74:	0000                	unimp
     a76:	0001                	nop
     a78:	245e                	fld	fs0,464(sp)
     a7a:	30000007          	0x30000007
     a7e:	03000007          	0x3000007
     a82:	7e00                	flw	fs0,56(a2)
     a84:	9f50                	0x9f50
     a86:	0730                	addi	a2,sp,904
     a88:	0000                	unimp
     a8a:	0734                	addi	a3,sp,904
     a8c:	0000                	unimp
     a8e:	0001                	nop
     a90:	345e                	fld	fs0,496(sp)
     a92:	40000007          	0x40000007
     a96:	03000007          	0x3000007
     a9a:	7e00                	flw	fs0,56(a2)
     a9c:	9f50                	0x9f50
     a9e:	0740                	addi	s0,sp,900
     aa0:	0000                	unimp
     aa2:	0744                	addi	s1,sp,900
     aa4:	0000                	unimp
     aa6:	0001                	nop
     aa8:	445e                	lw	s0,212(sp)
     aaa:	4c000007          	0x4c000007
     aae:	03000007          	0x3000007
     ab2:	7e00                	flw	fs0,56(a2)
     ab4:	9f50                	0x9f50
	...
     abe:	047c                	addi	a5,sp,524
     ac0:	0000                	unimp
     ac2:	0480                	addi	s0,sp,576
     ac4:	0000                	unimp
     ac6:	377e0003          	lb	zero,887(t3)
     aca:	809f 0004 8400      	0x84000004809f
     ad0:	0004                	0x4
     ad2:	0100                	addi	s0,sp,128
     ad4:	5e00                	lw	s0,56(a2)
     ad6:	0494                	addi	a3,sp,576
     ad8:	0000                	unimp
     ada:	0498                	addi	a4,sp,576
     adc:	0000                	unimp
     ade:	377e0003          	lb	zero,887(t3)
     ae2:	989f 0004 a000      	0xa0000004989f
     ae8:	0004                	0x4
     aea:	0100                	addi	s0,sp,128
     aec:	5e00                	lw	s0,56(a2)
     aee:	04b0                	addi	a2,sp,584
     af0:	0000                	unimp
     af2:	04b4                	addi	a3,sp,584
     af4:	0000                	unimp
     af6:	377e0003          	lb	zero,887(t3)
     afa:	b49f 0004 bc00      	0xbc000004b49f
     b00:	0004                	0x4
     b02:	0100                	addi	s0,sp,128
     b04:	5e00                	lw	s0,56(a2)
     b06:	04cc                	addi	a1,sp,580
     b08:	0000                	unimp
     b0a:	04d0                	addi	a2,sp,580
     b0c:	0000                	unimp
     b0e:	377e0003          	lb	zero,887(t3)
     b12:	d09f 0004 d800      	0xd8000004d09f
     b18:	0004                	0x4
     b1a:	0100                	addi	s0,sp,128
     b1c:	5e00                	lw	s0,56(a2)
     b1e:	04e8                	addi	a0,sp,588
     b20:	0000                	unimp
     b22:	04ec                	addi	a1,sp,588
     b24:	0000                	unimp
     b26:	377e0003          	lb	zero,887(t3)
     b2a:	ec9f 0004 f400      	0xf4000004ec9f
     b30:	0004                	0x4
     b32:	0100                	addi	s0,sp,128
     b34:	5e00                	lw	s0,56(a2)
     b36:	0504                	addi	s1,sp,640
     b38:	0000                	unimp
     b3a:	0508                	addi	a0,sp,640
     b3c:	0000                	unimp
     b3e:	377e0003          	lb	zero,887(t3)
     b42:	089f 0005 1000      	0x10000005089f
     b48:	0005                	c.nop	1
     b4a:	0100                	addi	s0,sp,128
     b4c:	5e00                	lw	s0,56(a2)
     b4e:	0520                	addi	s0,sp,648
     b50:	0000                	unimp
     b52:	0524                	addi	s1,sp,648
     b54:	0000                	unimp
     b56:	377e0003          	lb	zero,887(t3)
     b5a:	249f 0005 2c00      	0x2c000005249f
     b60:	0005                	c.nop	1
     b62:	0100                	addi	s0,sp,128
     b64:	5e00                	lw	s0,56(a2)
     b66:	06d0                	addi	a2,sp,836
     b68:	0000                	unimp
     b6a:	06d4                	addi	a3,sp,836
     b6c:	0000                	unimp
     b6e:	377f0003          	lb	zero,887(t5) # 7509377 <_stack_start+0x7309377>
     b72:	d49f 0006 e000      	0xe0000006d49f
     b78:	0006                	c.slli	zero,0x1
     b7a:	0100                	addi	s0,sp,128
     b7c:	5f00                	lw	s0,56(a4)
	...
     b86:	0538                	addi	a4,sp,648
     b88:	0000                	unimp
     b8a:	053c                	addi	a5,sp,648
     b8c:	0000                	unimp
     b8e:	307f0003          	lb	zero,775(t5)
     b92:	3c9f 0005 4400      	0x440000053c9f
     b98:	0005                	c.nop	1
     b9a:	0100                	addi	s0,sp,128
     b9c:	5f00                	lw	s0,56(a4)
     b9e:	06e0                	addi	s0,sp,844
     ba0:	0000                	unimp
     ba2:	06e4                	addi	s1,sp,844
     ba4:	0000                	unimp
     ba6:	307e0003          	lb	zero,775(t3)
     baa:	e49f 0006 f000      	0xf0000006e49f
     bb0:	0006                	c.slli	zero,0x1
     bb2:	0100                	addi	s0,sp,128
     bb4:	5e00                	lw	s0,56(a2)
     bb6:	06f0                	addi	a2,sp,844
     bb8:	0000                	unimp
     bba:	06f4                	addi	a3,sp,844
     bbc:	0000                	unimp
     bbe:	307e0003          	lb	zero,775(t3)
     bc2:	f49f 0006 0000      	0x6f49f
     bc8:	01000007          	0x1000007
     bcc:	5e00                	lw	s0,56(a2)
     bce:	0700                	addi	s0,sp,896
     bd0:	0000                	unimp
     bd2:	0704                	addi	s1,sp,896
     bd4:	0000                	unimp
     bd6:	307e0003          	lb	zero,775(t3)
     bda:	049f 0007 1000      	0x10000007049f
     be0:	01000007          	0x1000007
     be4:	5e00                	lw	s0,56(a2)
     be6:	0710                	addi	a2,sp,896
     be8:	0000                	unimp
     bea:	0714                	addi	a3,sp,896
     bec:	0000                	unimp
     bee:	307e0003          	lb	zero,775(t3)
     bf2:	149f 0007 2000      	0x20000007149f
     bf8:	01000007          	0x1000007
     bfc:	5e00                	lw	s0,56(a2)
     bfe:	0720                	addi	s0,sp,904
     c00:	0000                	unimp
     c02:	0724                	addi	s1,sp,904
     c04:	0000                	unimp
     c06:	307e0003          	lb	zero,775(t3)
     c0a:	249f 0007 3000      	0x30000007249f
     c10:	01000007          	0x1000007
     c14:	5e00                	lw	s0,56(a2)
     c16:	0730                	addi	a2,sp,904
     c18:	0000                	unimp
     c1a:	0734                	addi	a3,sp,904
     c1c:	0000                	unimp
     c1e:	307e0003          	lb	zero,775(t3)
     c22:	349f 0007 4000      	0x40000007349f
     c28:	01000007          	0x1000007
     c2c:	5e00                	lw	s0,56(a2)
     c2e:	0740                	addi	s0,sp,900
     c30:	0000                	unimp
     c32:	0744                	addi	s1,sp,900
     c34:	0000                	unimp
     c36:	307e0003          	lb	zero,775(t3)
     c3a:	449f 0007 4c00      	0x4c000007449f
     c40:	01000007          	0x1000007
     c44:	5e00                	lw	s0,56(a2)
	...
     c4e:	0554                	addi	a3,sp,644
     c50:	0000                	unimp
     c52:	0564                	addi	s1,sp,652
     c54:	0000                	unimp
     c56:	0001                	nop
     c58:	005f 0000 0000      	0x5f
     c5e:	0000                	unimp
     c60:	5800                	lw	s0,48(s0)
     c62:	0005                	c.nop	1
     c64:	6000                	flw	fs0,0(s0)
     c66:	0005                	c.nop	1
     c68:	0600                	addi	s0,sp,768
     c6a:	7e00                	flw	fs0,56(a2)
     c6c:	0800                	addi	s0,sp,16
     c6e:	1aff                	0x1aff
     c70:	009f 0000 0000      	0x9f
     c76:	0000                	unimp
     c78:	6800                	flw	fs0,16(s0)
     c7a:	0005                	c.nop	1
     c7c:	7c00                	flw	fs0,56(s0)
     c7e:	0005                	c.nop	1
     c80:	0100                	addi	s0,sp,128
     c82:	5f00                	lw	s0,56(a4)
     c84:	057c                	addi	a5,sp,652
     c86:	0000                	unimp
     c88:	0580                	addi	s0,sp,704
     c8a:	0000                	unimp
     c8c:	0005                	c.nop	1
     c8e:	007f                	0x7f
     c90:	2434                	fld	fa3,72(s0)
     c92:	809f 0005 8400      	0x84000005809f
     c98:	0005                	c.nop	1
     c9a:	0100                	addi	s0,sp,128
     c9c:	5e00                	lw	s0,56(a2)
     c9e:	0584                	addi	s1,sp,704
     ca0:	0000                	unimp
     ca2:	0598                	addi	a4,sp,704
     ca4:	0000                	unimp
     ca6:	0005                	c.nop	1
     ca8:	007f                	0x7f
     caa:	2434                	fld	fa3,72(s0)
     cac:	989f 0005 9c00      	0x9c000005989f
     cb2:	0005                	c.nop	1
     cb4:	0500                	addi	s0,sp,640
     cb6:	7f00                	flw	fs0,56(a4)
     cb8:	3800                	fld	fs0,48(s0)
     cba:	9f24                	0x9f24
     cbc:	059c                	addi	a5,sp,704
     cbe:	0000                	unimp
     cc0:	05a0                	addi	s0,sp,712
     cc2:	0000                	unimp
     cc4:	0001                	nop
     cc6:	a05e                	fsd	fs7,0(sp)
     cc8:	0005                	c.nop	1
     cca:	b400                	fsd	fs0,40(s0)
     ccc:	0005                	c.nop	1
     cce:	0500                	addi	s0,sp,640
     cd0:	7f00                	flw	fs0,56(a4)
     cd2:	3800                	fld	fs0,48(s0)
     cd4:	9f24                	0x9f24
     cd6:	05b4                	addi	a3,sp,712
     cd8:	0000                	unimp
     cda:	05b8                	addi	a4,sp,712
     cdc:	0000                	unimp
     cde:	0005                	c.nop	1
     ce0:	007f                	0x7f
     ce2:	243c                	fld	fa5,72(s0)
     ce4:	b89f 0005 bc00      	0xbc000005b89f
     cea:	0005                	c.nop	1
     cec:	0100                	addi	s0,sp,128
     cee:	5e00                	lw	s0,56(a2)
     cf0:	05bc                	addi	a5,sp,712
     cf2:	0000                	unimp
     cf4:	05d0                	addi	a2,sp,708
     cf6:	0000                	unimp
     cf8:	0005                	c.nop	1
     cfa:	007f                	0x7f
     cfc:	243c                	fld	fa5,72(s0)
     cfe:	d09f 0005 d400      	0xd4000005d09f
     d04:	0005                	c.nop	1
     d06:	0500                	addi	s0,sp,640
     d08:	7f00                	flw	fs0,56(a4)
     d0a:	4000                	lw	s0,0(s0)
     d0c:	9f24                	0x9f24
     d0e:	05d4                	addi	a3,sp,708
     d10:	0000                	unimp
     d12:	05d8                	addi	a4,sp,708
     d14:	0000                	unimp
     d16:	0001                	nop
     d18:	d85e                	sw	s7,48(sp)
     d1a:	0005                	c.nop	1
     d1c:	ec00                	fsw	fs0,24(s0)
     d1e:	0005                	c.nop	1
     d20:	0500                	addi	s0,sp,640
     d22:	7f00                	flw	fs0,56(a4)
     d24:	4000                	lw	s0,0(s0)
     d26:	9f24                	0x9f24
     d28:	05ec                	addi	a1,sp,716
     d2a:	0000                	unimp
     d2c:	05f0                	addi	a2,sp,716
     d2e:	0000                	unimp
     d30:	0005                	c.nop	1
     d32:	007f                	0x7f
     d34:	2444                	fld	fs1,136(s0)
     d36:	f09f 0005 f400      	0xf4000005f09f
     d3c:	0005                	c.nop	1
     d3e:	0100                	addi	s0,sp,128
     d40:	5e00                	lw	s0,56(a2)
     d42:	05f4                	addi	a3,sp,716
     d44:	0000                	unimp
     d46:	0608                	addi	a0,sp,768
     d48:	0000                	unimp
     d4a:	0005                	c.nop	1
     d4c:	007f                	0x7f
     d4e:	2444                	fld	fs1,136(s0)
     d50:	089f 0006 0c00      	0xc000006089f
     d56:	0006                	c.slli	zero,0x1
     d58:	0500                	addi	s0,sp,640
     d5a:	7f00                	flw	fs0,56(a4)
     d5c:	4800                	lw	s0,16(s0)
     d5e:	9f24                	0x9f24
     d60:	060c                	addi	a1,sp,768
     d62:	0000                	unimp
     d64:	0610                	addi	a2,sp,768
     d66:	0000                	unimp
     d68:	0001                	nop
     d6a:	105e                	c.slli	zero,0x37
     d6c:	0006                	c.slli	zero,0x1
     d6e:	2400                	fld	fs0,8(s0)
     d70:	0006                	c.slli	zero,0x1
     d72:	0500                	addi	s0,sp,640
     d74:	7f00                	flw	fs0,56(a4)
     d76:	4800                	lw	s0,16(s0)
     d78:	9f24                	0x9f24
     d7a:	0624                	addi	s1,sp,776
     d7c:	0000                	unimp
     d7e:	0628                	addi	a0,sp,776
     d80:	0000                	unimp
     d82:	0005                	c.nop	1
     d84:	007f                	0x7f
     d86:	244c                	fld	fa1,136(s0)
     d88:	649f 0006 7400      	0x74000006649f
     d8e:	0006                	c.slli	zero,0x1
     d90:	0500                	addi	s0,sp,640
     d92:	7f00                	flw	fs0,56(a4)
     d94:	4800                	lw	s0,16(s0)
     d96:	9f24                	0x9f24
     d98:	0674                	addi	a3,sp,780
     d9a:	0000                	unimp
     d9c:	0684                	addi	s1,sp,832
     d9e:	0000                	unimp
     da0:	0005                	c.nop	1
     da2:	007f                	0x7f
     da4:	2444                	fld	fs1,136(s0)
     da6:	849f 0006 9400      	0x94000006849f
     dac:	0006                	c.slli	zero,0x1
     dae:	0500                	addi	s0,sp,640
     db0:	7f00                	flw	fs0,56(a4)
     db2:	4000                	lw	s0,0(s0)
     db4:	9f24                	0x9f24
     db6:	0694                	addi	a3,sp,832
     db8:	0000                	unimp
     dba:	06a4                	addi	s1,sp,840
     dbc:	0000                	unimp
     dbe:	0005                	c.nop	1
     dc0:	007f                	0x7f
     dc2:	243c                	fld	fa5,72(s0)
     dc4:	a49f 0006 b400      	0xb4000006a49f
     dca:	0006                	c.slli	zero,0x1
     dcc:	0500                	addi	s0,sp,640
     dce:	7f00                	flw	fs0,56(a4)
     dd0:	3800                	fld	fs0,48(s0)
     dd2:	9f24                	0x9f24
     dd4:	06b4                	addi	a3,sp,840
     dd6:	0000                	unimp
     dd8:	06c4                	addi	s1,sp,836
     dda:	0000                	unimp
     ddc:	0005                	c.nop	1
     dde:	007f                	0x7f
     de0:	2434                	fld	fa3,72(s0)
     de2:	c49f 0006 d000      	0xd0000006c49f
     de8:	0006                	c.slli	zero,0x1
     dea:	0100                	addi	s0,sp,128
     dec:	5f00                	lw	s0,56(a4)
	...
     df6:	0570                	addi	a2,sp,652
     df8:	0000                	unimp
     dfa:	0578                	addi	a4,sp,652
     dfc:	0000                	unimp
     dfe:	0001                	nop
     e00:	785e                	flw	fa6,244(sp)
     e02:	0005                	c.nop	1
     e04:	7c00                	flw	fs0,56(s0)
     e06:	0005                	c.nop	1
     e08:	0300                	addi	s0,sp,384
     e0a:	7e00                	flw	fs0,56(a2)
     e0c:	9f49                	0x9f49
     e0e:	057c                	addi	a5,sp,652
     e10:	0000                	unimp
     e12:	0584                	addi	s1,sp,704
     e14:	0000                	unimp
     e16:	0005                	c.nop	1
     e18:	007f                	0x7f
     e1a:	254c                	fld	fa1,136(a0)
     e1c:	849f 0005 9000      	0x90000005849f
     e22:	0005                	c.nop	1
     e24:	0100                	addi	s0,sp,128
     e26:	5e00                	lw	s0,56(a2)
     e28:	0590                	addi	a2,sp,704
     e2a:	0000                	unimp
     e2c:	0598                	addi	a4,sp,704
     e2e:	0000                	unimp
     e30:	497e0003          	lb	zero,1175(t3)
     e34:	989f 0005 a000      	0xa0000005989f
     e3a:	0005                	c.nop	1
     e3c:	0700                	addi	s0,sp,896
     e3e:	7f00                	flw	fs0,56(a4)
     e40:	3400                	fld	fs0,40(s0)
     e42:	4c24                	lw	s1,88(s0)
     e44:	9f25                	0x9f25
     e46:	05a0                	addi	s0,sp,712
     e48:	0000                	unimp
     e4a:	05ac                	addi	a1,sp,712
     e4c:	0000                	unimp
     e4e:	0001                	nop
     e50:	ac5e                	fsd	fs7,24(sp)
     e52:	0005                	c.nop	1
     e54:	b400                	fsd	fs0,40(s0)
     e56:	0005                	c.nop	1
     e58:	0300                	addi	s0,sp,384
     e5a:	7e00                	flw	fs0,56(a2)
     e5c:	9f49                	0x9f49
     e5e:	05b4                	addi	a3,sp,712
     e60:	0000                	unimp
     e62:	05bc                	addi	a5,sp,712
     e64:	0000                	unimp
     e66:	007f0007          	0x7f0007
     e6a:	2438                	fld	fa4,72(s0)
     e6c:	254c                	fld	fa1,136(a0)
     e6e:	bc9f 0005 c800      	0xc8000005bc9f
     e74:	0005                	c.nop	1
     e76:	0100                	addi	s0,sp,128
     e78:	5e00                	lw	s0,56(a2)
     e7a:	05c8                	addi	a0,sp,708
     e7c:	0000                	unimp
     e7e:	05d0                	addi	a2,sp,708
     e80:	0000                	unimp
     e82:	497e0003          	lb	zero,1175(t3)
     e86:	d09f 0005 d800      	0xd8000005d09f
     e8c:	0005                	c.nop	1
     e8e:	0700                	addi	s0,sp,896
     e90:	7f00                	flw	fs0,56(a4)
     e92:	3c00                	fld	fs0,56(s0)
     e94:	4c24                	lw	s1,88(s0)
     e96:	9f25                	0x9f25
     e98:	05d8                	addi	a4,sp,708
     e9a:	0000                	unimp
     e9c:	05e4                	addi	s1,sp,716
     e9e:	0000                	unimp
     ea0:	0001                	nop
     ea2:	e45e                	fsw	fs7,8(sp)
     ea4:	0005                	c.nop	1
     ea6:	ec00                	fsw	fs0,24(s0)
     ea8:	0005                	c.nop	1
     eaa:	0300                	addi	s0,sp,384
     eac:	7e00                	flw	fs0,56(a2)
     eae:	9f49                	0x9f49
     eb0:	05ec                	addi	a1,sp,716
     eb2:	0000                	unimp
     eb4:	05f4                	addi	a3,sp,716
     eb6:	0000                	unimp
     eb8:	007f0007          	0x7f0007
     ebc:	2440                	fld	fs0,136(s0)
     ebe:	254c                	fld	fa1,136(a0)
     ec0:	f49f 0005 0000      	0x5f49f
     ec6:	0006                	c.slli	zero,0x1
     ec8:	0100                	addi	s0,sp,128
     eca:	5e00                	lw	s0,56(a2)
     ecc:	0600                	addi	s0,sp,768
     ece:	0000                	unimp
     ed0:	0608                	addi	a0,sp,768
     ed2:	0000                	unimp
     ed4:	497e0003          	lb	zero,1175(t3)
     ed8:	089f 0006 1000      	0x10000006089f
     ede:	0006                	c.slli	zero,0x1
     ee0:	0700                	addi	s0,sp,896
     ee2:	7f00                	flw	fs0,56(a4)
     ee4:	4400                	lw	s0,8(s0)
     ee6:	4c24                	lw	s1,88(s0)
     ee8:	9f25                	0x9f25
     eea:	0610                	addi	a2,sp,768
     eec:	0000                	unimp
     eee:	061c                	addi	a5,sp,768
     ef0:	0000                	unimp
     ef2:	0001                	nop
     ef4:	1c5e                	slli	s8,s8,0x37
     ef6:	0006                	c.slli	zero,0x1
     ef8:	2400                	fld	fs0,8(s0)
     efa:	0006                	c.slli	zero,0x1
     efc:	0300                	addi	s0,sp,384
     efe:	7e00                	flw	fs0,56(a2)
     f00:	9f49                	0x9f49
     f02:	0624                	addi	s1,sp,776
     f04:	0000                	unimp
     f06:	0628                	addi	a0,sp,776
     f08:	0000                	unimp
     f0a:	007f0007          	0x7f0007
     f0e:	2448                	fld	fa0,136(s0)
     f10:	254c                	fld	fa1,136(a0)
     f12:	289f 0006 3400      	0x34000006289f
     f18:	0006                	c.slli	zero,0x1
     f1a:	0100                	addi	s0,sp,128
     f1c:	5f00                	lw	s0,56(a4)
     f1e:	0634                	addi	a3,sp,776
     f20:	0000                	unimp
     f22:	063c                	addi	a5,sp,776
     f24:	0000                	unimp
     f26:	507f0003          	lb	zero,1287(t5)
     f2a:	549f 0006 5800      	0x58000006549f
     f30:	0006                	c.slli	zero,0x1
     f32:	0100                	addi	s0,sp,128
     f34:	5f00                	lw	s0,56(a4)
     f36:	0658                	addi	a4,sp,772
     f38:	0000                	unimp
     f3a:	0664                	addi	s1,sp,780
     f3c:	0000                	unimp
     f3e:	497f0003          	lb	zero,1175(t5)
     f42:	649f 0006 6800      	0x68000006649f
     f48:	0006                	c.slli	zero,0x1
     f4a:	0100                	addi	s0,sp,128
     f4c:	5e00                	lw	s0,56(a2)
     f4e:	0668                	addi	a0,sp,780
     f50:	0000                	unimp
     f52:	0674                	addi	a3,sp,780
     f54:	0000                	unimp
     f56:	507e0003          	lb	zero,1287(t3)
     f5a:	749f 0006 7800      	0x78000006749f
     f60:	0006                	c.slli	zero,0x1
     f62:	0100                	addi	s0,sp,128
     f64:	5e00                	lw	s0,56(a2)
     f66:	0678                	addi	a4,sp,780
     f68:	0000                	unimp
     f6a:	0684                	addi	s1,sp,832
     f6c:	0000                	unimp
     f6e:	507e0003          	lb	zero,1287(t3)
     f72:	849f 0006 8800      	0x88000006849f
     f78:	0006                	c.slli	zero,0x1
     f7a:	0100                	addi	s0,sp,128
     f7c:	5e00                	lw	s0,56(a2)
     f7e:	0688                	addi	a0,sp,832
     f80:	0000                	unimp
     f82:	0694                	addi	a3,sp,832
     f84:	0000                	unimp
     f86:	507e0003          	lb	zero,1287(t3)
     f8a:	949f 0006 9800      	0x98000006949f
     f90:	0006                	c.slli	zero,0x1
     f92:	0100                	addi	s0,sp,128
     f94:	5e00                	lw	s0,56(a2)
     f96:	0698                	addi	a4,sp,832
     f98:	0000                	unimp
     f9a:	06a4                	addi	s1,sp,840
     f9c:	0000                	unimp
     f9e:	507e0003          	lb	zero,1287(t3)
     fa2:	a49f 0006 a800      	0xa8000006a49f
     fa8:	0006                	c.slli	zero,0x1
     faa:	0100                	addi	s0,sp,128
     fac:	5e00                	lw	s0,56(a2)
     fae:	06a8                	addi	a0,sp,840
     fb0:	0000                	unimp
     fb2:	06b4                	addi	a3,sp,840
     fb4:	0000                	unimp
     fb6:	507e0003          	lb	zero,1287(t3)
     fba:	b49f 0006 b800      	0xb8000006b49f
     fc0:	0006                	c.slli	zero,0x1
     fc2:	0100                	addi	s0,sp,128
     fc4:	5e00                	lw	s0,56(a2)
     fc6:	06b8                	addi	a4,sp,840
     fc8:	0000                	unimp
     fca:	06c4                	addi	s1,sp,836
     fcc:	0000                	unimp
     fce:	507e0003          	lb	zero,1287(t3)
     fd2:	c49f 0006 c800      	0xc8000006c49f
     fd8:	0006                	c.slli	zero,0x1
     fda:	0100                	addi	s0,sp,128
     fdc:	5e00                	lw	s0,56(a2)
     fde:	06c8                	addi	a0,sp,836
     fe0:	0000                	unimp
     fe2:	06d0                	addi	a2,sp,836
     fe4:	0000                	unimp
     fe6:	507e0003          	lb	zero,1287(t3)
     fea:	009f 0000 0000      	0x9f
     ff0:	0000                	unimp
     ff2:	7400                	flw	fs0,40(s0)
     ff4:	0005                	c.nop	1
     ff6:	7800                	flw	fs0,48(s0)
     ff8:	0005                	c.nop	1
     ffa:	0300                	addi	s0,sp,384
     ffc:	7e00                	flw	fs0,56(a2)
     ffe:	05789f37          	lui	t5,0x5789
    1002:	0000                	unimp
    1004:	057c                	addi	a5,sp,652
    1006:	0000                	unimp
    1008:	0001                	nop
    100a:	8c5e                	mv	s8,s7
    100c:	0005                	c.nop	1
    100e:	9000                	0x9000
    1010:	0005                	c.nop	1
    1012:	0300                	addi	s0,sp,384
    1014:	7e00                	flw	fs0,56(a2)
    1016:	05909f37          	lui	t5,0x5909
    101a:	0000                	unimp
    101c:	0598                	addi	a4,sp,704
    101e:	0000                	unimp
    1020:	0001                	nop
    1022:	a85e                	fsd	fs7,16(sp)
    1024:	0005                	c.nop	1
    1026:	ac00                	fsd	fs0,24(s0)
    1028:	0005                	c.nop	1
    102a:	0300                	addi	s0,sp,384
    102c:	7e00                	flw	fs0,56(a2)
    102e:	05ac9f37          	lui	t5,0x5ac9
    1032:	0000                	unimp
    1034:	05b4                	addi	a3,sp,712
    1036:	0000                	unimp
    1038:	0001                	nop
    103a:	c45e                	sw	s7,8(sp)
    103c:	0005                	c.nop	1
    103e:	c800                	sw	s0,16(s0)
    1040:	0005                	c.nop	1
    1042:	0300                	addi	s0,sp,384
    1044:	7e00                	flw	fs0,56(a2)
    1046:	05c89f37          	lui	t5,0x5c89
    104a:	0000                	unimp
    104c:	05d0                	addi	a2,sp,708
    104e:	0000                	unimp
    1050:	0001                	nop
    1052:	e05e                	fsw	fs7,0(sp)
    1054:	0005                	c.nop	1
    1056:	e400                	fsw	fs0,8(s0)
    1058:	0005                	c.nop	1
    105a:	0300                	addi	s0,sp,384
    105c:	7e00                	flw	fs0,56(a2)
    105e:	05e49f37          	lui	t5,0x5e49
    1062:	0000                	unimp
    1064:	05ec                	addi	a1,sp,716
    1066:	0000                	unimp
    1068:	0001                	nop
    106a:	fc5e                	fsw	fs7,56(sp)
    106c:	0005                	c.nop	1
    106e:	0000                	unimp
    1070:	0006                	c.slli	zero,0x1
    1072:	0300                	addi	s0,sp,384
    1074:	7e00                	flw	fs0,56(a2)
    1076:	06009f37          	lui	t5,0x6009
    107a:	0000                	unimp
    107c:	0608                	addi	a0,sp,768
    107e:	0000                	unimp
    1080:	0001                	nop
    1082:	185e                	slli	a6,a6,0x37
    1084:	0006                	c.slli	zero,0x1
    1086:	1c00                	addi	s0,sp,560
    1088:	0006                	c.slli	zero,0x1
    108a:	0300                	addi	s0,sp,384
    108c:	7e00                	flw	fs0,56(a2)
    108e:	061c9f37          	lui	t5,0x61c9
    1092:	0000                	unimp
    1094:	0624                	addi	s1,sp,776
    1096:	0000                	unimp
    1098:	0001                	nop
    109a:	545e                	lw	s0,244(sp)
    109c:	0006                	c.slli	zero,0x1
    109e:	5800                	lw	s0,48(s0)
    10a0:	0006                	c.slli	zero,0x1
    10a2:	0300                	addi	s0,sp,384
    10a4:	7f00                	flw	fs0,56(a4)
    10a6:	06589f37          	lui	t5,0x6589
    10aa:	0000                	unimp
    10ac:	0664                	addi	s1,sp,780
    10ae:	0000                	unimp
    10b0:	0001                	nop
    10b2:	005f 0000 0000      	0x5f
    10b8:	0000                	unimp
    10ba:	3000                	fld	fs0,32(s0)
    10bc:	0006                	c.slli	zero,0x1
    10be:	3400                	fld	fs0,40(s0)
    10c0:	0006                	c.slli	zero,0x1
    10c2:	0300                	addi	s0,sp,384
    10c4:	7f00                	flw	fs0,56(a4)
    10c6:	9f30                	0x9f30
    10c8:	0634                	addi	a3,sp,776
    10ca:	0000                	unimp
    10cc:	063c                	addi	a5,sp,776
    10ce:	0000                	unimp
    10d0:	0001                	nop
    10d2:	645f 0006 6800      	0x68000006645f
    10d8:	0006                	c.slli	zero,0x1
    10da:	0300                	addi	s0,sp,384
    10dc:	7e00                	flw	fs0,56(a2)
    10de:	9f30                	0x9f30
    10e0:	0668                	addi	a0,sp,780
    10e2:	0000                	unimp
    10e4:	0674                	addi	a3,sp,780
    10e6:	0000                	unimp
    10e8:	0001                	nop
    10ea:	745e                	flw	fs0,244(sp)
    10ec:	0006                	c.slli	zero,0x1
    10ee:	7800                	flw	fs0,48(s0)
    10f0:	0006                	c.slli	zero,0x1
    10f2:	0300                	addi	s0,sp,384
    10f4:	7e00                	flw	fs0,56(a2)
    10f6:	9f30                	0x9f30
    10f8:	0678                	addi	a4,sp,780
    10fa:	0000                	unimp
    10fc:	0684                	addi	s1,sp,832
    10fe:	0000                	unimp
    1100:	0001                	nop
    1102:	845e                	mv	s0,s7
    1104:	0006                	c.slli	zero,0x1
    1106:	8800                	0x8800
    1108:	0006                	c.slli	zero,0x1
    110a:	0300                	addi	s0,sp,384
    110c:	7e00                	flw	fs0,56(a2)
    110e:	9f30                	0x9f30
    1110:	0688                	addi	a0,sp,832
    1112:	0000                	unimp
    1114:	0694                	addi	a3,sp,832
    1116:	0000                	unimp
    1118:	0001                	nop
    111a:	945e                	add	s0,s0,s7
    111c:	0006                	c.slli	zero,0x1
    111e:	9800                	0x9800
    1120:	0006                	c.slli	zero,0x1
    1122:	0300                	addi	s0,sp,384
    1124:	7e00                	flw	fs0,56(a2)
    1126:	9f30                	0x9f30
    1128:	0698                	addi	a4,sp,832
    112a:	0000                	unimp
    112c:	06a4                	addi	s1,sp,840
    112e:	0000                	unimp
    1130:	0001                	nop
    1132:	a45e                	fsd	fs7,8(sp)
    1134:	0006                	c.slli	zero,0x1
    1136:	a800                	fsd	fs0,16(s0)
    1138:	0006                	c.slli	zero,0x1
    113a:	0300                	addi	s0,sp,384
    113c:	7e00                	flw	fs0,56(a2)
    113e:	9f30                	0x9f30
    1140:	06a8                	addi	a0,sp,840
    1142:	0000                	unimp
    1144:	06b4                	addi	a3,sp,840
    1146:	0000                	unimp
    1148:	0001                	nop
    114a:	b45e                	fsd	fs7,40(sp)
    114c:	0006                	c.slli	zero,0x1
    114e:	b800                	fsd	fs0,48(s0)
    1150:	0006                	c.slli	zero,0x1
    1152:	0300                	addi	s0,sp,384
    1154:	7e00                	flw	fs0,56(a2)
    1156:	9f30                	0x9f30
    1158:	06b8                	addi	a4,sp,840
    115a:	0000                	unimp
    115c:	06c4                	addi	s1,sp,836
    115e:	0000                	unimp
    1160:	0001                	nop
    1162:	c45e                	sw	s7,8(sp)
    1164:	0006                	c.slli	zero,0x1
    1166:	c800                	sw	s0,16(s0)
    1168:	0006                	c.slli	zero,0x1
    116a:	0300                	addi	s0,sp,384
    116c:	7e00                	flw	fs0,56(a2)
    116e:	9f30                	0x9f30
    1170:	06c8                	addi	a0,sp,836
    1172:	0000                	unimp
    1174:	06d0                	addi	a2,sp,836
    1176:	0000                	unimp
    1178:	0001                	nop
    117a:	005e                	c.slli	zero,0x17
    117c:	0000                	unimp
    117e:	0000                	unimp
    1180:	0000                	unimp
    1182:	3c00                	fld	fs0,56(s0)
    1184:	0006                	c.slli	zero,0x1
    1186:	4800                	lw	s0,16(s0)
    1188:	0006                	c.slli	zero,0x1
    118a:	0200                	addi	s0,sp,256
    118c:	3a00                	fld	fs0,48(a2)
    118e:	009f 0000 0000      	0x9f
    1194:	0000                	unimp
    1196:	ec00                	fsw	fs0,24(s0)
    1198:	0002                	c.slli64	zero
    119a:	f000                	fsw	fs0,32(s0)
    119c:	0002                	c.slli64	zero
    119e:	0100                	addi	s0,sp,128
    11a0:	5a00                	lw	s0,48(a2)
    11a2:	02f0                	addi	a2,sp,332
    11a4:	0000                	unimp
    11a6:	02fc                	addi	a5,sp,332
    11a8:	0000                	unimp
    11aa:	0004                	0x4
    11ac:	9f5a01f3          	0x9f5a01f3
	...
    11b8:	02ec                	addi	a1,sp,332
    11ba:	0000                	unimp
    11bc:	02f0                	addi	a2,sp,332
    11be:	0000                	unimp
    11c0:	0009                	c.nop	2
    11c2:	007a                	c.slli	zero,0x1e
    11c4:	2930                	fld	fa2,80(a0)
    11c6:	ff08                	fsw	fa0,56(a4)
    11c8:	1f1a                	slli	t5,t5,0x26
    11ca:	f09f 0002 fc00      	0xfc000002f09f
    11d0:	0002                	c.slli64	zero
    11d2:	0a00                	addi	s0,sp,272
    11d4:	f300                	fsw	fs0,32(a4)
    11d6:	5a01                	li	s4,-32
    11d8:	2930                	fld	fa2,80(a0)
    11da:	ff08                	fsw	fa0,56(a4)
    11dc:	1f1a                	slli	t5,t5,0x26
    11de:	009f 0000 0000      	0x9f
    11e4:	0000                	unimp
    11e6:	1000                	addi	s0,sp,32
    11e8:	0000                	unimp
    11ea:	2000                	fld	fs0,0(s0)
    11ec:	0000                	unimp
    11ee:	0100                	addi	s0,sp,128
    11f0:	5a00                	lw	s0,48(a2)
    11f2:	0020                	addi	s0,sp,8
    11f4:	0000                	unimp
    11f6:	0030                	addi	a2,sp,8
    11f8:	0000                	unimp
    11fa:	0001                	nop
    11fc:	005a                	c.slli	zero,0x16
    11fe:	0000                	unimp
    1200:	0000                	unimp
    1202:	0000                	unimp
    1204:	2000                	fld	fs0,0(s0)
    1206:	0000                	unimp
    1208:	2800                	fld	fs0,16(s0)
    120a:	0000                	unimp
    120c:	0600                	addi	s0,sp,768
    120e:	7f00                	flw	fs0,56(a4)
    1210:	0800                	addi	s0,sp,16
    1212:	1aff                	0x1aff
    1214:	009f 0000 0000      	0x9f
    121a:	0000                	unimp
    121c:	3400                	fld	fs0,40(s0)
    121e:	0000                	unimp
    1220:	4c00                	lw	s0,24(s0)
    1222:	0000                	unimp
    1224:	0100                	addi	s0,sp,128
    1226:	5a00                	lw	s0,48(a2)
    1228:	004c                	addi	a1,sp,4
    122a:	0000                	unimp
    122c:	0050                	addi	a2,sp,4
    122e:	0000                	unimp
    1230:	0005                	c.nop	1
    1232:	007a                	c.slli	zero,0x1e
    1234:	2434                	fld	fa3,72(s0)
    1236:	509f 0000 5400      	0x54000000509f
    123c:	0000                	unimp
    123e:	0100                	addi	s0,sp,128
    1240:	5f00                	lw	s0,56(a4)
    1242:	0054                	addi	a3,sp,4
    1244:	0000                	unimp
    1246:	005c                	addi	a5,sp,4
    1248:	0000                	unimp
    124a:	0005                	c.nop	1
    124c:	007a                	c.slli	zero,0x1e
    124e:	2434                	fld	fa3,72(s0)
    1250:	689f 0000 6c00      	0x6c000000689f
    1256:	0000                	unimp
    1258:	0500                	addi	s0,sp,640
    125a:	7a00                	flw	fs0,48(a2)
    125c:	3800                	fld	fs0,48(s0)
    125e:	9f24                	0x9f24
    1260:	006c                	addi	a1,sp,12
    1262:	0000                	unimp
    1264:	0070                	addi	a2,sp,12
    1266:	0000                	unimp
    1268:	0001                	nop
    126a:	705f 0000 7800      	0x78000000705f
    1270:	0000                	unimp
    1272:	0500                	addi	s0,sp,640
    1274:	7a00                	flw	fs0,48(a2)
    1276:	3800                	fld	fs0,48(s0)
    1278:	9f24                	0x9f24
    127a:	0084                	addi	s1,sp,64
    127c:	0000                	unimp
    127e:	0088                	addi	a0,sp,64
    1280:	0000                	unimp
    1282:	0005                	c.nop	1
    1284:	007a                	c.slli	zero,0x1e
    1286:	243c                	fld	fa5,72(s0)
    1288:	889f 0000 8c00      	0x8c000000889f
    128e:	0000                	unimp
    1290:	0100                	addi	s0,sp,128
    1292:	5f00                	lw	s0,56(a4)
    1294:	008c                	addi	a1,sp,64
    1296:	0000                	unimp
    1298:	0094                	addi	a3,sp,64
    129a:	0000                	unimp
    129c:	0005                	c.nop	1
    129e:	007a                	c.slli	zero,0x1e
    12a0:	243c                	fld	fa5,72(s0)
    12a2:	a09f 0000 a400      	0xa4000000a09f
    12a8:	0000                	unimp
    12aa:	0500                	addi	s0,sp,640
    12ac:	7a00                	flw	fs0,48(a2)
    12ae:	4000                	lw	s0,0(s0)
    12b0:	9f24                	0x9f24
    12b2:	00a4                	addi	s1,sp,72
    12b4:	0000                	unimp
    12b6:	00a8                	addi	a0,sp,72
    12b8:	0000                	unimp
    12ba:	0001                	nop
    12bc:	a85f 0000 b000      	0xb0000000a85f
    12c2:	0000                	unimp
    12c4:	0500                	addi	s0,sp,640
    12c6:	7a00                	flw	fs0,48(a2)
    12c8:	4000                	lw	s0,0(s0)
    12ca:	9f24                	0x9f24
    12cc:	00bc                	addi	a5,sp,72
    12ce:	0000                	unimp
    12d0:	00c0                	addi	s0,sp,68
    12d2:	0000                	unimp
    12d4:	0005                	c.nop	1
    12d6:	007a                	c.slli	zero,0x1e
    12d8:	2444                	fld	fs1,136(s0)
    12da:	c09f 0000 c400      	0xc4000000c09f
    12e0:	0000                	unimp
    12e2:	0100                	addi	s0,sp,128
    12e4:	5f00                	lw	s0,56(a4)
    12e6:	00c4                	addi	s1,sp,68
    12e8:	0000                	unimp
    12ea:	00cc                	addi	a1,sp,68
    12ec:	0000                	unimp
    12ee:	0005                	c.nop	1
    12f0:	007a                	c.slli	zero,0x1e
    12f2:	2444                	fld	fs1,136(s0)
    12f4:	d89f 0000 dc00      	0xdc000000d89f
    12fa:	0000                	unimp
    12fc:	0500                	addi	s0,sp,640
    12fe:	7a00                	flw	fs0,48(a2)
    1300:	4800                	lw	s0,16(s0)
    1302:	9f24                	0x9f24
    1304:	00dc                	addi	a5,sp,68
    1306:	0000                	unimp
    1308:	00e0                	addi	s0,sp,76
    130a:	0000                	unimp
    130c:	0001                	nop
    130e:	e05f 0000 e800      	0xe8000000e05f
    1314:	0000                	unimp
    1316:	0500                	addi	s0,sp,640
    1318:	7a00                	flw	fs0,48(a2)
    131a:	4800                	lw	s0,16(s0)
    131c:	9f24                	0x9f24
    131e:	00f4                	addi	a3,sp,76
    1320:	0000                	unimp
    1322:	00f8                	addi	a4,sp,76
    1324:	0000                	unimp
    1326:	0005                	c.nop	1
    1328:	007a                	c.slli	zero,0x1e
    132a:	244c                	fld	fa1,136(s0)
    132c:	f89f 0000 0000      	0xf89f
    1332:	0001                	nop
    1334:	0600                	addi	s0,sp,768
    1336:	f300                	fsw	fs0,32(a4)
    1338:	5a01                	li	s4,-32
    133a:	244c                	fld	fa1,136(s0)
    133c:	109f 0001 1c00      	0x1c000001109f
    1342:	0001                	nop
    1344:	0100                	addi	s0,sp,128
    1346:	5a00                	lw	s0,48(a2)
    1348:	011c                	addi	a5,sp,128
    134a:	0000                	unimp
    134c:	0120                	addi	s0,sp,136
    134e:	0000                	unimp
    1350:	0005                	c.nop	1
    1352:	007a                	c.slli	zero,0x1e
    1354:	2434                	fld	fa3,72(s0)
    1356:	209f 0001 2400      	0x24000001209f
    135c:	0001                	nop
    135e:	0100                	addi	s0,sp,128
    1360:	5f00                	lw	s0,56(a4)
    1362:	0124                	addi	s1,sp,136
    1364:	0000                	unimp
    1366:	012c                	addi	a1,sp,136
    1368:	0000                	unimp
    136a:	0005                	c.nop	1
    136c:	007a                	c.slli	zero,0x1e
    136e:	2434                	fld	fa3,72(s0)
    1370:	389f 0001 3c00      	0x3c000001389f
    1376:	0001                	nop
    1378:	0500                	addi	s0,sp,640
    137a:	7a00                	flw	fs0,48(a2)
    137c:	3800                	fld	fs0,48(s0)
    137e:	9f24                	0x9f24
    1380:	013c                	addi	a5,sp,136
    1382:	0000                	unimp
    1384:	0140                	addi	s0,sp,132
    1386:	0000                	unimp
    1388:	0001                	nop
    138a:	405f 0001 4800      	0x48000001405f
    1390:	0001                	nop
    1392:	0500                	addi	s0,sp,640
    1394:	7a00                	flw	fs0,48(a2)
    1396:	3800                	fld	fs0,48(s0)
    1398:	9f24                	0x9f24
    139a:	0154                	addi	a3,sp,132
    139c:	0000                	unimp
    139e:	0158                	addi	a4,sp,132
    13a0:	0000                	unimp
    13a2:	0005                	c.nop	1
    13a4:	007a                	c.slli	zero,0x1e
    13a6:	243c                	fld	fa5,72(s0)
    13a8:	589f 0001 5c00      	0x5c000001589f
    13ae:	0001                	nop
    13b0:	0100                	addi	s0,sp,128
    13b2:	5f00                	lw	s0,56(a4)
    13b4:	015c                	addi	a5,sp,132
    13b6:	0000                	unimp
    13b8:	0164                	addi	s1,sp,140
    13ba:	0000                	unimp
    13bc:	0005                	c.nop	1
    13be:	007a                	c.slli	zero,0x1e
    13c0:	243c                	fld	fa5,72(s0)
    13c2:	709f 0001 7400      	0x74000001709f
    13c8:	0001                	nop
    13ca:	0500                	addi	s0,sp,640
    13cc:	7a00                	flw	fs0,48(a2)
    13ce:	4000                	lw	s0,0(s0)
    13d0:	9f24                	0x9f24
    13d2:	0174                	addi	a3,sp,140
    13d4:	0000                	unimp
    13d6:	0178                	addi	a4,sp,140
    13d8:	0000                	unimp
    13da:	0001                	nop
    13dc:	785f 0001 8000      	0x80000001785f
    13e2:	0001                	nop
    13e4:	0500                	addi	s0,sp,640
    13e6:	7a00                	flw	fs0,48(a2)
    13e8:	4000                	lw	s0,0(s0)
    13ea:	9f24                	0x9f24
    13ec:	018c                	addi	a1,sp,192
    13ee:	0000                	unimp
    13f0:	0190                	addi	a2,sp,192
    13f2:	0000                	unimp
    13f4:	0005                	c.nop	1
    13f6:	007a                	c.slli	zero,0x1e
    13f8:	2444                	fld	fs1,136(s0)
    13fa:	909f 0001 9400      	0x94000001909f
    1400:	0001                	nop
    1402:	0100                	addi	s0,sp,128
    1404:	5f00                	lw	s0,56(a4)
    1406:	0194                	addi	a3,sp,192
    1408:	0000                	unimp
    140a:	019c                	addi	a5,sp,192
    140c:	0000                	unimp
    140e:	0005                	c.nop	1
    1410:	007a                	c.slli	zero,0x1e
    1412:	2444                	fld	fs1,136(s0)
    1414:	a89f 0001 ac00      	0xac000001a89f
    141a:	0001                	nop
    141c:	0500                	addi	s0,sp,640
    141e:	7a00                	flw	fs0,48(a2)
    1420:	4800                	lw	s0,16(s0)
    1422:	9f24                	0x9f24
    1424:	01ac                	addi	a1,sp,200
    1426:	0000                	unimp
    1428:	01b0                	addi	a2,sp,200
    142a:	0000                	unimp
    142c:	0001                	nop
    142e:	b05f 0001 b800      	0xb8000001b05f
    1434:	0001                	nop
    1436:	0500                	addi	s0,sp,640
    1438:	7a00                	flw	fs0,48(a2)
    143a:	4800                	lw	s0,16(s0)
    143c:	9f24                	0x9f24
    143e:	01c4                	addi	s1,sp,196
    1440:	0000                	unimp
    1442:	01c8                	addi	a0,sp,196
    1444:	0000                	unimp
    1446:	0005                	c.nop	1
    1448:	007a                	c.slli	zero,0x1e
    144a:	244c                	fld	fa1,136(s0)
    144c:	c89f 0001 d000      	0xd0000001c89f
    1452:	0001                	nop
    1454:	0600                	addi	s0,sp,768
    1456:	f300                	fsw	fs0,32(a4)
    1458:	5a01                	li	s4,-32
    145a:	244c                	fld	fa1,136(s0)
    145c:	dc9f 0001 e000      	0xe0000001dc9f
    1462:	0001                	nop
    1464:	0200                	addi	s0,sp,256
    1466:	3000                	fld	fs0,32(s0)
    1468:	009f 0000 0000      	0x9f
    146e:	0000                	unimp
    1470:	3800                	fld	fs0,48(s0)
    1472:	0000                	unimp
    1474:	4400                	lw	s0,8(s0)
    1476:	0000                	unimp
    1478:	0100                	addi	s0,sp,128
    147a:	5f00                	lw	s0,56(a4)
    147c:	0044                	addi	s1,sp,4
    147e:	0000                	unimp
    1480:	0050                	addi	a2,sp,4
    1482:	0000                	unimp
    1484:	497f0003          	lb	zero,1175(t5) # 6589497 <_stack_start+0x6389497>
    1488:	509f 0000 5400      	0x54000000509f
    148e:	0000                	unimp
    1490:	0700                	addi	s0,sp,896
    1492:	7e00                	flw	fs0,56(a2)
    1494:	0600                	addi	s0,sp,768
    1496:	3708                	fld	fa0,40(a4)
    1498:	9f1c                	0x9f1c
    149a:	0054                	addi	a3,sp,4
    149c:	0000                	unimp
    149e:	0060                	addi	s0,sp,12
    14a0:	0000                	unimp
    14a2:	0001                	nop
    14a4:	605f 0000 6c00      	0x6c000000605f
    14aa:	0000                	unimp
    14ac:	0300                	addi	s0,sp,384
    14ae:	7f00                	flw	fs0,56(a4)
    14b0:	9f49                	0x9f49
    14b2:	006c                	addi	a1,sp,12
    14b4:	0000                	unimp
    14b6:	0070                	addi	a2,sp,12
    14b8:	0000                	unimp
    14ba:	007e0007          	0x7e0007
    14be:	0806                	slli	a6,a6,0x1
    14c0:	709f1c37          	lui	s8,0x709f1
    14c4:	0000                	unimp
    14c6:	7c00                	flw	fs0,56(s0)
    14c8:	0000                	unimp
    14ca:	0100                	addi	s0,sp,128
    14cc:	5f00                	lw	s0,56(a4)
    14ce:	007c                	addi	a5,sp,12
    14d0:	0000                	unimp
    14d2:	0088                	addi	a0,sp,64
    14d4:	0000                	unimp
    14d6:	497f0003          	lb	zero,1175(t5)
    14da:	889f 0000 8c00      	0x8c000000889f
    14e0:	0000                	unimp
    14e2:	0700                	addi	s0,sp,896
    14e4:	7e00                	flw	fs0,56(a2)
    14e6:	0600                	addi	s0,sp,768
    14e8:	3708                	fld	fa0,40(a4)
    14ea:	9f1c                	0x9f1c
    14ec:	008c                	addi	a1,sp,64
    14ee:	0000                	unimp
    14f0:	0098                	addi	a4,sp,64
    14f2:	0000                	unimp
    14f4:	0001                	nop
    14f6:	985f 0000 a400      	0xa4000000985f
    14fc:	0000                	unimp
    14fe:	0300                	addi	s0,sp,384
    1500:	7f00                	flw	fs0,56(a4)
    1502:	9f49                	0x9f49
    1504:	00a4                	addi	s1,sp,72
    1506:	0000                	unimp
    1508:	00a8                	addi	a0,sp,72
    150a:	0000                	unimp
    150c:	007e0007          	0x7e0007
    1510:	0806                	slli	a6,a6,0x1
    1512:	a89f1c37          	lui	s8,0xa89f1
    1516:	0000                	unimp
    1518:	b400                	fsd	fs0,40(s0)
    151a:	0000                	unimp
    151c:	0100                	addi	s0,sp,128
    151e:	5f00                	lw	s0,56(a4)
    1520:	00b4                	addi	a3,sp,72
    1522:	0000                	unimp
    1524:	00c0                	addi	s0,sp,68
    1526:	0000                	unimp
    1528:	497f0003          	lb	zero,1175(t5)
    152c:	c09f 0000 c400      	0xc4000000c09f
    1532:	0000                	unimp
    1534:	0700                	addi	s0,sp,896
    1536:	7e00                	flw	fs0,56(a2)
    1538:	0600                	addi	s0,sp,768
    153a:	3708                	fld	fa0,40(a4)
    153c:	9f1c                	0x9f1c
    153e:	00c4                	addi	s1,sp,68
    1540:	0000                	unimp
    1542:	00d0                	addi	a2,sp,68
    1544:	0000                	unimp
    1546:	0001                	nop
    1548:	d05f 0000 dc00      	0xdc000000d05f
    154e:	0000                	unimp
    1550:	0300                	addi	s0,sp,384
    1552:	7f00                	flw	fs0,56(a4)
    1554:	9f49                	0x9f49
    1556:	00dc                	addi	a5,sp,68
    1558:	0000                	unimp
    155a:	00e0                	addi	s0,sp,76
    155c:	0000                	unimp
    155e:	007e0007          	0x7e0007
    1562:	0806                	slli	a6,a6,0x1
    1564:	e09f1c37          	lui	s8,0xe09f1
    1568:	0000                	unimp
    156a:	ec00                	fsw	fs0,24(s0)
    156c:	0000                	unimp
    156e:	0100                	addi	s0,sp,128
    1570:	5f00                	lw	s0,56(a4)
    1572:	00ec                	addi	a1,sp,76
    1574:	0000                	unimp
    1576:	00f8                	addi	a4,sp,76
    1578:	0000                	unimp
    157a:	497f0003          	lb	zero,1175(t5)
    157e:	f89f 0000 0400      	0x4000000f89f
    1584:	0001                	nop
    1586:	0100                	addi	s0,sp,128
    1588:	5a00                	lw	s0,48(a2)
    158a:	0104                	addi	s1,sp,128
    158c:	0000                	unimp
    158e:	0110                	addi	a2,sp,128
    1590:	0000                	unimp
    1592:	507a0003          	lb	zero,1287(s4)
    1596:	109f 0001 1400      	0x14000001109f
    159c:	0001                	nop
    159e:	0100                	addi	s0,sp,128
    15a0:	5f00                	lw	s0,56(a4)
    15a2:	0114                	addi	a3,sp,128
    15a4:	0000                	unimp
    15a6:	0120                	addi	s0,sp,136
    15a8:	0000                	unimp
    15aa:	507f0003          	lb	zero,1287(t5)
    15ae:	209f 0001 2400      	0x24000001209f
    15b4:	0001                	nop
    15b6:	0700                	addi	s0,sp,896
    15b8:	7e00                	flw	fs0,56(a2)
    15ba:	0600                	addi	s0,sp,768
    15bc:	3008                	fld	fa0,32(s0)
    15be:	9f1c                	0x9f1c
    15c0:	0124                	addi	s1,sp,136
    15c2:	0000                	unimp
    15c4:	0130                	addi	a2,sp,136
    15c6:	0000                	unimp
    15c8:	0001                	nop
    15ca:	305f 0001 3c00      	0x3c000001305f
    15d0:	0001                	nop
    15d2:	0300                	addi	s0,sp,384
    15d4:	7f00                	flw	fs0,56(a4)
    15d6:	9f50                	0x9f50
    15d8:	013c                	addi	a5,sp,136
    15da:	0000                	unimp
    15dc:	0140                	addi	s0,sp,132
    15de:	0000                	unimp
    15e0:	007e0007          	0x7e0007
    15e4:	0806                	slli	a6,a6,0x1
    15e6:	1c30                	addi	a2,sp,568
    15e8:	409f 0001 4c00      	0x4c000001409f
    15ee:	0001                	nop
    15f0:	0100                	addi	s0,sp,128
    15f2:	5f00                	lw	s0,56(a4)
    15f4:	014c                	addi	a1,sp,132
    15f6:	0000                	unimp
    15f8:	0158                	addi	a4,sp,132
    15fa:	0000                	unimp
    15fc:	507f0003          	lb	zero,1287(t5)
    1600:	589f 0001 5c00      	0x5c000001589f
    1606:	0001                	nop
    1608:	0700                	addi	s0,sp,896
    160a:	7e00                	flw	fs0,56(a2)
    160c:	0600                	addi	s0,sp,768
    160e:	3008                	fld	fa0,32(s0)
    1610:	9f1c                	0x9f1c
    1612:	015c                	addi	a5,sp,132
    1614:	0000                	unimp
    1616:	0168                	addi	a0,sp,140
    1618:	0000                	unimp
    161a:	0001                	nop
    161c:	685f 0001 7400      	0x74000001685f
    1622:	0001                	nop
    1624:	0300                	addi	s0,sp,384
    1626:	7f00                	flw	fs0,56(a4)
    1628:	9f50                	0x9f50
    162a:	0174                	addi	a3,sp,140
    162c:	0000                	unimp
    162e:	0178                	addi	a4,sp,140
    1630:	0000                	unimp
    1632:	007e0007          	0x7e0007
    1636:	0806                	slli	a6,a6,0x1
    1638:	1c30                	addi	a2,sp,568
    163a:	789f 0001 8400      	0x84000001789f
    1640:	0001                	nop
    1642:	0100                	addi	s0,sp,128
    1644:	5f00                	lw	s0,56(a4)
    1646:	0184                	addi	s1,sp,192
    1648:	0000                	unimp
    164a:	0190                	addi	a2,sp,192
    164c:	0000                	unimp
    164e:	507f0003          	lb	zero,1287(t5)
    1652:	909f 0001 9400      	0x94000001909f
    1658:	0001                	nop
    165a:	0700                	addi	s0,sp,896
    165c:	7e00                	flw	fs0,56(a2)
    165e:	0600                	addi	s0,sp,768
    1660:	3008                	fld	fa0,32(s0)
    1662:	9f1c                	0x9f1c
    1664:	0194                	addi	a3,sp,192
    1666:	0000                	unimp
    1668:	01a0                	addi	s0,sp,200
    166a:	0000                	unimp
    166c:	0001                	nop
    166e:	a05f 0001 ac00      	0xac000001a05f
    1674:	0001                	nop
    1676:	0300                	addi	s0,sp,384
    1678:	7f00                	flw	fs0,56(a4)
    167a:	9f50                	0x9f50
    167c:	01ac                	addi	a1,sp,200
    167e:	0000                	unimp
    1680:	01b0                	addi	a2,sp,200
    1682:	0000                	unimp
    1684:	007e0007          	0x7e0007
    1688:	0806                	slli	a6,a6,0x1
    168a:	1c30                	addi	a2,sp,568
    168c:	b09f 0001 bc00      	0xbc000001b09f
    1692:	0001                	nop
    1694:	0100                	addi	s0,sp,128
    1696:	5f00                	lw	s0,56(a4)
    1698:	01bc                	addi	a5,sp,200
    169a:	0000                	unimp
    169c:	01c8                	addi	a0,sp,196
    169e:	0000                	unimp
    16a0:	507f0003          	lb	zero,1287(t5)
    16a4:	c89f 0001 d400      	0xd4000001c89f
    16aa:	0001                	nop
    16ac:	0100                	addi	s0,sp,128
    16ae:	5a00                	lw	s0,48(a2)
    16b0:	01d4                	addi	a3,sp,196
    16b2:	0000                	unimp
    16b4:	01e0                	addi	s0,sp,204
    16b6:	0000                	unimp
    16b8:	497a0003          	lb	zero,1175(s4)
    16bc:	009f 0000 0000      	0x9f
    16c2:	0000                	unimp
    16c4:	4000                	lw	s0,0(s0)
    16c6:	0000                	unimp
    16c8:	4400                	lw	s0,8(s0)
    16ca:	0000                	unimp
    16cc:	0300                	addi	s0,sp,384
    16ce:	7f00                	flw	fs0,56(a4)
    16d0:	00449f37          	lui	t5,0x449
    16d4:	0000                	unimp
    16d6:	0050                	addi	a2,sp,4
    16d8:	0000                	unimp
    16da:	0001                	nop
    16dc:	505f 0000 5800      	0x58000000505f
    16e2:	0000                	unimp
    16e4:	0200                	addi	s0,sp,256
    16e6:	7e00                	flw	fs0,56(a2)
    16e8:	5800                	lw	s0,48(s0)
    16ea:	0000                	unimp
    16ec:	5c00                	lw	s0,56(s0)
    16ee:	0000                	unimp
    16f0:	0300                	addi	s0,sp,384
    16f2:	4000                	lw	s0,0(s0)
    16f4:	243d                	jal	1922 <_min_stack-0x6de>
    16f6:	005c                	addi	a5,sp,4
    16f8:	0000                	unimp
    16fa:	0060                	addi	s0,sp,12
    16fc:	0000                	unimp
    16fe:	377f0003          	lb	zero,887(t5) # 449377 <_stack_start+0x249377>
    1702:	609f 0000 6c00      	0x6c000000609f
    1708:	0000                	unimp
    170a:	0100                	addi	s0,sp,128
    170c:	5f00                	lw	s0,56(a4)
    170e:	006c                	addi	a1,sp,12
    1710:	0000                	unimp
    1712:	0074                	addi	a3,sp,12
    1714:	0000                	unimp
    1716:	0002                	c.slli64	zero
    1718:	007e                	c.slli	zero,0x1f
    171a:	0074                	addi	a3,sp,12
    171c:	0000                	unimp
    171e:	0078                	addi	a4,sp,12
    1720:	0000                	unimp
    1722:	3d400003          	lb	zero,980(zero) # 3d4 <_min_stack-0x1c2c>
    1726:	7824                	flw	fs1,112(s0)
    1728:	0000                	unimp
    172a:	7c00                	flw	fs0,56(s0)
    172c:	0000                	unimp
    172e:	0300                	addi	s0,sp,384
    1730:	7f00                	flw	fs0,56(a4)
    1732:	007c9f37          	lui	t5,0x7c9
    1736:	0000                	unimp
    1738:	0088                	addi	a0,sp,64
    173a:	0000                	unimp
    173c:	0001                	nop
    173e:	885f 0000 9000      	0x90000000885f
    1744:	0000                	unimp
    1746:	0200                	addi	s0,sp,256
    1748:	7e00                	flw	fs0,56(a2)
    174a:	9000                	0x9000
    174c:	0000                	unimp
    174e:	9400                	0x9400
    1750:	0000                	unimp
    1752:	0300                	addi	s0,sp,384
    1754:	4000                	lw	s0,0(s0)
    1756:	243d                	jal	1984 <_min_stack-0x67c>
    1758:	0094                	addi	a3,sp,64
    175a:	0000                	unimp
    175c:	0098                	addi	a4,sp,64
    175e:	0000                	unimp
    1760:	377f0003          	lb	zero,887(t5) # 7c9377 <_stack_start+0x5c9377>
    1764:	989f 0000 a400      	0xa4000000989f
    176a:	0000                	unimp
    176c:	0100                	addi	s0,sp,128
    176e:	5f00                	lw	s0,56(a4)
    1770:	00a4                	addi	s1,sp,72
    1772:	0000                	unimp
    1774:	00ac                	addi	a1,sp,72
    1776:	0000                	unimp
    1778:	0002                	c.slli64	zero
    177a:	007e                	c.slli	zero,0x1f
    177c:	00ac                	addi	a1,sp,72
    177e:	0000                	unimp
    1780:	00b0                	addi	a2,sp,72
    1782:	0000                	unimp
    1784:	3d400003          	lb	zero,980(zero) # 3d4 <_min_stack-0x1c2c>
    1788:	b024                	fsd	fs1,96(s0)
    178a:	0000                	unimp
    178c:	b400                	fsd	fs0,40(s0)
    178e:	0000                	unimp
    1790:	0300                	addi	s0,sp,384
    1792:	7f00                	flw	fs0,56(a4)
    1794:	00b49f37          	lui	t5,0xb49
    1798:	0000                	unimp
    179a:	00c0                	addi	s0,sp,68
    179c:	0000                	unimp
    179e:	0001                	nop
    17a0:	c05f 0000 c800      	0xc8000000c05f
    17a6:	0000                	unimp
    17a8:	0200                	addi	s0,sp,256
    17aa:	7e00                	flw	fs0,56(a2)
    17ac:	c800                	sw	s0,16(s0)
    17ae:	0000                	unimp
    17b0:	cc00                	sw	s0,24(s0)
    17b2:	0000                	unimp
    17b4:	0300                	addi	s0,sp,384
    17b6:	4000                	lw	s0,0(s0)
    17b8:	243d                	jal	19e6 <_min_stack-0x61a>
    17ba:	00cc                	addi	a1,sp,68
    17bc:	0000                	unimp
    17be:	00d0                	addi	a2,sp,68
    17c0:	0000                	unimp
    17c2:	377f0003          	lb	zero,887(t5) # b49377 <_stack_start+0x949377>
    17c6:	d09f 0000 dc00      	0xdc000000d09f
    17cc:	0000                	unimp
    17ce:	0100                	addi	s0,sp,128
    17d0:	5f00                	lw	s0,56(a4)
    17d2:	00dc                	addi	a5,sp,68
    17d4:	0000                	unimp
    17d6:	00e4                	addi	s1,sp,76
    17d8:	0000                	unimp
    17da:	0002                	c.slli64	zero
    17dc:	007e                	c.slli	zero,0x1f
    17de:	00e4                	addi	s1,sp,76
    17e0:	0000                	unimp
    17e2:	00e8                	addi	a0,sp,76
    17e4:	0000                	unimp
    17e6:	3d400003          	lb	zero,980(zero) # 3d4 <_min_stack-0x1c2c>
    17ea:	e824                	fsw	fs1,80(s0)
    17ec:	0000                	unimp
    17ee:	ec00                	fsw	fs0,24(s0)
    17f0:	0000                	unimp
    17f2:	0300                	addi	s0,sp,384
    17f4:	7f00                	flw	fs0,56(a4)
    17f6:	00ec9f37          	lui	t5,0xec9
    17fa:	0000                	unimp
    17fc:	00fc                	addi	a5,sp,76
    17fe:	0000                	unimp
    1800:	0001                	nop
    1802:	fc5f 0000 0000      	0xfc5f
    1808:	0001                	nop
    180a:	0200                	addi	s0,sp,256
    180c:	7e00                	flw	fs0,56(a2)
    180e:	d000                	sw	s0,32(s0)
    1810:	0001                	nop
    1812:	d400                	sw	s0,40(s0)
    1814:	0001                	nop
    1816:	0300                	addi	s0,sp,384
    1818:	7a00                	flw	fs0,48(a2)
    181a:	01d49f37          	lui	t5,0x1d49
    181e:	0000                	unimp
    1820:	01e0                	addi	s0,sp,204
    1822:	0000                	unimp
    1824:	0001                	nop
    1826:	005a                	c.slli	zero,0x16
	...
    1830:	0001                	nop
    1832:	0400                	addi	s0,sp,512
    1834:	0001                	nop
    1836:	0300                	addi	s0,sp,384
    1838:	7a00                	flw	fs0,48(a2)
    183a:	9f30                	0x9f30
    183c:	0104                	addi	s1,sp,128
    183e:	0000                	unimp
    1840:	0110                	addi	a2,sp,128
    1842:	0000                	unimp
    1844:	0001                	nop
    1846:	105a                	c.slli	zero,0x36
    1848:	0001                	nop
    184a:	1400                	addi	s0,sp,544
    184c:	0001                	nop
    184e:	0300                	addi	s0,sp,384
    1850:	7f00                	flw	fs0,56(a4)
    1852:	9f30                	0x9f30
    1854:	0114                	addi	a3,sp,128
    1856:	0000                	unimp
    1858:	0120                	addi	s0,sp,136
    185a:	0000                	unimp
    185c:	0001                	nop
    185e:	205f 0001 2800      	0x28000001205f
    1864:	0001                	nop
    1866:	0200                	addi	s0,sp,256
    1868:	7e00                	flw	fs0,56(a2)
    186a:	2800                	fld	fs0,16(s0)
    186c:	0001                	nop
    186e:	2c00                	fld	fs0,24(s0)
    1870:	0001                	nop
    1872:	0300                	addi	s0,sp,384
    1874:	4000                	lw	s0,0(s0)
    1876:	243d                	jal	1aa4 <_min_stack-0x55c>
    1878:	012c                	addi	a1,sp,136
    187a:	0000                	unimp
    187c:	0130                	addi	a2,sp,136
    187e:	0000                	unimp
    1880:	307f0003          	lb	zero,775(t5) # 1d49307 <_stack_start+0x1b49307>
    1884:	309f 0001 3c00      	0x3c000001309f
    188a:	0001                	nop
    188c:	0100                	addi	s0,sp,128
    188e:	5f00                	lw	s0,56(a4)
    1890:	013c                	addi	a5,sp,136
    1892:	0000                	unimp
    1894:	0144                	addi	s1,sp,132
    1896:	0000                	unimp
    1898:	0002                	c.slli64	zero
    189a:	007e                	c.slli	zero,0x1f
    189c:	0144                	addi	s1,sp,132
    189e:	0000                	unimp
    18a0:	0148                	addi	a0,sp,132
    18a2:	0000                	unimp
    18a4:	3d400003          	lb	zero,980(zero) # 3d4 <_min_stack-0x1c2c>
    18a8:	4824                	lw	s1,80(s0)
    18aa:	0001                	nop
    18ac:	4c00                	lw	s0,24(s0)
    18ae:	0001                	nop
    18b0:	0300                	addi	s0,sp,384
    18b2:	7f00                	flw	fs0,56(a4)
    18b4:	9f30                	0x9f30
    18b6:	014c                	addi	a1,sp,132
    18b8:	0000                	unimp
    18ba:	0158                	addi	a4,sp,132
    18bc:	0000                	unimp
    18be:	0001                	nop
    18c0:	585f 0001 6000      	0x60000001585f
    18c6:	0001                	nop
    18c8:	0200                	addi	s0,sp,256
    18ca:	7e00                	flw	fs0,56(a2)
    18cc:	6000                	flw	fs0,0(s0)
    18ce:	0001                	nop
    18d0:	6400                	flw	fs0,8(s0)
    18d2:	0001                	nop
    18d4:	0300                	addi	s0,sp,384
    18d6:	4000                	lw	s0,0(s0)
    18d8:	243d                	jal	1b06 <_min_stack-0x4fa>
    18da:	0164                	addi	s1,sp,140
    18dc:	0000                	unimp
    18de:	0168                	addi	a0,sp,140
    18e0:	0000                	unimp
    18e2:	307f0003          	lb	zero,775(t5)
    18e6:	689f 0001 7400      	0x74000001689f
    18ec:	0001                	nop
    18ee:	0100                	addi	s0,sp,128
    18f0:	5f00                	lw	s0,56(a4)
    18f2:	0174                	addi	a3,sp,140
    18f4:	0000                	unimp
    18f6:	017c                	addi	a5,sp,140
    18f8:	0000                	unimp
    18fa:	0002                	c.slli64	zero
    18fc:	007e                	c.slli	zero,0x1f
    18fe:	017c                	addi	a5,sp,140
    1900:	0000                	unimp
    1902:	0180                	addi	s0,sp,192
    1904:	0000                	unimp
    1906:	3d400003          	lb	zero,980(zero) # 3d4 <_min_stack-0x1c2c>
    190a:	8024                	0x8024
    190c:	0001                	nop
    190e:	8400                	0x8400
    1910:	0001                	nop
    1912:	0300                	addi	s0,sp,384
    1914:	7f00                	flw	fs0,56(a4)
    1916:	9f30                	0x9f30
    1918:	0184                	addi	s1,sp,192
    191a:	0000                	unimp
    191c:	0190                	addi	a2,sp,192
    191e:	0000                	unimp
    1920:	0001                	nop
    1922:	905f 0001 9800      	0x98000001905f
    1928:	0001                	nop
    192a:	0200                	addi	s0,sp,256
    192c:	7e00                	flw	fs0,56(a2)
    192e:	9800                	0x9800
    1930:	0001                	nop
    1932:	9c00                	0x9c00
    1934:	0001                	nop
    1936:	0300                	addi	s0,sp,384
    1938:	4000                	lw	s0,0(s0)
    193a:	243d                	jal	1b68 <_min_stack-0x498>
    193c:	019c                	addi	a5,sp,192
    193e:	0000                	unimp
    1940:	01a0                	addi	s0,sp,200
    1942:	0000                	unimp
    1944:	307f0003          	lb	zero,775(t5)
    1948:	a09f 0001 ac00      	0xac000001a09f
    194e:	0001                	nop
    1950:	0100                	addi	s0,sp,128
    1952:	5f00                	lw	s0,56(a4)
    1954:	01ac                	addi	a1,sp,200
    1956:	0000                	unimp
    1958:	01b4                	addi	a3,sp,200
    195a:	0000                	unimp
    195c:	0002                	c.slli64	zero
    195e:	007e                	c.slli	zero,0x1f
    1960:	01b4                	addi	a3,sp,200
    1962:	0000                	unimp
    1964:	01b8                	addi	a4,sp,200
    1966:	0000                	unimp
    1968:	3d400003          	lb	zero,980(zero) # 3d4 <_min_stack-0x1c2c>
    196c:	b824                	fsd	fs1,112(s0)
    196e:	0001                	nop
    1970:	bc00                	fsd	fs0,56(s0)
    1972:	0001                	nop
    1974:	0300                	addi	s0,sp,384
    1976:	7f00                	flw	fs0,56(a4)
    1978:	9f30                	0x9f30
    197a:	01bc                	addi	a5,sp,200
    197c:	0000                	unimp
    197e:	01cc                	addi	a1,sp,196
    1980:	0000                	unimp
    1982:	0001                	nop
    1984:	cc5f 0001 d000      	0xd0000001cc5f
    198a:	0001                	nop
    198c:	0200                	addi	s0,sp,256
    198e:	7e00                	flw	fs0,56(a2)
	...
    1998:	b400                	fsd	fs0,40(s0)
    199a:	100a                	c.slli	zero,0x22
    199c:	dc00                	sw	s0,56(s0)
    199e:	100a                	c.slli	zero,0x22
    19a0:	0200                	addi	s0,sp,256
    19a2:	3000                	fld	fs0,32(s0)
    19a4:	dc9f 100a ec00      	0xec00100adc9f
    19aa:	100a                	c.slli	zero,0x22
    19ac:	0200                	addi	s0,sp,256
    19ae:	3100                	fld	fs0,32(a0)
    19b0:	ec9f 100a f800      	0xf800100aec9f
    19b6:	100a                	c.slli	zero,0x22
    19b8:	0200                	addi	s0,sp,256
    19ba:	3200                	fld	fs0,32(a2)
    19bc:	f89f 100a 0400      	0x400100af89f
    19c2:	0200100b          	0x200100b
    19c6:	3300                	fld	fs0,32(a4)
    19c8:	049f 100b 1000      	0x1000100b049f
    19ce:	0200100b          	0x200100b
    19d2:	3400                	fld	fs0,40(s0)
    19d4:	109f 100b 1c00      	0x1c00100b109f
    19da:	0200100b          	0x200100b
    19de:	3500                	fld	fs0,40(a0)
    19e0:	1c9f 100b 2800      	0x2800100b1c9f
    19e6:	0200100b          	0x200100b
    19ea:	3600                	fld	fs0,40(a2)
    19ec:	289f 100b 3400      	0x3400100b289f
    19f2:	0200100b          	0x200100b
    19f6:	3700                	fld	fs0,40(a4)
    19f8:	349f 100b 4000      	0x4000100b349f
    19fe:	0200100b          	0x200100b
    1a02:	3800                	fld	fs0,48(s0)
    1a04:	409f 100b 5000      	0x5000100b409f
    1a0a:	0200100b          	0x200100b
    1a0e:	3900                	fld	fs0,48(a0)
    1a10:	509f 100b 7800      	0x7800100b509f
    1a16:	0200100b          	0x200100b
    1a1a:	3a00                	fld	fs0,48(a2)
    1a1c:	009f 0000 0000      	0x9f
    1a22:	0000                	unimp
    1a24:	0000                	unimp
    1a26:	0000                	unimp
    1a28:	0400                	addi	s0,sp,512
    1a2a:	0000                	unimp
    1a2c:	0100                	addi	s0,sp,128
    1a2e:	5a00                	lw	s0,48(a2)
    1a30:	0004                	0x4
    1a32:	0000                	unimp
    1a34:	0008                	0x8
    1a36:	0000                	unimp
    1a38:	0004                	0x4
    1a3a:	9f5a01f3          	0x9f5a01f3
	...

Déassemblage de la section .debug_aranges :

00000000 <.debug_aranges>:
   0:	001c                	0x1c
   2:	0000                	unimp
   4:	0002                	c.slli64	zero
   6:	0000                	unimp
   8:	0000                	unimp
   a:	0004                	0x4
   c:	0000                	unimp
   e:	0000                	unimp
  10:	0084                	addi	s1,sp,64
  12:	0010                	0x10
  14:	093c                	addi	a5,sp,152
	...
  1e:	0000                	unimp
  20:	001c                	0x1c
  22:	0000                	unimp
  24:	0002                	c.slli64	zero
  26:	082e                	slli	a6,a6,0xb
  28:	0000                	unimp
  2a:	0004                	0x4
  2c:	0000                	unimp
  2e:	0000                	unimp
  30:	0a98                	addi	a4,sp,336
  32:	0010                	0x10
  34:	00e0                	addi	s0,sp,76
	...
  3e:	0000                	unimp
  40:	001c                	0x1c
  42:	0000                	unimp
  44:	0002                	c.slli64	zero
  46:	0969                	addi	s2,s2,26
  48:	0000                	unimp
  4a:	0004                	0x4
  4c:	0000                	unimp
  4e:	0000                	unimp
  50:	09c0                	addi	s0,sp,212
  52:	0010                	0x10
  54:	0008                	0x8
	...
  5e:	0000                	unimp
  60:	0024                	addi	s1,sp,8
  62:	0000                	unimp
  64:	0002                	c.slli64	zero
  66:	000009cb          	fnmsub.s	fs3,ft0,ft0,ft0,rne
  6a:	0004                	0x4
  6c:	0000                	unimp
  6e:	0000                	unimp
  70:	09c8                	addi	a0,sp,212
  72:	0010                	0x10
  74:	00d0                	addi	a2,sp,68
  76:	0000                	unimp
  78:	0000                	unimp
  7a:	0010                	0x10
  7c:	0084                	addi	s1,sp,64
	...

Déassemblage de la section .debug_ranges :

00000000 <.debug_ranges>:
   0:	0018                	0x18
   2:	0000                	unimp
   4:	001c                	0x1c
   6:	0000                	unimp
   8:	0020                	addi	s0,sp,8
   a:	0000                	unimp
   c:	0024                	addi	s1,sp,8
	...
  16:	0000                	unimp
  18:	0040                	addi	s0,sp,4
  1a:	0000                	unimp
  1c:	0040                	addi	s0,sp,4
  1e:	0000                	unimp
  20:	0044                	addi	s1,sp,4
  22:	0000                	unimp
  24:	004c                	addi	a1,sp,4
  26:	0000                	unimp
  28:	005c                	addi	a5,sp,4
  2a:	0000                	unimp
  2c:	005c                	addi	a5,sp,4
  2e:	0000                	unimp
  30:	0060                	addi	s0,sp,12
  32:	0000                	unimp
  34:	0068                	addi	a0,sp,12
  36:	0000                	unimp
  38:	0078                	addi	a4,sp,12
  3a:	0000                	unimp
  3c:	0078                	addi	a4,sp,12
  3e:	0000                	unimp
  40:	007c                	addi	a5,sp,12
  42:	0000                	unimp
  44:	0084                	addi	s1,sp,64
  46:	0000                	unimp
  48:	0094                	addi	a3,sp,64
  4a:	0000                	unimp
  4c:	0094                	addi	a3,sp,64
  4e:	0000                	unimp
  50:	0098                	addi	a4,sp,64
  52:	0000                	unimp
  54:	00a0                	addi	s0,sp,72
  56:	0000                	unimp
  58:	00b0                	addi	a2,sp,72
  5a:	0000                	unimp
  5c:	00b0                	addi	a2,sp,72
  5e:	0000                	unimp
  60:	00b4                	addi	a3,sp,72
  62:	0000                	unimp
  64:	00bc                	addi	a5,sp,72
  66:	0000                	unimp
  68:	00cc                	addi	a1,sp,68
  6a:	0000                	unimp
  6c:	00cc                	addi	a1,sp,68
  6e:	0000                	unimp
  70:	00d0                	addi	a2,sp,68
  72:	0000                	unimp
  74:	00d8                	addi	a4,sp,68
  76:	0000                	unimp
  78:	00e8                	addi	a0,sp,76
  7a:	0000                	unimp
  7c:	00e8                	addi	a0,sp,76
  7e:	0000                	unimp
  80:	00ec                	addi	a1,sp,76
  82:	0000                	unimp
  84:	00f4                	addi	a3,sp,76
  86:	0000                	unimp
  88:	01d0                	addi	a2,sp,196
  8a:	0000                	unimp
  8c:	01d0                	addi	a2,sp,196
  8e:	0000                	unimp
  90:	01d4                	addi	a3,sp,196
  92:	0000                	unimp
  94:	01dc                	addi	a5,sp,196
	...
  9e:	0000                	unimp
  a0:	0100                	addi	s0,sp,128
  a2:	0000                	unimp
  a4:	0100                	addi	s0,sp,128
  a6:	0000                	unimp
  a8:	0104                	addi	s1,sp,128
  aa:	0000                	unimp
  ac:	0110                	addi	a2,sp,128
  ae:	0000                	unimp
  b0:	0110                	addi	a2,sp,128
  b2:	0000                	unimp
  b4:	0110                	addi	a2,sp,128
  b6:	0000                	unimp
  b8:	0114                	addi	a3,sp,128
  ba:	0000                	unimp
  bc:	011c                	addi	a5,sp,128
  be:	0000                	unimp
  c0:	012c                	addi	a1,sp,136
  c2:	0000                	unimp
  c4:	012c                	addi	a1,sp,136
  c6:	0000                	unimp
  c8:	0130                	addi	a2,sp,136
  ca:	0000                	unimp
  cc:	0138                	addi	a4,sp,136
  ce:	0000                	unimp
  d0:	0148                	addi	a0,sp,132
  d2:	0000                	unimp
  d4:	0148                	addi	a0,sp,132
  d6:	0000                	unimp
  d8:	014c                	addi	a1,sp,132
  da:	0000                	unimp
  dc:	0154                	addi	a3,sp,132
  de:	0000                	unimp
  e0:	0164                	addi	s1,sp,140
  e2:	0000                	unimp
  e4:	0164                	addi	s1,sp,140
  e6:	0000                	unimp
  e8:	0168                	addi	a0,sp,140
  ea:	0000                	unimp
  ec:	0170                	addi	a2,sp,140
  ee:	0000                	unimp
  f0:	0180                	addi	s0,sp,192
  f2:	0000                	unimp
  f4:	0180                	addi	s0,sp,192
  f6:	0000                	unimp
  f8:	0184                	addi	s1,sp,192
  fa:	0000                	unimp
  fc:	018c                	addi	a1,sp,192
  fe:	0000                	unimp
 100:	019c                	addi	a5,sp,192
 102:	0000                	unimp
 104:	019c                	addi	a5,sp,192
 106:	0000                	unimp
 108:	01a0                	addi	s0,sp,200
 10a:	0000                	unimp
 10c:	01a8                	addi	a0,sp,200
 10e:	0000                	unimp
 110:	01b8                	addi	a4,sp,200
 112:	0000                	unimp
 114:	01b8                	addi	a4,sp,200
 116:	0000                	unimp
 118:	01bc                	addi	a5,sp,200
 11a:	0000                	unimp
 11c:	01c4                	addi	s1,sp,196
	...
 126:	0000                	unimp
 128:	0314                	addi	a3,sp,384
 12a:	0000                	unimp
 12c:	0334                	addi	a3,sp,392
 12e:	0000                	unimp
 130:	0338                	addi	a4,sp,392
 132:	0000                	unimp
 134:	0340                	addi	s0,sp,388
	...
 13e:	0000                	unimp
 140:	0320                	addi	s0,sp,392
 142:	0000                	unimp
 144:	0324                	addi	s1,sp,392
 146:	0000                	unimp
 148:	0328                	addi	a0,sp,392
 14a:	0000                	unimp
 14c:	032c                	addi	a1,sp,392
	...
 156:	0000                	unimp
 158:	0334                	addi	a3,sp,392
 15a:	0000                	unimp
 15c:	0338                	addi	a4,sp,392
 15e:	0000                	unimp
 160:	0340                	addi	s0,sp,388
 162:	0000                	unimp
 164:	0354                	addi	a3,sp,388
 166:	0000                	unimp
 168:	0358                	addi	a4,sp,388
 16a:	0000                	unimp
 16c:	0360                	addi	s0,sp,396
	...
 176:	0000                	unimp
 178:	0340                	addi	s0,sp,388
 17a:	0000                	unimp
 17c:	0344                	addi	s1,sp,388
 17e:	0000                	unimp
 180:	0348                	addi	a0,sp,388
 182:	0000                	unimp
 184:	034c                	addi	a1,sp,388
	...
 18e:	0000                	unimp
 190:	0354                	addi	a3,sp,388
 192:	0000                	unimp
 194:	0358                	addi	a4,sp,388
 196:	0000                	unimp
 198:	0360                	addi	s0,sp,396
 19a:	0000                	unimp
 19c:	0374                	addi	a3,sp,396
	...
 1a6:	0000                	unimp
 1a8:	0360                	addi	s0,sp,396
 1aa:	0000                	unimp
 1ac:	0364                	addi	s1,sp,396
 1ae:	0000                	unimp
 1b0:	0368                	addi	a0,sp,396
 1b2:	0000                	unimp
 1b4:	036c                	addi	a1,sp,396
	...
 1be:	0000                	unimp
 1c0:	0378                	addi	a4,sp,396
 1c2:	0000                	unimp
 1c4:	044c                	addi	a1,sp,516
 1c6:	0000                	unimp
 1c8:	074c                	addi	a1,sp,900
 1ca:	0000                	unimp
 1cc:	07c8                	addi	a0,sp,964
	...
 1d6:	0000                	unimp
 1d8:	0384                	addi	s1,sp,448
 1da:	0000                	unimp
 1dc:	0384                	addi	s1,sp,448
 1de:	0000                	unimp
 1e0:	0388                	addi	a0,sp,448
 1e2:	0000                	unimp
 1e4:	038c                	addi	a1,sp,448
 1e6:	0000                	unimp
 1e8:	039c                	addi	a5,sp,448
 1ea:	0000                	unimp
 1ec:	039c                	addi	a5,sp,448
 1ee:	0000                	unimp
 1f0:	03a0                	addi	s0,sp,456
 1f2:	0000                	unimp
 1f4:	03a8                	addi	a0,sp,456
 1f6:	0000                	unimp
 1f8:	03b8                	addi	a4,sp,456
 1fa:	0000                	unimp
 1fc:	03b8                	addi	a4,sp,456
 1fe:	0000                	unimp
 200:	03bc                	addi	a5,sp,456
 202:	0000                	unimp
 204:	03c4                	addi	s1,sp,452
 206:	0000                	unimp
 208:	03d4                	addi	a3,sp,452
 20a:	0000                	unimp
 20c:	03d4                	addi	a3,sp,452
 20e:	0000                	unimp
 210:	03d8                	addi	a4,sp,452
 212:	0000                	unimp
 214:	03e0                	addi	s0,sp,460
 216:	0000                	unimp
 218:	03f0                	addi	a2,sp,460
 21a:	0000                	unimp
 21c:	03f0                	addi	a2,sp,460
 21e:	0000                	unimp
 220:	03f4                	addi	a3,sp,460
 222:	0000                	unimp
 224:	03fc                	addi	a5,sp,460
 226:	0000                	unimp
 228:	040c                	addi	a1,sp,512
 22a:	0000                	unimp
 22c:	040c                	addi	a1,sp,512
 22e:	0000                	unimp
 230:	0410                	addi	a2,sp,512
 232:	0000                	unimp
 234:	0418                	addi	a4,sp,512
 236:	0000                	unimp
 238:	0428                	addi	a0,sp,520
 23a:	0000                	unimp
 23c:	0428                	addi	a0,sp,520
 23e:	0000                	unimp
 240:	042c                	addi	a1,sp,520
 242:	0000                	unimp
 244:	0434                	addi	a3,sp,520
 246:	0000                	unimp
 248:	074c                	addi	a1,sp,900
 24a:	0000                	unimp
 24c:	074c                	addi	a1,sp,900
 24e:	0000                	unimp
 250:	0750                	addi	a2,sp,900
 252:	0000                	unimp
 254:	075c                	addi	a5,sp,900
	...
 25e:	0000                	unimp
 260:	0440                	addi	s0,sp,516
 262:	0000                	unimp
 264:	0440                	addi	s0,sp,516
 266:	0000                	unimp
 268:	0444                	addi	s1,sp,516
 26a:	0000                	unimp
 26c:	044c                	addi	a1,sp,516
 26e:	0000                	unimp
 270:	075c                	addi	a5,sp,900
 272:	0000                	unimp
 274:	075c                	addi	a5,sp,900
 276:	0000                	unimp
 278:	0760                	addi	s0,sp,908
 27a:	0000                	unimp
 27c:	076c                	addi	a1,sp,908
 27e:	0000                	unimp
 280:	076c                	addi	a1,sp,908
 282:	0000                	unimp
 284:	076c                	addi	a1,sp,908
 286:	0000                	unimp
 288:	0770                	addi	a2,sp,908
 28a:	0000                	unimp
 28c:	077c                	addi	a5,sp,908
 28e:	0000                	unimp
 290:	077c                	addi	a5,sp,908
 292:	0000                	unimp
 294:	077c                	addi	a5,sp,908
 296:	0000                	unimp
 298:	0780                	addi	s0,sp,960
 29a:	0000                	unimp
 29c:	078c                	addi	a1,sp,960
 29e:	0000                	unimp
 2a0:	078c                	addi	a1,sp,960
 2a2:	0000                	unimp
 2a4:	078c                	addi	a1,sp,960
 2a6:	0000                	unimp
 2a8:	0790                	addi	a2,sp,960
 2aa:	0000                	unimp
 2ac:	079c                	addi	a5,sp,960
 2ae:	0000                	unimp
 2b0:	079c                	addi	a5,sp,960
 2b2:	0000                	unimp
 2b4:	079c                	addi	a5,sp,960
 2b6:	0000                	unimp
 2b8:	07a0                	addi	s0,sp,968
 2ba:	0000                	unimp
 2bc:	07ac                	addi	a1,sp,968
 2be:	0000                	unimp
 2c0:	07ac                	addi	a1,sp,968
 2c2:	0000                	unimp
 2c4:	07ac                	addi	a1,sp,968
 2c6:	0000                	unimp
 2c8:	07b0                	addi	a2,sp,968
 2ca:	0000                	unimp
 2cc:	07bc                	addi	a5,sp,968
 2ce:	0000                	unimp
 2d0:	07bc                	addi	a5,sp,968
 2d2:	0000                	unimp
 2d4:	07bc                	addi	a5,sp,968
 2d6:	0000                	unimp
 2d8:	07c0                	addi	s0,sp,964
 2da:	0000                	unimp
 2dc:	07c8                	addi	a0,sp,964
	...
 2e6:	0000                	unimp
 2e8:	0458                	addi	a4,sp,516
 2ea:	0000                	unimp
 2ec:	045c                	addi	a5,sp,516
 2ee:	0000                	unimp
 2f0:	0460                	addi	s0,sp,524
 2f2:	0000                	unimp
 2f4:	0464                	addi	s1,sp,524
	...
 2fe:	0000                	unimp
 300:	0470                	addi	a2,sp,524
 302:	0000                	unimp
 304:	0544                	addi	s1,sp,644
 306:	0000                	unimp
 308:	06d0                	addi	a2,sp,836
 30a:	0000                	unimp
 30c:	074c                	addi	a1,sp,900
	...
 316:	0000                	unimp
 318:	047c                	addi	a5,sp,524
 31a:	0000                	unimp
 31c:	047c                	addi	a5,sp,524
 31e:	0000                	unimp
 320:	0480                	addi	s0,sp,576
 322:	0000                	unimp
 324:	0484                	addi	s1,sp,576
 326:	0000                	unimp
 328:	0494                	addi	a3,sp,576
 32a:	0000                	unimp
 32c:	0494                	addi	a3,sp,576
 32e:	0000                	unimp
 330:	0498                	addi	a4,sp,576
 332:	0000                	unimp
 334:	04a0                	addi	s0,sp,584
 336:	0000                	unimp
 338:	04b0                	addi	a2,sp,584
 33a:	0000                	unimp
 33c:	04b0                	addi	a2,sp,584
 33e:	0000                	unimp
 340:	04b4                	addi	a3,sp,584
 342:	0000                	unimp
 344:	04bc                	addi	a5,sp,584
 346:	0000                	unimp
 348:	04cc                	addi	a1,sp,580
 34a:	0000                	unimp
 34c:	04cc                	addi	a1,sp,580
 34e:	0000                	unimp
