
C_files/aes.elf:     format de fichier elf32-littleriscv
architecture: riscv:rv32, fanions 0x00000112:
EXEC_P, HAS_SYMS, D_PAGED
adresse de départ 0x00100084

Sections :
Idx Name          Taille    VMA       LMA       Off fich  Algn
  0 .vectors      00000084  00100000  00100000  00001000  2**0
                  CONTENTS, ALLOC, LOAD, READONLY, CODE
  1 .text         00001328  00100084  00100084  00001084  2**1
                  CONTENTS, ALLOC, LOAD, READONLY, CODE
  2 .rodata       00002198  001013ac  001013ac  000023ac  2**2
                  CONTENTS, ALLOC, LOAD, READONLY, DATA
  3 .data         00000000  00103544  00103544  00004544  2**0
                  CONTENTS, ALLOC, LOAD, DATA
  4 .bss          00000010  00103548  00103548  00004544  2**3
                  ALLOC
  5 .stack        00002000  001f8000  001f8000  00005000  2**0
                  ALLOC
  6 .debug_info   00002305  00000000  00000000  00004544  2**0
                  CONTENTS, READONLY, DEBUGGING
  7 .debug_abbrev 0000080e  00000000  00000000  00006849  2**0
                  CONTENTS, READONLY, DEBUGGING
  8 .debug_aranges 000000a8  00000000  00000000  00007058  2**3
                  CONTENTS, READONLY, DEBUGGING
  9 .debug_line   00001bd5  00000000  00000000  00007100  2**0
                  CONTENTS, READONLY, DEBUGGING
 10 .debug_str    000007f8  00000000  00000000  00008cd5  2**0
                  CONTENTS, READONLY, DEBUGGING
 11 .comment      00000028  00000000  00000000  000094cd  2**0
                  CONTENTS, READONLY
 12 .riscv.attributes 00000021  00000000  00000000  000094f5  2**0
                  CONTENTS, READONLY
 13 .debug_frame  00000274  00000000  00000000  00009518  2**2
                  CONTENTS, READONLY, DEBUGGING
 14 .debug_ranges 00000020  00000000  00000000  00009790  2**3
                  CONTENTS, READONLY, DEBUGGING

Déassemblage de la section .vectors :

00100000 <_stack_start-0x100000>:

  // All unimplemented interrupts/exceptions go to the default_exc_handler.
  .org 0x00
  .rept 7
  jal x0, default_exc_handler
  .endr
  100000:	31e0106f          	j	10131e <default_exc_handler>
  100004:	31a0106f          	j	10131e <default_exc_handler>
  100008:	3160106f          	j	10131e <default_exc_handler>
  10000c:	3120106f          	j	10131e <default_exc_handler>
  100010:	30e0106f          	j	10131e <default_exc_handler>
  100014:	30a0106f          	j	10131e <default_exc_handler>
  100018:	3060106f          	j	10131e <default_exc_handler>
  jal x0, timer_handler
  10001c:	3060106f          	j	101322 <timer_handler>
  .rept 23
  jal x0, default_exc_handler
  .endr
  100020:	2fe0106f          	j	10131e <default_exc_handler>
  100024:	2fa0106f          	j	10131e <default_exc_handler>
  100028:	2f60106f          	j	10131e <default_exc_handler>
  10002c:	2f20106f          	j	10131e <default_exc_handler>
  100030:	2ee0106f          	j	10131e <default_exc_handler>
  100034:	2ea0106f          	j	10131e <default_exc_handler>
  100038:	2e60106f          	j	10131e <default_exc_handler>
  10003c:	2e20106f          	j	10131e <default_exc_handler>
  100040:	2de0106f          	j	10131e <default_exc_handler>
  100044:	2da0106f          	j	10131e <default_exc_handler>
  100048:	2d60106f          	j	10131e <default_exc_handler>
  10004c:	2d20106f          	j	10131e <default_exc_handler>
  100050:	2ce0106f          	j	10131e <default_exc_handler>
  100054:	2ca0106f          	j	10131e <default_exc_handler>
  100058:	2c60106f          	j	10131e <default_exc_handler>
  10005c:	2c20106f          	j	10131e <default_exc_handler>
  100060:	2be0106f          	j	10131e <default_exc_handler>
  100064:	2ba0106f          	j	10131e <default_exc_handler>
  100068:	2b60106f          	j	10131e <default_exc_handler>
  10006c:	2b20106f          	j	10131e <default_exc_handler>
  100070:	2ae0106f          	j	10131e <default_exc_handler>
  100074:	2aa0106f          	j	10131e <default_exc_handler>
  100078:	2a60106f          	j	10131e <default_exc_handler>
  10007c:	0000                	unimp
  10007e:	0000                	unimp

  // reset vector
  .org 0x80
  jal x0, reset_handler
  100080:	2a60106f          	j	101326 <reset_handler>

Déassemblage de la section .text :

00100084 <putchar>:
// Licensed under the Apache License, Version 2.0, see LICENSE for details.
// SPDX-License-Identifier: Apache-2.0

#include "simple_system_common.h"

int putchar(int c) {
  100084:	1141                	addi	sp,sp,-16
  100086:	c62a                	sw	a0,12(sp)
  DEV_WRITE(SIM_CTRL_BASE + SIM_CTRL_OUT, (unsigned char)c);
  100088:	47b2                	lw	a5,12(sp)
  10008a:	0ff7f713          	andi	a4,a5,255
  10008e:	000207b7          	lui	a5,0x20
  100092:	c398                	sw	a4,0(a5)

  return c;
  100094:	47b2                	lw	a5,12(sp)
}
  100096:	853e                	mv	a0,a5
  100098:	0141                	addi	sp,sp,16
  10009a:	8082                	ret

0010009c <puts>:

int puts(const char *str) {
  10009c:	1101                	addi	sp,sp,-32
  10009e:	ce06                	sw	ra,28(sp)
  1000a0:	c62a                	sw	a0,12(sp)
  while (*str) {
  1000a2:	a809                	j	1000b4 <puts+0x18>
    putchar(*str++);
  1000a4:	47b2                	lw	a5,12(sp)
  1000a6:	00178713          	addi	a4,a5,1 # 20001 <_stack_len+0x18001>
  1000aa:	c63a                	sw	a4,12(sp)
  1000ac:	0007c783          	lbu	a5,0(a5)
  1000b0:	853e                	mv	a0,a5
  1000b2:	3fc9                	jal	100084 <putchar>
  while (*str) {
  1000b4:	47b2                	lw	a5,12(sp)
  1000b6:	0007c783          	lbu	a5,0(a5)
  1000ba:	f7ed                	bnez	a5,1000a4 <puts+0x8>
  }

  return 0;
  1000bc:	4781                	li	a5,0
}
  1000be:	853e                	mv	a0,a5
  1000c0:	40f2                	lw	ra,28(sp)
  1000c2:	6105                	addi	sp,sp,32
  1000c4:	8082                	ret

001000c6 <puthex>:

void puthex(uint32_t h) {
  1000c6:	7179                	addi	sp,sp,-48
  1000c8:	d606                	sw	ra,44(sp)
  1000ca:	c62a                	sw	a0,12(sp)
  int cur_digit;
  // Iterate through h taking top 4 bits each time and outputting ASCII of hex
  // digit for those 4 bits
  for (int i = 0; i < 8; i++) {
  1000cc:	ce02                	sw	zero,28(sp)
  1000ce:	a80d                	j	100100 <puthex+0x3a>
    cur_digit = h >> 28;
  1000d0:	47b2                	lw	a5,12(sp)
  1000d2:	83f1                	srli	a5,a5,0x1c
  1000d4:	cc3e                	sw	a5,24(sp)

    if (cur_digit < 10)
  1000d6:	4762                	lw	a4,24(sp)
  1000d8:	47a5                	li	a5,9
  1000da:	00e7c863          	blt	a5,a4,1000ea <puthex+0x24>
      putchar('0' + cur_digit);
  1000de:	47e2                	lw	a5,24(sp)
  1000e0:	03078793          	addi	a5,a5,48
  1000e4:	853e                	mv	a0,a5
  1000e6:	3f79                	jal	100084 <putchar>
  1000e8:	a031                	j	1000f4 <puthex+0x2e>
    else
      putchar('A' - 10 + cur_digit);
  1000ea:	47e2                	lw	a5,24(sp)
  1000ec:	03778793          	addi	a5,a5,55
  1000f0:	853e                	mv	a0,a5
  1000f2:	3f49                	jal	100084 <putchar>

    h <<= 4;
  1000f4:	47b2                	lw	a5,12(sp)
  1000f6:	0792                	slli	a5,a5,0x4
  1000f8:	c63e                	sw	a5,12(sp)
  for (int i = 0; i < 8; i++) {
  1000fa:	47f2                	lw	a5,28(sp)
  1000fc:	0785                	addi	a5,a5,1
  1000fe:	ce3e                	sw	a5,28(sp)
  100100:	4772                	lw	a4,28(sp)
  100102:	479d                	li	a5,7
  100104:	fce7d6e3          	bge	a5,a4,1000d0 <puthex+0xa>
  }
}
  100108:	0001                	nop
  10010a:	50b2                	lw	ra,44(sp)
  10010c:	6145                	addi	sp,sp,48
  10010e:	8082                	ret

00100110 <sim_halt>:

void sim_halt() { DEV_WRITE(SIM_CTRL_BASE + SIM_CTRL_CTRL, 1); }
  100110:	000207b7          	lui	a5,0x20
  100114:	0791                	addi	a5,a5,4
  100116:	4705                	li	a4,1
  100118:	c398                	sw	a4,0(a5)
  10011a:	0001                	nop
  10011c:	8082                	ret

0010011e <pcount_reset>:

void pcount_reset() {
  asm volatile(
  10011e:	b0201073          	csrw	minstret,zero
  100122:	b0001073          	csrw	mcycle,zero
  100126:	b0301073          	csrw	mhpmcounter3,zero
  10012a:	b0401073          	csrw	mhpmcounter4,zero
  10012e:	b0501073          	csrw	mhpmcounter5,zero
  100132:	b0601073          	csrw	mhpmcounter6,zero
  100136:	b0701073          	csrw	mhpmcounter7,zero
  10013a:	b0801073          	csrw	mhpmcounter8,zero
  10013e:	b0901073          	csrw	mhpmcounter9,zero
  100142:	b0a01073          	csrw	mhpmcounter10,zero
  100146:	b0b01073          	csrw	mhpmcounter11,zero
  10014a:	b0c01073          	csrw	mhpmcounter12,zero
  10014e:	b0d01073          	csrw	mhpmcounter13,zero
  100152:	b0e01073          	csrw	mhpmcounter14,zero
  100156:	b0f01073          	csrw	mhpmcounter15,zero
  10015a:	b1001073          	csrw	mhpmcounter16,zero
  10015e:	b1101073          	csrw	mhpmcounter17,zero
  100162:	b1201073          	csrw	mhpmcounter18,zero
  100166:	b1301073          	csrw	mhpmcounter19,zero
  10016a:	b1401073          	csrw	mhpmcounter20,zero
  10016e:	b1501073          	csrw	mhpmcounter21,zero
  100172:	b1601073          	csrw	mhpmcounter22,zero
  100176:	b1701073          	csrw	mhpmcounter23,zero
  10017a:	b1801073          	csrw	mhpmcounter24,zero
  10017e:	b1901073          	csrw	mhpmcounter25,zero
  100182:	b1a01073          	csrw	mhpmcounter26,zero
  100186:	b1b01073          	csrw	mhpmcounter27,zero
  10018a:	b1c01073          	csrw	mhpmcounter28,zero
  10018e:	b1d01073          	csrw	mhpmcounter29,zero
  100192:	b1e01073          	csrw	mhpmcounter30,zero
  100196:	b1f01073          	csrw	mhpmcounter31,zero
  10019a:	b8201073          	csrw	minstreth,zero
  10019e:	b8001073          	csrw	mcycleh,zero
  1001a2:	b8301073          	csrw	mhpmcounter3h,zero
  1001a6:	b8401073          	csrw	mhpmcounter4h,zero
  1001aa:	b8501073          	csrw	mhpmcounter5h,zero
  1001ae:	b8601073          	csrw	mhpmcounter6h,zero
  1001b2:	b8701073          	csrw	mhpmcounter7h,zero
  1001b6:	b8801073          	csrw	mhpmcounter8h,zero
  1001ba:	b8901073          	csrw	mhpmcounter9h,zero
  1001be:	b8a01073          	csrw	mhpmcounter10h,zero
  1001c2:	b8b01073          	csrw	mhpmcounter11h,zero
  1001c6:	b8c01073          	csrw	mhpmcounter12h,zero
  1001ca:	b8d01073          	csrw	mhpmcounter13h,zero
  1001ce:	b8e01073          	csrw	mhpmcounter14h,zero
  1001d2:	b8f01073          	csrw	mhpmcounter15h,zero
  1001d6:	b9001073          	csrw	mhpmcounter16h,zero
  1001da:	b9101073          	csrw	mhpmcounter17h,zero
  1001de:	b9201073          	csrw	mhpmcounter18h,zero
  1001e2:	b9301073          	csrw	mhpmcounter19h,zero
  1001e6:	b9401073          	csrw	mhpmcounter20h,zero
  1001ea:	b9501073          	csrw	mhpmcounter21h,zero
  1001ee:	b9601073          	csrw	mhpmcounter22h,zero
  1001f2:	b9701073          	csrw	mhpmcounter23h,zero
  1001f6:	b9801073          	csrw	mhpmcounter24h,zero
  1001fa:	b9901073          	csrw	mhpmcounter25h,zero
  1001fe:	b9a01073          	csrw	mhpmcounter26h,zero
  100202:	b9b01073          	csrw	mhpmcounter27h,zero
  100206:	b9c01073          	csrw	mhpmcounter28h,zero
  10020a:	b9d01073          	csrw	mhpmcounter29h,zero
  10020e:	b9e01073          	csrw	mhpmcounter30h,zero
  100212:	b9f01073          	csrw	mhpmcounter31h,zero
      "csrw mhpmcounter27h, x0\n"
      "csrw mhpmcounter28h, x0\n"
      "csrw mhpmcounter29h, x0\n"
      "csrw mhpmcounter30h, x0\n"
      "csrw mhpmcounter31h, x0\n");
}
  100216:	0001                	nop
  100218:	8082                	ret

0010021a <pcount_enable>:

void pcount_enable(int enable) {
  10021a:	1101                	addi	sp,sp,-32
  10021c:	c62a                	sw	a0,12(sp)
  // Note cycle is disabled with everything else
  unsigned int inhibit_val = enable ? 0x0 : 0xFFFFFFFF;
  10021e:	47b2                	lw	a5,12(sp)
  100220:	c399                	beqz	a5,100226 <pcount_enable+0xc>
  100222:	4781                	li	a5,0
  100224:	a011                	j	100228 <pcount_enable+0xe>
  100226:	57fd                	li	a5,-1
  100228:	ce3e                	sw	a5,28(sp)
  // mucounteren == mcountinhibit but binutils doesn't seem to known the
  // mcountinhibit name
  asm volatile("csrw  mucounteren, %0\n" : : "r"(inhibit_val));
  10022a:	47f2                	lw	a5,28(sp)
  10022c:	32079073          	csrw	mucounteren,a5
}
  100230:	0001                	nop
  100232:	6105                	addi	sp,sp,32
  100234:	8082                	ret

00100236 <get_mepc>:

unsigned int get_mepc() {
  100236:	1141                	addi	sp,sp,-16
  uint32_t result;
  __asm__ volatile("csrr %0, mepc;" : "=r"(result));
  100238:	341027f3          	csrr	a5,mepc
  10023c:	c63e                	sw	a5,12(sp)
  return result;
  10023e:	47b2                	lw	a5,12(sp)
}
  100240:	853e                	mv	a0,a5
  100242:	0141                	addi	sp,sp,16
  100244:	8082                	ret

00100246 <get_mcause>:

unsigned int get_mcause() {
  100246:	1141                	addi	sp,sp,-16
  uint32_t result;
  __asm__ volatile("csrr %0, mcause;" : "=r"(result));
  100248:	342027f3          	csrr	a5,mcause
  10024c:	c63e                	sw	a5,12(sp)
  return result;
  10024e:	47b2                	lw	a5,12(sp)
}
  100250:	853e                	mv	a0,a5
  100252:	0141                	addi	sp,sp,16
  100254:	8082                	ret

00100256 <get_mtval>:

unsigned int get_mtval() {
  100256:	1141                	addi	sp,sp,-16
  uint32_t result;
  __asm__ volatile("csrr %0, mtval;" : "=r"(result));
  100258:	343027f3          	csrr	a5,mtval
  10025c:	c63e                	sw	a5,12(sp)
  return result;
  10025e:	47b2                	lw	a5,12(sp)
}
  100260:	853e                	mv	a0,a5
  100262:	0141                	addi	sp,sp,16
  100264:	8082                	ret

00100266 <simple_exc_handler>:

void simple_exc_handler(void) {
  100266:	1141                	addi	sp,sp,-16
  100268:	c606                	sw	ra,12(sp)
  puts("EXCEPTION!!!\n");
  10026a:	00001517          	auipc	a0,0x1
  10026e:	14250513          	addi	a0,a0,322 # 1013ac <sleep_loop+0x6>
  100272:	352d                	jal	10009c <puts>
  puts("============\n");
  100274:	00001517          	auipc	a0,0x1
  100278:	14850513          	addi	a0,a0,328 # 1013bc <sleep_loop+0x16>
  10027c:	3505                	jal	10009c <puts>
  puts("MEPC:   0x%0X");puthex(get_mepc());
  10027e:	00001517          	auipc	a0,0x1
  100282:	14e50513          	addi	a0,a0,334 # 1013cc <sleep_loop+0x26>
  100286:	3d19                	jal	10009c <puts>
  100288:	377d                	jal	100236 <get_mepc>
  10028a:	87aa                	mv	a5,a0
  10028c:	853e                	mv	a0,a5
  10028e:	3d25                	jal	1000c6 <puthex>
  puts("\nMCAUSE: 0x%0X");puthex(get_mcause());
  100290:	00001517          	auipc	a0,0x1
  100294:	14c50513          	addi	a0,a0,332 # 1013dc <sleep_loop+0x36>
  100298:	3511                	jal	10009c <puts>
  10029a:	3775                	jal	100246 <get_mcause>
  10029c:	87aa                	mv	a5,a0
  10029e:	853e                	mv	a0,a5
  1002a0:	351d                	jal	1000c6 <puthex>
  puts("\nMTVAL:  0x%0X");puthex(get_mtval());
  1002a2:	00001517          	auipc	a0,0x1
  1002a6:	14a50513          	addi	a0,a0,330 # 1013ec <sleep_loop+0x46>
  1002aa:	3bcd                	jal	10009c <puts>
  1002ac:	376d                	jal	100256 <get_mtval>
  1002ae:	87aa                	mv	a5,a0
  1002b0:	853e                	mv	a0,a5
  1002b2:	3d11                	jal	1000c6 <puthex>
  putchar('\n');
  1002b4:	4529                	li	a0,10
  1002b6:	33f9                	jal	100084 <putchar>
  sim_halt();
  1002b8:	3da1                	jal	100110 <sim_halt>

  while(1);
  1002ba:	a001                	j	1002ba <simple_exc_handler+0x54>

001002bc <increment_timecmp>:
}

volatile uint64_t time_elapsed;
uint64_t time_increment;

inline static void increment_timecmp(uint64_t time_base) {
  1002bc:	7179                	addi	sp,sp,-48
  1002be:	d606                	sw	ra,44(sp)
  1002c0:	c42a                	sw	a0,8(sp)
  1002c2:	c62e                	sw	a1,12(sp)
  uint64_t current_time = timer_read();
  1002c4:	2059                	jal	10034a <timer_read>
  1002c6:	cc2a                	sw	a0,24(sp)
  1002c8:	ce2e                	sw	a1,28(sp)
  current_time += time_base;
  1002ca:	46e2                	lw	a3,24(sp)
  1002cc:	4772                	lw	a4,28(sp)
  1002ce:	45a2                	lw	a1,8(sp)
  1002d0:	4632                	lw	a2,12(sp)
  1002d2:	00b687b3          	add	a5,a3,a1
  1002d6:	853e                	mv	a0,a5
  1002d8:	00d53533          	sltu	a0,a0,a3
  1002dc:	00c70833          	add	a6,a4,a2
  1002e0:	01050733          	add	a4,a0,a6
  1002e4:	883a                	mv	a6,a4
  1002e6:	cc3e                	sw	a5,24(sp)
  1002e8:	ce42                	sw	a6,28(sp)
  timecmp_update(current_time);
  1002ea:	4562                	lw	a0,24(sp)
  1002ec:	45f2                	lw	a1,28(sp)
  1002ee:	2065                	jal	100396 <timecmp_update>
}
  1002f0:	0001                	nop
  1002f2:	50b2                	lw	ra,44(sp)
  1002f4:	6145                	addi	sp,sp,48
  1002f6:	8082                	ret

001002f8 <timer_enable>:

void timer_enable(uint64_t time_base) {
  1002f8:	1101                	addi	sp,sp,-32
  1002fa:	ce06                	sw	ra,28(sp)
  1002fc:	c42a                	sw	a0,8(sp)
  1002fe:	c62e                	sw	a1,12(sp)
  time_elapsed = 0;
  100300:	00003797          	auipc	a5,0x3
  100304:	24878793          	addi	a5,a5,584 # 103548 <time_elapsed>
  100308:	4681                	li	a3,0
  10030a:	4701                	li	a4,0
  10030c:	c394                	sw	a3,0(a5)
  10030e:	c3d8                	sw	a4,4(a5)
  time_increment = time_base;
  100310:	00003717          	auipc	a4,0x3
  100314:	24070713          	addi	a4,a4,576 # 103550 <time_increment>
  100318:	47a2                	lw	a5,8(sp)
  10031a:	4832                	lw	a6,12(sp)
  10031c:	c31c                	sw	a5,0(a4)
  10031e:	01072223          	sw	a6,4(a4)
  // Set timer values
  increment_timecmp(time_base);
  100322:	4522                	lw	a0,8(sp)
  100324:	45b2                	lw	a1,12(sp)
  100326:	3f59                	jal	1002bc <increment_timecmp>
  // enable timer interrupt
  asm volatile("csrs  mie, %0\n" : : "r"(0x80));
  100328:	08000793          	li	a5,128
  10032c:	3047a073          	csrs	mie,a5
  // enable global interrupt
  asm volatile("csrs  mstatus, %0\n" : : "r"(0x8));
  100330:	47a1                	li	a5,8
  100332:	3007a073          	csrs	mstatus,a5
}
  100336:	0001                	nop
  100338:	40f2                	lw	ra,28(sp)
  10033a:	6105                	addi	sp,sp,32
  10033c:	8082                	ret

0010033e <timer_disable>:

void timer_disable(void) { asm volatile("csrc  mie, %0\n" : : "r"(0x80)); }
  10033e:	08000793          	li	a5,128
  100342:	3047b073          	csrc	mie,a5
  100346:	0001                	nop
  100348:	8082                	ret

0010034a <timer_read>:

uint64_t timer_read(void) {
  10034a:	1141                	addi	sp,sp,-16
  uint32_t current_timeh;
  uint32_t current_time;
  // check if time overflowed while reading and try again
  do {
    current_timeh = DEV_READ(TIMER_BASE + TIMER_MTIMEH, 0);
  10034c:	00030537          	lui	a0,0x30
  100350:	0511                	addi	a0,a0,4
  100352:	4108                	lw	a0,0(a0)
  100354:	c62a                	sw	a0,12(sp)
    current_time = DEV_READ(TIMER_BASE + TIMER_MTIME, 0);
  100356:	00030537          	lui	a0,0x30
  10035a:	4108                	lw	a0,0(a0)
  10035c:	c42a                	sw	a0,8(sp)
  } while (current_timeh != DEV_READ(TIMER_BASE + TIMER_MTIMEH, 0));
  10035e:	00030537          	lui	a0,0x30
  100362:	0511                	addi	a0,a0,4
  100364:	4108                	lw	a0,0(a0)
  100366:	48b2                	lw	a7,12(sp)
  100368:	fea892e3          	bne	a7,a0,10034c <timer_read+0x2>
  uint64_t final_time = ((uint64_t)current_timeh << 32) | current_time;
  10036c:	4532                	lw	a0,12(sp)
  10036e:	85aa                	mv	a1,a0
  100370:	4601                	li	a2,0
  100372:	00059813          	slli	a6,a1,0x0
  100376:	4781                	li	a5,0
  100378:	4622                	lw	a2,8(sp)
  10037a:	86b2                	mv	a3,a2
  10037c:	4701                	li	a4,0
  10037e:	00d7e633          	or	a2,a5,a3
  100382:	c032                	sw	a2,0(sp)
  100384:	00e867b3          	or	a5,a6,a4
  100388:	c23e                	sw	a5,4(sp)
  return final_time;
  10038a:	4782                	lw	a5,0(sp)
  10038c:	4812                	lw	a6,4(sp)
}
  10038e:	853e                	mv	a0,a5
  100390:	85c2                	mv	a1,a6
  100392:	0141                	addi	sp,sp,16
  100394:	8082                	ret

00100396 <timecmp_update>:

void timecmp_update(uint64_t new_time) {
  100396:	1141                	addi	sp,sp,-16
  100398:	c42a                	sw	a0,8(sp)
  10039a:	c62e                	sw	a1,12(sp)
  DEV_WRITE(TIMER_BASE + TIMER_MTIMECMP, -1);
  10039c:	00030737          	lui	a4,0x30
  1003a0:	0721                	addi	a4,a4,8
  1003a2:	56fd                	li	a3,-1
  1003a4:	c314                	sw	a3,0(a4)
  DEV_WRITE(TIMER_BASE + TIMER_MTIMECMPH, new_time >> 32);
  1003a6:	4732                	lw	a4,12(sp)
  1003a8:	00075793          	srli	a5,a4,0x0
  1003ac:	4801                	li	a6,0
  1003ae:	00030737          	lui	a4,0x30
  1003b2:	0731                	addi	a4,a4,12
  1003b4:	c31c                	sw	a5,0(a4)
  DEV_WRITE(TIMER_BASE + TIMER_MTIMECMP, new_time);
  1003b6:	000307b7          	lui	a5,0x30
  1003ba:	07a1                	addi	a5,a5,8
  1003bc:	4722                	lw	a4,8(sp)
  1003be:	c398                	sw	a4,0(a5)
}
  1003c0:	0001                	nop
  1003c2:	0141                	addi	sp,sp,16
  1003c4:	8082                	ret

001003c6 <get_elapsed_time>:

uint64_t get_elapsed_time(void) { return time_elapsed; }
  1003c6:	00003797          	auipc	a5,0x3
  1003ca:	18278793          	addi	a5,a5,386 # 103548 <time_elapsed>
  1003ce:	0047a803          	lw	a6,4(a5)
  1003d2:	439c                	lw	a5,0(a5)
  1003d4:	853e                	mv	a0,a5
  1003d6:	85c2                	mv	a1,a6
  1003d8:	8082                	ret

001003da <simple_timer_handler>:

void simple_timer_handler(void) __attribute__((interrupt));

void simple_timer_handler(void) {
  1003da:	7139                	addi	sp,sp,-64
  1003dc:	de06                	sw	ra,60(sp)
  1003de:	dc16                	sw	t0,56(sp)
  1003e0:	da1a                	sw	t1,52(sp)
  1003e2:	d81e                	sw	t2,48(sp)
  1003e4:	d62a                	sw	a0,44(sp)
  1003e6:	d42e                	sw	a1,40(sp)
  1003e8:	d232                	sw	a2,36(sp)
  1003ea:	d036                	sw	a3,32(sp)
  1003ec:	ce3a                	sw	a4,28(sp)
  1003ee:	cc3e                	sw	a5,24(sp)
  1003f0:	ca42                	sw	a6,20(sp)
  1003f2:	c846                	sw	a7,16(sp)
  1003f4:	c672                	sw	t3,12(sp)
  1003f6:	c476                	sw	t4,8(sp)
  1003f8:	c27a                	sw	t5,4(sp)
  1003fa:	c07e                	sw	t6,0(sp)
  increment_timecmp(time_increment);
  1003fc:	00003797          	auipc	a5,0x3
  100400:	15478793          	addi	a5,a5,340 # 103550 <time_increment>
  100404:	0047a803          	lw	a6,4(a5)
  100408:	439c                	lw	a5,0(a5)
  10040a:	853e                	mv	a0,a5
  10040c:	85c2                	mv	a1,a6
  10040e:	357d                	jal	1002bc <increment_timecmp>
  time_elapsed++;
  100410:	00003797          	auipc	a5,0x3
  100414:	13878793          	addi	a5,a5,312 # 103548 <time_elapsed>
  100418:	0047a803          	lw	a6,4(a5)
  10041c:	439c                	lw	a5,0(a5)
  10041e:	4585                	li	a1,1
  100420:	4601                	li	a2,0
  100422:	00b786b3          	add	a3,a5,a1
  100426:	8536                	mv	a0,a3
  100428:	00f53533          	sltu	a0,a0,a5
  10042c:	00c80733          	add	a4,a6,a2
  100430:	00e507b3          	add	a5,a0,a4
  100434:	873e                	mv	a4,a5
  100436:	87b6                	mv	a5,a3
  100438:	883a                	mv	a6,a4
  10043a:	00003717          	auipc	a4,0x3
  10043e:	10e70713          	addi	a4,a4,270 # 103548 <time_elapsed>
  100442:	c31c                	sw	a5,0(a4)
  100444:	01072223          	sw	a6,4(a4)
}
  100448:	0001                	nop
  10044a:	50f2                	lw	ra,60(sp)
  10044c:	52e2                	lw	t0,56(sp)
  10044e:	5352                	lw	t1,52(sp)
  100450:	53c2                	lw	t2,48(sp)
  100452:	5532                	lw	a0,44(sp)
  100454:	55a2                	lw	a1,40(sp)
  100456:	5612                	lw	a2,36(sp)
  100458:	5682                	lw	a3,32(sp)
  10045a:	4772                	lw	a4,28(sp)
  10045c:	47e2                	lw	a5,24(sp)
  10045e:	4852                	lw	a6,20(sp)
  100460:	48c2                	lw	a7,16(sp)
  100462:	4e32                	lw	t3,12(sp)
  100464:	4ea2                	lw	t4,8(sp)
  100466:	4f12                	lw	t5,4(sp)
  100468:	4f82                	lw	t6,0(sp)
  10046a:	6121                	addi	sp,sp,64
  10046c:	30200073          	mret

00100470 <main>:
//AES IBEX
#ifdef AESIBEX
void aes_mode_ecb(void);
 #endif

int main(void) {
  100470:	7129                	addi	sp,sp,-320
  100472:	12112e23          	sw	ra,316(sp)

 #endif

#ifdef OpenSSLAES
//AES - SSL
    asm (    
  100476:	00150f13          	addi	t5,a0,1 # 30001 <_stack_len+0x28001>
        "addi    t5,a0,0x1"
);
uint8_t data_tiny[16]     ={0x6B,0xC1,0xBE,0xE2,0x2E,0x40,0x9F,0x96,0xE9,0x3D,0x7E,0x11,0x73,0x93,0x17,0x2A};
  10047a:	00001797          	auipc	a5,0x1
  10047e:	f8278793          	addi	a5,a5,-126 # 1013fc <sleep_loop+0x56>
  100482:	4390                	lw	a2,0(a5)
  100484:	43d4                	lw	a3,4(a5)
  100486:	4798                	lw	a4,8(a5)
  100488:	47dc                	lw	a5,12(a5)
  10048a:	12c12023          	sw	a2,288(sp)
  10048e:	12d12223          	sw	a3,292(sp)
  100492:	12e12423          	sw	a4,296(sp)
  100496:	12f12623          	sw	a5,300(sp)
uint8_t key_tiny[16]      ={0x2B,0x7E,0x15,0x16,0x28,0xAE,0xD2,0xA6,0xAB,0xF7,0x15,0x88,0x09,0xCF,0x4F,0x3C};
  10049a:	00001797          	auipc	a5,0x1
  10049e:	f7278793          	addi	a5,a5,-142 # 10140c <sleep_loop+0x66>
  1004a2:	4390                	lw	a2,0(a5)
  1004a4:	43d4                	lw	a3,4(a5)
  1004a6:	4798                	lw	a4,8(a5)
  1004a8:	47dc                	lw	a5,12(a5)
  1004aa:	10c12823          	sw	a2,272(sp)
  1004ae:	10d12a23          	sw	a3,276(sp)
  1004b2:	10e12c23          	sw	a4,280(sp)
  1004b6:	10f12e23          	sw	a5,284(sp)
  uint8_t out[16] = { 0,0,0,0,0,0,0,0,0,0,0,0,0,0,0,0 };
  1004ba:	10010023          	sb	zero,256(sp)
  1004be:	100100a3          	sb	zero,257(sp)
  1004c2:	10010123          	sb	zero,258(sp)
  1004c6:	100101a3          	sb	zero,259(sp)
  1004ca:	10010223          	sb	zero,260(sp)
  1004ce:	100102a3          	sb	zero,261(sp)
  1004d2:	10010323          	sb	zero,262(sp)
  1004d6:	100103a3          	sb	zero,263(sp)
  1004da:	10010423          	sb	zero,264(sp)
  1004de:	100104a3          	sb	zero,265(sp)
  1004e2:	10010523          	sb	zero,266(sp)
  1004e6:	100105a3          	sb	zero,267(sp)
  1004ea:	10010623          	sb	zero,268(sp)
  1004ee:	100106a3          	sb	zero,269(sp)
  1004f2:	10010723          	sb	zero,270(sp)
  1004f6:	100107a3          	sb	zero,271(sp)
  AES_KEY key_ssl;
  AES_set_encrypt_key(key_tiny, 128, &key_ssl);
  1004fa:	0078                	addi	a4,sp,12
  1004fc:	0a1c                	addi	a5,sp,272
  1004fe:	863a                	mv	a2,a4
  100500:	08000593          	li	a1,128
  100504:	853e                	mv	a0,a5
  100506:	28d9                	jal	1005dc <AES_set_encrypt_key>
  AES_ecb_encrypt(data_tiny, out, &key_ssl, AES_ENCRYPT);
  100508:	0070                	addi	a2,sp,12
  10050a:	0218                	addi	a4,sp,256
  10050c:	121c                	addi	a5,sp,288
  10050e:	4685                	li	a3,1
  100510:	85ba                	mv	a1,a4
  100512:	853e                	mv	a0,a5
  100514:	5ef000ef          	jal	ra,101302 <AES_ecb_encrypt>
//Read the outputs
    asm (    
  100518:	10012803          	lw	a6,256(sp)
  10051c:	10412883          	lw	a7,260(sp)
  100520:	10812903          	lw	s2,264(sp)
  100524:	10c12983          	lw	s3,268(sp)
        "lw	a6,256(sp);"
          "lw	a7,260(sp);"
        "lw	s2,264(sp);"
          "lw	s3,268(sp)"
);
    asm (    
  100528:	00050f13          	mv	t5,a0
        "addi    t5,a0,0x0"
);

    asm (    
  10052c:	00150f13          	addi	t5,a0,1
        "addi    t5,a0,0x1"
);
 data_tiny[0]     =0xAE;
  100530:	fae00793          	li	a5,-82
  100534:	12f10023          	sb	a5,288(sp)
  data_tiny[1]     =0x2D;
  100538:	02d00793          	li	a5,45
  10053c:	12f100a3          	sb	a5,289(sp)
   data_tiny[2]     =0x8A;
  100540:	f8a00793          	li	a5,-118
  100544:	12f10123          	sb	a5,290(sp)
    data_tiny[3]     =0x57;
  100548:	05700793          	li	a5,87
  10054c:	12f101a3          	sb	a5,291(sp)
     data_tiny[4]     =0x1E;
  100550:	47f9                	li	a5,30
  100552:	12f10223          	sb	a5,292(sp)
  data_tiny[5]     =0x03;
  100556:	478d                	li	a5,3
  100558:	12f102a3          	sb	a5,293(sp)
   data_tiny[6]     =0xAC;
  10055c:	fac00793          	li	a5,-84
  100560:	12f10323          	sb	a5,294(sp)
    data_tiny[7]     =0x9C;
  100564:	f9c00793          	li	a5,-100
  100568:	12f103a3          	sb	a5,295(sp)
     data_tiny[8]     =0x9E;
  10056c:	f9e00793          	li	a5,-98
  100570:	12f10423          	sb	a5,296(sp)
  data_tiny[9]     =0xB7;
  100574:	fb700793          	li	a5,-73
  100578:	12f104a3          	sb	a5,297(sp)
   data_tiny[10]     =0x6F;
  10057c:	06f00793          	li	a5,111
  100580:	12f10523          	sb	a5,298(sp)
    data_tiny[11]     =0xAC;
  100584:	fac00793          	li	a5,-84
  100588:	12f105a3          	sb	a5,299(sp)
   data_tiny[12]     =0x45;
  10058c:	04500793          	li	a5,69
  100590:	12f10623          	sb	a5,300(sp)
  data_tiny[13]     =0xAF;
  100594:	faf00793          	li	a5,-81
  100598:	12f106a3          	sb	a5,301(sp)
   data_tiny[14]     =0x8E;
  10059c:	f8e00793          	li	a5,-114
  1005a0:	12f10723          	sb	a5,302(sp)
    data_tiny[15]     =0x51;
  1005a4:	05100793          	li	a5,81
  1005a8:	12f107a3          	sb	a5,303(sp)
  AES_ecb_encrypt(data_tiny, out, &key_ssl, AES_ENCRYPT);
  1005ac:	0070                	addi	a2,sp,12
  1005ae:	0218                	addi	a4,sp,256
  1005b0:	121c                	addi	a5,sp,288
  1005b2:	4685                	li	a3,1
  1005b4:	85ba                	mv	a1,a4
  1005b6:	853e                	mv	a0,a5
  1005b8:	54b000ef          	jal	ra,101302 <AES_ecb_encrypt>
//Read the outputs
    asm (    
  1005bc:	10012803          	lw	a6,256(sp)
  1005c0:	10412883          	lw	a7,260(sp)
  1005c4:	10812903          	lw	s2,264(sp)
  1005c8:	10c12983          	lw	s3,268(sp)
        "lw	a6,256(sp);"
          "lw	a7,260(sp);"
        "lw	s2,264(sp);"
          "lw	s3,268(sp)"
);
    asm (    
  1005cc:	00050f13          	mv	t5,a0
#endif

////////////////////
///End Of Program///
////////////////////
  return(0);
  1005d0:	4781                	li	a5,0
}
  1005d2:	853e                	mv	a0,a5
  1005d4:	13c12083          	lw	ra,316(sp)
  1005d8:	6131                	addi	sp,sp,320
  1005da:	8082                	ret

001005dc <AES_set_encrypt_key>:
/**
 * Expand the cipher key into the encryption key schedule.
 */
int AES_set_encrypt_key(const unsigned char *userKey, const int bits,
                        AES_KEY *key)
{
  1005dc:	1101                	addi	sp,sp,-32
  1005de:	c62a                	sw	a0,12(sp)
  1005e0:	c42e                	sw	a1,8(sp)
  1005e2:	c232                	sw	a2,4(sp)

    u32 *rk;
    int i = 0;
  1005e4:	cc02                	sw	zero,24(sp)
    u32 temp;

    if (!userKey || !key)
  1005e6:	47b2                	lw	a5,12(sp)
  1005e8:	c399                	beqz	a5,1005ee <AES_set_encrypt_key+0x12>
  1005ea:	4792                	lw	a5,4(sp)
  1005ec:	e399                	bnez	a5,1005f2 <AES_set_encrypt_key+0x16>
        return -1;
  1005ee:	57fd                	li	a5,-1
  1005f0:	abf5                	j	100bec <AES_set_encrypt_key+0x610>
    if (bits != 128 && bits != 192 && bits != 256)
  1005f2:	4722                	lw	a4,8(sp)
  1005f4:	08000793          	li	a5,128
  1005f8:	00f70e63          	beq	a4,a5,100614 <AES_set_encrypt_key+0x38>
  1005fc:	4722                	lw	a4,8(sp)
  1005fe:	0c000793          	li	a5,192
  100602:	00f70963          	beq	a4,a5,100614 <AES_set_encrypt_key+0x38>
  100606:	4722                	lw	a4,8(sp)
  100608:	10000793          	li	a5,256
  10060c:	00f70463          	beq	a4,a5,100614 <AES_set_encrypt_key+0x38>
        return -2;
  100610:	57f9                	li	a5,-2
  100612:	abe9                	j	100bec <AES_set_encrypt_key+0x610>

    rk = key->rd_key;
  100614:	4792                	lw	a5,4(sp)
  100616:	ce3e                	sw	a5,28(sp)

    if (bits == 128)
  100618:	4722                	lw	a4,8(sp)
  10061a:	08000793          	li	a5,128
  10061e:	00f71763          	bne	a4,a5,10062c <AES_set_encrypt_key+0x50>
        key->rounds = 10;
  100622:	4792                	lw	a5,4(sp)
  100624:	4729                	li	a4,10
  100626:	0ee7a823          	sw	a4,240(a5)
  10062a:	a839                	j	100648 <AES_set_encrypt_key+0x6c>
    else if (bits == 192)
  10062c:	4722                	lw	a4,8(sp)
  10062e:	0c000793          	li	a5,192
  100632:	00f71763          	bne	a4,a5,100640 <AES_set_encrypt_key+0x64>
        key->rounds = 12;
  100636:	4792                	lw	a5,4(sp)
  100638:	4731                	li	a4,12
  10063a:	0ee7a823          	sw	a4,240(a5)
  10063e:	a029                	j	100648 <AES_set_encrypt_key+0x6c>
    else
        key->rounds = 14;
  100640:	4792                	lw	a5,4(sp)
  100642:	4739                	li	a4,14
  100644:	0ee7a823          	sw	a4,240(a5)

    rk[0] = GETU32(userKey     );
  100648:	47b2                	lw	a5,12(sp)
  10064a:	0007c783          	lbu	a5,0(a5)
  10064e:	01879713          	slli	a4,a5,0x18
  100652:	47b2                	lw	a5,12(sp)
  100654:	0785                	addi	a5,a5,1
  100656:	0007c783          	lbu	a5,0(a5)
  10065a:	07c2                	slli	a5,a5,0x10
  10065c:	8f3d                	xor	a4,a4,a5
  10065e:	47b2                	lw	a5,12(sp)
  100660:	0789                	addi	a5,a5,2
  100662:	0007c783          	lbu	a5,0(a5)
  100666:	07a2                	slli	a5,a5,0x8
  100668:	8fb9                	xor	a5,a5,a4
  10066a:	4732                	lw	a4,12(sp)
  10066c:	070d                	addi	a4,a4,3
  10066e:	00074703          	lbu	a4,0(a4)
  100672:	8f3d                	xor	a4,a4,a5
  100674:	47f2                	lw	a5,28(sp)
  100676:	c398                	sw	a4,0(a5)
    rk[1] = GETU32(userKey +  4);
  100678:	47b2                	lw	a5,12(sp)
  10067a:	0791                	addi	a5,a5,4
  10067c:	0007c783          	lbu	a5,0(a5)
  100680:	01879713          	slli	a4,a5,0x18
  100684:	47b2                	lw	a5,12(sp)
  100686:	0795                	addi	a5,a5,5
  100688:	0007c783          	lbu	a5,0(a5)
  10068c:	07c2                	slli	a5,a5,0x10
  10068e:	8f3d                	xor	a4,a4,a5
  100690:	47b2                	lw	a5,12(sp)
  100692:	0799                	addi	a5,a5,6
  100694:	0007c783          	lbu	a5,0(a5)
  100698:	07a2                	slli	a5,a5,0x8
  10069a:	8f3d                	xor	a4,a4,a5
  10069c:	47b2                	lw	a5,12(sp)
  10069e:	079d                	addi	a5,a5,7
  1006a0:	0007c783          	lbu	a5,0(a5)
  1006a4:	86be                	mv	a3,a5
  1006a6:	47f2                	lw	a5,28(sp)
  1006a8:	0791                	addi	a5,a5,4
  1006aa:	8f35                	xor	a4,a4,a3
  1006ac:	c398                	sw	a4,0(a5)
    rk[2] = GETU32(userKey +  8);
  1006ae:	47b2                	lw	a5,12(sp)
  1006b0:	07a1                	addi	a5,a5,8
  1006b2:	0007c783          	lbu	a5,0(a5)
  1006b6:	01879713          	slli	a4,a5,0x18
  1006ba:	47b2                	lw	a5,12(sp)
  1006bc:	07a5                	addi	a5,a5,9
  1006be:	0007c783          	lbu	a5,0(a5)
  1006c2:	07c2                	slli	a5,a5,0x10
  1006c4:	8f3d                	xor	a4,a4,a5
  1006c6:	47b2                	lw	a5,12(sp)
  1006c8:	07a9                	addi	a5,a5,10
  1006ca:	0007c783          	lbu	a5,0(a5)
  1006ce:	07a2                	slli	a5,a5,0x8
  1006d0:	8f3d                	xor	a4,a4,a5
  1006d2:	47b2                	lw	a5,12(sp)
  1006d4:	07ad                	addi	a5,a5,11
  1006d6:	0007c783          	lbu	a5,0(a5)
  1006da:	86be                	mv	a3,a5
  1006dc:	47f2                	lw	a5,28(sp)
  1006de:	07a1                	addi	a5,a5,8
  1006e0:	8f35                	xor	a4,a4,a3
  1006e2:	c398                	sw	a4,0(a5)
    rk[3] = GETU32(userKey + 12);
  1006e4:	47b2                	lw	a5,12(sp)
  1006e6:	07b1                	addi	a5,a5,12
  1006e8:	0007c783          	lbu	a5,0(a5)
  1006ec:	01879713          	slli	a4,a5,0x18
  1006f0:	47b2                	lw	a5,12(sp)
  1006f2:	07b5                	addi	a5,a5,13
  1006f4:	0007c783          	lbu	a5,0(a5)
  1006f8:	07c2                	slli	a5,a5,0x10
  1006fa:	8f3d                	xor	a4,a4,a5
  1006fc:	47b2                	lw	a5,12(sp)
  1006fe:	07b9                	addi	a5,a5,14
  100700:	0007c783          	lbu	a5,0(a5)
  100704:	07a2                	slli	a5,a5,0x8
  100706:	8f3d                	xor	a4,a4,a5
  100708:	47b2                	lw	a5,12(sp)
  10070a:	07bd                	addi	a5,a5,15
  10070c:	0007c783          	lbu	a5,0(a5)
  100710:	86be                	mv	a3,a5
  100712:	47f2                	lw	a5,28(sp)
  100714:	07b1                	addi	a5,a5,12
  100716:	8f35                	xor	a4,a4,a3
  100718:	c398                	sw	a4,0(a5)
    if (bits == 128) {
  10071a:	4722                	lw	a4,8(sp)
  10071c:	08000793          	li	a5,128
  100720:	0ef71863          	bne	a4,a5,100810 <AES_set_encrypt_key+0x234>
        while (1) {
            temp  = rk[3];
  100724:	47f2                	lw	a5,28(sp)
  100726:	47dc                	lw	a5,12(a5)
  100728:	ca3e                	sw	a5,20(sp)
            rk[4] = rk[0] ^
  10072a:	47f2                	lw	a5,28(sp)
  10072c:	4398                	lw	a4,0(a5)
                (Te2[(temp >> 16) & 0xff] & 0xff000000) ^
  10072e:	47d2                	lw	a5,20(sp)
  100730:	83c1                	srli	a5,a5,0x10
  100732:	0ff7f793          	andi	a5,a5,255
  100736:	00001697          	auipc	a3,0x1
  10073a:	4e668693          	addi	a3,a3,1254 # 101c1c <Te2>
  10073e:	078a                	slli	a5,a5,0x2
  100740:	97b6                	add	a5,a5,a3
  100742:	4394                	lw	a3,0(a5)
  100744:	ff0007b7          	lui	a5,0xff000
  100748:	8ff5                	and	a5,a5,a3
            rk[4] = rk[0] ^
  10074a:	8f3d                	xor	a4,a4,a5
                (Te3[(temp >>  8) & 0xff] & 0x00ff0000) ^
  10074c:	47d2                	lw	a5,20(sp)
  10074e:	83a1                	srli	a5,a5,0x8
  100750:	0ff7f793          	andi	a5,a5,255
  100754:	00002697          	auipc	a3,0x2
  100758:	8c868693          	addi	a3,a3,-1848 # 10201c <Te3>
  10075c:	078a                	slli	a5,a5,0x2
  10075e:	97b6                	add	a5,a5,a3
  100760:	4394                	lw	a3,0(a5)
  100762:	00ff07b7          	lui	a5,0xff0
  100766:	8ff5                	and	a5,a5,a3
                (Te2[(temp >> 16) & 0xff] & 0xff000000) ^
  100768:	8f3d                	xor	a4,a4,a5
                (Te0[(temp      ) & 0xff] & 0x0000ff00) ^
  10076a:	47d2                	lw	a5,20(sp)
  10076c:	0ff7f793          	andi	a5,a5,255
  100770:	00001697          	auipc	a3,0x1
  100774:	cac68693          	addi	a3,a3,-852 # 10141c <Te0>
  100778:	078a                	slli	a5,a5,0x2
  10077a:	97b6                	add	a5,a5,a3
  10077c:	4394                	lw	a3,0(a5)
  10077e:	67c1                	lui	a5,0x10
  100780:	f0078793          	addi	a5,a5,-256 # ff00 <_stack_len+0x7f00>
  100784:	8ff5                	and	a5,a5,a3
                (Te3[(temp >>  8) & 0xff] & 0x00ff0000) ^
  100786:	8f3d                	xor	a4,a4,a5
                (Te1[(temp >> 24)       ] & 0x000000ff) ^
  100788:	47d2                	lw	a5,20(sp)
  10078a:	83e1                	srli	a5,a5,0x18
  10078c:	00001697          	auipc	a3,0x1
  100790:	09068693          	addi	a3,a3,144 # 10181c <Te1>
  100794:	078a                	slli	a5,a5,0x2
  100796:	97b6                	add	a5,a5,a3
  100798:	439c                	lw	a5,0(a5)
  10079a:	0ff7f793          	andi	a5,a5,255
                (Te0[(temp      ) & 0xff] & 0x0000ff00) ^
  10079e:	00f746b3          	xor	a3,a4,a5
                rcon[i];
  1007a2:	00003717          	auipc	a4,0x3
  1007a6:	d7a70713          	addi	a4,a4,-646 # 10351c <rcon>
  1007aa:	47e2                	lw	a5,24(sp)
  1007ac:	078a                	slli	a5,a5,0x2
  1007ae:	97ba                	add	a5,a5,a4
  1007b0:	4398                	lw	a4,0(a5)
            rk[4] = rk[0] ^
  1007b2:	47f2                	lw	a5,28(sp)
  1007b4:	07c1                	addi	a5,a5,16
                (Te1[(temp >> 24)       ] & 0x000000ff) ^
  1007b6:	8f35                	xor	a4,a4,a3
            rk[4] = rk[0] ^
  1007b8:	c398                	sw	a4,0(a5)
            rk[5] = rk[1] ^ rk[4];
  1007ba:	47f2                	lw	a5,28(sp)
  1007bc:	0791                	addi	a5,a5,4
  1007be:	4394                	lw	a3,0(a5)
  1007c0:	47f2                	lw	a5,28(sp)
  1007c2:	07c1                	addi	a5,a5,16
  1007c4:	4398                	lw	a4,0(a5)
  1007c6:	47f2                	lw	a5,28(sp)
  1007c8:	07d1                	addi	a5,a5,20
  1007ca:	8f35                	xor	a4,a4,a3
  1007cc:	c398                	sw	a4,0(a5)
            rk[6] = rk[2] ^ rk[5];
  1007ce:	47f2                	lw	a5,28(sp)
  1007d0:	07a1                	addi	a5,a5,8
  1007d2:	4394                	lw	a3,0(a5)
  1007d4:	47f2                	lw	a5,28(sp)
  1007d6:	07d1                	addi	a5,a5,20
  1007d8:	4398                	lw	a4,0(a5)
  1007da:	47f2                	lw	a5,28(sp)
  1007dc:	07e1                	addi	a5,a5,24
  1007de:	8f35                	xor	a4,a4,a3
  1007e0:	c398                	sw	a4,0(a5)
            rk[7] = rk[3] ^ rk[6];
  1007e2:	47f2                	lw	a5,28(sp)
  1007e4:	07b1                	addi	a5,a5,12
  1007e6:	4394                	lw	a3,0(a5)
  1007e8:	47f2                	lw	a5,28(sp)
  1007ea:	07e1                	addi	a5,a5,24
  1007ec:	4398                	lw	a4,0(a5)
  1007ee:	47f2                	lw	a5,28(sp)
  1007f0:	07f1                	addi	a5,a5,28
  1007f2:	8f35                	xor	a4,a4,a3
  1007f4:	c398                	sw	a4,0(a5)
            if (++i == 10) {
  1007f6:	47e2                	lw	a5,24(sp)
  1007f8:	0785                	addi	a5,a5,1
  1007fa:	cc3e                	sw	a5,24(sp)
  1007fc:	4762                	lw	a4,24(sp)
  1007fe:	47a9                	li	a5,10
  100800:	00f71463          	bne	a4,a5,100808 <AES_set_encrypt_key+0x22c>
                return 0;
  100804:	4781                	li	a5,0
  100806:	a6dd                	j	100bec <AES_set_encrypt_key+0x610>
            }
            rk += 4;
  100808:	47f2                	lw	a5,28(sp)
  10080a:	07c1                	addi	a5,a5,16
  10080c:	ce3e                	sw	a5,28(sp)
            temp  = rk[3];
  10080e:	bf19                	j	100724 <AES_set_encrypt_key+0x148>
        }
    }
    rk[4] = GETU32(userKey + 16);
  100810:	47b2                	lw	a5,12(sp)
  100812:	07c1                	addi	a5,a5,16
  100814:	0007c783          	lbu	a5,0(a5)
  100818:	01879713          	slli	a4,a5,0x18
  10081c:	47b2                	lw	a5,12(sp)
  10081e:	07c5                	addi	a5,a5,17
  100820:	0007c783          	lbu	a5,0(a5)
  100824:	07c2                	slli	a5,a5,0x10
  100826:	8f3d                	xor	a4,a4,a5
  100828:	47b2                	lw	a5,12(sp)
  10082a:	07c9                	addi	a5,a5,18
  10082c:	0007c783          	lbu	a5,0(a5)
  100830:	07a2                	slli	a5,a5,0x8
  100832:	8f3d                	xor	a4,a4,a5
  100834:	47b2                	lw	a5,12(sp)
  100836:	07cd                	addi	a5,a5,19
  100838:	0007c783          	lbu	a5,0(a5)
  10083c:	86be                	mv	a3,a5
  10083e:	47f2                	lw	a5,28(sp)
  100840:	07c1                	addi	a5,a5,16
  100842:	8f35                	xor	a4,a4,a3
  100844:	c398                	sw	a4,0(a5)
    rk[5] = GETU32(userKey + 20);
  100846:	47b2                	lw	a5,12(sp)
  100848:	07d1                	addi	a5,a5,20
  10084a:	0007c783          	lbu	a5,0(a5)
  10084e:	01879713          	slli	a4,a5,0x18
  100852:	47b2                	lw	a5,12(sp)
  100854:	07d5                	addi	a5,a5,21
  100856:	0007c783          	lbu	a5,0(a5)
  10085a:	07c2                	slli	a5,a5,0x10
  10085c:	8f3d                	xor	a4,a4,a5
  10085e:	47b2                	lw	a5,12(sp)
  100860:	07d9                	addi	a5,a5,22
  100862:	0007c783          	lbu	a5,0(a5)
  100866:	07a2                	slli	a5,a5,0x8
  100868:	8f3d                	xor	a4,a4,a5
  10086a:	47b2                	lw	a5,12(sp)
  10086c:	07dd                	addi	a5,a5,23
  10086e:	0007c783          	lbu	a5,0(a5)
  100872:	86be                	mv	a3,a5
  100874:	47f2                	lw	a5,28(sp)
  100876:	07d1                	addi	a5,a5,20
  100878:	8f35                	xor	a4,a4,a3
  10087a:	c398                	sw	a4,0(a5)
    if (bits == 192) {
  10087c:	4722                	lw	a4,8(sp)
  10087e:	0c000793          	li	a5,192
  100882:	12f71363          	bne	a4,a5,1009a8 <AES_set_encrypt_key+0x3cc>
        while (1) {
            temp = rk[ 5];
  100886:	47f2                	lw	a5,28(sp)
  100888:	4bdc                	lw	a5,20(a5)
  10088a:	ca3e                	sw	a5,20(sp)
            rk[ 6] = rk[ 0] ^
  10088c:	47f2                	lw	a5,28(sp)
  10088e:	4398                	lw	a4,0(a5)
                (Te2[(temp >> 16) & 0xff] & 0xff000000) ^
  100890:	47d2                	lw	a5,20(sp)
  100892:	83c1                	srli	a5,a5,0x10
  100894:	0ff7f793          	andi	a5,a5,255
  100898:	00001697          	auipc	a3,0x1
  10089c:	38468693          	addi	a3,a3,900 # 101c1c <Te2>
  1008a0:	078a                	slli	a5,a5,0x2
  1008a2:	97b6                	add	a5,a5,a3
  1008a4:	4394                	lw	a3,0(a5)
  1008a6:	ff0007b7          	lui	a5,0xff000
  1008aa:	8ff5                	and	a5,a5,a3
            rk[ 6] = rk[ 0] ^
  1008ac:	8f3d                	xor	a4,a4,a5
                (Te3[(temp >>  8) & 0xff] & 0x00ff0000) ^
  1008ae:	47d2                	lw	a5,20(sp)
  1008b0:	83a1                	srli	a5,a5,0x8
  1008b2:	0ff7f793          	andi	a5,a5,255
  1008b6:	00001697          	auipc	a3,0x1
  1008ba:	76668693          	addi	a3,a3,1894 # 10201c <Te3>
  1008be:	078a                	slli	a5,a5,0x2
  1008c0:	97b6                	add	a5,a5,a3
  1008c2:	4394                	lw	a3,0(a5)
  1008c4:	00ff07b7          	lui	a5,0xff0
  1008c8:	8ff5                	and	a5,a5,a3
                (Te2[(temp >> 16) & 0xff] & 0xff000000) ^
  1008ca:	8f3d                	xor	a4,a4,a5
                (Te0[(temp      ) & 0xff] & 0x0000ff00) ^
  1008cc:	47d2                	lw	a5,20(sp)
  1008ce:	0ff7f793          	andi	a5,a5,255
  1008d2:	00001697          	auipc	a3,0x1
  1008d6:	b4a68693          	addi	a3,a3,-1206 # 10141c <Te0>
  1008da:	078a                	slli	a5,a5,0x2
  1008dc:	97b6                	add	a5,a5,a3
  1008de:	4394                	lw	a3,0(a5)
  1008e0:	67c1                	lui	a5,0x10
  1008e2:	f0078793          	addi	a5,a5,-256 # ff00 <_stack_len+0x7f00>
  1008e6:	8ff5                	and	a5,a5,a3
                (Te3[(temp >>  8) & 0xff] & 0x00ff0000) ^
  1008e8:	8f3d                	xor	a4,a4,a5
                (Te1[(temp >> 24)       ] & 0x000000ff) ^
  1008ea:	47d2                	lw	a5,20(sp)
  1008ec:	83e1                	srli	a5,a5,0x18
  1008ee:	00001697          	auipc	a3,0x1
  1008f2:	f2e68693          	addi	a3,a3,-210 # 10181c <Te1>
  1008f6:	078a                	slli	a5,a5,0x2
  1008f8:	97b6                	add	a5,a5,a3
  1008fa:	439c                	lw	a5,0(a5)
  1008fc:	0ff7f793          	andi	a5,a5,255
                (Te0[(temp      ) & 0xff] & 0x0000ff00) ^
  100900:	00f746b3          	xor	a3,a4,a5
                rcon[i];
  100904:	00003717          	auipc	a4,0x3
  100908:	c1870713          	addi	a4,a4,-1000 # 10351c <rcon>
  10090c:	47e2                	lw	a5,24(sp)
  10090e:	078a                	slli	a5,a5,0x2
  100910:	97ba                	add	a5,a5,a4
  100912:	4398                	lw	a4,0(a5)
            rk[ 6] = rk[ 0] ^
  100914:	47f2                	lw	a5,28(sp)
  100916:	07e1                	addi	a5,a5,24
                (Te1[(temp >> 24)       ] & 0x000000ff) ^
  100918:	8f35                	xor	a4,a4,a3
            rk[ 6] = rk[ 0] ^
  10091a:	c398                	sw	a4,0(a5)
            rk[ 7] = rk[ 1] ^ rk[ 6];
  10091c:	47f2                	lw	a5,28(sp)
  10091e:	0791                	addi	a5,a5,4
  100920:	4394                	lw	a3,0(a5)
  100922:	47f2                	lw	a5,28(sp)
  100924:	07e1                	addi	a5,a5,24
  100926:	4398                	lw	a4,0(a5)
  100928:	47f2                	lw	a5,28(sp)
  10092a:	07f1                	addi	a5,a5,28
  10092c:	8f35                	xor	a4,a4,a3
  10092e:	c398                	sw	a4,0(a5)
            rk[ 8] = rk[ 2] ^ rk[ 7];
  100930:	47f2                	lw	a5,28(sp)
  100932:	07a1                	addi	a5,a5,8
  100934:	4394                	lw	a3,0(a5)
  100936:	47f2                	lw	a5,28(sp)
  100938:	07f1                	addi	a5,a5,28
  10093a:	4398                	lw	a4,0(a5)
  10093c:	47f2                	lw	a5,28(sp)
  10093e:	02078793          	addi	a5,a5,32
  100942:	8f35                	xor	a4,a4,a3
  100944:	c398                	sw	a4,0(a5)
            rk[ 9] = rk[ 3] ^ rk[ 8];
  100946:	47f2                	lw	a5,28(sp)
  100948:	07b1                	addi	a5,a5,12
  10094a:	4394                	lw	a3,0(a5)
  10094c:	47f2                	lw	a5,28(sp)
  10094e:	02078793          	addi	a5,a5,32
  100952:	4398                	lw	a4,0(a5)
  100954:	47f2                	lw	a5,28(sp)
  100956:	02478793          	addi	a5,a5,36
  10095a:	8f35                	xor	a4,a4,a3
  10095c:	c398                	sw	a4,0(a5)
            if (++i == 8) {
  10095e:	47e2                	lw	a5,24(sp)
  100960:	0785                	addi	a5,a5,1
  100962:	cc3e                	sw	a5,24(sp)
  100964:	4762                	lw	a4,24(sp)
  100966:	47a1                	li	a5,8
  100968:	00f71463          	bne	a4,a5,100970 <AES_set_encrypt_key+0x394>
                return 0;
  10096c:	4781                	li	a5,0
  10096e:	acbd                	j	100bec <AES_set_encrypt_key+0x610>
            }
            rk[10] = rk[ 4] ^ rk[ 9];
  100970:	47f2                	lw	a5,28(sp)
  100972:	07c1                	addi	a5,a5,16
  100974:	4394                	lw	a3,0(a5)
  100976:	47f2                	lw	a5,28(sp)
  100978:	02478793          	addi	a5,a5,36
  10097c:	4398                	lw	a4,0(a5)
  10097e:	47f2                	lw	a5,28(sp)
  100980:	02878793          	addi	a5,a5,40
  100984:	8f35                	xor	a4,a4,a3
  100986:	c398                	sw	a4,0(a5)
            rk[11] = rk[ 5] ^ rk[10];
  100988:	47f2                	lw	a5,28(sp)
  10098a:	07d1                	addi	a5,a5,20
  10098c:	4394                	lw	a3,0(a5)
  10098e:	47f2                	lw	a5,28(sp)
  100990:	02878793          	addi	a5,a5,40
  100994:	4398                	lw	a4,0(a5)
  100996:	47f2                	lw	a5,28(sp)
  100998:	02c78793          	addi	a5,a5,44
  10099c:	8f35                	xor	a4,a4,a3
  10099e:	c398                	sw	a4,0(a5)
            rk += 6;
  1009a0:	47f2                	lw	a5,28(sp)
  1009a2:	07e1                	addi	a5,a5,24
  1009a4:	ce3e                	sw	a5,28(sp)
            temp = rk[ 5];
  1009a6:	b5c5                	j	100886 <AES_set_encrypt_key+0x2aa>
        }
    }
    rk[6] = GETU32(userKey + 24);
  1009a8:	47b2                	lw	a5,12(sp)
  1009aa:	07e1                	addi	a5,a5,24
  1009ac:	0007c783          	lbu	a5,0(a5)
  1009b0:	01879713          	slli	a4,a5,0x18
  1009b4:	47b2                	lw	a5,12(sp)
  1009b6:	07e5                	addi	a5,a5,25
  1009b8:	0007c783          	lbu	a5,0(a5)
  1009bc:	07c2                	slli	a5,a5,0x10
  1009be:	8f3d                	xor	a4,a4,a5
  1009c0:	47b2                	lw	a5,12(sp)
  1009c2:	07e9                	addi	a5,a5,26
  1009c4:	0007c783          	lbu	a5,0(a5)
  1009c8:	07a2                	slli	a5,a5,0x8
  1009ca:	8f3d                	xor	a4,a4,a5
  1009cc:	47b2                	lw	a5,12(sp)
  1009ce:	07ed                	addi	a5,a5,27
  1009d0:	0007c783          	lbu	a5,0(a5)
  1009d4:	86be                	mv	a3,a5
  1009d6:	47f2                	lw	a5,28(sp)
  1009d8:	07e1                	addi	a5,a5,24
  1009da:	8f35                	xor	a4,a4,a3
  1009dc:	c398                	sw	a4,0(a5)
    rk[7] = GETU32(userKey + 28);
  1009de:	47b2                	lw	a5,12(sp)
  1009e0:	07f1                	addi	a5,a5,28
  1009e2:	0007c783          	lbu	a5,0(a5)
  1009e6:	01879713          	slli	a4,a5,0x18
  1009ea:	47b2                	lw	a5,12(sp)
  1009ec:	07f5                	addi	a5,a5,29
  1009ee:	0007c783          	lbu	a5,0(a5)
  1009f2:	07c2                	slli	a5,a5,0x10
  1009f4:	8f3d                	xor	a4,a4,a5
  1009f6:	47b2                	lw	a5,12(sp)
  1009f8:	07f9                	addi	a5,a5,30
  1009fa:	0007c783          	lbu	a5,0(a5)
  1009fe:	07a2                	slli	a5,a5,0x8
  100a00:	8f3d                	xor	a4,a4,a5
  100a02:	47b2                	lw	a5,12(sp)
  100a04:	07fd                	addi	a5,a5,31
  100a06:	0007c783          	lbu	a5,0(a5)
  100a0a:	86be                	mv	a3,a5
  100a0c:	47f2                	lw	a5,28(sp)
  100a0e:	07f1                	addi	a5,a5,28
  100a10:	8f35                	xor	a4,a4,a3
  100a12:	c398                	sw	a4,0(a5)
    if (bits == 256) {
  100a14:	4722                	lw	a4,8(sp)
  100a16:	10000793          	li	a5,256
  100a1a:	1cf71863          	bne	a4,a5,100bea <AES_set_encrypt_key+0x60e>
        while (1) {
            temp = rk[ 7];
  100a1e:	47f2                	lw	a5,28(sp)
  100a20:	4fdc                	lw	a5,28(a5)
  100a22:	ca3e                	sw	a5,20(sp)
            rk[ 8] = rk[ 0] ^
  100a24:	47f2                	lw	a5,28(sp)
  100a26:	4398                	lw	a4,0(a5)
                (Te2[(temp >> 16) & 0xff] & 0xff000000) ^
  100a28:	47d2                	lw	a5,20(sp)
  100a2a:	83c1                	srli	a5,a5,0x10
  100a2c:	0ff7f793          	andi	a5,a5,255
  100a30:	00001697          	auipc	a3,0x1
  100a34:	1ec68693          	addi	a3,a3,492 # 101c1c <Te2>
  100a38:	078a                	slli	a5,a5,0x2
  100a3a:	97b6                	add	a5,a5,a3
  100a3c:	4394                	lw	a3,0(a5)
  100a3e:	ff0007b7          	lui	a5,0xff000
  100a42:	8ff5                	and	a5,a5,a3
            rk[ 8] = rk[ 0] ^
  100a44:	8f3d                	xor	a4,a4,a5
                (Te3[(temp >>  8) & 0xff] & 0x00ff0000) ^
  100a46:	47d2                	lw	a5,20(sp)
  100a48:	83a1                	srli	a5,a5,0x8
  100a4a:	0ff7f793          	andi	a5,a5,255
  100a4e:	00001697          	auipc	a3,0x1
  100a52:	5ce68693          	addi	a3,a3,1486 # 10201c <Te3>
  100a56:	078a                	slli	a5,a5,0x2
  100a58:	97b6                	add	a5,a5,a3
  100a5a:	4394                	lw	a3,0(a5)
  100a5c:	00ff07b7          	lui	a5,0xff0
  100a60:	8ff5                	and	a5,a5,a3
                (Te2[(temp >> 16) & 0xff] & 0xff000000) ^
  100a62:	8f3d                	xor	a4,a4,a5
                (Te0[(temp      ) & 0xff] & 0x0000ff00) ^
  100a64:	47d2                	lw	a5,20(sp)
  100a66:	0ff7f793          	andi	a5,a5,255
  100a6a:	00001697          	auipc	a3,0x1
  100a6e:	9b268693          	addi	a3,a3,-1614 # 10141c <Te0>
  100a72:	078a                	slli	a5,a5,0x2
  100a74:	97b6                	add	a5,a5,a3
  100a76:	4394                	lw	a3,0(a5)
  100a78:	67c1                	lui	a5,0x10
  100a7a:	f0078793          	addi	a5,a5,-256 # ff00 <_stack_len+0x7f00>
  100a7e:	8ff5                	and	a5,a5,a3
                (Te3[(temp >>  8) & 0xff] & 0x00ff0000) ^
  100a80:	8f3d                	xor	a4,a4,a5
                (Te1[(temp >> 24)       ] & 0x000000ff) ^
  100a82:	47d2                	lw	a5,20(sp)
  100a84:	83e1                	srli	a5,a5,0x18
  100a86:	00001697          	auipc	a3,0x1
  100a8a:	d9668693          	addi	a3,a3,-618 # 10181c <Te1>
  100a8e:	078a                	slli	a5,a5,0x2
  100a90:	97b6                	add	a5,a5,a3
  100a92:	439c                	lw	a5,0(a5)
  100a94:	0ff7f793          	andi	a5,a5,255
                (Te0[(temp      ) & 0xff] & 0x0000ff00) ^
  100a98:	00f746b3          	xor	a3,a4,a5
                rcon[i];
  100a9c:	00003717          	auipc	a4,0x3
  100aa0:	a8070713          	addi	a4,a4,-1408 # 10351c <rcon>
  100aa4:	47e2                	lw	a5,24(sp)
  100aa6:	078a                	slli	a5,a5,0x2
  100aa8:	97ba                	add	a5,a5,a4
  100aaa:	4398                	lw	a4,0(a5)
            rk[ 8] = rk[ 0] ^
  100aac:	47f2                	lw	a5,28(sp)
  100aae:	02078793          	addi	a5,a5,32
                (Te1[(temp >> 24)       ] & 0x000000ff) ^
  100ab2:	8f35                	xor	a4,a4,a3
            rk[ 8] = rk[ 0] ^
  100ab4:	c398                	sw	a4,0(a5)
            rk[ 9] = rk[ 1] ^ rk[ 8];
  100ab6:	47f2                	lw	a5,28(sp)
  100ab8:	0791                	addi	a5,a5,4
  100aba:	4394                	lw	a3,0(a5)
  100abc:	47f2                	lw	a5,28(sp)
  100abe:	02078793          	addi	a5,a5,32
  100ac2:	4398                	lw	a4,0(a5)
  100ac4:	47f2                	lw	a5,28(sp)
  100ac6:	02478793          	addi	a5,a5,36
  100aca:	8f35                	xor	a4,a4,a3
  100acc:	c398                	sw	a4,0(a5)
            rk[10] = rk[ 2] ^ rk[ 9];
  100ace:	47f2                	lw	a5,28(sp)
  100ad0:	07a1                	addi	a5,a5,8
  100ad2:	4394                	lw	a3,0(a5)
  100ad4:	47f2                	lw	a5,28(sp)
  100ad6:	02478793          	addi	a5,a5,36
  100ada:	4398                	lw	a4,0(a5)
  100adc:	47f2                	lw	a5,28(sp)
  100ade:	02878793          	addi	a5,a5,40
  100ae2:	8f35                	xor	a4,a4,a3
  100ae4:	c398                	sw	a4,0(a5)
            rk[11] = rk[ 3] ^ rk[10];
  100ae6:	47f2                	lw	a5,28(sp)
  100ae8:	07b1                	addi	a5,a5,12
  100aea:	4394                	lw	a3,0(a5)
  100aec:	47f2                	lw	a5,28(sp)
  100aee:	02878793          	addi	a5,a5,40
  100af2:	4398                	lw	a4,0(a5)
  100af4:	47f2                	lw	a5,28(sp)
  100af6:	02c78793          	addi	a5,a5,44
  100afa:	8f35                	xor	a4,a4,a3
  100afc:	c398                	sw	a4,0(a5)
            if (++i == 7) {
  100afe:	47e2                	lw	a5,24(sp)
  100b00:	0785                	addi	a5,a5,1
  100b02:	cc3e                	sw	a5,24(sp)
  100b04:	4762                	lw	a4,24(sp)
  100b06:	479d                	li	a5,7
  100b08:	00f71463          	bne	a4,a5,100b10 <AES_set_encrypt_key+0x534>
                return 0;
  100b0c:	4781                	li	a5,0
  100b0e:	a8f9                	j	100bec <AES_set_encrypt_key+0x610>
            }
            temp = rk[11];
  100b10:	47f2                	lw	a5,28(sp)
  100b12:	57dc                	lw	a5,44(a5)
  100b14:	ca3e                	sw	a5,20(sp)
            rk[12] = rk[ 4] ^
  100b16:	47f2                	lw	a5,28(sp)
  100b18:	07c1                	addi	a5,a5,16
  100b1a:	4398                	lw	a4,0(a5)
                (Te2[(temp >> 24)       ] & 0xff000000) ^
  100b1c:	47d2                	lw	a5,20(sp)
  100b1e:	83e1                	srli	a5,a5,0x18
  100b20:	00001697          	auipc	a3,0x1
  100b24:	0fc68693          	addi	a3,a3,252 # 101c1c <Te2>
  100b28:	078a                	slli	a5,a5,0x2
  100b2a:	97b6                	add	a5,a5,a3
  100b2c:	4394                	lw	a3,0(a5)
  100b2e:	ff0007b7          	lui	a5,0xff000
  100b32:	8ff5                	and	a5,a5,a3
            rk[12] = rk[ 4] ^
  100b34:	8f3d                	xor	a4,a4,a5
                (Te3[(temp >> 16) & 0xff] & 0x00ff0000) ^
  100b36:	47d2                	lw	a5,20(sp)
  100b38:	83c1                	srli	a5,a5,0x10
  100b3a:	0ff7f793          	andi	a5,a5,255
  100b3e:	00001697          	auipc	a3,0x1
  100b42:	4de68693          	addi	a3,a3,1246 # 10201c <Te3>
  100b46:	078a                	slli	a5,a5,0x2
  100b48:	97b6                	add	a5,a5,a3
  100b4a:	4394                	lw	a3,0(a5)
  100b4c:	00ff07b7          	lui	a5,0xff0
  100b50:	8ff5                	and	a5,a5,a3
                (Te2[(temp >> 24)       ] & 0xff000000) ^
  100b52:	8f3d                	xor	a4,a4,a5
                (Te0[(temp >>  8) & 0xff] & 0x0000ff00) ^
  100b54:	47d2                	lw	a5,20(sp)
  100b56:	83a1                	srli	a5,a5,0x8
  100b58:	0ff7f793          	andi	a5,a5,255
  100b5c:	00001697          	auipc	a3,0x1
  100b60:	8c068693          	addi	a3,a3,-1856 # 10141c <Te0>
  100b64:	078a                	slli	a5,a5,0x2
  100b66:	97b6                	add	a5,a5,a3
  100b68:	4394                	lw	a3,0(a5)
  100b6a:	67c1                	lui	a5,0x10
  100b6c:	f0078793          	addi	a5,a5,-256 # ff00 <_stack_len+0x7f00>
  100b70:	8ff5                	and	a5,a5,a3
                (Te3[(temp >> 16) & 0xff] & 0x00ff0000) ^
  100b72:	00f746b3          	xor	a3,a4,a5
                (Te1[(temp      ) & 0xff] & 0x000000ff);
  100b76:	47d2                	lw	a5,20(sp)
  100b78:	0ff7f793          	andi	a5,a5,255
  100b7c:	00001717          	auipc	a4,0x1
  100b80:	ca070713          	addi	a4,a4,-864 # 10181c <Te1>
  100b84:	078a                	slli	a5,a5,0x2
  100b86:	97ba                	add	a5,a5,a4
  100b88:	439c                	lw	a5,0(a5)
  100b8a:	0ff7f713          	andi	a4,a5,255
            rk[12] = rk[ 4] ^
  100b8e:	47f2                	lw	a5,28(sp)
  100b90:	03078793          	addi	a5,a5,48
                (Te0[(temp >>  8) & 0xff] & 0x0000ff00) ^
  100b94:	8f35                	xor	a4,a4,a3
            rk[12] = rk[ 4] ^
  100b96:	c398                	sw	a4,0(a5)
            rk[13] = rk[ 5] ^ rk[12];
  100b98:	47f2                	lw	a5,28(sp)
  100b9a:	07d1                	addi	a5,a5,20
  100b9c:	4394                	lw	a3,0(a5)
  100b9e:	47f2                	lw	a5,28(sp)
  100ba0:	03078793          	addi	a5,a5,48
  100ba4:	4398                	lw	a4,0(a5)
  100ba6:	47f2                	lw	a5,28(sp)
  100ba8:	03478793          	addi	a5,a5,52
  100bac:	8f35                	xor	a4,a4,a3
  100bae:	c398                	sw	a4,0(a5)
            rk[14] = rk[ 6] ^ rk[13];
  100bb0:	47f2                	lw	a5,28(sp)
  100bb2:	07e1                	addi	a5,a5,24
  100bb4:	4394                	lw	a3,0(a5)
  100bb6:	47f2                	lw	a5,28(sp)
  100bb8:	03478793          	addi	a5,a5,52
  100bbc:	4398                	lw	a4,0(a5)
  100bbe:	47f2                	lw	a5,28(sp)
  100bc0:	03878793          	addi	a5,a5,56
  100bc4:	8f35                	xor	a4,a4,a3
  100bc6:	c398                	sw	a4,0(a5)
            rk[15] = rk[ 7] ^ rk[14];
  100bc8:	47f2                	lw	a5,28(sp)
  100bca:	07f1                	addi	a5,a5,28
  100bcc:	4394                	lw	a3,0(a5)
  100bce:	47f2                	lw	a5,28(sp)
  100bd0:	03878793          	addi	a5,a5,56
  100bd4:	4398                	lw	a4,0(a5)
  100bd6:	47f2                	lw	a5,28(sp)
  100bd8:	03c78793          	addi	a5,a5,60
  100bdc:	8f35                	xor	a4,a4,a3
  100bde:	c398                	sw	a4,0(a5)

            rk += 8;
  100be0:	47f2                	lw	a5,28(sp)
  100be2:	02078793          	addi	a5,a5,32
  100be6:	ce3e                	sw	a5,28(sp)
            temp = rk[ 7];
  100be8:	bd1d                	j	100a1e <AES_set_encrypt_key+0x442>
            }
    }
    return 0;
  100bea:	4781                	li	a5,0
}
  100bec:	853e                	mv	a0,a5
  100bee:	6105                	addi	sp,sp,32
  100bf0:	8082                	ret

00100bf2 <AES_encrypt>:
/*
 * Encrypt a single block
 * in and out can overlap
 */
void AES_encrypt(const unsigned char *in, unsigned char *out,
                 const AES_KEY *key) {
  100bf2:	7139                	addi	sp,sp,-64
  100bf4:	c62a                	sw	a0,12(sp)
  100bf6:	c42e                	sw	a1,8(sp)
  100bf8:	c232                	sw	a2,4(sp)
#ifndef FULL_UNROLL
    int r;
#endif /* ?FULL_UNROLL */

    //assert(in && out && key);
    rk = key->rd_key;
  100bfa:	4792                	lw	a5,4(sp)
  100bfc:	de3e                	sw	a5,60(sp)

    /*
     * map byte array block to cipher state
     * and add initial round key:
     */
    s0 = GETU32(in     ) ^ rk[0];
  100bfe:	47b2                	lw	a5,12(sp)
  100c00:	0007c783          	lbu	a5,0(a5)
  100c04:	01879713          	slli	a4,a5,0x18
  100c08:	47b2                	lw	a5,12(sp)
  100c0a:	0785                	addi	a5,a5,1
  100c0c:	0007c783          	lbu	a5,0(a5)
  100c10:	07c2                	slli	a5,a5,0x10
  100c12:	8f3d                	xor	a4,a4,a5
  100c14:	47b2                	lw	a5,12(sp)
  100c16:	0789                	addi	a5,a5,2
  100c18:	0007c783          	lbu	a5,0(a5)
  100c1c:	07a2                	slli	a5,a5,0x8
  100c1e:	8fb9                	xor	a5,a5,a4
  100c20:	4732                	lw	a4,12(sp)
  100c22:	070d                	addi	a4,a4,3
  100c24:	00074703          	lbu	a4,0(a4)
  100c28:	8f3d                	xor	a4,a4,a5
  100c2a:	57f2                	lw	a5,60(sp)
  100c2c:	439c                	lw	a5,0(a5)
  100c2e:	8fb9                	xor	a5,a5,a4
  100c30:	dc3e                	sw	a5,56(sp)
    s1 = GETU32(in +  4) ^ rk[1];
  100c32:	47b2                	lw	a5,12(sp)
  100c34:	0791                	addi	a5,a5,4
  100c36:	0007c783          	lbu	a5,0(a5)
  100c3a:	01879713          	slli	a4,a5,0x18
  100c3e:	47b2                	lw	a5,12(sp)
  100c40:	0795                	addi	a5,a5,5
  100c42:	0007c783          	lbu	a5,0(a5)
  100c46:	07c2                	slli	a5,a5,0x10
  100c48:	8f3d                	xor	a4,a4,a5
  100c4a:	47b2                	lw	a5,12(sp)
  100c4c:	0799                	addi	a5,a5,6
  100c4e:	0007c783          	lbu	a5,0(a5)
  100c52:	07a2                	slli	a5,a5,0x8
  100c54:	8fb9                	xor	a5,a5,a4
  100c56:	4732                	lw	a4,12(sp)
  100c58:	071d                	addi	a4,a4,7
  100c5a:	00074703          	lbu	a4,0(a4)
  100c5e:	8f3d                	xor	a4,a4,a5
  100c60:	57f2                	lw	a5,60(sp)
  100c62:	0791                	addi	a5,a5,4
  100c64:	439c                	lw	a5,0(a5)
  100c66:	8fb9                	xor	a5,a5,a4
  100c68:	da3e                	sw	a5,52(sp)
    s2 = GETU32(in +  8) ^ rk[2];
  100c6a:	47b2                	lw	a5,12(sp)
  100c6c:	07a1                	addi	a5,a5,8
  100c6e:	0007c783          	lbu	a5,0(a5)
  100c72:	01879713          	slli	a4,a5,0x18
  100c76:	47b2                	lw	a5,12(sp)
  100c78:	07a5                	addi	a5,a5,9
  100c7a:	0007c783          	lbu	a5,0(a5)
  100c7e:	07c2                	slli	a5,a5,0x10
  100c80:	8f3d                	xor	a4,a4,a5
  100c82:	47b2                	lw	a5,12(sp)
  100c84:	07a9                	addi	a5,a5,10
  100c86:	0007c783          	lbu	a5,0(a5)
  100c8a:	07a2                	slli	a5,a5,0x8
  100c8c:	8fb9                	xor	a5,a5,a4
  100c8e:	4732                	lw	a4,12(sp)
  100c90:	072d                	addi	a4,a4,11
  100c92:	00074703          	lbu	a4,0(a4)
  100c96:	8f3d                	xor	a4,a4,a5
  100c98:	57f2                	lw	a5,60(sp)
  100c9a:	07a1                	addi	a5,a5,8
  100c9c:	439c                	lw	a5,0(a5)
  100c9e:	8fb9                	xor	a5,a5,a4
  100ca0:	d83e                	sw	a5,48(sp)
    s3 = GETU32(in + 12) ^ rk[3];
  100ca2:	47b2                	lw	a5,12(sp)
  100ca4:	07b1                	addi	a5,a5,12
  100ca6:	0007c783          	lbu	a5,0(a5)
  100caa:	01879713          	slli	a4,a5,0x18
  100cae:	47b2                	lw	a5,12(sp)
  100cb0:	07b5                	addi	a5,a5,13
  100cb2:	0007c783          	lbu	a5,0(a5)
  100cb6:	07c2                	slli	a5,a5,0x10
  100cb8:	8f3d                	xor	a4,a4,a5
  100cba:	47b2                	lw	a5,12(sp)
  100cbc:	07b9                	addi	a5,a5,14
  100cbe:	0007c783          	lbu	a5,0(a5)
  100cc2:	07a2                	slli	a5,a5,0x8
  100cc4:	8fb9                	xor	a5,a5,a4
  100cc6:	4732                	lw	a4,12(sp)
  100cc8:	073d                	addi	a4,a4,15
  100cca:	00074703          	lbu	a4,0(a4)
  100cce:	8f3d                	xor	a4,a4,a5
  100cd0:	57f2                	lw	a5,60(sp)
  100cd2:	07b1                	addi	a5,a5,12
  100cd4:	439c                	lw	a5,0(a5)
  100cd6:	8fb9                	xor	a5,a5,a4
  100cd8:	d63e                	sw	a5,44(sp)
    rk += key->rounds << 2;
#else  /* !FULL_UNROLL */
    /*
     * Nr - 1 full rounds:
     */
    r = key->rounds >> 1;
  100cda:	4792                	lw	a5,4(sp)
  100cdc:	0f07a783          	lw	a5,240(a5)
  100ce0:	8785                	srai	a5,a5,0x1
  100ce2:	d43e                	sw	a5,40(sp)
    for (;;) {
        t0 =
            Te0[(s0 >> 24)       ] ^
  100ce4:	57e2                	lw	a5,56(sp)
  100ce6:	83e1                	srli	a5,a5,0x18
  100ce8:	00000717          	auipc	a4,0x0
  100cec:	73470713          	addi	a4,a4,1844 # 10141c <Te0>
  100cf0:	078a                	slli	a5,a5,0x2
  100cf2:	97ba                	add	a5,a5,a4
  100cf4:	4398                	lw	a4,0(a5)
            Te1[(s1 >> 16) & 0xff] ^
  100cf6:	57d2                	lw	a5,52(sp)
  100cf8:	83c1                	srli	a5,a5,0x10
  100cfa:	0ff7f793          	andi	a5,a5,255
  100cfe:	00001697          	auipc	a3,0x1
  100d02:	b1e68693          	addi	a3,a3,-1250 # 10181c <Te1>
  100d06:	078a                	slli	a5,a5,0x2
  100d08:	97b6                	add	a5,a5,a3
  100d0a:	439c                	lw	a5,0(a5)
            Te0[(s0 >> 24)       ] ^
  100d0c:	8f3d                	xor	a4,a4,a5
            Te2[(s2 >>  8) & 0xff] ^
  100d0e:	57c2                	lw	a5,48(sp)
  100d10:	83a1                	srli	a5,a5,0x8
  100d12:	0ff7f793          	andi	a5,a5,255
  100d16:	00001697          	auipc	a3,0x1
  100d1a:	f0668693          	addi	a3,a3,-250 # 101c1c <Te2>
  100d1e:	078a                	slli	a5,a5,0x2
  100d20:	97b6                	add	a5,a5,a3
  100d22:	439c                	lw	a5,0(a5)
            Te1[(s1 >> 16) & 0xff] ^
  100d24:	8f3d                	xor	a4,a4,a5
            Te3[(s3      ) & 0xff] ^
  100d26:	57b2                	lw	a5,44(sp)
  100d28:	0ff7f793          	andi	a5,a5,255
  100d2c:	00001697          	auipc	a3,0x1
  100d30:	2f068693          	addi	a3,a3,752 # 10201c <Te3>
  100d34:	078a                	slli	a5,a5,0x2
  100d36:	97b6                	add	a5,a5,a3
  100d38:	439c                	lw	a5,0(a5)
            Te2[(s2 >>  8) & 0xff] ^
  100d3a:	8f3d                	xor	a4,a4,a5
            rk[4];
  100d3c:	57f2                	lw	a5,60(sp)
  100d3e:	07c1                	addi	a5,a5,16
  100d40:	439c                	lw	a5,0(a5)
        t0 =
  100d42:	8fb9                	xor	a5,a5,a4
  100d44:	d23e                	sw	a5,36(sp)
        t1 =
            Te0[(s1 >> 24)       ] ^
  100d46:	57d2                	lw	a5,52(sp)
  100d48:	83e1                	srli	a5,a5,0x18
  100d4a:	00000717          	auipc	a4,0x0
  100d4e:	6d270713          	addi	a4,a4,1746 # 10141c <Te0>
  100d52:	078a                	slli	a5,a5,0x2
  100d54:	97ba                	add	a5,a5,a4
  100d56:	4398                	lw	a4,0(a5)
            Te1[(s2 >> 16) & 0xff] ^
  100d58:	57c2                	lw	a5,48(sp)
  100d5a:	83c1                	srli	a5,a5,0x10
  100d5c:	0ff7f793          	andi	a5,a5,255
  100d60:	00001697          	auipc	a3,0x1
  100d64:	abc68693          	addi	a3,a3,-1348 # 10181c <Te1>
  100d68:	078a                	slli	a5,a5,0x2
  100d6a:	97b6                	add	a5,a5,a3
  100d6c:	439c                	lw	a5,0(a5)
            Te0[(s1 >> 24)       ] ^
  100d6e:	8f3d                	xor	a4,a4,a5
            Te2[(s3 >>  8) & 0xff] ^
  100d70:	57b2                	lw	a5,44(sp)
  100d72:	83a1                	srli	a5,a5,0x8
  100d74:	0ff7f793          	andi	a5,a5,255
  100d78:	00001697          	auipc	a3,0x1
  100d7c:	ea468693          	addi	a3,a3,-348 # 101c1c <Te2>
  100d80:	078a                	slli	a5,a5,0x2
  100d82:	97b6                	add	a5,a5,a3
  100d84:	439c                	lw	a5,0(a5)
            Te1[(s2 >> 16) & 0xff] ^
  100d86:	8f3d                	xor	a4,a4,a5
            Te3[(s0      ) & 0xff] ^
  100d88:	57e2                	lw	a5,56(sp)
  100d8a:	0ff7f793          	andi	a5,a5,255
  100d8e:	00001697          	auipc	a3,0x1
  100d92:	28e68693          	addi	a3,a3,654 # 10201c <Te3>
  100d96:	078a                	slli	a5,a5,0x2
  100d98:	97b6                	add	a5,a5,a3
  100d9a:	439c                	lw	a5,0(a5)
            Te2[(s3 >>  8) & 0xff] ^
  100d9c:	8f3d                	xor	a4,a4,a5
            rk[5];
  100d9e:	57f2                	lw	a5,60(sp)
  100da0:	07d1                	addi	a5,a5,20
  100da2:	439c                	lw	a5,0(a5)
        t1 =
  100da4:	8fb9                	xor	a5,a5,a4
  100da6:	d03e                	sw	a5,32(sp)
        t2 =
            Te0[(s2 >> 24)       ] ^
  100da8:	57c2                	lw	a5,48(sp)
  100daa:	83e1                	srli	a5,a5,0x18
  100dac:	00000717          	auipc	a4,0x0
  100db0:	67070713          	addi	a4,a4,1648 # 10141c <Te0>
  100db4:	078a                	slli	a5,a5,0x2
  100db6:	97ba                	add	a5,a5,a4
  100db8:	4398                	lw	a4,0(a5)
            Te1[(s3 >> 16) & 0xff] ^
  100dba:	57b2                	lw	a5,44(sp)
  100dbc:	83c1                	srli	a5,a5,0x10
  100dbe:	0ff7f793          	andi	a5,a5,255
  100dc2:	00001697          	auipc	a3,0x1
  100dc6:	a5a68693          	addi	a3,a3,-1446 # 10181c <Te1>
  100dca:	078a                	slli	a5,a5,0x2
  100dcc:	97b6                	add	a5,a5,a3
  100dce:	439c                	lw	a5,0(a5)
            Te0[(s2 >> 24)       ] ^
  100dd0:	8f3d                	xor	a4,a4,a5
            Te2[(s0 >>  8) & 0xff] ^
  100dd2:	57e2                	lw	a5,56(sp)
  100dd4:	83a1                	srli	a5,a5,0x8
  100dd6:	0ff7f793          	andi	a5,a5,255
  100dda:	00001697          	auipc	a3,0x1
  100dde:	e4268693          	addi	a3,a3,-446 # 101c1c <Te2>
  100de2:	078a                	slli	a5,a5,0x2
  100de4:	97b6                	add	a5,a5,a3
  100de6:	439c                	lw	a5,0(a5)
            Te1[(s3 >> 16) & 0xff] ^
  100de8:	8f3d                	xor	a4,a4,a5
            Te3[(s1      ) & 0xff] ^
  100dea:	57d2                	lw	a5,52(sp)
  100dec:	0ff7f793          	andi	a5,a5,255
  100df0:	00001697          	auipc	a3,0x1
  100df4:	22c68693          	addi	a3,a3,556 # 10201c <Te3>
  100df8:	078a                	slli	a5,a5,0x2
  100dfa:	97b6                	add	a5,a5,a3
  100dfc:	439c                	lw	a5,0(a5)
            Te2[(s0 >>  8) & 0xff] ^
  100dfe:	8f3d                	xor	a4,a4,a5
            rk[6];
  100e00:	57f2                	lw	a5,60(sp)
  100e02:	07e1                	addi	a5,a5,24
  100e04:	439c                	lw	a5,0(a5)
        t2 =
  100e06:	8fb9                	xor	a5,a5,a4
  100e08:	ce3e                	sw	a5,28(sp)
        t3 =
            Te0[(s3 >> 24)       ] ^
  100e0a:	57b2                	lw	a5,44(sp)
  100e0c:	83e1                	srli	a5,a5,0x18
  100e0e:	00000717          	auipc	a4,0x0
  100e12:	60e70713          	addi	a4,a4,1550 # 10141c <Te0>
  100e16:	078a                	slli	a5,a5,0x2
  100e18:	97ba                	add	a5,a5,a4
  100e1a:	4398                	lw	a4,0(a5)
            Te1[(s0 >> 16) & 0xff] ^
  100e1c:	57e2                	lw	a5,56(sp)
  100e1e:	83c1                	srli	a5,a5,0x10
  100e20:	0ff7f793          	andi	a5,a5,255
  100e24:	00001697          	auipc	a3,0x1
  100e28:	9f868693          	addi	a3,a3,-1544 # 10181c <Te1>
  100e2c:	078a                	slli	a5,a5,0x2
  100e2e:	97b6                	add	a5,a5,a3
  100e30:	439c                	lw	a5,0(a5)
            Te0[(s3 >> 24)       ] ^
  100e32:	8f3d                	xor	a4,a4,a5
            Te2[(s1 >>  8) & 0xff] ^
  100e34:	57d2                	lw	a5,52(sp)
  100e36:	83a1                	srli	a5,a5,0x8
  100e38:	0ff7f793          	andi	a5,a5,255
  100e3c:	00001697          	auipc	a3,0x1
  100e40:	de068693          	addi	a3,a3,-544 # 101c1c <Te2>
  100e44:	078a                	slli	a5,a5,0x2
  100e46:	97b6                	add	a5,a5,a3
  100e48:	439c                	lw	a5,0(a5)
            Te1[(s0 >> 16) & 0xff] ^
  100e4a:	8f3d                	xor	a4,a4,a5
            Te3[(s2      ) & 0xff] ^
  100e4c:	57c2                	lw	a5,48(sp)
  100e4e:	0ff7f793          	andi	a5,a5,255
  100e52:	00001697          	auipc	a3,0x1
  100e56:	1ca68693          	addi	a3,a3,458 # 10201c <Te3>
  100e5a:	078a                	slli	a5,a5,0x2
  100e5c:	97b6                	add	a5,a5,a3
  100e5e:	439c                	lw	a5,0(a5)
            Te2[(s1 >>  8) & 0xff] ^
  100e60:	8f3d                	xor	a4,a4,a5
            rk[7];
  100e62:	57f2                	lw	a5,60(sp)
  100e64:	07f1                	addi	a5,a5,28
  100e66:	439c                	lw	a5,0(a5)
        t3 =
  100e68:	8fb9                	xor	a5,a5,a4
  100e6a:	cc3e                	sw	a5,24(sp)

        rk += 8;
  100e6c:	57f2                	lw	a5,60(sp)
  100e6e:	02078793          	addi	a5,a5,32
  100e72:	de3e                	sw	a5,60(sp)
        if (--r == 0) {
  100e74:	57a2                	lw	a5,40(sp)
  100e76:	17fd                	addi	a5,a5,-1
  100e78:	d43e                	sw	a5,40(sp)
  100e7a:	57a2                	lw	a5,40(sp)
  100e7c:	18078663          	beqz	a5,101008 <AES_encrypt+0x416>
            break;
        }

        s0 =
            Te0[(t0 >> 24)       ] ^
  100e80:	5792                	lw	a5,36(sp)
  100e82:	83e1                	srli	a5,a5,0x18
  100e84:	00000717          	auipc	a4,0x0
  100e88:	59870713          	addi	a4,a4,1432 # 10141c <Te0>
  100e8c:	078a                	slli	a5,a5,0x2
  100e8e:	97ba                	add	a5,a5,a4
  100e90:	4398                	lw	a4,0(a5)
            Te1[(t1 >> 16) & 0xff] ^
  100e92:	5782                	lw	a5,32(sp)
  100e94:	83c1                	srli	a5,a5,0x10
  100e96:	0ff7f793          	andi	a5,a5,255
  100e9a:	00001697          	auipc	a3,0x1
  100e9e:	98268693          	addi	a3,a3,-1662 # 10181c <Te1>
  100ea2:	078a                	slli	a5,a5,0x2
  100ea4:	97b6                	add	a5,a5,a3
  100ea6:	439c                	lw	a5,0(a5)
            Te0[(t0 >> 24)       ] ^
  100ea8:	8f3d                	xor	a4,a4,a5
            Te2[(t2 >>  8) & 0xff] ^
  100eaa:	47f2                	lw	a5,28(sp)
  100eac:	83a1                	srli	a5,a5,0x8
  100eae:	0ff7f793          	andi	a5,a5,255
  100eb2:	00001697          	auipc	a3,0x1
  100eb6:	d6a68693          	addi	a3,a3,-662 # 101c1c <Te2>
  100eba:	078a                	slli	a5,a5,0x2
  100ebc:	97b6                	add	a5,a5,a3
  100ebe:	439c                	lw	a5,0(a5)
            Te1[(t1 >> 16) & 0xff] ^
  100ec0:	8f3d                	xor	a4,a4,a5
            Te3[(t3      ) & 0xff] ^
  100ec2:	47e2                	lw	a5,24(sp)
  100ec4:	0ff7f793          	andi	a5,a5,255
  100ec8:	00001697          	auipc	a3,0x1
  100ecc:	15468693          	addi	a3,a3,340 # 10201c <Te3>
  100ed0:	078a                	slli	a5,a5,0x2
  100ed2:	97b6                	add	a5,a5,a3
  100ed4:	439c                	lw	a5,0(a5)
            Te2[(t2 >>  8) & 0xff] ^
  100ed6:	8f3d                	xor	a4,a4,a5
            rk[0];
  100ed8:	57f2                	lw	a5,60(sp)
  100eda:	439c                	lw	a5,0(a5)
        s0 =
  100edc:	8fb9                	xor	a5,a5,a4
  100ede:	dc3e                	sw	a5,56(sp)
        s1 =
            Te0[(t1 >> 24)       ] ^
  100ee0:	5782                	lw	a5,32(sp)
  100ee2:	83e1                	srli	a5,a5,0x18
  100ee4:	00000717          	auipc	a4,0x0
  100ee8:	53870713          	addi	a4,a4,1336 # 10141c <Te0>
  100eec:	078a                	slli	a5,a5,0x2
  100eee:	97ba                	add	a5,a5,a4
  100ef0:	4398                	lw	a4,0(a5)
            Te1[(t2 >> 16) & 0xff] ^
  100ef2:	47f2                	lw	a5,28(sp)
  100ef4:	83c1                	srli	a5,a5,0x10
  100ef6:	0ff7f793          	andi	a5,a5,255
  100efa:	00001697          	auipc	a3,0x1
  100efe:	92268693          	addi	a3,a3,-1758 # 10181c <Te1>
  100f02:	078a                	slli	a5,a5,0x2
  100f04:	97b6                	add	a5,a5,a3
  100f06:	439c                	lw	a5,0(a5)
            Te0[(t1 >> 24)       ] ^
  100f08:	8f3d                	xor	a4,a4,a5
            Te2[(t3 >>  8) & 0xff] ^
  100f0a:	47e2                	lw	a5,24(sp)
  100f0c:	83a1                	srli	a5,a5,0x8
  100f0e:	0ff7f793          	andi	a5,a5,255
  100f12:	00001697          	auipc	a3,0x1
  100f16:	d0a68693          	addi	a3,a3,-758 # 101c1c <Te2>
  100f1a:	078a                	slli	a5,a5,0x2
  100f1c:	97b6                	add	a5,a5,a3
  100f1e:	439c                	lw	a5,0(a5)
            Te1[(t2 >> 16) & 0xff] ^
  100f20:	8f3d                	xor	a4,a4,a5
            Te3[(t0      ) & 0xff] ^
  100f22:	5792                	lw	a5,36(sp)
  100f24:	0ff7f793          	andi	a5,a5,255
  100f28:	00001697          	auipc	a3,0x1
  100f2c:	0f468693          	addi	a3,a3,244 # 10201c <Te3>
  100f30:	078a                	slli	a5,a5,0x2
  100f32:	97b6                	add	a5,a5,a3
  100f34:	439c                	lw	a5,0(a5)
            Te2[(t3 >>  8) & 0xff] ^
  100f36:	8f3d                	xor	a4,a4,a5
            rk[1];
  100f38:	57f2                	lw	a5,60(sp)
  100f3a:	0791                	addi	a5,a5,4
  100f3c:	439c                	lw	a5,0(a5)
        s1 =
  100f3e:	8fb9                	xor	a5,a5,a4
  100f40:	da3e                	sw	a5,52(sp)
        s2 =
            Te0[(t2 >> 24)       ] ^
  100f42:	47f2                	lw	a5,28(sp)
  100f44:	83e1                	srli	a5,a5,0x18
  100f46:	00000717          	auipc	a4,0x0
  100f4a:	4d670713          	addi	a4,a4,1238 # 10141c <Te0>
  100f4e:	078a                	slli	a5,a5,0x2
  100f50:	97ba                	add	a5,a5,a4
  100f52:	4398                	lw	a4,0(a5)
            Te1[(t3 >> 16) & 0xff] ^
  100f54:	47e2                	lw	a5,24(sp)
  100f56:	83c1                	srli	a5,a5,0x10
  100f58:	0ff7f793          	andi	a5,a5,255
  100f5c:	00001697          	auipc	a3,0x1
  100f60:	8c068693          	addi	a3,a3,-1856 # 10181c <Te1>
  100f64:	078a                	slli	a5,a5,0x2
  100f66:	97b6                	add	a5,a5,a3
  100f68:	439c                	lw	a5,0(a5)
            Te0[(t2 >> 24)       ] ^
  100f6a:	8f3d                	xor	a4,a4,a5
            Te2[(t0 >>  8) & 0xff] ^
  100f6c:	5792                	lw	a5,36(sp)
  100f6e:	83a1                	srli	a5,a5,0x8
  100f70:	0ff7f793          	andi	a5,a5,255
  100f74:	00001697          	auipc	a3,0x1
  100f78:	ca868693          	addi	a3,a3,-856 # 101c1c <Te2>
  100f7c:	078a                	slli	a5,a5,0x2
  100f7e:	97b6                	add	a5,a5,a3
  100f80:	439c                	lw	a5,0(a5)
            Te1[(t3 >> 16) & 0xff] ^
  100f82:	8f3d                	xor	a4,a4,a5
            Te3[(t1      ) & 0xff] ^
  100f84:	5782                	lw	a5,32(sp)
  100f86:	0ff7f793          	andi	a5,a5,255
  100f8a:	00001697          	auipc	a3,0x1
  100f8e:	09268693          	addi	a3,a3,146 # 10201c <Te3>
  100f92:	078a                	slli	a5,a5,0x2
  100f94:	97b6                	add	a5,a5,a3
  100f96:	439c                	lw	a5,0(a5)
            Te2[(t0 >>  8) & 0xff] ^
  100f98:	8f3d                	xor	a4,a4,a5
            rk[2];
  100f9a:	57f2                	lw	a5,60(sp)
  100f9c:	07a1                	addi	a5,a5,8
  100f9e:	439c                	lw	a5,0(a5)
        s2 =
  100fa0:	8fb9                	xor	a5,a5,a4
  100fa2:	d83e                	sw	a5,48(sp)
        s3 =
            Te0[(t3 >> 24)       ] ^
  100fa4:	47e2                	lw	a5,24(sp)
  100fa6:	83e1                	srli	a5,a5,0x18
  100fa8:	00000717          	auipc	a4,0x0
  100fac:	47470713          	addi	a4,a4,1140 # 10141c <Te0>
  100fb0:	078a                	slli	a5,a5,0x2
  100fb2:	97ba                	add	a5,a5,a4
  100fb4:	4398                	lw	a4,0(a5)
            Te1[(t0 >> 16) & 0xff] ^
  100fb6:	5792                	lw	a5,36(sp)
  100fb8:	83c1                	srli	a5,a5,0x10
  100fba:	0ff7f793          	andi	a5,a5,255
  100fbe:	00001697          	auipc	a3,0x1
  100fc2:	85e68693          	addi	a3,a3,-1954 # 10181c <Te1>
  100fc6:	078a                	slli	a5,a5,0x2
  100fc8:	97b6                	add	a5,a5,a3
  100fca:	439c                	lw	a5,0(a5)
            Te0[(t3 >> 24)       ] ^
  100fcc:	8f3d                	xor	a4,a4,a5
            Te2[(t1 >>  8) & 0xff] ^
  100fce:	5782                	lw	a5,32(sp)
  100fd0:	83a1                	srli	a5,a5,0x8
  100fd2:	0ff7f793          	andi	a5,a5,255
  100fd6:	00001697          	auipc	a3,0x1
  100fda:	c4668693          	addi	a3,a3,-954 # 101c1c <Te2>
  100fde:	078a                	slli	a5,a5,0x2
  100fe0:	97b6                	add	a5,a5,a3
  100fe2:	439c                	lw	a5,0(a5)
            Te1[(t0 >> 16) & 0xff] ^
  100fe4:	8f3d                	xor	a4,a4,a5
            Te3[(t2      ) & 0xff] ^
  100fe6:	47f2                	lw	a5,28(sp)
  100fe8:	0ff7f793          	andi	a5,a5,255
  100fec:	00001697          	auipc	a3,0x1
  100ff0:	03068693          	addi	a3,a3,48 # 10201c <Te3>
  100ff4:	078a                	slli	a5,a5,0x2
  100ff6:	97b6                	add	a5,a5,a3
  100ff8:	439c                	lw	a5,0(a5)
            Te2[(t1 >>  8) & 0xff] ^
  100ffa:	8f3d                	xor	a4,a4,a5
            rk[3];
  100ffc:	57f2                	lw	a5,60(sp)
  100ffe:	07b1                	addi	a5,a5,12
  101000:	439c                	lw	a5,0(a5)
        s3 =
  101002:	8fb9                	xor	a5,a5,a4
  101004:	d63e                	sw	a5,44(sp)
        t0 =
  101006:	b9f9                	j	100ce4 <AES_encrypt+0xf2>
            break;
  101008:	0001                	nop
    /*
     * apply last round and
     * map cipher state to byte array block:
     */
    s0 =
        (Te2[(t0 >> 24)       ] & 0xff000000) ^
  10100a:	5792                	lw	a5,36(sp)
  10100c:	83e1                	srli	a5,a5,0x18
  10100e:	00001717          	auipc	a4,0x1
  101012:	c0e70713          	addi	a4,a4,-1010 # 101c1c <Te2>
  101016:	078a                	slli	a5,a5,0x2
  101018:	97ba                	add	a5,a5,a4
  10101a:	4398                	lw	a4,0(a5)
  10101c:	ff0007b7          	lui	a5,0xff000
  101020:	8f7d                	and	a4,a4,a5
        (Te3[(t1 >> 16) & 0xff] & 0x00ff0000) ^
  101022:	5782                	lw	a5,32(sp)
  101024:	83c1                	srli	a5,a5,0x10
  101026:	0ff7f793          	andi	a5,a5,255
  10102a:	00001697          	auipc	a3,0x1
  10102e:	ff268693          	addi	a3,a3,-14 # 10201c <Te3>
  101032:	078a                	slli	a5,a5,0x2
  101034:	97b6                	add	a5,a5,a3
  101036:	4394                	lw	a3,0(a5)
  101038:	00ff07b7          	lui	a5,0xff0
  10103c:	8ff5                	and	a5,a5,a3
        (Te2[(t0 >> 24)       ] & 0xff000000) ^
  10103e:	8f5d                	or	a4,a4,a5
        (Te0[(t2 >>  8) & 0xff] & 0x0000ff00) ^
  101040:	47f2                	lw	a5,28(sp)
  101042:	83a1                	srli	a5,a5,0x8
  101044:	0ff7f793          	andi	a5,a5,255
  101048:	00000697          	auipc	a3,0x0
  10104c:	3d468693          	addi	a3,a3,980 # 10141c <Te0>
  101050:	078a                	slli	a5,a5,0x2
  101052:	97b6                	add	a5,a5,a3
  101054:	4394                	lw	a3,0(a5)
  101056:	67c1                	lui	a5,0x10
  101058:	f0078793          	addi	a5,a5,-256 # ff00 <_stack_len+0x7f00>
  10105c:	8ff5                	and	a5,a5,a3
        (Te3[(t1 >> 16) & 0xff] & 0x00ff0000) ^
  10105e:	8f3d                	xor	a4,a4,a5
        (Te1[(t3      ) & 0xff] & 0x000000ff) ^
  101060:	47e2                	lw	a5,24(sp)
  101062:	0ff7f793          	andi	a5,a5,255
  101066:	00000697          	auipc	a3,0x0
  10106a:	7b668693          	addi	a3,a3,1974 # 10181c <Te1>
  10106e:	078a                	slli	a5,a5,0x2
  101070:	97b6                	add	a5,a5,a3
  101072:	439c                	lw	a5,0(a5)
  101074:	0ff7f793          	andi	a5,a5,255
        (Te0[(t2 >>  8) & 0xff] & 0x0000ff00) ^
  101078:	8f3d                	xor	a4,a4,a5
        rk[0];
  10107a:	57f2                	lw	a5,60(sp)
  10107c:	439c                	lw	a5,0(a5)
    s0 =
  10107e:	8fb9                	xor	a5,a5,a4
  101080:	dc3e                	sw	a5,56(sp)
    PUTU32(out     , s0);
  101082:	57e2                	lw	a5,56(sp)
  101084:	83e1                	srli	a5,a5,0x18
  101086:	0ff7f713          	andi	a4,a5,255
  10108a:	47a2                	lw	a5,8(sp)
  10108c:	00e78023          	sb	a4,0(a5)
  101090:	57e2                	lw	a5,56(sp)
  101092:	0107d713          	srli	a4,a5,0x10
  101096:	47a2                	lw	a5,8(sp)
  101098:	0785                	addi	a5,a5,1
  10109a:	0ff77713          	andi	a4,a4,255
  10109e:	00e78023          	sb	a4,0(a5)
  1010a2:	57e2                	lw	a5,56(sp)
  1010a4:	0087d713          	srli	a4,a5,0x8
  1010a8:	47a2                	lw	a5,8(sp)
  1010aa:	0789                	addi	a5,a5,2
  1010ac:	0ff77713          	andi	a4,a4,255
  1010b0:	00e78023          	sb	a4,0(a5)
  1010b4:	47a2                	lw	a5,8(sp)
  1010b6:	078d                	addi	a5,a5,3
  1010b8:	5762                	lw	a4,56(sp)
  1010ba:	0ff77713          	andi	a4,a4,255
  1010be:	00e78023          	sb	a4,0(a5)
    s1 =
        (Te2[(t1 >> 24)       ] & 0xff000000) ^
  1010c2:	5782                	lw	a5,32(sp)
  1010c4:	83e1                	srli	a5,a5,0x18
  1010c6:	00001717          	auipc	a4,0x1
  1010ca:	b5670713          	addi	a4,a4,-1194 # 101c1c <Te2>
  1010ce:	078a                	slli	a5,a5,0x2
  1010d0:	97ba                	add	a5,a5,a4
  1010d2:	4398                	lw	a4,0(a5)
  1010d4:	ff0007b7          	lui	a5,0xff000
  1010d8:	8f7d                	and	a4,a4,a5
        (Te3[(t2 >> 16) & 0xff] & 0x00ff0000) ^
  1010da:	47f2                	lw	a5,28(sp)
  1010dc:	83c1                	srli	a5,a5,0x10
  1010de:	0ff7f793          	andi	a5,a5,255
  1010e2:	00001697          	auipc	a3,0x1
  1010e6:	f3a68693          	addi	a3,a3,-198 # 10201c <Te3>
  1010ea:	078a                	slli	a5,a5,0x2
  1010ec:	97b6                	add	a5,a5,a3
  1010ee:	4394                	lw	a3,0(a5)
  1010f0:	00ff07b7          	lui	a5,0xff0
  1010f4:	8ff5                	and	a5,a5,a3
        (Te2[(t1 >> 24)       ] & 0xff000000) ^
  1010f6:	8f5d                	or	a4,a4,a5
        (Te0[(t3 >>  8) & 0xff] & 0x0000ff00) ^
  1010f8:	47e2                	lw	a5,24(sp)
  1010fa:	83a1                	srli	a5,a5,0x8
  1010fc:	0ff7f793          	andi	a5,a5,255
  101100:	00000697          	auipc	a3,0x0
  101104:	31c68693          	addi	a3,a3,796 # 10141c <Te0>
  101108:	078a                	slli	a5,a5,0x2
  10110a:	97b6                	add	a5,a5,a3
  10110c:	4394                	lw	a3,0(a5)
  10110e:	67c1                	lui	a5,0x10
  101110:	f0078793          	addi	a5,a5,-256 # ff00 <_stack_len+0x7f00>
  101114:	8ff5                	and	a5,a5,a3
        (Te3[(t2 >> 16) & 0xff] & 0x00ff0000) ^
  101116:	8f3d                	xor	a4,a4,a5
        (Te1[(t0      ) & 0xff] & 0x000000ff) ^
  101118:	5792                	lw	a5,36(sp)
  10111a:	0ff7f793          	andi	a5,a5,255
  10111e:	00000697          	auipc	a3,0x0
  101122:	6fe68693          	addi	a3,a3,1790 # 10181c <Te1>
  101126:	078a                	slli	a5,a5,0x2
  101128:	97b6                	add	a5,a5,a3
  10112a:	439c                	lw	a5,0(a5)
  10112c:	0ff7f793          	andi	a5,a5,255
        (Te0[(t3 >>  8) & 0xff] & 0x0000ff00) ^
  101130:	8f3d                	xor	a4,a4,a5
        rk[1];
  101132:	57f2                	lw	a5,60(sp)
  101134:	0791                	addi	a5,a5,4
  101136:	439c                	lw	a5,0(a5)
    s1 =
  101138:	8fb9                	xor	a5,a5,a4
  10113a:	da3e                	sw	a5,52(sp)
    PUTU32(out +  4, s1);
  10113c:	57d2                	lw	a5,52(sp)
  10113e:	0187d713          	srli	a4,a5,0x18
  101142:	47a2                	lw	a5,8(sp)
  101144:	0791                	addi	a5,a5,4
  101146:	0ff77713          	andi	a4,a4,255
  10114a:	00e78023          	sb	a4,0(a5)
  10114e:	57d2                	lw	a5,52(sp)
  101150:	0107d713          	srli	a4,a5,0x10
  101154:	47a2                	lw	a5,8(sp)
  101156:	0795                	addi	a5,a5,5
  101158:	0ff77713          	andi	a4,a4,255
  10115c:	00e78023          	sb	a4,0(a5)
  101160:	57d2                	lw	a5,52(sp)
  101162:	0087d713          	srli	a4,a5,0x8
  101166:	47a2                	lw	a5,8(sp)
  101168:	0799                	addi	a5,a5,6
  10116a:	0ff77713          	andi	a4,a4,255
  10116e:	00e78023          	sb	a4,0(a5)
  101172:	47a2                	lw	a5,8(sp)
  101174:	079d                	addi	a5,a5,7
  101176:	5752                	lw	a4,52(sp)
  101178:	0ff77713          	andi	a4,a4,255
  10117c:	00e78023          	sb	a4,0(a5)
    s2 =
        (Te2[(t2 >> 24)       ] & 0xff000000) ^
  101180:	47f2                	lw	a5,28(sp)
  101182:	83e1                	srli	a5,a5,0x18
  101184:	00001717          	auipc	a4,0x1
  101188:	a9870713          	addi	a4,a4,-1384 # 101c1c <Te2>
  10118c:	078a                	slli	a5,a5,0x2
  10118e:	97ba                	add	a5,a5,a4
  101190:	4398                	lw	a4,0(a5)
  101192:	ff0007b7          	lui	a5,0xff000
  101196:	8f7d                	and	a4,a4,a5
        (Te3[(t3 >> 16) & 0xff] & 0x00ff0000) ^
  101198:	47e2                	lw	a5,24(sp)
  10119a:	83c1                	srli	a5,a5,0x10
  10119c:	0ff7f793          	andi	a5,a5,255
  1011a0:	00001697          	auipc	a3,0x1
  1011a4:	e7c68693          	addi	a3,a3,-388 # 10201c <Te3>
  1011a8:	078a                	slli	a5,a5,0x2
  1011aa:	97b6                	add	a5,a5,a3
  1011ac:	4394                	lw	a3,0(a5)
  1011ae:	00ff07b7          	lui	a5,0xff0
  1011b2:	8ff5                	and	a5,a5,a3
        (Te2[(t2 >> 24)       ] & 0xff000000) ^
  1011b4:	8f5d                	or	a4,a4,a5
        (Te0[(t0 >>  8) & 0xff] & 0x0000ff00) ^
  1011b6:	5792                	lw	a5,36(sp)
  1011b8:	83a1                	srli	a5,a5,0x8
  1011ba:	0ff7f793          	andi	a5,a5,255
  1011be:	00000697          	auipc	a3,0x0
  1011c2:	25e68693          	addi	a3,a3,606 # 10141c <Te0>
  1011c6:	078a                	slli	a5,a5,0x2
  1011c8:	97b6                	add	a5,a5,a3
  1011ca:	4394                	lw	a3,0(a5)
  1011cc:	67c1                	lui	a5,0x10
  1011ce:	f0078793          	addi	a5,a5,-256 # ff00 <_stack_len+0x7f00>
  1011d2:	8ff5                	and	a5,a5,a3
        (Te3[(t3 >> 16) & 0xff] & 0x00ff0000) ^
  1011d4:	8f3d                	xor	a4,a4,a5
        (Te1[(t1      ) & 0xff] & 0x000000ff) ^
  1011d6:	5782                	lw	a5,32(sp)
  1011d8:	0ff7f793          	andi	a5,a5,255
  1011dc:	00000697          	auipc	a3,0x0
  1011e0:	64068693          	addi	a3,a3,1600 # 10181c <Te1>
  1011e4:	078a                	slli	a5,a5,0x2
  1011e6:	97b6                	add	a5,a5,a3
  1011e8:	439c                	lw	a5,0(a5)
  1011ea:	0ff7f793          	andi	a5,a5,255
        (Te0[(t0 >>  8) & 0xff] & 0x0000ff00) ^
  1011ee:	8f3d                	xor	a4,a4,a5
        rk[2];
  1011f0:	57f2                	lw	a5,60(sp)
  1011f2:	07a1                	addi	a5,a5,8
  1011f4:	439c                	lw	a5,0(a5)
    s2 =
  1011f6:	8fb9                	xor	a5,a5,a4
  1011f8:	d83e                	sw	a5,48(sp)
    PUTU32(out +  8, s2);
  1011fa:	57c2                	lw	a5,48(sp)
  1011fc:	0187d713          	srli	a4,a5,0x18
  101200:	47a2                	lw	a5,8(sp)
  101202:	07a1                	addi	a5,a5,8
  101204:	0ff77713          	andi	a4,a4,255
  101208:	00e78023          	sb	a4,0(a5)
  10120c:	57c2                	lw	a5,48(sp)
  10120e:	0107d713          	srli	a4,a5,0x10
  101212:	47a2                	lw	a5,8(sp)
  101214:	07a5                	addi	a5,a5,9
  101216:	0ff77713          	andi	a4,a4,255
  10121a:	00e78023          	sb	a4,0(a5)
  10121e:	57c2                	lw	a5,48(sp)
  101220:	0087d713          	srli	a4,a5,0x8
  101224:	47a2                	lw	a5,8(sp)
  101226:	07a9                	addi	a5,a5,10
  101228:	0ff77713          	andi	a4,a4,255
  10122c:	00e78023          	sb	a4,0(a5)
  101230:	47a2                	lw	a5,8(sp)
  101232:	07ad                	addi	a5,a5,11
  101234:	5742                	lw	a4,48(sp)
  101236:	0ff77713          	andi	a4,a4,255
  10123a:	00e78023          	sb	a4,0(a5)
    s3 =
        (Te2[(t3 >> 24)       ] & 0xff000000) ^
  10123e:	47e2                	lw	a5,24(sp)
  101240:	83e1                	srli	a5,a5,0x18
  101242:	00001717          	auipc	a4,0x1
  101246:	9da70713          	addi	a4,a4,-1574 # 101c1c <Te2>
  10124a:	078a                	slli	a5,a5,0x2
  10124c:	97ba                	add	a5,a5,a4
  10124e:	4398                	lw	a4,0(a5)
  101250:	ff0007b7          	lui	a5,0xff000
  101254:	8f7d                	and	a4,a4,a5
        (Te3[(t0 >> 16) & 0xff] & 0x00ff0000) ^
  101256:	5792                	lw	a5,36(sp)
  101258:	83c1                	srli	a5,a5,0x10
  10125a:	0ff7f793          	andi	a5,a5,255
  10125e:	00001697          	auipc	a3,0x1
  101262:	dbe68693          	addi	a3,a3,-578 # 10201c <Te3>
  101266:	078a                	slli	a5,a5,0x2
  101268:	97b6                	add	a5,a5,a3
  10126a:	4394                	lw	a3,0(a5)
  10126c:	00ff07b7          	lui	a5,0xff0
  101270:	8ff5                	and	a5,a5,a3
        (Te2[(t3 >> 24)       ] & 0xff000000) ^
  101272:	8f5d                	or	a4,a4,a5
        (Te0[(t1 >>  8) & 0xff] & 0x0000ff00) ^
  101274:	5782                	lw	a5,32(sp)
  101276:	83a1                	srli	a5,a5,0x8
  101278:	0ff7f793          	andi	a5,a5,255
  10127c:	00000697          	auipc	a3,0x0
  101280:	1a068693          	addi	a3,a3,416 # 10141c <Te0>
  101284:	078a                	slli	a5,a5,0x2
  101286:	97b6                	add	a5,a5,a3
  101288:	4394                	lw	a3,0(a5)
  10128a:	67c1                	lui	a5,0x10
  10128c:	f0078793          	addi	a5,a5,-256 # ff00 <_stack_len+0x7f00>
  101290:	8ff5                	and	a5,a5,a3
        (Te3[(t0 >> 16) & 0xff] & 0x00ff0000) ^
  101292:	8f3d                	xor	a4,a4,a5
        (Te1[(t2      ) & 0xff] & 0x000000ff) ^
  101294:	47f2                	lw	a5,28(sp)
  101296:	0ff7f793          	andi	a5,a5,255
  10129a:	00000697          	auipc	a3,0x0
  10129e:	58268693          	addi	a3,a3,1410 # 10181c <Te1>
  1012a2:	078a                	slli	a5,a5,0x2
  1012a4:	97b6                	add	a5,a5,a3
  1012a6:	439c                	lw	a5,0(a5)
  1012a8:	0ff7f793          	andi	a5,a5,255
        (Te0[(t1 >>  8) & 0xff] & 0x0000ff00) ^
  1012ac:	8f3d                	xor	a4,a4,a5
        rk[3];
  1012ae:	57f2                	lw	a5,60(sp)
  1012b0:	07b1                	addi	a5,a5,12
  1012b2:	439c                	lw	a5,0(a5)
    s3 =
  1012b4:	8fb9                	xor	a5,a5,a4
  1012b6:	d63e                	sw	a5,44(sp)
    PUTU32(out + 12, s3);
  1012b8:	57b2                	lw	a5,44(sp)
  1012ba:	0187d713          	srli	a4,a5,0x18
  1012be:	47a2                	lw	a5,8(sp)
  1012c0:	07b1                	addi	a5,a5,12
  1012c2:	0ff77713          	andi	a4,a4,255
  1012c6:	00e78023          	sb	a4,0(a5)
  1012ca:	57b2                	lw	a5,44(sp)
  1012cc:	0107d713          	srli	a4,a5,0x10
  1012d0:	47a2                	lw	a5,8(sp)
  1012d2:	07b5                	addi	a5,a5,13
  1012d4:	0ff77713          	andi	a4,a4,255
  1012d8:	00e78023          	sb	a4,0(a5)
  1012dc:	57b2                	lw	a5,44(sp)
  1012de:	0087d713          	srli	a4,a5,0x8
  1012e2:	47a2                	lw	a5,8(sp)
  1012e4:	07b9                	addi	a5,a5,14
  1012e6:	0ff77713          	andi	a4,a4,255
  1012ea:	00e78023          	sb	a4,0(a5)
  1012ee:	47a2                	lw	a5,8(sp)
  1012f0:	07bd                	addi	a5,a5,15
  1012f2:	5732                	lw	a4,44(sp)
  1012f4:	0ff77713          	andi	a4,a4,255
  1012f8:	00e78023          	sb	a4,0(a5)
}
  1012fc:	0001                	nop
  1012fe:	6121                	addi	sp,sp,64
  101300:	8082                	ret

00101302 <AES_ecb_encrypt>:
#include "../H_files/aes_ssl.h"
#include "../H_files/aes_local_ssl.h"

void AES_ecb_encrypt(const unsigned char *in, unsigned char *out,
                     const AES_KEY *key, const int enc)
{
  101302:	1101                	addi	sp,sp,-32
  101304:	ce06                	sw	ra,28(sp)
  101306:	c62a                	sw	a0,12(sp)
  101308:	c42e                	sw	a1,8(sp)
  10130a:	c232                	sw	a2,4(sp)
  10130c:	c036                	sw	a3,0(sp)

    //assert(in && out && key);
    //assert((AES_ENCRYPT == enc) || (AES_DECRYPT == enc));

   // if (AES_ENCRYPT == enc)  //Never used //AZ //31082020
        AES_encrypt(in, out, key);
  10130e:	4612                	lw	a2,4(sp)
  101310:	45a2                	lw	a1,8(sp)
  101312:	4532                	lw	a0,12(sp)
  101314:	38f9                	jal	100bf2 <AES_encrypt>
  //  else
  //      AES_decrypt(in, out, key);
}
  101316:	0001                	nop
  101318:	40f2                	lw	ra,28(sp)
  10131a:	6105                	addi	sp,sp,32
  10131c:	8082                	ret

0010131e <default_exc_handler>:
  jal x0, simple_exc_handler
  10131e:	f49fe06f          	j	100266 <simple_exc_handler>

00101322 <timer_handler>:
  jal x0, simple_timer_handler
  101322:	8b8ff06f          	j	1003da <simple_timer_handler>

00101326 <reset_handler>:
  mv  x1, x0
  101326:	00000093          	li	ra,0
  mv  x2, x1
  10132a:	8106                	mv	sp,ra
  mv  x3, x1
  10132c:	8186                	mv	gp,ra
  mv  x4, x1
  10132e:	8206                	mv	tp,ra
  mv  x5, x1
  101330:	8286                	mv	t0,ra
  mv  x6, x1
  101332:	8306                	mv	t1,ra
  mv  x7, x1
  101334:	8386                	mv	t2,ra
  mv  x8, x1
  101336:	8406                	mv	s0,ra
  mv  x9, x1
  101338:	8486                	mv	s1,ra
  mv x10, x1
  10133a:	8506                	mv	a0,ra
  mv x11, x1
  10133c:	8586                	mv	a1,ra
  mv x12, x1
  10133e:	8606                	mv	a2,ra
  mv x13, x1
  101340:	8686                	mv	a3,ra
  mv x14, x1
  101342:	8706                	mv	a4,ra
  mv x15, x1
  101344:	8786                	mv	a5,ra
  mv x16, x1
  101346:	8806                	mv	a6,ra
  mv x17, x1
  101348:	8886                	mv	a7,ra
  mv x18, x1
  10134a:	8906                	mv	s2,ra
  mv x19, x1
  10134c:	8986                	mv	s3,ra
  mv x20, x1
  10134e:	8a06                	mv	s4,ra
  mv x21, x1
  101350:	8a86                	mv	s5,ra
  mv x22, x1
  101352:	8b06                	mv	s6,ra
  mv x23, x1
  101354:	8b86                	mv	s7,ra
  mv x24, x1
  101356:	8c06                	mv	s8,ra
  mv x25, x1
  101358:	8c86                	mv	s9,ra
  mv x26, x1
  10135a:	8d06                	mv	s10,ra
  mv x27, x1
  10135c:	8d86                	mv	s11,ra
  mv x28, x1
  10135e:	8e06                	mv	t3,ra
  mv x29, x1
  101360:	8e86                	mv	t4,ra
  mv x30, x1
  101362:	8f06                	mv	t5,ra
  mv x31, x1
  101364:	8f86                	mv	t6,ra
  la   x2, _stack_start
  101366:	000ff117          	auipc	sp,0xff
  10136a:	c9a10113          	addi	sp,sp,-870 # 200000 <_stack_start>

0010136e <_start>:
  la x26, _bss_start
  10136e:	00002d17          	auipc	s10,0x2
  101372:	1dad0d13          	addi	s10,s10,474 # 103548 <time_elapsed>
  la x27, _bss_end
  101376:	00002d97          	auipc	s11,0x2
  10137a:	1e2d8d93          	addi	s11,s11,482 # 103558 <_bss_end>
  bge x26, x27, zero_loop_end
  10137e:	01bd5763          	bge	s10,s11,10138c <main_entry>

00101382 <zero_loop>:
  sw x0, 0(x26)
  101382:	000d2023          	sw	zero,0(s10)
  addi x26, x26, 4
  101386:	0d11                	addi	s10,s10,4
  ble x26, x27, zero_loop
  101388:	ffaddde3          	bge	s11,s10,101382 <zero_loop>

0010138c <main_entry>:
  addi x10, x0, 0
  10138c:	00000513          	li	a0,0
  addi x11, x0, 0
  101390:	00000593          	li	a1,0
  jal x1, main
  101394:	8dcff0ef          	jal	ra,100470 <main>
  li x5, SIM_CTRL_BASE + SIM_CTRL_CTRL
  101398:	000202b7          	lui	t0,0x20
  10139c:	00428293          	addi	t0,t0,4 # 20004 <_stack_len+0x18004>
  li x6, 1
  1013a0:	4305                	li	t1,1
  sw x6, 0(x5)
  1013a2:	0062a023          	sw	t1,0(t0)

001013a6 <sleep_loop>:
  wfi
  1013a6:	10500073          	wfi
  j sleep_loop
  1013aa:	bff5                	j	1013a6 <sleep_loop>

Déassemblage de la section .rodata :

001013ac <Te0-0x70>:
  1013ac:	5845                	li	a6,-15
  1013ae:	54504543          	0x54504543
  1013b2:	4f49                	li	t5,18
  1013b4:	214e                	fld	ft2,208(sp)
  1013b6:	2121                	jal	1017be <Te0+0x3a2>
  1013b8:	000a                	c.slli	zero,0x2
  1013ba:	0000                	unimp
  1013bc:	3d3d                	jal	1011fa <AES_encrypt+0x608>
  1013be:	3d3d                	jal	1011fc <AES_encrypt+0x60a>
  1013c0:	3d3d                	jal	1011fe <AES_encrypt+0x60c>
  1013c2:	3d3d                	jal	101200 <AES_encrypt+0x60e>
  1013c4:	3d3d                	jal	101202 <AES_encrypt+0x610>
  1013c6:	3d3d                	jal	101204 <AES_encrypt+0x612>
  1013c8:	000a                	c.slli	zero,0x2
  1013ca:	0000                	unimp
  1013cc:	454d                	li	a0,19
  1013ce:	4350                	lw	a2,4(a4)
  1013d0:	203a                	fld	ft0,392(sp)
  1013d2:	2020                	fld	fs0,64(s0)
  1013d4:	7830                	flw	fa2,112(s0)
  1013d6:	3025                	jal	100bfe <AES_encrypt+0xc>
  1013d8:	0058                	addi	a4,sp,4
  1013da:	0000                	unimp
  1013dc:	4d0a                	lw	s10,128(sp)
  1013de:	53554143          	fmadd.d	ft2,fa0,fs5,fa0,rmm
  1013e2:	3a45                	jal	100d92 <AES_encrypt+0x1a0>
  1013e4:	3020                	fld	fs0,96(s0)
  1013e6:	2578                	fld	fa4,200(a0)
  1013e8:	5830                	lw	a2,112(s0)
  1013ea:	0000                	unimp
  1013ec:	4d0a                	lw	s10,128(sp)
  1013ee:	5654                	lw	a3,44(a2)
  1013f0:	4c41                	li	s8,16
  1013f2:	203a                	fld	ft0,392(sp)
  1013f4:	3020                	fld	fs0,96(s0)
  1013f6:	2578                	fld	fa4,200(a0)
  1013f8:	5830                	lw	a2,112(s0)
  1013fa:	0000                	unimp
  1013fc:	e2bec16b          	0xe2bec16b
  101400:	402e                	0x402e
  101402:	969f 3de9 117e      	0x117e3de9969f
  101408:	2a179373          	csrrw	t1,0x2a1,a5
  10140c:	16157e2b          	0x16157e2b
  101410:	ae28                	fsd	fa0,88(a2)
  101412:	a6d2                	fsd	fs4,328(sp)
  101414:	8815f7ab          	0x8815f7ab
  101418:	cf09                	beqz	a4,101432 <Te0+0x16>
  10141a:	          	fnmadd.d	fs8,fa0,fs10,fa2,rup

0010141c <Te0>:
static const u32 Te0[256] = {
  10141c:	63a5                	lui	t2,0x9
  10141e:	7c84c663          	blt	s1,s0,101bea <Te1+0x3ce>
  101422:	f87c                	fsw	fa5,116(s0)
  101424:	7799                	lui	a5,0xfffe6
  101426:	7b8dee77          	0x7b8dee77
  10142a:	f20df67b          	0xf20df67b
  10142e:	fff2                	fsw	ft8,252(sp)
  101430:	6bbd                	lui	s7,0xf
  101432:	6fb1d66b          	0x6fb1d66b
  101436:	c554de6f          	jal	t3,4f08a <_stack_len+0x4708a>
  10143a:	91c5                	srli	a1,a1,0x31
  10143c:	3050                	fld	fa2,160(s0)
  10143e:	6030                	flw	fa2,64(s0)
  101440:	02010103          	lb	sp,32(sp)
  101444:	67a9                	lui	a5,0xa
  101446:	2b7dce67          	0x2b7dce67
  10144a:	fe19562b          	0xfe19562b
  10144e:	e7fe                	fsw	ft11,204(sp)
  101450:	d762                	sw	s8,172(sp)
  101452:	abe6b5d7          	0xabe6b5d7
  101456:	769a4dab          	0x769a4dab
  10145a:	ec76                	fsw	ft9,24(sp)
  10145c:	ca45                	beqz	a2,10150c <Te0+0xf0>
  10145e:	8fca                	mv	t6,s2
  101460:	829d                	srli	a3,a3,0x7
  101462:	1f82                	slli	t6,t6,0x20
  101464:	c940                	sw	s0,20(a0)
  101466:	89c9                	andi	a1,a1,18
  101468:	fa7d7d87          	0xfa7d7d87
  10146c:	fa15                	bnez	a2,1013a0 <main_entry+0x14>
  10146e:	effa                	fsw	ft10,220(sp)
  101470:	b25959eb          	0xb25959eb
  101474:	47c9                	li	a5,18
  101476:	f00b8e47          	fmsub.s	ft8,fs7,ft0,ft10,rne
  10147a:	fbf0                	fsw	fa2,116(a5)
  10147c:	adec                	fsd	fa1,216(a1)
  10147e:	41ad                	li	gp,11
  101480:	b3d4d467          	0xb3d4d467
  101484:	a2fd                	j	101672 <Te0+0x256>
  101486:	5fa2                	lw	t6,40(sp)
  101488:	afea                	fsd	fs10,472(sp)
  10148a:	9cbf45af          	0x9cbf45af
  10148e:	239c                	fld	fa5,0(a5)
  101490:	53a4a4f7          	0x53a4a4f7
  101494:	7296                	flw	ft5,100(sp)
  101496:	e472                	fsw	ft8,8(sp)
  101498:	9bc0c05b          	0x9bc0c05b
  10149c:	b7c2                	fsd	fa6,488(sp)
  10149e:	fd1c75b7          	lui	a1,0xfd1c7
  1014a2:	e1fd                	bnez	a1,101588 <Te0+0x16c>
  1014a4:	93ae                	add	t2,t2,a1
  1014a6:	266a3d93          	sltiu	s11,s4,614
  1014aa:	4c26                	lw	s8,72(sp)
  1014ac:	365a                	fld	fa2,432(sp)
  1014ae:	6c36                	flw	fs8,76(sp)
  1014b0:	3f41                	jal	101440 <Te0+0x24>
  1014b2:	f7027e3f cc4ff5f7 	0xcc4ff5f7f7027e3f
  1014ba:	83cc                	0x83cc
  1014bc:	345c                	fld	fa5,168(s0)
  1014be:	6834                	flw	fa3,80(s0)
  1014c0:	a5f4                	fsd	fa3,200(a1)
  1014c2:	51a5                	li	gp,-23
  1014c4:	e534                	fsw	fa3,72(a0)
  1014c6:	d1e5                	beqz	a1,1014a6 <Te0+0x8a>
  1014c8:	f108                	fsw	fa0,32(a0)
  1014ca:	f9f1                	bnez	a1,10149e <Te0+0x82>
  1014cc:	e2717193          	andi	gp,sp,-473
  1014d0:	abd8d873          	csrrwi	a6,0xabd,17
  1014d4:	62313153          	0x62313153
  1014d8:	2a15153f 0804040c 	0x804040c2a15153f
  1014e0:	c752                	sw	s4,140(sp)
  1014e2:	236595c7          	fmsub.d	fa1,fa1,fs6,ft4,rtz
  1014e6:	c35e4623          	0xc35e4623
  1014ea:	18289dc3          	fmadd.s	fs11,fa7,ft2,ft3,rtz
  1014ee:	3018                	fld	fa4,32(s0)
  1014f0:	96a1                	srai	a3,a3,0x28
  1014f2:	3796                	fld	fa5,352(sp)
  1014f4:	0a05050f          	0xa05050f
  1014f8:	9ab5                	andi	a3,a3,-19
  1014fa:	2f9a                	fld	ft11,384(sp)
  1014fc:	0709                	addi	a4,a4,2
  1014fe:	12360e07          	0x12360e07
  101502:	2412                	fld	fs0,256(sp)
  101504:	1b80809b          	0x1b80809b
  101508:	e23d                	bnez	a2,10156e <Te0+0x152>
  10150a:	dfe2                	sw	s8,252(sp)
  10150c:	eb26                	fsw	fs1,148(sp)
  10150e:	2769cdeb          	0x2769cdeb
  101512:	b2cd4e27          	fsq	fa2,-1220(s10)
  101516:	7fb2                	flw	ft11,44(sp)
  101518:	759f ea75 091b      	0x91bea75759f
  10151e:	1209                	addi	tp,tp,-30
  101520:	839e                	mv	t2,t2
  101522:	2c741d83          	lh	s11,711(s0)
  101526:	582c                	lw	a1,112(s0)
  101528:	1a2e                	slli	s4,s4,0x2b
  10152a:	341a                	fld	fs0,416(sp)
  10152c:	1b2d                	addi	s6,s6,-21
  10152e:	6eb2361b          	0x6eb2361b
  101532:	dc6e                	sw	s11,56(sp)
  101534:	5aee                	lw	s5,248(sp)
  101536:	b45a                	fsd	fs6,40(sp)
  101538:	5ba0a0fb          	0x5ba0a0fb
  10153c:	52f6                	lw	t0,124(sp)
  10153e:	a452                	fsd	fs4,8(sp)
  101540:	3b4d                	jal	1012f2 <AES_encrypt+0x700>
  101542:	d661763b          	0xd661763b
  101546:	b7d6                	fsd	fs5,488(sp)
  101548:	b3ce                	fsd	fs3,480(sp)
  10154a:	297b7db3          	0x297b7db3
  10154e:	5229                	li	tp,-22
  101550:	e33e                	fsw	fa5,132(sp)
  101552:	2f71dde3          	bge	gp,s7,10204c <Te3+0x30>
  101556:	84975e2f          	0x84975e2f
  10155a:	1384                	addi	s1,sp,480
  10155c:	53f5                	li	t2,-3
  10155e:	d168a653          	0xd168a653
  101562:	b9d1                	j	101236 <AES_encrypt+0x644>
  101564:	0000                	unimp
  101566:	0000                	unimp
  101568:	ed2c                	fsw	fa1,88(a0)
  10156a:	c1ed                	beqz	a1,10164c <Te0+0x230>
  10156c:	2060                	fld	fs0,192(s0)
  10156e:	4020                	lw	s0,64(s0)
  101570:	fc1f e3fc b1c8      	0xb1c8e3fcfc1f
  101576:	79b1                	lui	s3,0xfffec
  101578:	5bed                	li	s7,-5
  10157a:	6abeb65b          	0x6abeb65b
  10157e:	d46a                	sw	s10,40(sp)
  101580:	cb46                	sw	a7,148(sp)
  101582:	bed98dcb          	fnmsub.q	fs11,fs3,fa3,fs7,rne
  101586:	67be                	flw	fa5,204(sp)
  101588:	7239394b          	fnmsub.d	fs2,fs2,ft3,fa4,rup
  10158c:	4ade                	lw	s5,212(sp)
  10158e:	944a                	add	s0,s0,s2
  101590:	4cd4                	lw	a3,28(s1)
  101592:	984c                	0x984c
  101594:	58e8                	lw	a0,116(s1)
  101596:	b058                	fsd	fa4,160(s0)
  101598:	cf4a                	sw	s2,156(sp)
  10159a:	d06b85cf          	fnmadd.s	fa1,fs7,ft6,fs10,rne
  10159e:	bbd0                	fsd	fa2,176(a5)
  1015a0:	ef2a                	fsw	fa0,156(sp)
  1015a2:	aae5c5ef          	jal	a1,5d850 <_stack_len+0x55850>
  1015a6:	4faa                	lw	t6,136(sp)
  1015a8:	fb16                	fsw	ft5,180(sp)
  1015aa:	43c5edfb          	0x43c5edfb
  1015ae:	4dd78643          	0x4dd78643
  1015b2:	9a4d                	andi	a2,a2,-13
  1015b4:	3355                	jal	101358 <reset_handler+0x32>
  1015b6:	85946633          	0x85946633
  1015ba:	1185                	addi	gp,gp,-31
  1015bc:	8a4545cf          	fnmadd.d	fa1,fa0,ft4,fa7,rmm
  1015c0:	f910                	fsw	fa2,48(a0)
  1015c2:	e9f9                	bnez	a1,101698 <Te0+0x27c>
  1015c4:	0206                	slli	tp,tp,0x1
  1015c6:	0402                	c.slli64	s0
  1015c8:	7f81                	lui	t6,0xfffe0
  1015ca:	fe7f                	0xfe7f
  1015cc:	50f0                	lw	a2,100(s1)
  1015ce:	a050                	fsd	fa2,128(s0)
  1015d0:	3c44                	fld	fs1,184(s0)
  1015d2:	783c                	flw	fa5,112(s0)
  1015d4:	9fba                	add	t6,t6,a4
  1015d6:	259f a8e3 4ba8      	0x4ba8a8e3259f
  1015dc:	a25151f3          	csrrwi	gp,0xa25,2
  1015e0:	a3fe                	fsd	ft11,448(sp)
  1015e2:	40c05da3          	0x40c05da3
  1015e6:	8040                	0x8040
  1015e8:	8f8a                	mv	t6,sp
  1015ea:	92ad058f          	0x92ad058f
  1015ee:	3f92                	fld	ft11,288(sp)
  1015f0:	9dbc                	0x9dbc
  1015f2:	219d                	jal	101a58 <Te1+0x23c>
  1015f4:	3848                	fld	fa0,176(s0)
  1015f6:	7038                	flw	fa4,96(s0)
  1015f8:	f504                	fsw	fs1,40(a0)
  1015fa:	f1f5                	bnez	a1,1015de <Te0+0x1c2>
  1015fc:	bcdf 63bc b6c1      	0xb6c163bcbcdf
  101602:	77b6                	flw	fa5,108(sp)
  101604:	da75                	beqz	a2,1015f8 <Te0+0x1dc>
  101606:	afda                	fsd	fs6,472(sp)
  101608:	42212163          	0x42212163
  10160c:	1030                	addi	a2,sp,40
  10160e:	2010                	fld	fa2,0(s0)
  101610:	ff1a                	fsw	ft6,188(sp)
  101612:	e5ff                	0xe5ff
  101614:	f30e                	fsw	ft3,164(sp)
  101616:	d26dfdf3          	csrrci	s11,0xd26,27
  10161a:	bfd2                	fsd	fs4,504(sp)
  10161c:	cd4c                	sw	a1,28(a0)
  10161e:	81cd                	srli	a1,a1,0x13
  101620:	0c14                	addi	a3,sp,528
  101622:	180c                	addi	a1,sp,48
  101624:	1335                	addi	t1,t1,-19
  101626:	ec2f2613          	slti	a2,t5,-318
  10162a:	c3ec                	sw	a1,68(a5)
  10162c:	5fe1                	li	t6,-8
  10162e:	be5f 97a2 3597      	0x359797a2be5f
  101634:	44cc                	lw	a1,12(s1)
  101636:	8844                	0x8844
  101638:	1739                	addi	a4,a4,-18
  10163a:	c4572e17          	auipc	t3,0xc4572
  10163e:	93c4                	0x93c4
  101640:	a7f2                	fsd	ft8,456(sp)
  101642:	7e8255a7          	0x7e8255a7
  101646:	fc7e                	fsw	ft11,56(sp)
  101648:	7a3d3d47          	fmsub.d	fs10,fs10,ft3,fa5,rup
  10164c:	64ac                	flw	fa1,72(s1)
  10164e:	c864                	sw	s1,84(s0)
  101650:	ba5d5de7          	0xba5d5de7
  101654:	3219192b          	0x3219192b
  101658:	7395                	lui	t2,0xfffe5
  10165a:	60a0e673          	csrrsi	a2,0x60a,1
  10165e:	c060                	sw	s0,68(s0)
  101660:	8198                	0x8198
  101662:	1981                	addi	s3,s3,-32
  101664:	4fd1                	li	t6,20
  101666:	dc7f9e4f          	0xdc7f9e4f
  10166a:	a3dc                	fsd	fa5,128(a5)
  10166c:	2266                	fld	ft4,88(sp)
  10166e:	4422                	lw	s0,8(sp)
  101670:	2a7e                	fld	fs4,472(sp)
  101672:	542a                	lw	s0,168(sp)
  101674:	3b9090ab          	0x3b9090ab
  101678:	0b888883          	lb	a7,184(a7)
  10167c:	46ca                	lw	a3,144(sp)
  10167e:	8c46                	mv	s8,a7
  101680:	ee29                	bnez	a2,1016da <Te0+0x2be>
  101682:	c7ee                	sw	s11,204(sp)
  101684:	6bb8b8d3          	0x6bb8b8d3
  101688:	143c                	addi	a5,sp,552
  10168a:	2814                	fld	fa3,16(s0)
  10168c:	de79                	beqz	a2,10166a <Te0+0x24e>
  10168e:	a7de                	fsd	fs7,456(sp)
  101690:	5ee2                	lw	t4,56(sp)
  101692:	bc5e                	fsd	fs7,56(sp)
  101694:	0b1d                	addi	s6,s6,7
  101696:	db76160b          	0xdb76160b
  10169a:	e03baddb          	0xe03baddb
  10169e:	dbe0                	sw	s0,116(a5)
  1016a0:	3256                	fld	ft4,368(sp)
  1016a2:	6432                	flw	fs0,12(sp)
  1016a4:	3a4e                	fld	fs4,240(sp)
  1016a6:	743a                	flw	fs0,172(sp)
  1016a8:	0a1e                	slli	s4,s4,0x7
  1016aa:	140a                	slli	s0,s0,0x22
  1016ac:	924949db          	0x924949db
  1016b0:	060a                	slli	a2,a2,0x2
  1016b2:	0c06                	slli	s8,s8,0x1
  1016b4:	246c                	fld	fa1,200(s0)
  1016b6:	4824                	lw	s1,80(s0)
  1016b8:	5ce4                	lw	s1,124(s1)
  1016ba:	b85c                	fsd	fa5,176(s0)
  1016bc:	c25d                	beqz	a2,101762 <Te0+0x346>
  1016be:	9fc2                	add	t6,t6,a6
  1016c0:	d36e                	sw	s11,164(sp)
  1016c2:	acefbdd3          	0xacefbdd3
  1016c6:	43ac                	lw	a1,64(a5)
  1016c8:	62a6                	flw	ft5,72(sp)
  1016ca:	c462                	sw	s8,8(sp)
  1016cc:	91a8                	0x91a8
  1016ce:	3991                	jal	101322 <timer_handler>
  1016d0:	95a4                	0x95a4
  1016d2:	3195                	jal	101336 <reset_handler+0x10>
  1016d4:	d3e4e437          	lui	s0,0xd3e4e
  1016d8:	f279798b          	0xf279798b
  1016dc:	e732                	fsw	fa2,140(sp)
  1016de:	c843d5e7          	0xc843d5e7
  1016e2:	8bc8                	0x8bc8
  1016e4:	3759                	jal	10166a <Te0+0x24e>
  1016e6:	6db76e37          	lui	t3,0x6db76
  1016ea:	da6d                	beqz	a2,1016dc <Te0+0x2c0>
  1016ec:	8d8c                	0x8d8c
  1016ee:	018d                	addi	gp,gp,3
  1016f0:	d564                	sw	s1,108(a0)
  1016f2:	b1d5                	j	1013d6 <sleep_loop+0x30>
  1016f4:	4ed2                	lw	t4,20(sp)
  1016f6:	9c4e                	add	s8,s8,s3
  1016f8:	a9e0                	fsd	fs0,208(a1)
  1016fa:	49a9                	li	s3,10
  1016fc:	6cb4                	flw	fa3,88(s1)
  1016fe:	d86c                	sw	a1,116(s0)
  101700:	56fa                	lw	a3,188(sp)
  101702:	ac56                	fsd	fs5,24(sp)
  101704:	f3f4f407          	0xf3f4f407
  101708:	ea25                	bnez	a2,101778 <Te0+0x35c>
  10170a:	cfea                	sw	s10,220(sp)
  10170c:	ca6565af          	0xca6565af
  101710:	7a8e                	flw	fs5,224(sp)
  101712:	f47a                	fsw	ft10,40(sp)
  101714:	aee9                	j	101aee <Te1+0x2d2>
  101716:	47ae                	lw	a5,200(sp)
  101718:	0818                	addi	a4,sp,16
  10171a:	1008                	addi	a0,sp,32
  10171c:	bad5                	j	101110 <AES_encrypt+0x51e>
  10171e:	6fba                	flw	ft11,140(sp)
  101720:	7888                	flw	fa0,48(s1)
  101722:	f078                	fsw	fa4,100(s0)
  101724:	4a25256f          	jal	a0,153bc6 <_bss_end+0x5066e>
  101728:	2e72                	fld	ft8,280(sp)
  10172a:	5c2e                	lw	s8,232(sp)
  10172c:	1c24                	addi	s1,sp,568
  10172e:	381c                	fld	fa5,48(s0)
  101730:	a6f1                	j	101afc <Te1+0x2e0>
  101732:	57a6                	lw	a5,104(sp)
  101734:	73b4b4c7          	fmsub.d	fs1,fs1,fs11,fa4,rup
  101738:	c651                	beqz	a2,1017c4 <Te0+0x3a8>
  10173a:	97c6                	add	a5,a5,a7
  10173c:	cbe8e823          	0xcbe8e823
  101740:	dd7c                	sw	a5,124(a0)
  101742:	a1dd                	j	101c28 <Te2+0xc>
  101744:	749c                	flw	fa5,40(s1)
  101746:	e874                	fsw	fa3,84(s0)
  101748:	1f21                	addi	t5,t5,-24
  10174a:	3e1f 4bdd 964b      	0x964b4bdd3e1f
  101750:	bddc                	fsd	fa5,184(a1)
  101752:	61bd                	lui	gp,0xf
  101754:	8b86                	mv	s7,ra
  101756:	8a850d8b          	0x8a850d8b
  10175a:	0f8a                	slli	t6,t6,0x2
  10175c:	7090                	flw	fa2,32(s1)
  10175e:	e070                	fsw	fa2,68(s0)
  101760:	3e42                	fld	ft8,48(sp)
  101762:	7c3e                	flw	fs8,236(sp)
  101764:	b5c4                	fsd	fs1,168(a1)
  101766:	71b5                	lui	gp,0xfffed
  101768:	66aa                	flw	fa3,136(sp)
  10176a:	cc66                	sw	s9,24(sp)
  10176c:	48d8                	lw	a4,20(s1)
  10176e:	9048                	0x9048
  101770:	0305                	addi	t1,t1,1
  101772:	f6010603          	lb	a2,-160(sp)
  101776:	f7f6                	fsw	ft9,236(sp)
  101778:	0e12                	slli	t3,t3,0x4
  10177a:	1c0e                	slli	s8,s8,0x23
  10177c:	c26161a3          	0xc26161a3
  101780:	355f 6a35 57f9      	0x57f96a35355f
  101786:	b9d0ae57          	0xb9d0ae57
  10178a:	69b9                	lui	s3,0xe
  10178c:	8691                	srai	a3,a3,0x4
  10178e:	1786                	slli	a5,a5,0x21
  101790:	c158                	sw	a4,4(a0)
  101792:	99c1                	andi	a1,a1,-16
  101794:	3a1d1d27          	0x3a1d1d27
  101798:	9eb9                	0x9eb9
  10179a:	279e                	fld	fa5,448(sp)
  10179c:	e138                	fsw	fa4,64(a0)
  10179e:	d9e1                	beqz	a1,10176e <Te0+0x352>
  1017a0:	ebf8f813          	andi	a6,a7,-321
  1017a4:	2b9898b3          	0x2b9898b3
  1017a8:	22111133          	0x22111133
  1017ac:	d26969bb          	0xd26969bb
  1017b0:	d970                	sw	a2,116(a0)
  1017b2:	a9d9                	j	101c88 <Te2+0x6c>
  1017b4:	8e89                	sub	a3,a3,a0
  1017b6:	078e                	slli	a5,a5,0x3
  1017b8:	339494a7          	0x339494a7
  1017bc:	9bb6                	add	s7,s7,a3
  1017be:	1e222d9b          	0x1e222d9b
  1017c2:	3c1e                	fld	fs8,480(sp)
  1017c4:	8792                	mv	a5,tp
  1017c6:	e9201587          	0xe9201587
  1017ca:	c9e9                	beqz	a1,10189c <Te1+0x80>
  1017cc:	ce49                	beqz	a2,101866 <Te1+0x4a>
  1017ce:	87ce                	mv	a5,s3
  1017d0:	55ff                	0x55ff
  1017d2:	aa55                	j	101986 <Te1+0x16a>
  1017d4:	2878                	fld	fa4,208(s0)
  1017d6:	5028                	lw	a0,96(s0)
  1017d8:	df7a                	sw	t5,188(sp)
  1017da:	a5df 8c8f 038c      	0x38c8c8fa5df
  1017e0:	a1f8                	fsd	fa4,192(a1)
  1017e2:	59a1                	li	s3,-24
  1017e4:	8980                	0x8980
  1017e6:	0989                	addi	s3,s3,2
  1017e8:	1a0d0d17          	auipc	s10,0x1a0d0
  1017ec:	bfda                	fsd	fs6,504(sp)
  1017ee:	e63165bf 42c6d7e6 	0x42c6d7e6e63165bf
  1017f6:	8442                	mv	s0,a6
  1017f8:	68b8                	flw	fa4,80(s1)
  1017fa:	d068                	sw	a0,100(s0)
  1017fc:	824141c3          	fmadd.d	ft3,ft2,ft4,fa6,rmm
  101800:	99b0                	0x99b0
  101802:	2999                	jal	101c58 <Te2+0x3c>
  101804:	5a2d2d77          	0x5a2d2d77
  101808:	0f11                	addi	t5,t5,4
  10180a:	b0cb1e0f          	0xb0cb1e0f
  10180e:	7bb0                	flw	fa2,112(a5)
  101810:	54fc                	lw	a5,108(s1)
  101812:	a854                	fsd	fa3,144(s0)
  101814:	bbd6                	fsd	fs5,496(sp)
  101816:	163a6dbb          	0x163a6dbb
  10181a:	2c16                	fld	fs8,320(sp)

0010181c <Te1>:
static const u32 Te1[256] = {
  10181c:	a5c66363          	bltu	a2,t3,100a62 <AES_set_encrypt_key+0x486>
  101820:	7c7c                	flw	fa5,124(s0)
  101822:	84f8                	0x84f8
  101824:	99ee7777          	0x99ee7777
  101828:	8df67b7b          	0x8df67b7b
  10182c:	f2f2                	fsw	ft8,100(sp)
  10182e:	0dff                	0xdff
  101830:	bdd66b6b          	0xbdd66b6b
  101834:	b1de6f6f          	jal	t5,e8350 <_stack_len+0xe0350>
  101838:	c5c5                	beqz	a1,1018e0 <Te1+0xc4>
  10183a:	5491                	li	s1,-28
  10183c:	3030                	fld	fa2,96(s0)
  10183e:	5060                	lw	s0,100(s0)
  101840:	0101                	addi	sp,sp,0
  101842:	0302                	c.slli64	t1
  101844:	a9ce6767          	0xa9ce6767
  101848:	7d562b2b          	0x7d562b2b
  10184c:	fefe                	fsw	ft11,124(sp)
  10184e:	d7d719e7          	0xd7d719e7
  101852:	62b5                	lui	t0,0xd
  101854:	e64dabab          	0xe64dabab
  101858:	7676                	flw	fa2,124(sp)
  10185a:	9aec                	0x9aec
  10185c:	caca                	sw	s2,84(sp)
  10185e:	8282458f          	0x8282458f
  101862:	9d1f c9c9 4089      	0x4089c9c99d1f
  101868:	7d7d                	lui	s10,0xfffff
  10186a:	87fa                	mv	a5,t5
  10186c:	fafa                	fsw	ft10,116(sp)
  10186e:	595915ef          	jal	a1,193602 <_bss_end+0x900aa>
  101872:	ebb2                	fsw	fa2,212(sp)
  101874:	c98e4747          	fmsub.s	fa4,ft8,fs8,fs9,rmm
  101878:	f0f0                	fsw	fa2,100(s1)
  10187a:	adad0bfb          	0xadad0bfb
  10187e:	ec41                	bnez	s0,101916 <Te1+0xfa>
  101880:	d4d4                	sw	a3,44(s1)
  101882:	a2a267b3          	0xa2a267b3
  101886:	fd5f afaf ea45      	0xea45afaffd5f
  10188c:	9c9c                	0x9c9c
  10188e:	a4a4bf23          	0xa4a4bf23
  101892:	7272f753          	0x7272f753
  101896:	96e4                	0x96e4
  101898:	c0c0                	sw	s0,4(s1)
  10189a:	b7b75b9b          	0xb7b75b9b
  10189e:	c275                	beqz	a2,101982 <Te1+0x166>
  1018a0:	fdfd                	bnez	a1,10189e <Te1+0x82>
  1018a2:	1ce1                	addi	s9,s9,-8
  1018a4:	ae3d9393          	0xae3d9393
  1018a8:	2626                	fld	fa2,72(sp)
  1018aa:	6a4c                	flw	fa1,20(a2)
  1018ac:	3636                	fld	fa2,360(sp)
  1018ae:	5a6c                	lw	a1,116(a2)
  1018b0:	417e3f3f 02f5f7f7 	0x2f5f7f7417e3f3f
  1018b8:	cccc                	sw	a1,28(s1)
  1018ba:	34344f83          	lbu	t6,835(s0) # d3e4e343 <_stack_start+0xd3c4e343>
  1018be:	5c68                	lw	a0,124(s0)
  1018c0:	a5a5                	j	101f28 <Te2+0x30c>
  1018c2:	f451                	bnez	s0,10184e <Te1+0x32>
  1018c4:	e5e5                	bnez	a1,1019ac <Te1+0x190>
  1018c6:	34d1                	jal	10138a <zero_loop+0x8>
  1018c8:	f1f1                	bnez	a1,10188c <Te1+0x70>
  1018ca:	08f9                	addi	a7,a7,30
  1018cc:	7171                	addi	sp,sp,-176
  1018ce:	93e2                	add	t2,t2,s8
  1018d0:	d8d8                	sw	a4,52(s1)
  1018d2:	313173ab          	0x313173ab
  1018d6:	5362                	lw	t1,56(sp)
  1018d8:	1515                	addi	a0,a0,-27
  1018da:	3f2a                	fld	ft10,168(sp)
  1018dc:	0404                	addi	s1,sp,512
  1018de:	0c08                	addi	a0,sp,528
  1018e0:	5295c7c7          	fmsub.d	fa5,fa1,fs1,fa0,rmm
  1018e4:	65462323          	sw	s4,1606(a2)
  1018e8:	5e9dc3c3          	fmadd.q	ft7,fs11,fs1,fa1,rmm
  1018ec:	1818                	addi	a4,sp,48
  1018ee:	2830                	fld	fa2,80(s0)
  1018f0:	9696                	add	a3,a3,t0
  1018f2:	0505a137          	lui	sp,0x505a
  1018f6:	0f0a                	slli	t5,t5,0x2
  1018f8:	9a9a                	add	s5,s5,t1
  1018fa:	0707b52f          	0x707b52f
  1018fe:	090e                	slli	s2,s2,0x3
  101900:	1212                	slli	tp,tp,0x24
  101902:	3624                	fld	fs1,104(a2)
  101904:	8080                	0x8080
  101906:	e2e29b1b          	0xe2e29b1b
  10190a:	3ddf ebeb 26cd      	0x26cdebeb3ddf
  101910:	694e2727          	fsw	fs4,1678(t3) # 6db7668e <_stack_start+0x6d97668e>
  101914:	b2b2                	fsd	fa2,352(sp)
  101916:	cd7f                	0xcd7f
  101918:	7575                	lui	a0,0xffffd
  10191a:	9fea                	add	t6,t6,s10
  10191c:	0909                	addi	s2,s2,2
  10191e:	1b12                	slli	s6,s6,0x24
  101920:	9e1d8383          	lb	t2,-1567(s11)
  101924:	2c2c                	fld	fa1,88(s0)
  101926:	7458                	flw	fa4,44(s0)
  101928:	1a1a                	slli	s4,s4,0x26
  10192a:	2e34                	fld	fa3,88(a2)
  10192c:	2d361b1b          	0x2d361b1b
  101930:	6e6e                	flw	ft8,216(sp)
  101932:	b2dc                	fsd	fa5,160(a3)
  101934:	5a5a                	lw	s4,180(sp)
  101936:	eeb4                	fsw	fa3,88(a3)
  101938:	a0a0                	fsd	fs0,64(s1)
  10193a:	5252fb5b          	0x5252fb5b
  10193e:	f6a4                	fsw	fs1,104(a3)
  101940:	4d763b3b          	0x4d763b3b
  101944:	d6d6                	sw	s5,108(sp)
  101946:	b3b361b7          	lui	gp,0xb3b36
  10194a:	ce7d                	beqz	a2,101a48 <Te1+0x22c>
  10194c:	2929                	jal	101d66 <Te2+0x14a>
  10194e:	7b52                	flw	fs6,52(sp)
  101950:	3edde3e3          	bltu	s11,a3,102536 <Td0+0x11a>
  101954:	715e2f2f          	0x715e2f2f
  101958:	8484                	0x8484
  10195a:	53539713          	0x53539713
  10195e:	f5a6                	fsw	fs1,232(sp)
  101960:	d1d1                	beqz	a1,1018e4 <Te1+0xc8>
  101962:	68b9                	lui	a7,0xe
  101964:	0000                	unimp
  101966:	0000                	unimp
  101968:	eded                	bnez	a1,101a62 <Te1+0x246>
  10196a:	2cc1                	jal	101c3a <Te2+0x1e>
  10196c:	2020                	fld	fs0,64(s0)
  10196e:	6040                	flw	fs0,4(s0)
  101970:	fcfc                	fsw	fa5,124(s1)
  101972:	b1b11fe3          	bne	sp,s11,101490 <Te0+0x74>
  101976:	c879                	beqz	s0,101a4c <Te1+0x230>
  101978:	edb65b5b          	0xedb65b5b
  10197c:	6a6a                	flw	fs4,152(sp)
  10197e:	bed4                	fsd	fa3,184(a3)
  101980:	468dcbcb          	fnmsub.q	fs7,fs11,fs0,fs0,rmm
  101984:	bebe                	fsd	fa5,376(sp)
  101986:	3939d967          	0x3939d967
  10198a:	4b72                	lw	s6,28(sp)
  10198c:	4a4a                	lw	s4,144(sp)
  10198e:	de94                	sw	a3,56(a3)
  101990:	4c4c                	lw	a1,28(s0)
  101992:	d498                	sw	a4,40(s1)
  101994:	5858                	lw	a4,52(s0)
  101996:	e8b0                	fsw	fa2,80(s1)
  101998:	4a85cfcf          	fnmadd.d	ft11,fa1,fs0,fs1,rmm
  10199c:	d0d0                	sw	a2,36(s1)
  10199e:	efef6bbb          	0xefef6bbb
  1019a2:	2ac5                	jal	101b92 <Te1+0x376>
  1019a4:	aaaa                	fsd	fa0,336(sp)
  1019a6:	fbfbe54f          	fnmadd.d	fa0,fs7,ft11,ft11,unknown
  1019aa:	16ed                	addi	a3,a3,-5
  1019ac:	c5864343          	0xc5864343
  1019b0:	4d4d                	li	s10,19
  1019b2:	d79a                	sw	t1,236(sp)
  1019b4:	55663333          	0x55663333
  1019b8:	8585                	srai	a1,a1,0x1
  1019ba:	9411                	srai	s0,s0,0x24
  1019bc:	4545                	li	a0,17
  1019be:	cf8a                	sw	sp,220(sp)
  1019c0:	f9f9                	bnez	a1,101996 <Te1+0x17a>
  1019c2:	10e9                	addi	ra,ra,-6
  1019c4:	0202                	c.slli64	tp
  1019c6:	0604                	addi	s1,sp,768
  1019c8:	7f7f                	0x7f7f
  1019ca:	81fe                	mv	gp,t6
  1019cc:	5050                	lw	a2,36(s0)
  1019ce:	f0a0                	fsw	fs0,96(s1)
  1019d0:	3c3c                	fld	fa5,120(s0)
  1019d2:	4478                	lw	a4,76(s0)
  1019d4:	9f9f ba25 a8a8      	0xa8a8ba259f9f
  1019da:	5151e34b          	fnmsub.s	ft6,ft3,fs5,fa0,unknown
  1019de:	f3a2                	fsw	fs0,228(sp)
  1019e0:	fe5da3a3          	sw	t0,-25(s11)
  1019e4:	4040                	lw	s0,4(s0)
  1019e6:	c080                	sw	s0,0(s1)
  1019e8:	8a058f8f          	0x8a058f8f
  1019ec:	9292                	add	t0,t0,tp
  1019ee:	9d9dad3f 3838bc21 	0x3838bc219d9dad3f
  1019f6:	4870                	lw	a2,84(s0)
  1019f8:	f5f5                	bnez	a1,1019e4 <Te1+0x1c8>
  1019fa:	04f1                	addi	s1,s1,28
  1019fc:	bcbc                	fsd	fa5,120(s1)
  1019fe:	b6b6df63          	bge	a3,a1,100d7c <AES_encrypt+0x18a>
  101a02:	dadac177          	0xdadac177
  101a06:	212175af          	0x212175af
  101a0a:	6342                	flw	ft6,16(sp)
  101a0c:	1010                	addi	a2,sp,32
  101a0e:	3020                	fld	fs0,96(s0)
  101a10:	ffff                	0xffff
  101a12:	1ae5                	addi	s5,s5,-7
  101a14:	0efdf3f3          	csrrci	t2,0xef,27
  101a18:	d2d2                	sw	s4,100(sp)
  101a1a:	cdcd6dbf 0c0c4c81 	0xc0c4c81cdcd6dbf
  101a22:	1418                	addi	a4,sp,544
  101a24:	35261313          	0x35261313
  101a28:	ecec                	fsw	fa1,92(s1)
  101a2a:	5f5f2fc3          	fmadd.q	ft11,ft10,fs5,fa1,rdn
  101a2e:	e1be                	fsw	fa5,192(sp)
  101a30:	a2359797          	auipc	a5,0xa2359
  101a34:	4444                	lw	s1,12(s0)
  101a36:	cc88                	sw	a0,24(s1)
  101a38:	392e1717          	auipc	a4,0x392e1
  101a3c:	c4c4                	sw	s1,12(s1)
  101a3e:	a7a75793          	0xa7a75793
  101a42:	f255                	bnez	a2,1019e6 <Te1+0x1ca>
  101a44:	7e7e                	flw	ft8,252(sp)
  101a46:	82fc                	0x82fc
  101a48:	3d3d                	jal	101886 <Te1+0x6a>
  101a4a:	477a                	lw	a4,156(sp)
  101a4c:	6464                	flw	fs1,76(s0)
  101a4e:	acc8                	fsd	fa0,152(s1)
  101a50:	5d5d                	li	s10,-9
  101a52:	e7ba                	fsw	fa4,204(sp)
  101a54:	1919                	addi	s2,s2,-26
  101a56:	2b32                	fld	fs6,264(sp)
  101a58:	95e67373          	csrrci	t1,0x95e,12
  101a5c:	6060                	flw	fs0,68(s0)
  101a5e:	a0c0                	fsd	fs0,128(s1)
  101a60:	8181                	c.srli64	a1
  101a62:	9819                	andi	s0,s0,-26
  101a64:	d19e4f4f          	fnmadd.s	ft10,ft8,fs9,fs10,rmm
  101a68:	dcdc                	sw	a5,60(s1)
  101a6a:	22227fa3          	0x22227fa3
  101a6e:	6644                	flw	fs1,12(a2)
  101a70:	2a2a                	fld	fs4,136(sp)
  101a72:	7e54                	flw	fa3,60(a2)
  101a74:	9090                	0x9090
  101a76:	8888ab3b          	0x8888ab3b
  101a7a:	4646830b          	0x4646830b
  101a7e:	ca8c                	sw	a1,16(a3)
  101a80:	eeee                	fsw	fs11,92(sp)
  101a82:	b8b829c7          	fmsub.s	fs3,fa6,fa1,fs7,rdn
  101a86:	1414d36b          	0x1414d36b
  101a8a:	3c28                	fld	fa0,120(s0)
  101a8c:	dede                	sw	s7,124(sp)
  101a8e:	5e5e79a7          	0x5e5e79a7
  101a92:	e2bc                	fsw	fa5,64(a3)
  101a94:	1d160b0b          	0x1d160b0b
  101a98:	76addbdb          	0x76addbdb
  101a9c:	e0e0                	fsw	fs0,68(s1)
  101a9e:	32323bdb          	0x32323bdb
  101aa2:	5664                	lw	s1,108(a2)
  101aa4:	3a3a                	fld	fs4,424(sp)
  101aa6:	4e74                	lw	a3,92(a2)
  101aa8:	0a0a                	slli	s4,s4,0x2
  101aaa:	1e14                	addi	a3,sp,816
  101aac:	4949                	li	s2,18
  101aae:	db92                	sw	tp,244(sp)
  101ab0:	0606                	slli	a2,a2,0x1
  101ab2:	0a0c                	addi	a1,sp,272
  101ab4:	2424                	fld	fs1,72(s0)
  101ab6:	6c48                	flw	fa0,28(s0)
  101ab8:	5c5c                	lw	a5,60(s0)
  101aba:	e4b8                	fsw	fa4,72(s1)
  101abc:	c2c2                	sw	a6,68(sp)
  101abe:	5d9f d3d3 6ebd      	0x6ebdd3d35d9f
  101ac4:	acac                	fsd	fa1,88(s1)
  101ac6:	6262ef43          	fmadd.d	ft10,ft5,ft6,fa2,unknown
  101aca:	a6c4                	fsd	fs1,136(a3)
  101acc:	9191                	srli	a1,a1,0x24
  101ace:	a839                	j	101aec <Te1+0x2d0>
  101ad0:	9595                	srai	a1,a1,0x25
  101ad2:	a431                	j	101cde <Te2+0xc2>
  101ad4:	e4e4                	fsw	fs1,76(s1)
  101ad6:	797937d3          	0x797937d3
  101ada:	8bf2                	mv	s7,t3
  101adc:	32d5e7e7          	0x32d5e7e7
  101ae0:	c8c8                	sw	a0,20(s1)
  101ae2:	3737438b          	0x3737438b
  101ae6:	596e                	lw	s2,248(sp)
  101ae8:	6d6d                	lui	s10,0x1b
  101aea:	b7da                	fsd	fs6,488(sp)
  101aec:	8d8d                	sub	a1,a1,a1
  101aee:	8c01                	sub	s0,s0,s0
  101af0:	d5d5                	beqz	a1,101a9c <Te1+0x280>
  101af2:	64b1                	lui	s1,0xc
  101af4:	4e4e                	lw	t3,208(sp)
  101af6:	d29c                	sw	a5,32(a3)
  101af8:	a9a9                	j	101f52 <Te2+0x336>
  101afa:	e049                	bnez	s0,101b7c <Te1+0x360>
  101afc:	6c6c                	flw	fa1,92(s0)
  101afe:	b4d8                	fsd	fa4,168(s1)
  101b00:	5656                	lw	a2,116(sp)
  101b02:	faac                	fsw	fa1,112(a3)
  101b04:	f4f4                	fsw	fa3,108(s1)
  101b06:	eaea07f3          	0xeaea07f3
  101b0a:	656525cf          	0x656525cf
  101b0e:	afca                	fsd	fs2,472(sp)
  101b10:	7a7a                	flw	fs4,188(sp)
  101b12:	8ef4                	0x8ef4
  101b14:	aeae                	fsd	fa1,344(sp)
  101b16:	0808e947          	fmsub.s	fs2,fa7,ft0,ft1,unknown
  101b1a:	1810                	addi	a2,sp,48
  101b1c:	baba                	fsd	fa4,368(sp)
  101b1e:	7878d56f          	jal	a0,18faa4 <_bss_end+0x8c54c>
  101b22:	88f0                	0x88f0
  101b24:	2525                	jal	10214c <Te3+0x130>
  101b26:	6f4a                	flw	ft10,144(sp)
  101b28:	2e2e                	fld	ft8,200(sp)
  101b2a:	725c                	flw	fa5,36(a2)
  101b2c:	1c1c                	addi	a5,sp,560
  101b2e:	2438                	fld	fa4,72(s0)
  101b30:	a6a6                	fsd	fs1,328(sp)
  101b32:	b4b4f157          	0xb4b4f157
  101b36:	c6c6c773          	0xc6c6c773
  101b3a:	e8e85197          	auipc	gp,0xe8e85
  101b3e:	dddd23cb          	0xdddd23cb
  101b42:	7ca1                	lui	s9,0xfffe8
  101b44:	7474                	flw	fa3,108(s0)
  101b46:	9ce8                	0x9ce8
  101b48:	1f1f 213e 4b4b      	0x4b4b213e1f1f
  101b4e:	dd96                	sw	t0,248(sp)
  101b50:	bdbd                	j	1019ce <Te1+0x1b2>
  101b52:	dc61                	beqz	s0,101b2a <Te1+0x30e>
  101b54:	860d8b8b          	0x860d8b8b
  101b58:	8a8a                	mv	s5,sp
  101b5a:	7070850f          	0x7070850f
  101b5e:	90e0                	0x90e0
  101b60:	3e3e                	fld	ft8,488(sp)
  101b62:	427c                	lw	a5,68(a2)
  101b64:	b5b5                	j	1019d0 <Te1+0x1b4>
  101b66:	c471                	beqz	s0,101c32 <Te2+0x16>
  101b68:	6666                	flw	fa2,88(sp)
  101b6a:	aacc                	fsd	fa1,144(a3)
  101b6c:	4848                	lw	a0,20(s0)
  101b6e:	d890                	sw	a2,48(s1)
  101b70:	05060303          	lb	t1,80(a2)
  101b74:	f6f6                	fsw	ft9,108(sp)
  101b76:	0e0e01f7          	0xe0e01f7
  101b7a:	121c                	addi	a5,sp,288
  101b7c:	6161                	addi	sp,sp,80
  101b7e:	a3c2                	fsd	fa6,448(sp)
  101b80:	3535                	jal	1019ac <Te1+0x190>
  101b82:	5f6a                	lw	t5,184(sp)
  101b84:	f9ae5757          	0xf9ae5757
  101b88:	b9b9                	j	1017e6 <Te0+0x3ca>
  101b8a:	d069                	beqz	s0,101b4c <Te1+0x330>
  101b8c:	8686                	mv	a3,ra
  101b8e:	c1c19117          	auipc	sp,0xc1c19
  101b92:	5899                	li	a7,-26
  101b94:	1d1d                	addi	s10,s10,-25
  101b96:	273a                	fld	fa4,392(sp)
  101b98:	9e9e                	add	t4,t4,t2
  101b9a:	e1e1b927          	fsd	ft10,-494(gp) # e8f8694c <_stack_start+0xe8d8694c>
  101b9e:	38d9                	jal	101474 <Te0+0x58>
  101ba0:	f8f8                	fsw	fa4,116(s1)
  101ba2:	989813eb          	0x989813eb
  101ba6:	1111b32b          	0x1111b32b
  101baa:	3322                	fld	ft6,40(sp)
  101bac:	6969                	lui	s2,0x1a
  101bae:	bbd2                	fsd	fs4,496(sp)
  101bb0:	d9d9                	beqz	a1,101b46 <Te1+0x32a>
  101bb2:	70a9                	lui	ra,0xfffea
  101bb4:	8e8e                	mv	t4,gp
  101bb6:	94948907          	0x94948907
  101bba:	9b9ba733          	0x9b9ba733
  101bbe:	b62d                	j	1016e8 <Te0+0x2cc>
  101bc0:	1e1e                	slli	t3,t3,0x27
  101bc2:	223c                	fld	fa5,64(a2)
  101bc4:	92158787          	0x92158787
  101bc8:	e9e9                	bnez	a1,101c9a <Te2+0x7e>
  101bca:	20c9                	jal	101c8c <Te2+0x70>
  101bcc:	cece                	sw	s3,92(sp)
  101bce:	55554987          	flq	fs3,1365(a0) # ffffd555 <_stack_start+0xffdfd555>
  101bd2:	ffaa                	fsw	fa0,252(sp)
  101bd4:	2828                	fld	fa0,80(s0)
  101bd6:	7850                	flw	fa2,52(s0)
  101bd8:	dfdf 7aa5 8c8c      	0x8c8c7aa5dfdf
  101bde:	a1a18f03          	lb	t5,-1510(gp)
  101be2:	f859                	bnez	s0,101b78 <Te1+0x35c>
  101be4:	8989                	andi	a1,a1,2
  101be6:	8009                	srli	s0,s0,0x2
  101be8:	0d0d                	addi	s10,s10,3
  101bea:	171a                	slli	a4,a4,0x26
  101bec:	da65bfbf 31d7e6e6 	0x31d7e6e6da65bfbf
  101bf4:	4242                	lw	tp,16(sp)
  101bf6:	c684                	sw	s1,8(a3)
  101bf8:	6868                	flw	fa0,84(s0)
  101bfa:	b8d0                	fsd	fa2,176(s1)
  101bfc:	4141                	li	sp,16
  101bfe:	c382                	sw	zero,196(sp)
  101c00:	9999                	andi	a1,a1,-26
  101c02:	b029                	j	10140c <sleep_loop+0x66>
  101c04:	2d2d                	jal	10223e <Te3+0x222>
  101c06:	775a                	flw	fa4,180(sp)
  101c08:	111e0f0f          	0x111e0f0f
  101c0c:	b0b0                	fsd	fa2,96(s1)
  101c0e:	5454cb7b          	0x5454cb7b
  101c12:	fca8                	fsw	fa0,120(s1)
  101c14:	d66dbbbb          	0xd66dbbbb
  101c18:	1616                	slli	a2,a2,0x25
  101c1a:	3a2c                	fld	fa1,112(a2)

00101c1c <Te2>:
static const u32 Te2[256] = {
  101c1c:	63a5c663          	blt	a1,s10,102248 <Te3+0x22c>
  101c20:	f87c                	fsw	fa5,116(s0)
  101c22:	7c84                	flw	fs1,56(s1)
  101c24:	7799ee77          	0x7799ee77
  101c28:	7b8df67b          	0x7b8df67b
  101c2c:	fff2                	fsw	ft8,252(sp)
  101c2e:	f20d                	bnez	a2,101b50 <Te1+0x334>
  101c30:	6bbdd66b          	0x6bbdd66b
  101c34:	6fb1de6f          	jal	t3,11fb2e <_bss_end+0x1c5d6>
  101c38:	91c5                	srli	a1,a1,0x31
  101c3a:	c554                	sw	a3,12(a0)
  101c3c:	6030                	flw	fa2,64(s0)
  101c3e:	3050                	fld	fa2,160(s0)
  101c40:	0201                	addi	tp,tp,0
  101c42:	ce670103          	lb	sp,-794(a4) # 393e271e <_stack_start+0x391e271e>
  101c46:	67a9                	lui	a5,0xa
  101c48:	2b7d562b          	0x2b7d562b
  101c4c:	e7fe                	fsw	ft11,204(sp)
  101c4e:	fe19                	bnez	a2,101b6c <Te1+0x350>
  101c50:	d762b5d7          	0xd762b5d7
  101c54:	abe64dab          	0xabe64dab
  101c58:	ec76                	fsw	ft9,24(sp)
  101c5a:	769a                	flw	fa3,164(sp)
  101c5c:	8fca                	mv	t6,s2
  101c5e:	ca45                	beqz	a2,101d0e <Te2+0xf2>
  101c60:	1f82                	slli	t6,t6,0x20
  101c62:	829d                	srli	a3,a3,0x7
  101c64:	89c9                	andi	a1,a1,18
  101c66:	c940                	sw	s0,20(a0)
  101c68:	fa7d                	bnez	a2,101c5e <Te2+0x42>
  101c6a:	effa7d87          	0xeffa7d87
  101c6e:	fa15                	bnez	a2,101ba2 <Te1+0x386>
  101c70:	b259                	j	1015f6 <Te0+0x1da>
  101c72:	8e4759eb          	0x8e4759eb
  101c76:	47c9                	li	a5,18
  101c78:	fbf0                	fsw	fa2,116(a5)
  101c7a:	41adf00b          	0x41adf00b
  101c7e:	adec                	fsd	fa1,216(a1)
  101c80:	b3d4                	fsd	fa3,160(a5)
  101c82:	5fa2d467          	0x5fa2d467
  101c86:	a2fd                	j	101e74 <Te2+0x258>
  101c88:	afea45af          	0xafea45af
  101c8c:	239c                	fld	fa5,0(a5)
  101c8e:	53a49cbf e472a4f7 	0xe472a4f753a49cbf
  101c96:	7296                	flw	ft5,100(sp)
  101c98:	9bc0                	0x9bc0
  101c9a:	75b7c05b          	0x75b7c05b
  101c9e:	b7c2                	fsd	fa6,488(sp)
  101ca0:	e1fd                	bnez	a1,101d86 <Te2+0x16a>
  101ca2:	fd1c                	fsw	fa5,56(a0)
  101ca4:	93ae3d93          	sltiu	s11,t3,-1734
  101ca8:	4c26                	lw	s8,72(sp)
  101caa:	266a                	fld	fa2,152(sp)
  101cac:	6c36                	flw	fs8,76(sp)
  101cae:	365a                	fld	fa2,432(sp)
  101cb0:	3f417e3f f702f5f7 	0xf702f5f73f417e3f
  101cb8:	83cc                	0x83cc
  101cba:	6834cc4f          	fnmadd.s	fs8,fs1,ft3,fa3,rmm
  101cbe:	345c                	fld	fa5,168(s0)
  101cc0:	51a5                	li	gp,-23
  101cc2:	a5f4                	fsd	fa3,200(a1)
  101cc4:	d1e5                	beqz	a1,101ca4 <Te2+0x88>
  101cc6:	e534                	fsw	fa3,72(a0)
  101cc8:	f9f1                	bnez	a1,101c9c <Te2+0x80>
  101cca:	f108                	fsw	fa0,32(a0)
  101ccc:	e271                	bnez	a2,101d90 <Te2+0x174>
  101cce:	abd87193          	andi	gp,a6,-1347
  101cd2:	6231d873          	csrrwi	a6,0x623,3
  101cd6:	2a153153          	0x2a153153
  101cda:	0804153f 95c7040c 	0x95c7040c0804153f
  101ce2:	c752                	sw	s4,140(sp)
  101ce4:	23654623          	0x23654623
  101ce8:	c35e9dc3          	fmadd.d	fs11,ft9,fs5,fs8,rtz
  101cec:	3018                	fld	fa4,32(s0)
  101cee:	1828                	addi	a0,sp,56
  101cf0:	3796                	fld	fa5,352(sp)
  101cf2:	96a1                	srai	a3,a3,0x28
  101cf4:	0a05                	addi	s4,s4,1
  101cf6:	2f9a050f          	0x2f9a050f
  101cfa:	9ab5                	andi	a3,a3,-19
  101cfc:	07090e07          	0x7090e07
  101d00:	2412                	fld	fs0,256(sp)
  101d02:	1236                	slli	tp,tp,0x2d
  101d04:	1b80                	addi	s0,sp,496
  101d06:	dfe2809b          	0xdfe2809b
  101d0a:	e23d                	bnez	a2,101d70 <Te2+0x154>
  101d0c:	eb26cdeb          	0xeb26cdeb
  101d10:	27694e27          	fsq	fs6,636(s2) # 1a27c <_stack_len+0x1227c>
  101d14:	7fb2                	flw	ft11,44(sp)
  101d16:	b2cd                	j	1016f8 <Te0+0x2dc>
  101d18:	ea75                	bnez	a2,101e0c <Te2+0x1f0>
  101d1a:	759f 1209 091b      	0x91b1209759f
  101d20:	839e1d83          	lh	s11,-1991(t3)
  101d24:	582c                	lw	a1,112(s0)
  101d26:	2c74                	fld	fa3,216(s0)
  101d28:	341a                	fld	fs0,416(sp)
  101d2a:	1a2e                	slli	s4,s4,0x2b
  101d2c:	1b2d361b          	0x1b2d361b
  101d30:	dc6e                	sw	s11,56(sp)
  101d32:	6eb2                	flw	ft9,12(sp)
  101d34:	b45a                	fsd	fs6,40(sp)
  101d36:	5aee                	lw	s5,248(sp)
  101d38:	5ba0                	lw	s0,112(a5)
  101d3a:	a452a0fb          	0xa452a0fb
  101d3e:	52f6                	lw	t0,124(sp)
  101d40:	3b4d763b          	0x3b4d763b
  101d44:	b7d6                	fsd	fs5,488(sp)
  101d46:	d661                	beqz	a2,101d0e <Te2+0xf2>
  101d48:	b3ce7db3          	0xb3ce7db3
  101d4c:	5229                	li	tp,-22
  101d4e:	dde3297b          	0xdde3297b
  101d52:	e33e                	fsw	fa5,132(sp)
  101d54:	2f715e2f          	0x2f715e2f
  101d58:	1384                	addi	s1,sp,480
  101d5a:	a6538497          	auipc	s1,0xa6538
  101d5e:	53f5                	li	t2,-3
  101d60:	b9d1                	j	101a34 <Te1+0x218>
  101d62:	d168                	sw	a0,100(a0)
  101d64:	0000                	unimp
  101d66:	0000                	unimp
  101d68:	c1ed                	beqz	a1,101e4a <Te2+0x22e>
  101d6a:	ed2c                	fsw	fa1,88(a0)
  101d6c:	4020                	lw	s0,64(s0)
  101d6e:	2060                	fld	fs0,192(s0)
  101d70:	e3fc                	fsw	fa5,68(a5)
  101d72:	fc1f 79b1 b1c8      	0xb1c879b1fc1f
  101d78:	5bedb65b          	0x5bedb65b
  101d7c:	d46a                	sw	s10,40(sp)
  101d7e:	6abe                	flw	fs5,204(sp)
  101d80:	cb468dcb          	fnmsub.d	fs11,fa3,fs4,fs9,rne
  101d84:	67be                	flw	fa5,204(sp)
  101d86:	bed9                	j	10195c <Te1+0x140>
  101d88:	7239                	lui	tp,0xfffee
  101d8a:	944a394b          	0x944a394b
  101d8e:	4ade                	lw	s5,212(sp)
  101d90:	984c                	0x984c
  101d92:	4cd4                	lw	a3,28(s1)
  101d94:	b058                	fsd	fa4,160(s0)
  101d96:	58e8                	lw	a0,116(s1)
  101d98:	cf4a85cf          	fnmadd.q	fa1,fs5,fs4,fs9,rne
  101d9c:	bbd0                	fsd	fa2,176(a5)
  101d9e:	c5efd06b          	0xc5efd06b
  101da2:	ef2a                	fsw	fa0,156(sp)
  101da4:	4faa                	lw	t6,136(sp)
  101da6:	aae5                	j	101f9e <Te2+0x382>
  101da8:	fb16edfb          	0xfb16edfb
  101dac:	43c58643          	fmadd.d	fa2,fa1,ft8,fs0,rne
  101db0:	9a4d                	andi	a2,a2,-13
  101db2:	66334dd7          	0x66334dd7
  101db6:	3355                	jal	101b5a <Te1+0x33e>
  101db8:	1185                	addi	gp,gp,-31
  101dba:	8594                	0x8594
  101dbc:	8a45                	andi	a2,a2,17
  101dbe:	e9f945cf          	fnmadd.s	fa1,fs2,ft11,ft9,rmm
  101dc2:	f910                	fsw	fa2,48(a0)
  101dc4:	0402                	c.slli64	s0
  101dc6:	0206                	slli	tp,tp,0x1
  101dc8:	fe7f                	0xfe7f
  101dca:	7f81                	lui	t6,0xfffe0
  101dcc:	a050                	fsd	fa2,128(s0)
  101dce:	50f0                	lw	a2,100(s1)
  101dd0:	783c                	flw	fa5,112(s0)
  101dd2:	3c44                	fld	fs1,184(s0)
  101dd4:	259f 9fba 4ba8      	0x4ba89fba259f
  101dda:	a251a8e3          	0xa251a8e3
  101dde:	5da351f3          	csrrwi	gp,0x5da,6
  101de2:	a3fe                	fsd	ft11,448(sp)
  101de4:	8040                	0x8040
  101de6:	40c0                	lw	s0,4(s1)
  101de8:	8f8a058f          	0x8f8a058f
  101dec:	3f92                	fld	ft11,288(sp)
  101dee:	92ad                	srli	a3,a3,0x2b
  101df0:	219d                	jal	102256 <Te3+0x23a>
  101df2:	9dbc                	0x9dbc
  101df4:	7038                	flw	fa4,96(s0)
  101df6:	3848                	fld	fa0,176(s0)
  101df8:	f1f5                	bnez	a1,101ddc <Te2+0x1c0>
  101dfa:	f504                	fsw	fs1,40(a0)
  101dfc:	63bc                	flw	fa5,64(a5)
  101dfe:	bcdf 77b6 b6c1      	0xb6c177b6bcdf
  101e04:	afda                	fsd	fs6,472(sp)
  101e06:	da75                	beqz	a2,101dfa <Te2+0x1de>
  101e08:	4221                	li	tp,8
  101e0a:	20102163          	0x20102163
  101e0e:	1030                	addi	a2,sp,40
  101e10:	e5ff                	0xe5ff
  101e12:	ff1a                	fsw	ft6,188(sp)
  101e14:	f30efdf3          	csrrci	s11,0xf30,29
  101e18:	bfd2                	fsd	fs4,504(sp)
  101e1a:	d26d                	beqz	a2,101dfc <Te2+0x1e0>
  101e1c:	81cd                	srli	a1,a1,0x13
  101e1e:	cd4c                	sw	a1,28(a0)
  101e20:	180c                	addi	a1,sp,48
  101e22:	0c14                	addi	a3,sp,528
  101e24:	13352613          	slti	a2,a0,307
  101e28:	c3ec                	sw	a1,68(a5)
  101e2a:	be5fec2f          	0xbe5fec2f
  101e2e:	5fe1                	li	t6,-8
  101e30:	97a23597          	auipc	a1,0x97a23
  101e34:	8844                	0x8844
  101e36:	44cc                	lw	a1,12(s1)
  101e38:	17392e17          	auipc	t3,0x17392
  101e3c:	93c4                	0x93c4
  101e3e:	55a7c457          	0x55a7c457
  101e42:	a7f2                	fsd	ft8,456(sp)
  101e44:	fc7e                	fsw	ft11,56(sp)
  101e46:	7e82                	flw	ft9,32(sp)
  101e48:	7a3d                	lui	s4,0xfffef
  101e4a:	c8643d47          	fmsub.s	fs10,fs0,ft6,fs9,rup
  101e4e:	64ac                	flw	fa1,72(s1)
  101e50:	ba5d                	j	101806 <Te0+0x3ea>
  101e52:	32195de7          	0x32195de7
  101e56:	e673192b          	0xe673192b
  101e5a:	7395                	lui	t2,0xfffe5
  101e5c:	c060                	sw	s0,68(s0)
  101e5e:	60a0                	flw	fs0,64(s1)
  101e60:	1981                	addi	s3,s3,-32
  101e62:	8198                	0x8198
  101e64:	4fd19e4f          	fnmadd.q	ft8,ft3,ft9,fs1,rtz
  101e68:	a3dc                	fsd	fa5,128(a5)
  101e6a:	dc7f                	0xdc7f
  101e6c:	4422                	lw	s0,8(sp)
  101e6e:	2266                	fld	ft4,88(sp)
  101e70:	542a                	lw	s0,168(sp)
  101e72:	2a7e                	fld	fs4,472(sp)
  101e74:	3b90                	fld	fa2,48(a5)
  101e76:	0b8890ab          	0xb8890ab
  101e7a:	8c468883          	lb	a7,-1852(a3)
  101e7e:	46ca                	lw	a3,144(sp)
  101e80:	c7ee                	sw	s11,204(sp)
  101e82:	ee29                	bnez	a2,101edc <Te2+0x2c0>
  101e84:	6bb8                	flw	fa4,80(a5)
  101e86:	2814b8d3          	0x2814b8d3
  101e8a:	143c                	addi	a5,sp,552
  101e8c:	a7de                	fsd	fs7,456(sp)
  101e8e:	de79                	beqz	a2,101e6c <Te2+0x250>
  101e90:	bc5e                	fsd	fs7,56(sp)
  101e92:	5ee2                	lw	t4,56(sp)
  101e94:	0b1d160b          	0xb1d160b
  101e98:	db76addb          	0xdb76addb
  101e9c:	dbe0                	sw	s0,116(a5)
  101e9e:	6432e03b          	0x6432e03b
  101ea2:	3256                	fld	ft4,368(sp)
  101ea4:	743a                	flw	fs0,172(sp)
  101ea6:	3a4e                	fld	fs4,240(sp)
  101ea8:	140a                	slli	s0,s0,0x22
  101eaa:	0a1e                	slli	s4,s4,0x7
  101eac:	9249                	srli	a2,a2,0x32
  101eae:	0c0649db          	0xc0649db
  101eb2:	060a                	slli	a2,a2,0x2
  101eb4:	4824                	lw	s1,80(s0)
  101eb6:	246c                	fld	fa1,200(s0)
  101eb8:	b85c                	fsd	fa5,176(s0)
  101eba:	5ce4                	lw	s1,124(s1)
  101ebc:	9fc2                	add	t6,t6,a6
  101ebe:	c25d                	beqz	a2,101f64 <Te2+0x348>
  101ec0:	d36ebdd3          	0xd36ebdd3
  101ec4:	43ac                	lw	a1,64(a5)
  101ec6:	c462acef          	jal	s9,2c30c <_stack_len+0x2430c>
  101eca:	62a6                	flw	ft5,72(sp)
  101ecc:	3991                	jal	101b20 <Te1+0x304>
  101ece:	91a8                	0x91a8
  101ed0:	3195                	jal	101b34 <Te1+0x318>
  101ed2:	95a4                	0x95a4
  101ed4:	d3e4                	sw	s1,100(a5)
  101ed6:	f279e437          	lui	s0,0xf279e
  101eda:	d5e7798b          	0xd5e7798b
  101ede:	e732                	fsw	fa2,140(sp)
  101ee0:	8bc8                	0x8bc8
  101ee2:	6e37c843          	fmadd.q	fa6,fa5,ft3,fa3,rmm
  101ee6:	3759                	jal	101e6c <Te2+0x250>
  101ee8:	da6d                	beqz	a2,101eda <Te2+0x2be>
  101eea:	018d6db7          	lui	s11,0x18d6
  101eee:	8d8c                	0x8d8c
  101ef0:	b1d5                	j	101bd4 <Te1+0x3b8>
  101ef2:	d564                	sw	s1,108(a0)
  101ef4:	9c4e                	add	s8,s8,s3
  101ef6:	4ed2                	lw	t4,20(sp)
  101ef8:	49a9                	li	s3,10
  101efa:	a9e0                	fsd	fs0,208(a1)
  101efc:	d86c                	sw	a1,116(s0)
  101efe:	6cb4                	flw	fa3,88(s1)
  101f00:	ac56                	fsd	fs5,24(sp)
  101f02:	56fa                	lw	a3,188(sp)
  101f04:	f3f4                	fsw	fa3,100(a5)
  101f06:	cfeaf407          	0xcfeaf407
  101f0a:	ea25                	bnez	a2,101f7a <Te2+0x35e>
  101f0c:	ca65                	beqz	a2,101ffc <Te2+0x3e0>
  101f0e:	f47a65af          	0xf47a65af
  101f12:	7a8e                	flw	fs5,224(sp)
  101f14:	47ae                	lw	a5,200(sp)
  101f16:	aee9                	j	1022f0 <Te3+0x2d4>
  101f18:	1008                	addi	a0,sp,32
  101f1a:	0818                	addi	a4,sp,16
  101f1c:	6fba                	flw	ft11,140(sp)
  101f1e:	bad5                	j	101912 <Te1+0xf6>
  101f20:	f078                	fsw	fa4,100(s0)
  101f22:	7888                	flw	fa0,48(s1)
  101f24:	4a25                	li	s4,9
  101f26:	5c2e256f          	jal	a0,1e44e8 <_bss_end+0xe0f90>
  101f2a:	2e72                	fld	ft8,280(sp)
  101f2c:	381c                	fld	fa5,48(s0)
  101f2e:	1c24                	addi	s1,sp,568
  101f30:	57a6                	lw	a5,104(sp)
  101f32:	a6f1                	j	1022fe <Te3+0x2e2>
  101f34:	73b4                	flw	fa3,96(a5)
  101f36:	97c6b4c7          	fmsub.q	fs1,fa3,ft8,fs2,rup
  101f3a:	c651                	beqz	a2,101fc6 <Te2+0x3aa>
  101f3c:	cbe8                	sw	a0,84(a5)
  101f3e:	a1dde823          	0xa1dde823
  101f42:	dd7c                	sw	a5,124(a0)
  101f44:	e874                	fsw	fa3,84(s0)
  101f46:	749c                	flw	fa5,40(s1)
  101f48:	3e1f 1f21 964b      	0x964b1f213e1f
  101f4e:	4bdd                	li	s7,23
  101f50:	61bd                	lui	gp,0xf
  101f52:	bddc                	fsd	fa5,184(a1)
  101f54:	8b860d8b          	0x8b860d8b
  101f58:	0f8a                	slli	t6,t6,0x2
  101f5a:	8a85                	andi	a3,a3,1
  101f5c:	e070                	fsw	fa2,68(s0)
  101f5e:	7090                	flw	fa2,32(s1)
  101f60:	7c3e                	flw	fs8,236(sp)
  101f62:	3e42                	fld	ft8,48(sp)
  101f64:	71b5                	lui	gp,0xfffed
  101f66:	b5c4                	fsd	fs1,168(a1)
  101f68:	cc66                	sw	s9,24(sp)
  101f6a:	66aa                	flw	fa3,136(sp)
  101f6c:	9048                	0x9048
  101f6e:	48d8                	lw	a4,20(s1)
  101f70:	03050603          	lb	a2,48(a0)
  101f74:	f7f6                	fsw	ft9,236(sp)
  101f76:	f601                	bnez	a2,101e7e <Te2+0x262>
  101f78:	1c0e                	slli	s8,s8,0x23
  101f7a:	0e12                	slli	t3,t3,0x4
  101f7c:	c261                	beqz	a2,10203c <Te3+0x20>
  101f7e:	6a3561a3          	0x6a3561a3
  101f82:	355f ae57 57f9      	0x57f9ae57355f
  101f88:	69b9                	lui	s3,0xe
  101f8a:	b9d0                	fsd	fa2,176(a1)
  101f8c:	1786                	slli	a5,a5,0x21
  101f8e:	8691                	srai	a3,a3,0x4
  101f90:	99c1                	andi	a1,a1,-16
  101f92:	c158                	sw	a4,4(a0)
  101f94:	3a1d                	jal	1018ca <Te1+0xae>
  101f96:	279e1d27          	0x279e1d27
  101f9a:	9eb9                	0x9eb9
  101f9c:	d9e1                	beqz	a1,101f6c <Te2+0x350>
  101f9e:	e138                	fsw	fa4,64(a0)
  101fa0:	ebf8                	fsw	fa4,84(a5)
  101fa2:	2b98f813          	andi	a6,a7,697
  101fa6:	221198b3          	0x221198b3
  101faa:	d2691133          	0xd2691133
  101fae:	a9d969bb          	0xa9d969bb
  101fb2:	d970                	sw	a2,116(a0)
  101fb4:	078e                	slli	a5,a5,0x3
  101fb6:	8e89                	sub	a3,a3,a0
  101fb8:	3394                	fld	fa3,32(a5)
  101fba:	2d9b94a7          	0x2d9b94a7
  101fbe:	9bb6                	add	s7,s7,a3
  101fc0:	3c1e                	fld	fs8,480(sp)
  101fc2:	1e22                	slli	t3,t3,0x28
  101fc4:	87921587          	0x87921587
  101fc8:	c9e9                	beqz	a1,10209a <Te3+0x7e>
  101fca:	e920                	fsw	fs0,80(a0)
  101fcc:	87ce                	mv	a5,s3
  101fce:	ce49                	beqz	a2,102068 <Te3+0x4c>
  101fd0:	aa55                	j	102184 <Te3+0x168>
  101fd2:	55ff                	0x55ff
  101fd4:	5028                	lw	a0,96(s0)
  101fd6:	2878                	fld	fa4,208(s0)
  101fd8:	a5df df7a 038c      	0x38cdf7aa5df
  101fde:	59a18c8f          	0x59a18c8f
  101fe2:	a1f8                	fsd	fa4,192(a1)
  101fe4:	0989                	addi	s3,s3,2
  101fe6:	8980                	0x8980
  101fe8:	1a0d                	addi	s4,s4,-29
  101fea:	65bf0d17          	auipc	s10,0x65bf0
  101fee:	bfda                	fsd	fs6,504(sp)
  101ff0:	d7e6                	sw	s9,236(sp)
  101ff2:	e631                	bnez	a2,10203e <Te3+0x22>
  101ff4:	8442                	mv	s0,a6
  101ff6:	42c6                	lw	t0,80(sp)
  101ff8:	d068                	sw	a0,100(s0)
  101ffa:	68b8                	flw	fa4,80(s1)
  101ffc:	8241                	srli	a2,a2,0x10
  101ffe:	299941c3          	fmadd.s	ft3,fs2,fs9,ft5,rmm
  102002:	99b0                	0x99b0
  102004:	5a2d                	li	s4,-21
  102006:	1e0f2d77          	0x1e0f2d77
  10200a:	0f11                	addi	t5,t5,4
  10200c:	7bb0                	flw	fa2,112(a5)
  10200e:	a854b0cb          	fnmsub.s	ft1,fs1,ft5,fs5,rup
  102012:	54fc                	lw	a5,108(s1)
  102014:	bbd66dbb          	0xbbd66dbb
  102018:	2c16                	fld	fs8,320(sp)
  10201a:	163a                	slli	a2,a2,0x2e

0010201c <Te3>:
static const u32 Te3[256] = {
  10201c:	a5c6                	fsd	fa7,200(sp)
  10201e:	84f86363          	bltu	a6,a5,101064 <AES_encrypt+0x472>
  102022:	7c7c                	flw	fa5,124(s0)
  102024:	99ee                	add	s3,s3,s11
  102026:	8df67777          	0x8df67777
  10202a:	0dff7b7b          	0xdff7b7b
  10202e:	f2f2                	fsw	ft8,100(sp)
  102030:	bdd6                	fsd	fs5,248(sp)
  102032:	b1de6b6b          	0xb1de6b6b
  102036:	54916f6f          	jal	t5,118d7e <_bss_end+0x15826>
  10203a:	c5c5                	beqz	a1,1020e2 <Te3+0xc6>
  10203c:	5060                	lw	s0,100(s0)
  10203e:	3030                	fld	fa2,96(s0)
  102040:	0302                	c.slli64	t1
  102042:	0101                	addi	sp,sp,0
  102044:	a9ce                	fsd	fs3,208(sp)
  102046:	7d566767          	0x7d566767
  10204a:	19e72b2b          	0x19e72b2b
  10204e:	fefe                	fsw	ft11,124(sp)
  102050:	62b5                	lui	t0,0xd
  102052:	e64dd7d7          	0xe64dd7d7
  102056:	9aecabab          	0x9aecabab
  10205a:	7676                	flw	fa2,124(sp)
  10205c:	caca458f          	0xcaca458f
  102060:	9d1f 8282 4089      	0x408982829d1f
  102066:	c9c9                	beqz	a1,1020f8 <Te3+0xdc>
  102068:	87fa                	mv	a5,t5
  10206a:	7d7d                	lui	s10,0xfffff
  10206c:	fafa15ef          	jal	a1,a401a <_stack_len+0x9c01a>
  102070:	ebb2                	fsw	fa2,212(sp)
  102072:	5959                	li	s2,-10
  102074:	c98e                	sw	gp,208(sp)
  102076:	0bfb4747          	fmsub.d	fa4,fs6,ft11,ft1,rmm
  10207a:	f0f0                	fsw	fa2,100(s1)
  10207c:	ec41                	bnez	s0,102114 <Te3+0xf8>
  10207e:	adad                	j	1026f8 <Td0+0x2dc>
  102080:	d4d467b3          	0xd4d467b3
  102084:	fd5f a2a2 ea45      	0xea45a2a2fd5f
  10208a:	bf23afaf          	0xbf23afaf
  10208e:	9c9c                	0x9c9c
  102090:	a4a4f753          	0xa4a4f753
  102094:	96e4                	0x96e4
  102096:	7272                	flw	ft4,60(sp)
  102098:	c0c05b9b          	0xc0c05b9b
  10209c:	c275                	beqz	a2,102180 <Te3+0x164>
  10209e:	1ce1b7b7          	lui	a5,0x1ce1b
  1020a2:	fdfd                	bnez	a1,1020a0 <Te3+0x84>
  1020a4:	ae3d                	j	1023e2 <Te3+0x3c6>
  1020a6:	6a4c9393          	0x6a4c9393
  1020aa:	2626                	fld	fa2,72(sp)
  1020ac:	5a6c                	lw	a1,116(a2)
  1020ae:	3636                	fld	fa2,360(sp)
  1020b0:	417e                	lw	sp,220(sp)
  1020b2:	02f53f3f 4f83f7f7 	0x4f83f7f702f53f3f
  1020ba:	cccc                	sw	a1,28(s1)
  1020bc:	5c68                	lw	a0,124(s0)
  1020be:	3434                	fld	fa3,104(s0)
  1020c0:	f451                	bnez	s0,10204c <Te3+0x30>
  1020c2:	a5a5                	j	10272a <Td0+0x30e>
  1020c4:	34d1                	jal	101b88 <Te1+0x36c>
  1020c6:	e5e5                	bnez	a1,1021ae <Te3+0x192>
  1020c8:	08f9                	addi	a7,a7,30
  1020ca:	f1f1                	bnez	a1,10208e <Te3+0x72>
  1020cc:	93e2                	add	t2,t2,s8
  1020ce:	7171                	addi	sp,sp,-176
  1020d0:	d8d873ab          	0xd8d873ab
  1020d4:	5362                	lw	t1,56(sp)
  1020d6:	3131                	jal	101ce2 <Te2+0xc6>
  1020d8:	3f2a                	fld	ft10,168(sp)
  1020da:	1515                	addi	a0,a0,-27
  1020dc:	0c08                	addi	a0,sp,528
  1020de:	0404                	addi	s1,sp,512
  1020e0:	5295                	li	t0,-27
  1020e2:	6546c7c7          	0x6546c7c7
  1020e6:	5e9d2323          	sw	s1,1510(s10) # fffff5e6 <_stack_start+0xffdff5e6>
  1020ea:	2830c3c3          	fmadd.s	ft7,ft1,ft3,ft5,rmm
  1020ee:	1818                	addi	a4,sp,48
  1020f0:	9696a137          	lui	sp,0x9696a
  1020f4:	0f0a                	slli	t5,t5,0x2
  1020f6:	0505                	addi	a0,a0,1
  1020f8:	9a9ab52f          	0x9a9ab52f
  1020fc:	090e                	slli	s2,s2,0x3
  1020fe:	36240707          	0x36240707
  102102:	1212                	slli	tp,tp,0x24
  102104:	80809b1b          	0x80809b1b
  102108:	3ddf e2e2 26cd      	0x26cde2e23ddf
  10210e:	694eebeb          	0x694eebeb
  102112:	cd7f2727          	fsw	fs7,-818(t5)
  102116:	b2b2                	fsd	fa2,352(sp)
  102118:	9fea                	add	t6,t6,s10
  10211a:	7575                	lui	a0,0xffffd
  10211c:	1b12                	slli	s6,s6,0x24
  10211e:	0909                	addi	s2,s2,2
  102120:	9e1d                	0x9e1d
  102122:	74588383          	lb	t2,1861(a7) # e745 <_stack_len+0x6745>
  102126:	2c2c                	fld	fa1,88(s0)
  102128:	2e34                	fld	fa3,88(a2)
  10212a:	1a1a                	slli	s4,s4,0x26
  10212c:	2d36                	fld	fs10,328(sp)
  10212e:	b2dc1b1b          	0xb2dc1b1b
  102132:	6e6e                	flw	ft8,216(sp)
  102134:	eeb4                	fsw	fa3,88(a3)
  102136:	5a5a                	lw	s4,180(sp)
  102138:	a0a0fb5b          	0xa0a0fb5b
  10213c:	f6a4                	fsw	fs1,104(a3)
  10213e:	5252                	lw	tp,52(sp)
  102140:	4d76                	lw	s10,92(sp)
  102142:	61b73b3b          	0x61b73b3b
  102146:	d6d6                	sw	s5,108(sp)
  102148:	ce7d                	beqz	a2,102246 <Te3+0x22a>
  10214a:	7b52b3b3          	0x7b52b3b3
  10214e:	2929                	jal	102568 <Td0+0x14c>
  102150:	3edd                	jal	101d46 <Te2+0x12a>
  102152:	715ee3e3          	bltu	t4,s5,103058 <Td3+0x3c>
  102156:	97132f2f          	0x97132f2f
  10215a:	8484                	0x8484
  10215c:	f5a6                	fsw	fs1,232(sp)
  10215e:	68b95353          	0x68b95353
  102162:	d1d1                	beqz	a1,1020e6 <Te3+0xca>
  102164:	0000                	unimp
  102166:	0000                	unimp
  102168:	2cc1                	jal	102438 <Td0+0x1c>
  10216a:	eded                	bnez	a1,102264 <Te3+0x248>
  10216c:	6040                	flw	fs0,4(s0)
  10216e:	2020                	fld	fs0,64(s0)
  102170:	fcfc1fe3          	bne	s8,a5,10214e <Te3+0x132>
  102174:	c879                	beqz	s0,10224a <Te3+0x22e>
  102176:	b1b1                	j	101dc2 <Te2+0x1a6>
  102178:	edb6                	fsw	fa3,216(sp)
  10217a:	bed45b5b          	0xbed45b5b
  10217e:	6a6a                	flw	fs4,152(sp)
  102180:	468d                	li	a3,3
  102182:	d967cbcb          	fnmsub.s	fs7,fa5,fs6,fs11,rmm
  102186:	bebe                	fsd	fa5,376(sp)
  102188:	4b72                	lw	s6,28(sp)
  10218a:	3939                	jal	101da8 <Te2+0x18c>
  10218c:	de94                	sw	a3,56(a3)
  10218e:	4a4a                	lw	s4,144(sp)
  102190:	d498                	sw	a4,40(s1)
  102192:	4c4c                	lw	a1,28(s0)
  102194:	e8b0                	fsw	fa2,80(s1)
  102196:	5858                	lw	a4,52(s0)
  102198:	4a85                	li	s5,1
  10219a:	6bbbcfcf          	fnmadd.d	ft11,fs7,fs11,fa3,rmm
  10219e:	d0d0                	sw	a2,36(s1)
  1021a0:	2ac5                	jal	102390 <Te3+0x374>
  1021a2:	e54fefef          	jal	t6,1007f6 <AES_set_encrypt_key+0x21a>
  1021a6:	aaaa                	fsd	fa0,336(sp)
  1021a8:	16ed                	addi	a3,a3,-5
  1021aa:	c586fbfb          	0xc586fbfb
  1021ae:	d79a4343          	fmadd.q	ft6,fs4,fs9,fs10,rmm
  1021b2:	4d4d                	li	s10,19
  1021b4:	5566                	lw	a0,120(sp)
  1021b6:	94113333          	0x94113333
  1021ba:	8585                	srai	a1,a1,0x1
  1021bc:	cf8a                	sw	sp,220(sp)
  1021be:	4545                	li	a0,17
  1021c0:	10e9                	addi	ra,ra,-6
  1021c2:	f9f9                	bnez	a1,102198 <Te3+0x17c>
  1021c4:	0604                	addi	s1,sp,768
  1021c6:	0202                	c.slli64	tp
  1021c8:	81fe                	mv	gp,t6
  1021ca:	7f7f                	0x7f7f
  1021cc:	f0a0                	fsw	fs0,96(s1)
  1021ce:	5050                	lw	a2,36(s0)
  1021d0:	4478                	lw	a4,76(s0)
  1021d2:	3c3c                	fld	fa5,120(s0)
  1021d4:	ba25                	j	101b0c <Te1+0x2f0>
  1021d6:	9f9f e34b a8a8      	0xa8a8e34b9f9f
  1021dc:	f3a2                	fsw	fs0,228(sp)
  1021de:	5151                	li	sp,-12
  1021e0:	fe5d                	bnez	a2,10219e <Te3+0x182>
  1021e2:	c080a3a3          	sw	s0,-1017(ra) # fffe9c07 <_stack_start+0xffde9c07>
  1021e6:	4040                	lw	s0,4(s0)
  1021e8:	8a05                	andi	a2,a2,1
  1021ea:	ad3f8f8f          	0xad3f8f8f
  1021ee:	9292                	add	t0,t0,tp
  1021f0:	bc21                	j	101c08 <Te1+0x3ec>
  1021f2:	9d9d                	0x9d9d
  1021f4:	4870                	lw	a2,84(s0)
  1021f6:	3838                	fld	fa4,112(s0)
  1021f8:	04f1                	addi	s1,s1,28
  1021fa:	f5f5                	bnez	a1,1021e6 <Te3+0x1ca>
  1021fc:	bcbcdf63          	bge	s9,a1,1015da <Te0+0x1be>
  102200:	b6b6c177          	0xb6b6c177
  102204:	dada75af          	0xdada75af
  102208:	6342                	flw	ft6,16(sp)
  10220a:	2121                	jal	102612 <Td0+0x1f6>
  10220c:	3020                	fld	fs0,96(s0)
  10220e:	1010                	addi	a2,sp,32
  102210:	1ae5                	addi	s5,s5,-7
  102212:	ffff                	0xffff
  102214:	0efd                	addi	t4,t4,31
  102216:	6dbff3f3          	csrrci	t2,0x6db,31
  10221a:	d2d2                	sw	s4,100(sp)
  10221c:	4c81                	li	s9,0
  10221e:	cdcd                	beqz	a1,1022d8 <Te3+0x2bc>
  102220:	1418                	addi	a4,sp,544
  102222:	0c0c                	addi	a1,sp,528
  102224:	3526                	fld	fa0,104(sp)
  102226:	2fc31313          	0x2fc31313
  10222a:	ecec                	fsw	fa1,92(s1)
  10222c:	e1be                	fsw	fa5,192(sp)
  10222e:	5f5f a235 9797      	0x9797a2355f5f
  102234:	cc88                	sw	a0,24(s1)
  102236:	4444                	lw	s1,12(s0)
  102238:	392e                	fld	fs2,232(sp)
  10223a:	57931717          	auipc	a4,0x57931
  10223e:	c4c4                	sw	s1,12(s1)
  102240:	f255                	bnez	a2,1021e4 <Te3+0x1c8>
  102242:	82fca7a7          	fsw	fa5,-2001(s9) # fffe782f <_stack_start+0xffde782f>
  102246:	7e7e                	flw	ft8,252(sp)
  102248:	477a                	lw	a4,156(sp)
  10224a:	3d3d                	jal	102088 <Te3+0x6c>
  10224c:	acc8                	fsd	fa0,152(s1)
  10224e:	6464                	flw	fs1,76(s0)
  102250:	e7ba                	fsw	fa4,204(sp)
  102252:	5d5d                	li	s10,-9
  102254:	2b32                	fld	fs6,264(sp)
  102256:	1919                	addi	s2,s2,-26
  102258:	95e6                	add	a1,a1,s9
  10225a:	a0c07373          	csrrci	t1,0xa0c,0
  10225e:	6060                	flw	fs0,68(s0)
  102260:	9819                	andi	s0,s0,-26
  102262:	8181                	c.srli64	a1
  102264:	d19e                	sw	t2,224(sp)
  102266:	7fa34f4f          	fnmadd.q	ft10,ft6,fs10,fa5,rmm
  10226a:	dcdc                	sw	a5,60(s1)
  10226c:	6644                	flw	fs1,12(a2)
  10226e:	2222                	fld	ft4,8(sp)
  102270:	7e54                	flw	fa3,60(a2)
  102272:	2a2a                	fld	fs4,136(sp)
  102274:	9090ab3b          	0x9090ab3b
  102278:	8888830b          	0x8888830b
  10227c:	ca8c                	sw	a1,16(a3)
  10227e:	4646                	lw	a2,80(sp)
  102280:	eeee29c7          	fmsub.q	fs3,ft8,fa4,ft9,rdn
  102284:	b8b8d36b          	0xb8b8d36b
  102288:	3c28                	fld	fa0,120(s0)
  10228a:	1414                	addi	a3,sp,544
  10228c:	dede79a7          	0xdede79a7
  102290:	e2bc                	fsw	fa5,64(a3)
  102292:	5e5e                	lw	t3,244(sp)
  102294:	1d16                	slli	s10,s10,0x25
  102296:	76ad0b0b          	0x76ad0b0b
  10229a:	3bdbdbdb          	0x3bdbdbdb
  10229e:	e0e0                	fsw	fs0,68(s1)
  1022a0:	5664                	lw	s1,108(a2)
  1022a2:	3232                	fld	ft4,296(sp)
  1022a4:	4e74                	lw	a3,92(a2)
  1022a6:	3a3a                	fld	fs4,424(sp)
  1022a8:	1e14                	addi	a3,sp,816
  1022aa:	0a0a                	slli	s4,s4,0x2
  1022ac:	db92                	sw	tp,244(sp)
  1022ae:	4949                	li	s2,18
  1022b0:	0a0c                	addi	a1,sp,272
  1022b2:	0606                	slli	a2,a2,0x1
  1022b4:	6c48                	flw	fa0,28(s0)
  1022b6:	2424                	fld	fs1,72(s0)
  1022b8:	e4b8                	fsw	fa4,72(s1)
  1022ba:	5c5c                	lw	a5,60(s0)
  1022bc:	5d9f c2c2 6ebd      	0x6ebdc2c25d9f
  1022c2:	ef43d3d3          	0xef43d3d3
  1022c6:	acac                	fsd	fa1,88(s1)
  1022c8:	a6c4                	fsd	fs1,136(a3)
  1022ca:	6262                	flw	ft4,24(sp)
  1022cc:	a839                	j	1022ea <Te3+0x2ce>
  1022ce:	9191                	srli	a1,a1,0x24
  1022d0:	a431                	j	1024dc <Td0+0xc0>
  1022d2:	9595                	srai	a1,a1,0x25
  1022d4:	e4e437d3          	0xe4e437d3
  1022d8:	8bf2                	mv	s7,t3
  1022da:	7979                	lui	s2,0xffffe
  1022dc:	32d5                	jal	101cc0 <Te2+0xa4>
  1022de:	438be7e7          	0x438be7e7
  1022e2:	c8c8                	sw	a0,20(s1)
  1022e4:	596e                	lw	s2,248(sp)
  1022e6:	b7da3737          	lui	a4,0xb7da3
  1022ea:	6d6d                	lui	s10,0x1b
  1022ec:	8c01                	sub	s0,s0,s0
  1022ee:	8d8d                	sub	a1,a1,a1
  1022f0:	64b1                	lui	s1,0xc
  1022f2:	d5d5                	beqz	a1,10229e <Te3+0x282>
  1022f4:	d29c                	sw	a5,32(a3)
  1022f6:	4e4e                	lw	t3,208(sp)
  1022f8:	e049                	bnez	s0,10237a <Te3+0x35e>
  1022fa:	a9a9                	j	102754 <Td0+0x338>
  1022fc:	b4d8                	fsd	fa4,168(s1)
  1022fe:	6c6c                	flw	fa1,92(s0)
  102300:	faac                	fsw	fa1,112(a3)
  102302:	5656                	lw	a2,116(sp)
  102304:	f4f407f3          	0xf4f407f3
  102308:	eaea25cf          	fnmadd.d	fa1,fs4,fa4,ft9,rdn
  10230c:	afca                	fsd	fs2,472(sp)
  10230e:	6565                	lui	a0,0x19
  102310:	8ef4                	0x8ef4
  102312:	7a7a                	flw	fs4,188(sp)
  102314:	aeaee947          	fmsub.q	fs2,ft9,fa0,fs5,unknown
  102318:	1810                	addi	a2,sp,48
  10231a:	0808                	addi	a0,sp,16
  10231c:	babad56f          	jal	a0,afec6 <_stack_len+0xa7ec6>
  102320:	88f0                	0x88f0
  102322:	7878                	flw	fa4,116(s0)
  102324:	6f4a                	flw	ft10,144(sp)
  102326:	2525                	jal	10294e <Td1+0x132>
  102328:	725c                	flw	fa5,36(a2)
  10232a:	2e2e                	fld	ft8,200(sp)
  10232c:	2438                	fld	fa4,72(s0)
  10232e:	1c1c                	addi	a5,sp,560
  102330:	a6a6f157          	0xa6a6f157
  102334:	b4b4c773          	0xb4b4c773
  102338:	c6c65197          	auipc	gp,0xc6c65
  10233c:	e8e823cb          	fnmsub.s	ft7,fa6,fa4,ft9,rdn
  102340:	7ca1                	lui	s9,0xfffe8
  102342:	dddd                	beqz	a1,102300 <Te3+0x2e4>
  102344:	9ce8                	0x9ce8
  102346:	7474                	flw	fa3,108(s0)
  102348:	213e                	fld	ft2,456(sp)
  10234a:	1f1f dd96 4b4b      	0x4b4bdd961f1f
  102350:	dc61                	beqz	s0,102328 <Te3+0x30c>
  102352:	bdbd                	j	1021d0 <Te3+0x1b4>
  102354:	860d                	srai	a2,a2,0x3
  102356:	850f8b8b          	0x850f8b8b
  10235a:	8a8a                	mv	s5,sp
  10235c:	90e0                	0x90e0
  10235e:	7070                	flw	fa2,100(s0)
  102360:	427c                	lw	a5,68(a2)
  102362:	3e3e                	fld	ft8,488(sp)
  102364:	c471                	beqz	s0,102430 <Td0+0x14>
  102366:	b5b5                	j	1021d2 <Te3+0x1b6>
  102368:	aacc                	fsd	fa1,144(a3)
  10236a:	6666                	flw	fa2,88(sp)
  10236c:	d890                	sw	a2,48(s1)
  10236e:	4848                	lw	a0,20(s0)
  102370:	0506                	slli	a0,a0,0x1
  102372:	01f70303          	lb	t1,31(a4) # b7da301f <_stack_start+0xb7ba301f>
  102376:	f6f6                	fsw	ft9,108(sp)
  102378:	121c                	addi	a5,sp,288
  10237a:	0e0e                	slli	t3,t3,0x3
  10237c:	a3c2                	fsd	fa6,448(sp)
  10237e:	6161                	addi	sp,sp,80
  102380:	5f6a                	lw	t5,184(sp)
  102382:	3535                	jal	1021ae <Te3+0x192>
  102384:	f9ae                	fsw	fa1,240(sp)
  102386:	d0695757          	0xd0695757
  10238a:	b9b9                	j	101fe8 <Te2+0x3cc>
  10238c:	86869117          	auipc	sp,0x86869
  102390:	5899                	li	a7,-26
  102392:	c1c1                	beqz	a1,102412 <Te3+0x3f6>
  102394:	273a                	fld	fa4,392(sp)
  102396:	1d1d                	addi	s10,s10,-25
  102398:	9e9eb927          	fsd	fs1,-1550(t4)
  10239c:	38d9                	jal	101c72 <Te2+0x56>
  10239e:	e1e1                	bnez	a1,10245e <Td0+0x42>
  1023a0:	f8f813eb          	0xf8f813eb
  1023a4:	9898b32b          	0x9898b32b
  1023a8:	3322                	fld	ft6,40(sp)
  1023aa:	1111                	addi	sp,sp,-28
  1023ac:	bbd2                	fsd	fs4,496(sp)
  1023ae:	6969                	lui	s2,0x1a
  1023b0:	70a9                	lui	ra,0xfffea
  1023b2:	d9d9                	beqz	a1,102348 <Te3+0x32c>
  1023b4:	8e8e8907          	0x8e8e8907
  1023b8:	9494a733          	0x9494a733
  1023bc:	b62d                	j	101ee6 <Te2+0x2ca>
  1023be:	223c9b9b          	0x223c9b9b
  1023c2:	1e1e                	slli	t3,t3,0x27
  1023c4:	9215                	srli	a2,a2,0x25
  1023c6:	20c98787          	0x20c98787
  1023ca:	e9e9                	bnez	a1,10249c <Td0+0x80>
  1023cc:	cece4987          	flq	fs3,-788(t3) # 17493b24 <_stack_start+0x17293b24>
  1023d0:	ffaa                	fsw	fa0,252(sp)
  1023d2:	5555                	li	a0,-11
  1023d4:	7850                	flw	fa2,52(s0)
  1023d6:	2828                	fld	fa0,80(s0)
  1023d8:	7aa5                	lui	s5,0xfffe9
  1023da:	dfdf 8f03 8c8c      	0x8c8c8f03dfdf
  1023e0:	f859                	bnez	s0,102376 <Te3+0x35a>
  1023e2:	a1a1                	j	10282a <Td1+0xe>
  1023e4:	8009                	srli	s0,s0,0x2
  1023e6:	8989                	andi	a1,a1,2
  1023e8:	171a                	slli	a4,a4,0x26
  1023ea:	0d0d                	addi	s10,s10,3
  1023ec:	da65                	beqz	a2,1023dc <Te3+0x3c0>
  1023ee:	31d7bfbf c684e6e6 	0xc684e6e631d7bfbf
  1023f6:	4242                	lw	tp,16(sp)
  1023f8:	b8d0                	fsd	fa2,176(s1)
  1023fa:	6868                	flw	fa0,84(s0)
  1023fc:	c382                	sw	zero,196(sp)
  1023fe:	4141                	li	sp,16
  102400:	b029                	j	101c0a <Te1+0x3ee>
  102402:	9999                	andi	a1,a1,-26
  102404:	775a                	flw	fa4,180(sp)
  102406:	2d2d                	jal	102a40 <Td1+0x224>
  102408:	111e                	slli	sp,sp,0x27
  10240a:	cb7b0f0f          	0xcb7b0f0f
  10240e:	b0b0                	fsd	fa2,96(s1)
  102410:	fca8                	fsw	fa0,120(s1)
  102412:	5454                	lw	a3,44(s0)
  102414:	d66d                	beqz	a2,1023fe <Te3+0x3e2>
  102416:	3a2cbbbb          	0x3a2cbbbb
  10241a:	1616                	slli	a2,a2,0x25

0010241c <Td0>:
static const u32 Td0[256] = {
  10241c:	a750                	fsd	fa2,136(a4)
  10241e:	51f4                	lw	a3,100(a1)
  102420:	7e416553          	0x7e416553
  102424:	1a17a4c3          	fmadd.d	fs1,fa5,ft1,ft3,rdn
  102428:	5e96                	lw	t4,100(sp)
  10242a:	6bcb3a27          	fsd	ft8,1716(s6)
  10242e:	45f13bab          	0x45f13bab
  102432:	1f9d                	addi	t6,t6,-25
  102434:	acfa58ab          	0xacfa58ab
  102438:	4be30393          	addi	t2,t1,1214
  10243c:	fa55                	bnez	a2,1023f0 <Te3+0x3d4>
  10243e:	2030                	fld	fa2,64(s0)
  102440:	6df6                	flw	fs11,92(sp)
  102442:	ad76                	fsd	ft9,152(sp)
  102444:	7691                	lui	a3,0xfffe4
  102446:	88cc                	0x88cc
  102448:	4c25                	li	s8,9
  10244a:	f502                	fsw	ft0,168(sp)
  10244c:	d7fc                	sw	a5,108(a5)
  10244e:	4fe5                	li	t6,25
  102450:	c52acbd7          	0xc52acbd7
  102454:	4480                	lw	s0,8(s1)
  102456:	2635                	jal	102782 <Td0+0x366>
  102458:	b562a38f          	0xb562a38f
  10245c:	5a49                	li	s4,-14
  10245e:	deb1                	beqz	a3,1023ba <Te3+0x39e>
  102460:	25ba1b67          	0x25ba1b67
  102464:	0e98                	addi	a4,sp,848
  102466:	45ea                	lw	a1,152(sp)
  102468:	c0e1                	beqz	s1,102528 <Td0+0x10c>
  10246a:	5dfe                	lw	s11,252(sp)
  10246c:	7502                	flw	fa0,32(sp)
  10246e:	f012c32f          	0xf012c32f
  102472:	814c                	0x814c
  102474:	8d4697a3          	sh	s4,-1841(a3) # fffe38cf <_stack_start+0xffde38cf>
  102478:	f9c6                	fsw	fa7,240(sp)
  10247a:	5fe76bd3          	0x5fe76bd3
  10247e:	9c95038f          	0x9c95038f
  102482:	1592                	slli	a1,a1,0x24
  102484:	bf6d7aeb          	0xbf6d7aeb
  102488:	59da                	lw	s3,180(sp)
  10248a:	9552                	add	a0,a0,s4
  10248c:	832d                	srli	a4,a4,0xb
  10248e:	d4be                	sw	a5,104(sp)
  102490:	587421d3          	0x587421d3
  102494:	6929                	lui	s2,0xa
  102496:	49e0                	lw	s0,84(a1)
  102498:	c844                	sw	s1,20(s0)
  10249a:	8ec9                	or	a3,a3,a0
  10249c:	896a                	mv	s2,s10
  10249e:	75c2                	flw	fa1,48(sp)
  1024a0:	7978                	flw	fa4,116(a0)
  1024a2:	f48e                	fsw	ft3,104(sp)
  1024a4:	99583e6b          	0x99583e6b
  1024a8:	71dd                	lui	gp,0xffff7
  1024aa:	27b9                	jal	102bf8 <Td1+0x3dc>
  1024ac:	4fb6                	lw	t6,76(sp)
  1024ae:	bee1                	j	102086 <Te3+0x6a>
  1024b0:	f088ad17          	auipc	s10,0xf088a
  1024b4:	ac66                	fsd	fs9,24(sp)
  1024b6:	c920                	sw	s0,80(a0)
  1024b8:	3ab4                	fld	fa3,112(a3)
  1024ba:	7dce                	flw	fs11,240(sp)
  1024bc:	4a18                	lw	a4,16(a2)
  1024be:	63df 3182 e51a      	0xe51a318263df
  1024c4:	3360                	fld	fs0,224(a4)
  1024c6:	9751                	srai	a4,a4,0x34
  1024c8:	7f45                	lui	t5,0xffff1
  1024ca:	77e06253          	0x77e06253
  1024ce:	b164                	fsd	fs1,224(a0)
  1024d0:	ae84                	fsd	fs1,24(a3)
  1024d2:	a01cbb6b          	0xa01cbb6b
  1024d6:	fe81                	bnez	a3,1023ee <Te3+0x3d2>
  1024d8:	2b94                	fld	fa3,16(a5)
  1024da:	f908                	fsw	fa0,48(a0)
  1024dc:	6858                	flw	fa4,20(s0)
  1024de:	7048                	flw	fa0,36(s0)
  1024e0:	fd19                	bnez	a0,1023fe <Te3+0x3e2>
  1024e2:	8f45                	or	a4,a4,s1
  1024e4:	94de6c87          	0x94de6c87
  1024e8:	527bf8b7          	lui	a7,0x527bf
  1024ec:	ab73d323          	0xab73d323
  1024f0:	02e2                	slli	t0,t0,0x18
  1024f2:	8f57724b          	fnmsub.q	ft4,fa4,fs5,fa7
  1024f6:	e31f ab2a 6655      	0x6655ab2ae31f
  1024fc:	b2eb2807          	flw	fa6,-1234(s6)
  102500:	2fb5c203          	lbu	tp,763(a1) # 97b2512b <_stack_start+0x9792512b>
  102504:	7b9a                	flw	fs7,164(sp)
  102506:	86c5                	srai	a3,a3,0x11
  102508:	08a5                	addi	a7,a7,9
  10250a:	87f2d337          	lui	t1,0x87f2d
  10250e:	3028                	fld	fa0,96(s0)
  102510:	a5b2                	fsd	fa2,200(sp)
  102512:	6aba23bf 825c0203 	0x825c02036aba23bf
  10251a:	ed16                	fsw	ft5,152(sp)
  10251c:	8acf1c2b          	0x8acf1c2b
  102520:	b492                	fsd	ft4,104(sp)
  102522:	a779                	j	102cb0 <Td2+0x94>
  102524:	f2f0                	fsw	fa2,100(a3)
  102526:	e2a1f307          	0xe2a1f307
  10252a:	4e69                	li	t3,26
  10252c:	f4cd                	bnez	s1,1024d6 <Td0+0xba>
  10252e:	65da                	flw	fa1,148(sp)
  102530:	bed5                	j	102124 <Te3+0x108>
  102532:	0605                	addi	a2,a2,1
  102534:	621f d134 fe8a      	0xfe8ad134621f
  10253a:	c4a6                	sw	s1,72(sp)
  10253c:	539d                	li	t2,-25
  10253e:	342e                	fld	fs0,232(sp)
  102540:	55a0                	lw	s0,104(a1)
  102542:	e132a2f3          	csrrs	t0,0xe13,t0
  102546:	058a                	slli	a1,a1,0x2
  102548:	eb75                	bnez	a4,10263c <Td0+0x220>
  10254a:	a4f6                	fsd	ft9,72(sp)
  10254c:	ec39                	bnez	s0,1025aa <Td0+0x18e>
  10254e:	efaa0b83          	lb	s7,-262(s4) # fffeeefa <_stack_start+0xffdeeefa>
  102552:	4060                	lw	s0,68(s0)
  102554:	9f06                	add	t5,t5,ra
  102556:	5e71                	li	t3,-4
  102558:	1051                	c.nop	-12
  10255a:	bd6e                	fsd	fs11,184(sp)
  10255c:	8af9                	andi	a3,a3,30
  10255e:	3e21                	jal	102076 <Te3+0x5a>
  102560:	063d                	addi	a2,a2,15
  102562:	96dd                	srai	a3,a3,0x37
  102564:	05ae                	slli	a1,a1,0xb
  102566:	dd3e                	sw	a5,184(sp)
  102568:	bd46                	fsd	fa7,184(sp)
  10256a:	4de6                	lw	s11,88(sp)
  10256c:	8db5                	xor	a1,a1,a3
  10256e:	9154                	0x9154
  102570:	5d05                	li	s10,-31
  102572:	71c4                	flw	fs1,36(a1)
  102574:	0406d46f          	jal	s0,16f5b4 <_bss_end+0x6c05c>
  102578:	15ff                	0x15ff
  10257a:	6050                	flw	fa2,4(s0)
  10257c:	fb24                	fsw	fs1,112(a4)
  10257e:	1998                	addi	a4,sp,240
  102580:	d6bde997          	auipc	s3,0xd6bde
  102584:	43cc                	lw	a1,4(a5)
  102586:	8940                	0x8940
  102588:	67d99e77          	0x67d99e77
  10258c:	42bd                	li	t0,15
  10258e:	b0e8                	fsd	fa0,224(s1)
  102590:	8b88                	0x8b88
  102592:	0789                	addi	a5,a5,2
  102594:	5b38                	lw	a4,112(a4)
  102596:	e719                	bnez	a4,1025a4 <Td0+0x188>
  102598:	79c8eedb          	0x79c8eedb
  10259c:	a17c0a47          	fmsub.s	fs4,fs8,fs7,fs4,rne
  1025a0:	0fe9                	addi	t6,t6,26
  1025a2:	7c42                	flw	fs8,48(sp)
  1025a4:	1ec9                	addi	t4,t4,-14
  1025a6:	f884                	fsw	fs1,48(s1)
  1025a8:	0000                	unimp
  1025aa:	0000                	unimp
  1025ac:	09808683          	lb	a3,152(ra) # fffea098 <_stack_start+0xffdea098>
  1025b0:	ed48                	fsw	fa0,28(a0)
  1025b2:	70ac322b          	0x70ac322b
  1025b6:	1e11                	addi	t3,t3,-28
  1025b8:	724e                	flw	ft4,240(sp)
  1025ba:	6c5a                	flw	fs8,148(sp)
  1025bc:	fd0efffb          	0xfd0efffb
  1025c0:	3856                	fld	fa6,368(sp)
  1025c2:	0f85                	addi	t6,t6,1
  1025c4:	d51e                	sw	t2,168(sp)
  1025c6:	3dae                	fld	fs11,232(sp)
  1025c8:	362d3927          	fsd	ft2,882(s10) # f098c822 <_stack_start+0xf078c822>
  1025cc:	d964                	sw	s1,116(a0)
  1025ce:	a6210a0f          	0xa6210a0f
  1025d2:	685c                	flw	fa5,20(s0)
  1025d4:	54d1                	li	s1,-12
  1025d6:	2e3a9b5b          	0x2e3a9b5b
  1025da:	2436                	fld	fs0,328(sp)
  1025dc:	67b1                	lui	a5,0xc
  1025de:	0c0a                	slli	s8,s8,0x2
  1025e0:	9357e70f          	0x9357e70f
  1025e4:	96d2                	add	a3,a3,s4
  1025e6:	b4ee                	fsd	fs11,104(sp)
  1025e8:	919e                	add	gp,gp,t2
  1025ea:	c54f1b9b          	0xc54f1b9b
  1025ee:	80c0                	0x80c0
  1025f0:	20a2                	fld	ft1,8(sp)
  1025f2:	61dc                	flw	fa5,4(a1)
  1025f4:	4b69                	li	s6,26
  1025f6:	1a165a77          	0x1a165a77
  1025fa:	1c12                	slli	s8,s8,0x24
  1025fc:	ba0a                	fsd	ft2,304(sp)
  1025fe:	2ae5e293          	ori	t0,a1,686
  102602:	c0a0                	sw	s0,64(s1)
  102604:	3c22e043          	0x3c22e043
  102608:	171d                	addi	a4,a4,-25
  10260a:	0d0b121b          	0xd0b121b
  10260e:	0e09                	addi	t3,t3,2
  102610:	c7ad                	beqz	a5,10267a <Td0+0x25e>
  102612:	a8b9f28b          	0xa8b9f28b
  102616:	2db6                	fld	fs11,328(sp)
  102618:	a9c8                	fsd	fa0,144(a1)
  10261a:	141e                	slli	s0,s0,0x27
  10261c:	1985                	addi	s3,s3,-31
  10261e:	57f1                	li	a5,-4
  102620:	074c                	addi	a1,sp,900
  102622:	af75                	j	102dde <Td2+0x1c2>
  102624:	ee99ddbb          	0xee99ddbb
  102628:	60fd                	lui	ra,0x1f
  10262a:	a37f                	0xa37f
  10262c:	269f f701 f5bc      	0xf5bcf701269f
  102632:	5c72                	lw	s8,60(sp)
  102634:	3bc5                	jal	102424 <Td0+0x8>
  102636:	4466                	lw	s0,88(sp)
  102638:	7e34                	flw	fa3,120(a2)
  10263a:	29765bfb          	0x29765bfb
  10263e:	c6dc8b43          	fmadd.q	fs6,fs9,fa3,fs8,rne
  102642:	fc68cb23          	0xfc68cb23
  102646:	b6ed                	j	102230 <Te3+0x214>
  102648:	b8e4f163          	bgeu	s1,a4,1019ca <Te1+0x1ae>
  10264c:	dcca                	sw	s2,120(sp)
  10264e:	d731                	beqz	a4,10259a <Td0+0x17e>
  102650:	8510                	0x8510
  102652:	22404263          	bgtz	tp,102876 <Td1+0x5a>
  102656:	11201397          	auipc	t2,0x11201
  10265a:	84c6                	mv	s1,a7
  10265c:	247d                	jal	10290a <Td1+0xee>
  10265e:	854a                	mv	a0,s2
  102660:	3df8                	fld	fa4,248(a1)
  102662:	3211d2bb          	0x3211d2bb
  102666:	aef9                	j	102a44 <Td1+0x228>
  102668:	a16d                	j	102b12 <Td1+0x2f6>
  10266a:	c729                	beqz	a4,1026b4 <Td0+0x298>
  10266c:	1d9e2f4b          	0x1d9e2f4b
  102670:	dcb230f3          	csrrc	ra,0xdcb,tp
  102674:	52ec                	lw	a1,100(a3)
  102676:	0d86                	slli	s11,s11,0x1
  102678:	e3d0                	fsw	fa2,4(a5)
  10267a:	77c1                	lui	a5,0xffff0
  10267c:	166c                	addi	a1,sp,812
  10267e:	b9992bb3          	0xb9992bb3
  102682:	a970                	fsd	fa2,208(a0)
  102684:	48fa                	lw	a7,156(sp)
  102686:	1194                	addi	a3,sp,224
  102688:	6422                	flw	fs0,8(sp)
  10268a:	47e9                	li	a5,26
  10268c:	8cc4                	0x8cc4
  10268e:	a8fc                	fsd	fa5,208(s1)
  102690:	3f1a                	fld	ft10,416(sp)
  102692:	a0f0                	fsd	fa2,192(s1)
  102694:	2cd8                	fld	fa4,152(s1)
  102696:	567d                	li	a2,-1
  102698:	223390ef          	jal	ra,13c0ba <_bss_end+0x38b62>
  10269c:	87494ec7          	fmsub.q	ft9,fs2,fs4,fa6,rmm
  1026a0:	d1c1                	beqz	a1,102620 <Td0+0x204>
  1026a2:	d938                	sw	a4,112(a0)
  1026a4:	a2fe                	fsd	ft11,320(sp)
  1026a6:	8cca                	mv	s9,s2
  1026a8:	0b36                	slli	s6,s6,0xd
  1026aa:	98d4                	0x98d4
  1026ac:	a6f581cf          	fnmadd.q	ft3,fa1,fa5,fs4,rne
  1026b0:	de28                	sw	a0,120(a2)
  1026b2:	a57a                	fsd	ft10,136(sp)
  1026b4:	8e26                	mv	t3,s1
  1026b6:	bfa4dab7          	lui	s5,0xbfa4d
  1026ba:	3fad                	jal	102634 <Td0+0x218>
  1026bc:	9de4                	0x9de4
  1026be:	2c3a                	fld	fs8,392(sp)
  1026c0:	920d                	srli	a2,a2,0x23
  1026c2:	5078                	lw	a4,100(s0)
  1026c4:	6a5fcc9b          	0x6a5fcc9b
  1026c8:	4662                	lw	a2,24(sp)
  1026ca:	547e                	lw	s0,252(sp)
  1026cc:	13c2                	slli	t2,t2,0x30
  1026ce:	f68d                	bnez	a3,1025f8 <Td0+0x1dc>
  1026d0:	b8e8                	fsd	fa0,240(s1)
  1026d2:	90d8                	0x90d8
  1026d4:	f75e                	fsw	fs7,172(sp)
  1026d6:	2e39                	jal	1029f4 <Td1+0x1d8>
  1026d8:	aff5                	j	102ed4 <Td2+0x2b8>
  1026da:	80be82c3          	fmadd.s	ft5,ft9,fa1,fa6,rne
  1026de:	9f5d                	0x9f5d
  1026e0:	937c                	0x937c
  1026e2:	69d0                	flw	fa2,20(a1)
  1026e4:	2da9                	jal	102d3e <Td2+0x122>
  1026e6:	6fd5                	lui	t6,0x15
  1026e8:	cf2512b3          	0xcf2512b3
  1026ec:	c8ac993b          	0xc8ac993b
  1026f0:	10187da7          	0x10187da7
  1026f4:	636e                	flw	ft6,216(sp)
  1026f6:	e89c                	fsw	fa5,16(s1)
  1026f8:	db3bbb7b          	0xdb3bbb7b
  1026fc:	7809                	lui	a6,0xfffe2
  1026fe:	cd26                	sw	s1,152(sp)
  102700:	18f4                	addi	a3,sp,124
  102702:	6e59                	lui	t3,0x16
  102704:	b701                	j	102604 <Td0+0x1e8>
  102706:	ec9a                	fsw	ft6,88(sp)
  102708:	9aa8                	0x9aa8
  10270a:	6e65834f          	fnmadd.q	ft6,fa1,ft6,fa3,rne
  10270e:	e695                	bnez	a3,10273a <Td0+0x31e>
  102710:	e67e                	fsw	ft11,12(sp)
  102712:	aaff                	0xaaff
  102714:	cf08                	sw	a0,24(a4)
  102716:	21bc                	fld	fa5,64(a1)
  102718:	e8e6                	fsw	fs9,80(sp)
  10271a:	ef15                	bnez	a4,102756 <Td0+0x33a>
  10271c:	9bd9                	andi	a5,a5,-10
  10271e:	36cebae7          	0x36cebae7
  102722:	09d44a6f          	jal	s4,146fbe <_bss_end+0x43a66>
  102726:	ea9f 7cd6 29b0      	0x29b07cd6ea9f
  10272c:	31a4b2af          	0x31a4b2af
  102730:	2331                	jal	102c3c <Td2+0x20>
  102732:	94302a3f 66c0c6a5 	0x66c0c6a594302a3f
  10273a:	35a2                	fld	fa1,40(sp)
  10273c:	744ebc37          	lui	s8,0x744eb
  102740:	caa6                	sw	s1,84(sp)
  102742:	fc82                	fsw	ft0,120(sp)
  102744:	d0b0                	sw	a2,96(s1)
  102746:	e090                	fsw	fa2,0(s1)
  102748:	d815                	beqz	s0,10267c <Td0+0x260>
  10274a:	984a33a7          	fsd	ft4,-1657(s4)
  10274e:	f104                	fsw	fs1,32(a0)
  102750:	41ecdaf7          	0x41ecdaf7
  102754:	500e                	0x500e
  102756:	7fcd                	lui	t6,0xffff3
  102758:	1791f62f          	0x1791f62f
  10275c:	d68d                	beqz	a3,102686 <Td0+0x26a>
  10275e:	764d                	lui	a2,0xffff3
  102760:	b04d                	j	102002 <Te2+0x3e6>
  102762:	4d5443ef          	jal	t2,147436 <_bss_end+0x43ede>
  102766:	ccaa                	sw	a0,88(sp)
  102768:	04df e496 b5e3      	0xb5e3e49604df
  10276e:	9ed1                	0x9ed1
  102770:	4c6a881b          	0x4c6a881b
  102774:	1fb8                	addi	a4,sp,1016
  102776:	c12c                	sw	a1,64(a0)
  102778:	517f                	0x517f
  10277a:	4665                	li	a2,25
  10277c:	ea04                	fsw	fs1,16(a2)
  10277e:	9d5e                	add	s10,s10,s7
  102780:	355d                	jal	102626 <Td0+0x20a>
  102782:	018c                	addi	a1,sp,192
  102784:	fa877473          	csrrci	s0,0xfa8,14
  102788:	412e                	lw	sp,200(sp)
  10278a:	1d5afb0b          	0x1d5afb0b
  10278e:	d252b367          	0xd252b367
  102792:	563392db          	0x563392db
  102796:	e910                	fsw	fa2,16(a0)
  102798:	6dd64713          	xori	a4,a2,1757
  10279c:	618c                	flw	fa1,0(a1)
  10279e:	0c7a9ad7          	0xc7a9ad7
  1027a2:	37a1                	jal	1026ea <Td0+0x2ce>
  1027a4:	148e                	slli	s1,s1,0x23
  1027a6:	59f8                	lw	a4,116(a1)
  1027a8:	3c89                	jal	1021fa <Te3+0x1de>
  1027aa:	27eeeb13          	ori	s6,t4,638
  1027ae:	cea9                	beqz	a3,102808 <Td0+0x3ec>
  1027b0:	c935                	beqz	a0,102824 <Td1+0x8>
  1027b2:	b761                	j	10273a <Td0+0x31e>
  1027b4:	e5ed                	bnez	a1,10289e <Td1+0x82>
  1027b6:	e11c                	fsw	fa5,0(a0)
  1027b8:	b13c                	fsd	fa5,96(a0)
  1027ba:	df597a47          	fmsub.q	fs4,fs2,fs5,fs11
  1027be:	9cd2                	add	s9,s9,s4
  1027c0:	55f2733f 1814ce79 	0x1814ce7955f2733f
  1027c8:	73c737bf 53f7cdea 	0x53f7cdea73c737bf
  1027d0:	5ffdaa5b          	0x5ffdaa5b
  1027d4:	6f14                	flw	fa3,24(a4)
  1027d6:	df3d                	beqz	a4,102754 <Td0+0x338>
  1027d8:	db86                	sw	ra,244(sp)
  1027da:	7844                	flw	fs1,52(s0)
  1027dc:	f381                	bnez	a5,1026dc <Td0+0x2c0>
  1027de:	c43ecaaf          	0xc43ecaaf
  1027e2:	b968                	fsd	fa0,240(a0)
  1027e4:	342c                	fld	fa1,104(s0)
  1027e6:	3824                	fld	fs1,112(s0)
  1027e8:	405f c2a3 c372      	0xc372c2a3405f
  1027ee:	161d                	addi	a2,a2,-25
  1027f0:	250c                	fld	fa1,8(a0)
  1027f2:	bce2                	fsd	fs8,120(sp)
  1027f4:	283c498b          	0x283c498b
  1027f8:	9541                	srai	a0,a0,0x30
  1027fa:	ff0d                	bnez	a4,102734 <Td0+0x318>
  1027fc:	0171                	addi	sp,sp,28
  1027fe:	39a8                	fld	fa0,112(a1)
  102800:	b3de                	fsd	fs7,480(sp)
  102802:	080c                	addi	a1,sp,16
  102804:	e49c                	fsw	fa5,8(s1)
  102806:	d8b4                	sw	a3,112(s1)
  102808:	c190                	sw	a2,0(a1)
  10280a:	6456                	flw	fs0,84(sp)
  10280c:	8461                	srai	s0,s0,0x18
  10280e:	b6707bcb          	fnmsub.q	fs7,ft0,ft7,fs6
  102812:	d532                	sw	a2,168(sp)
  102814:	5c74                	lw	a3,124(s0)
  102816:	486c                	lw	a1,84(s0)
  102818:	5742                	lw	a4,48(sp)
  10281a:	d0b8                	sw	a4,96(s1)

0010281c <Td1>:
static const u32 Td1[256] = {
  10281c:	5051f4a7          	0x5051f4a7
  102820:	4165                	li	sp,25
  102822:	537e                	lw	t1,252(sp)
  102824:	17a4                	addi	s1,sp,1000
  102826:	c31a                	sw	t1,132(sp)
  102828:	275e                	fld	fa4,464(sp)
  10282a:	963a                	add	a2,a2,a4
  10282c:	cb3bab6b          	0xcb3bab6b
  102830:	9d45                	0x9d45
  102832:	f11f fa58 abac      	0xabacfa58f11f
  102838:	934be303          	0x934be303
  10283c:	30fa                	fld	ft1,440(sp)
  10283e:	5520                	lw	s0,104(a0)
  102840:	766d                	lui	a2,0xffffb
  102842:	f6ad                	bnez	a3,1027ac <Td0+0x390>
  102844:	cc76                	sw	t4,24(sp)
  102846:	9188                	0x9188
  102848:	024c                	addi	a1,sp,260
  10284a:	25f5                	jal	102f36 <Td2+0x31a>
  10284c:	fc4fe5d7          	0xfc4fe5d7
  102850:	d7c52acb          	fnmsub.q	fs5,fa0,ft8,fs10,rdn
  102854:	3544                	fld	fs1,168(a0)
  102856:	8026                	c.mv	zero,s1
  102858:	8fb562a3          	0x8fb562a3
  10285c:	b15a                	fsd	fs6,160(sp)
  10285e:	49de                	lw	s3,212(sp)
  102860:	6725ba1b          	0x6725ba1b
  102864:	ea0e                	fsw	ft3,20(sp)
  102866:	9845                	andi	s0,s0,-15
  102868:	fec0                	fsw	fs0,60(a3)
  10286a:	e15d                	bnez	a0,102910 <Td1+0xf4>
  10286c:	2f75                	jal	103028 <Td3+0xc>
  10286e:	4cf002c3          	0x4cf002c3
  102872:	1281                	addi	t0,t0,-32
  102874:	a38d4697          	auipc	a3,0xa38d4
  102878:	d3f9                	beqz	a5,10283e <Td1+0x22>
  10287a:	8f5fc66b          	0x8f5fc66b
  10287e:	929ce703          	0x929ce703
  102882:	9515                	srai	a0,a0,0x25
  102884:	6d7a                	flw	fs10,156(sp)
  102886:	5259ebbf be83da95 	0xbe83da955259ebbf
  10288e:	2dd4                	fld	fa3,152(a1)
  102890:	7421                	lui	s0,0xfffe8
  102892:	d358                	sw	a4,36(a4)
  102894:	e069                	bnez	s0,102956 <Td1+0x13a>
  102896:	2949                	jal	102d28 <Td2+0x10c>
  102898:	c9c8                	sw	a0,20(a1)
  10289a:	448e                	lw	s1,192(sp)
  10289c:	c289                	beqz	a3,10289e <Td1+0x82>
  10289e:	6a75                	lui	s4,0x1d
  1028a0:	8e79                	and	a2,a2,a4
  1028a2:	78f4                	flw	fa3,116(s1)
  1028a4:	583e                	lw	a6,236(sp)
  1028a6:	6b99                	lui	s7,0x6
  1028a8:	b971                	j	102544 <Td0+0x128>
  1028aa:	e14fdd27          	0xe14fdd27
  1028ae:	b6be                	fsd	fa5,360(sp)
  1028b0:	88ad                	andi	s1,s1,11
  1028b2:	17f0                	addi	a2,sp,1004
  1028b4:	20ac                	fld	fa1,64(s1)
  1028b6:	66c9                	lui	a3,0x12
  1028b8:	ce3a                	sw	a4,28(sp)
  1028ba:	b47d                	j	102368 <Te3+0x34c>
  1028bc:	df4a                	sw	s2,188(sp)
  1028be:	1a311863          	bne	sp,gp,102a6e <Td1+0x252>
  1028c2:	82e5                	srli	a3,a3,0x19
  1028c4:	60975133          	0x60975133
  1028c8:	537f                	0x537f
  1028ca:	4562                	lw	a0,24(sp)
  1028cc:	e0b16477          	0xe0b16477
  1028d0:	6bae                	flw	fs7,200(sp)
  1028d2:	81a084bb          	0x81a084bb
  1028d6:	1cfe                	slli	s9,s9,0x3f
  1028d8:	94f9082b          	0x94f9082b
  1028dc:	4868                	lw	a0,84(s0)
  1028de:	5870                	lw	a2,116(s0)
  1028e0:	45fd                	li	a1,31
  1028e2:	de6c198f          	0xde6c198f
  1028e6:	8794                	0x8794
  1028e8:	7bf8                	flw	fa4,116(a5)
  1028ea:	b752                	fsd	fs4,424(sp)
  1028ec:	23ab73d3          	0x23ab73d3
  1028f0:	4b02                	lw	s6,0(sp)
  1028f2:	e272                	fsw	ft8,4(sp)
  1028f4:	57e31f8f          	0x57e31f8f
  1028f8:	2a6655ab          	0x2a6655ab
  1028fc:	eb28                	fsw	fa0,80(a4)
  1028fe:	07b2                	slli	a5,a5,0xc
  102900:	b5c2                	fsd	fa6,232(sp)
  102902:	c57b032f          	0xc57b032f
  102906:	9a86                	add	s5,s5,ra
  102908:	3708                	fld	fa0,40(a4)
  10290a:	2887a5d3          	0x2887a5d3
  10290e:	f230                	fsw	fa2,96(a2)
  102910:	bfa5                	j	102888 <Td1+0x6c>
  102912:	036ab223          	0x36ab223
  102916:	ba02                	fsd	ft0,304(sp)
  102918:	1682                	slli	a3,a3,0x20
  10291a:	5ced                	li	s9,-5
  10291c:	cf1c                	sw	a5,24(a4)
  10291e:	2b8a                	fld	fs7,128(sp)
  102920:	79b4                	flw	fa3,112(a1)
  102922:	07f292a7          	0x7f292a7
  102926:	69e2f0f3          	csrrci	ra,0x69e,5
  10292a:	a14e                	fsd	fs3,128(sp)
  10292c:	daf4                	sw	a3,116(a3)
  10292e:	cd65                	beqz	a0,102a26 <Td1+0x20a>
  102930:	05be                	slli	a1,a1,0xf
  102932:	d506                	sw	ra,168(sp)
  102934:	3462                	fld	fs0,56(sp)
  102936:	1fd1                	addi	t6,t6,-12
  102938:	a6fe                	fsd	ft11,328(sp)
  10293a:	8ac4                	0x8ac4
  10293c:	9d342e53          	0x9d342e53
  102940:	f355                	bnez	a4,1028e4 <Td1+0xc8>
  102942:	a0a2                	fsd	fs0,64(sp)
  102944:	8ae1                	andi	a3,a3,24
  102946:	3205                	jal	102266 <Te3+0x24a>
  102948:	75a4f6eb          	0x75a4f6eb
  10294c:	83ec                	0x83ec
  10294e:	60ef390b          	0x60ef390b
  102952:	aa40                	fsd	fs0,144(a2)
  102954:	719f 065e 6e10      	0x6e10065e719f
  10295a:	51bd                	li	gp,-17
  10295c:	218a                	fld	ft3,128(sp)
  10295e:	f93e                	fsw	fa5,176(sp)
  102960:	dd06                	sw	ra,184(sp)
  102962:	3d96                	fld	fs11,352(sp)
  102964:	3e05                	jal	102494 <Td0+0x78>
  102966:	aedd                	j	102d5c <Td2+0x140>
  102968:	e6bd                	bnez	a3,1029d6 <Td1+0x1ba>
  10296a:	464d                	li	a2,19
  10296c:	548d                	li	s1,-29
  10296e:	b591                	j	1027b2 <Td0+0x396>
  102970:	c45d                	beqz	s0,102a1e <Td1+0x202>
  102972:	0571                	addi	a0,a0,28
  102974:	06d4                	addi	a3,sp,836
  102976:	6f04                	flw	fs1,24(a4)
  102978:	5015                	c.li	zero,-27
  10297a:	ff60                	fsw	fs0,124(a4)
  10297c:	241998fb          	0x241998fb
  102980:	bde9                	j	10285a <Td1+0x3e>
  102982:	97d6                	add	a5,a5,s5
  102984:	cc894043          	0xcc894043
  102988:	d99e                	sw	t2,240(sp)
  10298a:	e8427767          	0xe8427767
  10298e:	bdb0                	fsd	fa2,120(a1)
  102990:	8807898b          	0x8807898b
  102994:	38e7195b          	0x38e7195b
  102998:	c8ee                	sw	s11,80(sp)
  10299a:	db79                	beqz	a4,102970 <Td1+0x154>
  10299c:	7c0a                	flw	fs8,160(sp)
  10299e:	47a1                	li	a5,8
  1029a0:	e97c420f          	0xe97c420f
  1029a4:	841e                	mv	s0,t2
  1029a6:	c9f8                	sw	a4,84(a1)
  1029a8:	0000                	unimp
  1029aa:	0000                	unimp
  1029ac:	8086                	mv	ra,ra
  1029ae:	8309                	srli	a4,a4,0x2
  1029b0:	2bed                	jal	102faa <Td2+0x38e>
  1029b2:	4832                	lw	a6,12(sp)
  1029b4:	1170                	addi	a2,sp,172
  1029b6:	ac1e                	fsd	ft7,24(sp)
  1029b8:	5a72                	lw	s4,60(sp)
  1029ba:	4e6c                	lw	a1,92(a2)
  1029bc:	0eff                	0xeff
  1029be:	fbfd                	bnez	a5,1029b4 <Td1+0x198>
  1029c0:	8538                	0x8538
  1029c2:	aed5560f          	0xaed5560f
  1029c6:	1e3d                	addi	t3,t3,-17
  1029c8:	2d39                	jal	102fe6 <Td2+0x3ca>
  1029ca:	2736                	fld	fa4,328(sp)
  1029cc:	0fd9                	addi	t6,t6,22
  1029ce:	640a                	flw	fs0,128(sp)
  1029d0:	5ca6                	lw	s9,104(sp)
  1029d2:	2168                	fld	fa0,192(a0)
  1029d4:	5b54                	lw	a3,52(a4)
  1029d6:	362ed19b          	0x362ed19b
  1029da:	3a24                	fld	fs1,112(a2)
  1029dc:	b10c0a67          	jalr	s4,-1264(s8) # 744eab10 <_stack_start+0x742eab10>
  1029e0:	0f9357e7          	0xf9357e7
  1029e4:	ee96                	fsw	ft5,92(sp)
  1029e6:	d2b4                	sw	a3,96(a3)
  1029e8:	9b91                	andi	a5,a5,-28
  1029ea:	c0c59e1b          	0xc0c59e1b
  1029ee:	4f80                	lw	s0,24(a5)
  1029f0:	dc20                	sw	s0,120(s0)
  1029f2:	a261                	j	102b7a <Td1+0x35e>
  1029f4:	695a774b          	fnmsub.s	fa4,fs4,fs5,fa3
  1029f8:	121a                	slli	tp,tp,0x26
  1029fa:	161c                	addi	a5,sp,800
  1029fc:	93ba                	add	t2,t2,a4
  1029fe:	0ae2                	slli	s5,s5,0x18
  102a00:	a02a                	fsd	fa0,0(sp)
  102a02:	e5c0                	fsw	fs0,12(a1)
  102a04:	22e0                	fld	fs0,192(a3)
  102a06:	433c                	lw	a5,64(a4)
  102a08:	1d121b17          	auipc	s6,0x1d121
  102a0c:	090d                	addi	s2,s2,3
  102a0e:	0b0e                	slli	s6,s6,0x3
  102a10:	adf28bc7          	0xadf28bc7
  102a14:	b6a8                	fsd	fa0,104(a3)
  102a16:	b92d                	j	102650 <Td0+0x234>
  102a18:	1ea9                	addi	t4,t4,-22
  102a1a:	c814                	sw	a3,16(s0)
  102a1c:	f119                	bnez	a0,102922 <Td1+0x106>
  102a1e:	75078557          	0x75078557
  102a22:	99dd4caf          	0x99dd4caf
  102a26:	bbee                	fsd	fs11,496(sp)
  102a28:	7f60                	flw	fs0,124(a4)
  102a2a:	0126fda3          	0x126fda3
  102a2e:	72f59ff7          	0x72f59ff7
  102a32:	bc5c                	fsd	fa5,184(s0)
  102a34:	c544663b          	0xc544663b
  102a38:	fb7e                	fsw	ft11,180(sp)
  102a3a:	4329345b          	0x4329345b
  102a3e:	23c6768b          	0x23c6768b
  102a42:	edfcdccb          	0xedfcdccb
  102a46:	68b6                	flw	fa7,76(sp)
  102a48:	e4f1                	bnez	s1,102b14 <Td1+0x2f8>
  102a4a:	63b8                	flw	fa4,64(a5)
  102a4c:	31dc                	fld	fa5,160(a1)
  102a4e:	6385cad7          	0x6385cad7
  102a52:	1042                	c.slli	zero,0x30
  102a54:	9722                	add	a4,a4,s0
  102a56:	c6114013          	xori	zero,sp,-927
  102a5a:	2084                	fld	fs1,0(s1)
  102a5c:	4a24                	lw	s1,80(a2)
  102a5e:	7d85                	lui	s11,0xfffe1
  102a60:	bb3d                	j	10279e <Td0+0x382>
  102a62:	f8d2                	fsw	fs4,112(sp)
  102a64:	f932                	fsw	fa2,176(sp)
  102a66:	11ae                	slli	gp,gp,0x2b
  102a68:	29a1                	jal	102ec0 <Td2+0x2a4>
  102a6a:	9e2f6dc7          	fmsub.q	fs11,ft10,ft2,fs3,unknown
  102a6e:	4b1d                	li	s6,7
  102a70:	b230                	fsd	fa2,96(a2)
  102a72:	f3dc                	fsw	fa5,36(a5)
  102a74:	8652                	mv	a2,s4
  102a76:	ec0d                	bnez	s0,102ab0 <Td1+0x294>
  102a78:	d077c1e3          	blt	a5,t2,10277a <Td0+0x35e>
  102a7c:	b316                	fsd	ft5,416(sp)
  102a7e:	70b96c2b          	0x70b96c2b
  102a82:	99a9                	andi	a1,a1,-22
  102a84:	9448                	0x9448
  102a86:	fa11                	bnez	a2,10299a <Td1+0x17e>
  102a88:	e964                	fsw	fs1,84(a0)
  102a8a:	fc8c2247          	0xfc8c2247
  102a8e:	c4a8                	sw	a0,72(s1)
  102a90:	1aa0f03f d8567d2c 	0xd8567d2c1aa0f03f
  102a98:	3390                	fld	fa2,32(a5)
  102a9a:	ef22                	fsw	fs0,156(sp)
  102a9c:	494e                	lw	s2,208(sp)
  102a9e:	38d1c787          	flq	fa5,909(gp) # ffff738d <_stack_start+0xffdf738d>
  102aa2:	c1d9                	beqz	a1,102b28 <Td1+0x30c>
  102aa4:	caa2                	sw	s0,84(sp)
  102aa6:	fe8c                	fsw	fa1,56(a3)
  102aa8:	3698d40b          	0x3698d40b
  102aac:	f581                	bnez	a1,1029b4 <Td1+0x198>
  102aae:	cfa6                	sw	s1,220(sp)
  102ab0:	7ade                	flw	fs5,244(sp)
  102ab2:	28a5                	jal	102b2a <Td1+0x30e>
  102ab4:	b78e                	fsd	ft3,488(sp)
  102ab6:	26da                	fld	fa3,400(sp)
  102ab8:	a43fadbf e42c3a9d 	0xe42c3a9da43fadbf
  102ac0:	7892                	flw	fa7,36(sp)
  102ac2:	0d50                	addi	a2,sp,660
  102ac4:	5fcc                	lw	a1,60(a5)
  102ac6:	9b6a                	add	s6,s6,s10
  102ac8:	7e46                	flw	ft8,112(sp)
  102aca:	6254                	flw	fa3,4(a2)
  102acc:	c2f68d13          	addi	s10,a3,-977 # 11c2f <_stack_len+0x9c2f>
  102ad0:	d8b8                	sw	a4,112(s1)
  102ad2:	e890                	fsw	fa2,16(s1)
  102ad4:	5e2e39f7          	0x5e2e39f7
  102ad8:	f582c3af          	0xf582c3af
  102adc:	5d80                	lw	s0,56(a1)
  102ade:	be9f d093 7c69      	0x7c69d093be9f
  102ae4:	d52d                	beqz	a0,102a4e <Td1+0x232>
  102ae6:	2512a96f          	jal	s2,12d536 <_bss_end+0x29fde>
  102aea:	ac99b3cf          	0xac99b3cf
  102aee:	3bc8                	fld	fa0,176(a5)
  102af0:	187d                	addi	a6,a6,-1
  102af2:	a710                	fsd	fa2,8(a4)
  102af4:	6ee89c63          	bne	a7,a4,1031ec <Td3+0x1d0>
  102af8:	7bdb3bbb          	0x7bdb3bbb
  102afc:	2678                	fld	fa4,200(a2)
  102afe:	09cd                	addi	s3,s3,19
  102b00:	5918                	lw	a4,48(a0)
  102b02:	f46e                	fsw	fs11,40(sp)
  102b04:	01ec9ab7          	lui	s5,0x1ec9
  102b08:	4f9a                	lw	t6,132(sp)
  102b0a:	956ea883          	lw	a7,-1706(t4)
  102b0e:	65e6                	flw	fa1,88(sp)
  102b10:	ffe6                	fsw	fs9,252(sp)
  102b12:	7eaa                	flw	ft9,168(sp)
  102b14:	0821bccf          	fnmadd.s	fs9,ft3,ft2,ft1,rup
  102b18:	15e8                	addi	a0,sp,748
  102b1a:	e79be6ef          	jal	a3,c1992 <_stack_len+0xb9992>
  102b1e:	d9ba                	sw	a4,240(sp)
  102b20:	6f36                	flw	ft10,76(sp)
  102b22:	ce4a                	sw	s2,28(sp)
  102b24:	9f09                	0x9f09
  102b26:	d4ea                	sw	s10,104(sp)
  102b28:	b07c                	fsd	fa5,224(s0)
  102b2a:	d629                	beqz	a2,102a74 <Td1+0x258>
  102b2c:	a4b2                	fsd	fa2,72(sp)
  102b2e:	af31                	j	10324a <Td3+0x22e>
  102b30:	312a3f23          	0x312a3f23
  102b34:	a594                	fsd	fa3,8(a1)
  102b36:	30c6                	fld	ft1,112(sp)
  102b38:	a266                	fsd	fs9,256(sp)
  102b3a:	c035                	beqz	s0,102b9e <Td1+0x382>
  102b3c:	4ebc                	lw	a5,88(a3)
  102b3e:	3774                	fld	fa3,232(a4)
  102b40:	82ca                	mv	t0,s2
  102b42:	a6fc                	fsd	fa5,200(a3)
  102b44:	90d0                	0x90d0
  102b46:	b0e0                	fsd	fs0,224(s1)
  102b48:	a7d8                	fsd	fa4,136(a5)
  102b4a:	04981533          	0x4981533
  102b4e:	4af1                	li	s5,28
  102b50:	ecda                	fsw	fs6,88(sp)
  102b52:	f741                	bnez	a4,102ada <Td1+0x2be>
  102b54:	cd50                	sw	a2,28(a0)
  102b56:	0e7f                	0xe7f
  102b58:	91f6                	add	gp,gp,t4
  102b5a:	4dd62f17          	auipc	t5,0x4dd62
  102b5e:	8d76                	mv	s10,t4
  102b60:	efb0                	fsw	fa2,88(a5)
  102b62:	aa4d4d43          	fmadd.d	fs10,fs10,ft4,fs5,rmm
  102b66:	54cc                	lw	a1,44(s1)
  102b68:	9604                	0x9604
  102b6a:	dfe4                	sw	s1,124(a5)
  102b6c:	d1b5                	beqz	a1,102ad0 <Td1+0x2b4>
  102b6e:	e39e                	fsw	ft7,196(sp)
  102b70:	6a88                	flw	fa0,16(a3)
  102b72:	1b4c                	addi	a1,sp,436
  102b74:	2c1f b8c1 6551      	0x6551b8c12c1f
  102b7a:	7f46                	flw	ft10,112(sp)
  102b7c:	5eea                	lw	t4,184(sp)
  102b7e:	049d                	addi	s1,s1,7
  102b80:	8c35                	xor	s0,s0,a3
  102b82:	5d01                	li	s10,-32
  102b84:	8774                	0x8774
  102b86:	73fa                	flw	ft7,188(sp)
  102b88:	0b41                	addi	s6,s6,16
  102b8a:	671d2efb          	0x671d2efb
  102b8e:	dbd25ab3          	0xdbd25ab3
  102b92:	5292                	lw	t0,36(sp)
  102b94:	1056                	c.slli	zero,0x35
  102b96:	33e9                	jal	102960 <Td1+0x144>
  102b98:	136dd647          	fmsub.d	fa2,fs11,fs6,ft2,unknown
  102b9c:	d761                	beqz	a4,102b64 <Td1+0x348>
  102b9e:	8c9a                	mv	s9,t1
  102ba0:	a10c                	fsd	fa1,0(a0)
  102ba2:	f8147a37          	lui	s4,0xf8147
  102ba6:	8e59                	or	a2,a2,a4
  102ba8:	133c                	addi	a5,sp,424
  102baa:	a92789eb          	0xa92789eb
  102bae:	eece                	fsw	fs3,92(sp)
  102bb0:	61c9                	lui	gp,0x12
  102bb2:	1ce535b7          	lui	a1,0x1ce53
  102bb6:	ede1                	bnez	a1,102c8e <Td2+0x72>
  102bb8:	47b1                	li	a5,12
  102bba:	3c7a                	fld	fs8,440(sp)
  102bbc:	d2df 599c f273      	0xf273599cd2df
  102bc2:	3f55                	jal	102b76 <Td1+0x35a>
  102bc4:	14ce                	slli	s1,s1,0x33
  102bc6:	7918                	flw	fa4,48(a0)
  102bc8:	bf73c737          	lui	a4,0xbf73c
  102bcc:	f7cd                	bnez	a5,102b76 <Td1+0x35a>
  102bce:	fdaaea53          	0xfdaaea53
  102bd2:	5b5f 3d6f 14df      	0x14df3d6f5b5f
  102bd8:	867844db          	0x867844db
  102bdc:	81caaff3          	csrrs	t6,0x81c,s5
  102be0:	68c4                	flw	fs1,20(s1)
  102be2:	3eb9                	jal	102740 <Td0+0x324>
  102be4:	2434                	fld	fa3,72(s0)
  102be6:	2c38                	fld	fa4,88(s0)
  102be8:	a340                	fsd	fs0,128(a4)
  102bea:	5fc2                	lw	t6,48(sp)
  102bec:	72161dc3          	fmadd.d	fs11,fa2,ft1,fa4,rtz
  102bf0:	e225                	bnez	a2,102c50 <Td2+0x34>
  102bf2:	0cbc                	addi	a5,sp,600
  102bf4:	3c49                	jal	102686 <Td0+0x26a>
  102bf6:	8b28                	0x8b28
  102bf8:	0d95                	addi	s11,s11,5
  102bfa:	41ff                	0x41ff
  102bfc:	a801                	j	102c0c <Td1+0x3f0>
  102bfe:	7139                	addi	sp,sp,-64
  102c00:	de080cb3          	0xde080cb3
  102c04:	b4e4                	fsd	fs1,232(s1)
  102c06:	9cd8                	0x9cd8
  102c08:	56c1                	li	a3,-16
  102c0a:	9064                	0x9064
  102c0c:	cb84                	sw	s1,16(a5)
  102c0e:	32b6617b          	0x32b6617b
  102c12:	70d5                	lui	ra,0xffff5
  102c14:	6c5c                	flw	fa5,28(s0)
  102c16:	7448                	flw	fa0,44(s0)
  102c18:	42d0b857          	0x42d0b857

00102c1c <Td2>:
static const u32 Td2[256] = {
  102c1c:	51f4                	lw	a3,100(a1)
  102c1e:	a750                	fsd	fa2,136(a4)
  102c20:	7e41                	lui	t3,0xffff0
  102c22:	1a176553          	fdiv.d	fa0,fa4,ft1,unknown
  102c26:	3a27a4c3          	fmadd.d	fs1,fa5,ft2,ft7,rdn
  102c2a:	5e96                	lw	t4,100(sp)
  102c2c:	6bcb3bab          	0x6bcb3bab
  102c30:	1f9d                	addi	t6,t6,-25
  102c32:	45f1                	li	a1,28
  102c34:	acfa                	fsd	ft10,88(sp)
  102c36:	4be358ab          	0x4be358ab
  102c3a:	20300393          	li	t2,515
  102c3e:	fa55                	bnez	a2,102bf2 <Td1+0x3d6>
  102c40:	ad76                	fsd	ft9,152(sp)
  102c42:	6df6                	flw	fs11,92(sp)
  102c44:	88cc                	0x88cc
  102c46:	7691                	lui	a3,0xfffe4
  102c48:	f502                	fsw	ft0,168(sp)
  102c4a:	4c25                	li	s8,9
  102c4c:	4fe5                	li	t6,25
  102c4e:	d7fc                	sw	a5,108(a5)
  102c50:	c52a                	sw	a0,136(sp)
  102c52:	2635cbd7          	0x2635cbd7
  102c56:	4480                	lw	s0,8(s1)
  102c58:	b562                	fsd	fs8,168(sp)
  102c5a:	deb1a38f          	0xdeb1a38f
  102c5e:	5a49                	li	s4,-14
  102c60:	25ba                	fld	fa1,392(sp)
  102c62:	45ea1b67          	0x45ea1b67
  102c66:	0e98                	addi	a4,sp,848
  102c68:	5dfe                	lw	s11,252(sp)
  102c6a:	c0e1                	beqz	s1,102d2a <Td2+0x10e>
  102c6c:	7502c32f          	0x7502c32f
  102c70:	814c                	0x814c
  102c72:	f012                	fsw	ft4,32(sp)
  102c74:	8d46                	mv	s10,a7
  102c76:	6bd397a3          	sh	t4,1711(t2) # 11303d05 <_stack_start+0x11103d05>
  102c7a:	f9c6                	fsw	fa7,240(sp)
  102c7c:	5fe7038f          	0x5fe7038f
  102c80:	1592                	slli	a1,a1,0x24
  102c82:	9c95                	0x9c95
  102c84:	bf6d                	j	102c3e <Td2+0x22>
  102c86:	95527aeb          	0x95527aeb
  102c8a:	59da                	lw	s3,180(sp)
  102c8c:	d4be                	sw	a5,104(sp)
  102c8e:	832d                	srli	a4,a4,0xb
  102c90:	5874                	lw	a3,116(s0)
  102c92:	49e021d3          	0x49e021d3
  102c96:	6929                	lui	s2,0xa
  102c98:	8ec9                	or	a3,a3,a0
  102c9a:	c844                	sw	s1,20(s0)
  102c9c:	75c2                	flw	fa1,48(sp)
  102c9e:	896a                	mv	s2,s10
  102ca0:	f48e                	fsw	ft3,104(sp)
  102ca2:	7978                	flw	fa4,116(a0)
  102ca4:	9958                	0x9958
  102ca6:	27b93e6b          	0x27b93e6b
  102caa:	71dd                	lui	gp,0xffff7
  102cac:	bee1                	j	102884 <Td1+0x68>
  102cae:	4fb6                	lw	t6,76(sp)
  102cb0:	f088                	fsw	fa0,32(s1)
  102cb2:	c920ad17          	auipc	s10,0xc920a
  102cb6:	ac66                	fsd	fs9,24(sp)
  102cb8:	7dce                	flw	fs11,240(sp)
  102cba:	3ab4                	fld	fa3,112(a3)
  102cbc:	63df 4a18 e51a      	0xe51a4a1863df
  102cc2:	3182                	fld	ft3,32(sp)
  102cc4:	9751                	srai	a4,a4,0x34
  102cc6:	3360                	fld	fs0,224(a4)
  102cc8:	7f456253          	0x7f456253
  102ccc:	b164                	fsd	fs1,224(a0)
  102cce:	77e0                	flw	fs0,108(a5)
  102cd0:	ae84bb6b          	0xae84bb6b
  102cd4:	fe81                	bnez	a3,102bec <Td1+0x3d0>
  102cd6:	a01c                	fsd	fa5,0(s0)
  102cd8:	f908                	fsw	fa0,48(a0)
  102cda:	2b94                	fld	fa3,16(a5)
  102cdc:	7048                	flw	fa0,36(s0)
  102cde:	6858                	flw	fa4,20(s0)
  102ce0:	8f45                	or	a4,a4,s1
  102ce2:	fd19                	bnez	a0,102c00 <Td1+0x3e4>
  102ce4:	94de                	add	s1,s1,s7
  102ce6:	527b6c87          	0x527b6c87
  102cea:	ab73f8b7          	lui	a7,0xab73f
  102cee:	724bd323          	0x724bd323
  102cf2:	02e2                	slli	t0,t0,0x18
  102cf4:	e31f 8f57 6655      	0x66558f57e31f
  102cfa:	ab2a                	fsd	fa0,400(sp)
  102cfc:	2807b2eb          	0x2807b2eb
  102d00:	2fb5                	jal	10347c <Td4+0x60>
  102d02:	86c5c203          	lbu	tp,-1940(a1) # 1ce5286c <_stack_start+0x1cc5286c>
  102d06:	7b9a                	flw	fs7,164(sp)
  102d08:	08a5d337          	lui	t1,0x8a5d
  102d0c:	3028                	fld	fa0,96(s0)
  102d0e:	87f2                	mv	a5,t3
  102d10:	a5b223bf 6aba0203 	0x6aba0203a5b223bf
  102d18:	ed16                	fsw	ft5,152(sp)
  102d1a:	825c                	0x825c
  102d1c:	1c2b8acf          	0x1c2b8acf
  102d20:	a779                	j	1034ae <Td4+0x92>
  102d22:	b492                	fsd	ft4,104(sp)
  102d24:	f2f0f307          	0xf2f0f307
  102d28:	4e69                	li	t3,26
  102d2a:	e2a1                	bnez	a3,102d6a <Td2+0x14e>
  102d2c:	65da                	flw	fa1,148(sp)
  102d2e:	f4cd                	bnez	s1,102cd8 <Td2+0xbc>
  102d30:	0605                	addi	a2,a2,1
  102d32:	bed5                	j	102926 <Td1+0x10a>
  102d34:	d134                	sw	a3,96(a0)
  102d36:	621f c4a6 fe8a      	0xfe8ac4a6621f
  102d3c:	342e                	fld	fs0,232(sp)
  102d3e:	539d                	li	t2,-25
  102d40:	55a0a2f3          	csrrs	t0,0x55a,ra
  102d44:	058a                	slli	a1,a1,0x2
  102d46:	e132                	fsw	fa2,128(sp)
  102d48:	a4f6                	fsd	ft9,72(sp)
  102d4a:	eb75                	bnez	a4,102e3e <Td2+0x222>
  102d4c:	ec390b83          	lb	s7,-317(s2) # 9ec3 <_stack_len+0x1ec3>
  102d50:	4060                	lw	s0,68(s0)
  102d52:	efaa                	fsw	fa0,220(sp)
  102d54:	5e71                	li	t3,-4
  102d56:	9f06                	add	t5,t5,ra
  102d58:	bd6e                	fsd	fs11,184(sp)
  102d5a:	1051                	c.nop	-12
  102d5c:	3e21                	jal	102874 <Td1+0x58>
  102d5e:	8af9                	andi	a3,a3,30
  102d60:	96dd                	srai	a3,a3,0x37
  102d62:	063d                	addi	a2,a2,15
  102d64:	dd3e                	sw	a5,184(sp)
  102d66:	05ae                	slli	a1,a1,0xb
  102d68:	4de6                	lw	s11,88(sp)
  102d6a:	bd46                	fsd	fa7,184(sp)
  102d6c:	9154                	0x9154
  102d6e:	8db5                	xor	a1,a1,a3
  102d70:	71c4                	flw	fs1,36(a1)
  102d72:	5d05                	li	s10,-31
  102d74:	0406                	slli	s0,s0,0x1
  102d76:	6050d46f          	jal	s0,110b7a <_bss_end+0xd622>
  102d7a:	15ff                	0x15ff
  102d7c:	1998                	addi	a4,sp,240
  102d7e:	fb24                	fsw	fs1,112(a4)
  102d80:	d6bd                	beqz	a3,102cee <Td2+0xd2>
  102d82:	8940e997          	auipc	s3,0x8940e
  102d86:	43cc                	lw	a1,4(a5)
  102d88:	67d9                	lui	a5,0x16
  102d8a:	b0e89e77          	0xb0e89e77
  102d8e:	42bd                	li	t0,15
  102d90:	0789                	addi	a5,a5,2
  102d92:	8b88                	0x8b88
  102d94:	e719                	bnez	a4,102da2 <Td2+0x186>
  102d96:	5b38                	lw	a4,112(a4)
  102d98:	79c8                	flw	fa0,52(a1)
  102d9a:	a17ceedb          	0xa17ceedb
  102d9e:	7c420a47          	0x7c420a47
  102da2:	0fe9                	addi	t6,t6,26
  102da4:	f884                	fsw	fs1,48(s1)
  102da6:	1ec9                	addi	t4,t4,-14
  102da8:	0000                	unimp
  102daa:	0000                	unimp
  102dac:	0980                	addi	s0,sp,208
  102dae:	322b8683          	lb	a3,802(s7) # 6322 <_min_stack+0x4322>
  102db2:	ed48                	fsw	fa0,28(a0)
  102db4:	1e11                	addi	t3,t3,-28
  102db6:	70ac                	flw	fa1,96(s1)
  102db8:	6c5a                	flw	fs8,148(sp)
  102dba:	724e                	flw	ft4,240(sp)
  102dbc:	fd0e                	fsw	ft3,184(sp)
  102dbe:	0f85fffb          	0xf85fffb
  102dc2:	3856                	fld	fa6,368(sp)
  102dc4:	3dae                	fld	fs11,232(sp)
  102dc6:	d51e                	sw	t2,168(sp)
  102dc8:	362d                	jal	1028f2 <Td1+0xd6>
  102dca:	0a0f3927          	fsd	ft0,178(t5) # 4de64c0c <_stack_start+0x4dc64c0c>
  102dce:	d964                	sw	s1,116(a0)
  102dd0:	685c                	flw	fa5,20(s0)
  102dd2:	a621                	j	1030da <Td3+0xbe>
  102dd4:	54d19b5b          	0x54d19b5b
  102dd8:	2436                	fld	fs0,328(sp)
  102dda:	2e3a                	fld	ft8,392(sp)
  102ddc:	0c0a                	slli	s8,s8,0x2
  102dde:	67b1                	lui	a5,0xc
  102de0:	e70f9357          	0xe70f9357
  102de4:	b4ee                	fsd	fs11,104(sp)
  102de6:	96d2                	add	a3,a3,s4
  102de8:	919e1b9b          	0x919e1b9b
  102dec:	80c0                	0x80c0
  102dee:	61dcc54f          	fnmadd.s	fa0,fs9,ft9,fa2,rmm
  102df2:	20a2                	fld	ft1,8(sp)
  102df4:	4b695a77          	0x4b695a77
  102df8:	1c12                	slli	s8,s8,0x24
  102dfa:	1a16                	slli	s4,s4,0x25
  102dfc:	ba0ae293          	ori	t0,s5,-1120
  102e00:	c0a0                	sw	s0,64(s1)
  102e02:	2ae5                	jal	102ffa <Td2+0x3de>
  102e04:	3c22                	fld	fs8,40(sp)
  102e06:	121be043          	fmadd.d	ft0,fs7,ft1,ft2,unknown
  102e0a:	171d                	addi	a4,a4,-25
  102e0c:	0e09                	addi	t3,t3,2
  102e0e:	f28b0d0b          	0xf28b0d0b
  102e12:	c7ad                	beqz	a5,102e7c <Td2+0x260>
  102e14:	2db6                	fld	fs11,328(sp)
  102e16:	a8b9                	j	102e74 <Td2+0x258>
  102e18:	141e                	slli	s0,s0,0x27
  102e1a:	a9c8                	fsd	fa0,144(a1)
  102e1c:	57f1                	li	a5,-4
  102e1e:	1985                	addi	s3,s3,-31
  102e20:	af75                	j	1035dc <_bss_end+0x84>
  102e22:	074c                	addi	a1,sp,900
  102e24:	ee99                	bnez	a3,102e42 <Td2+0x226>
  102e26:	a37fddbb          	0xa37fddbb
  102e2a:	60fd                	lui	ra,0x1f
  102e2c:	f701                	bnez	a4,102d34 <Td2+0x118>
  102e2e:	269f 5c72 f5bc      	0xf5bc5c72269f
  102e34:	4466                	lw	s0,88(sp)
  102e36:	3bc5                	jal	102c26 <Td2+0xa>
  102e38:	7e345bfb          	0x7e345bfb
  102e3c:	29768b43          	fmadd.s	fs6,fa3,fs7,ft5,rne
  102e40:	c6dccb23          	0xc6dccb23
  102e44:	b6ed                	j	102a2e <Td1+0x212>
  102e46:	fc68                	fsw	fa0,124(s0)
  102e48:	b8e4                	fsd	fs1,240(s1)
  102e4a:	d731f163          	bgeu	gp,s3,1023ac <Te3+0x390>
  102e4e:	dcca                	sw	s2,120(sp)
  102e50:	85104263          	bgtz	a7,101e94 <Te2+0x278>
  102e54:	22401397          	auipc	t2,0x22401
  102e58:	84c6                	mv	s1,a7
  102e5a:	1120                	addi	s0,sp,168
  102e5c:	854a                	mv	a0,s2
  102e5e:	247d                	jal	10310c <Td3+0xf0>
  102e60:	3df8d2bb          	0x3df8d2bb
  102e64:	aef9                	j	103242 <Td3+0x226>
  102e66:	3211                	jal	10276a <Td0+0x34e>
  102e68:	c729                	beqz	a4,102eb2 <Td2+0x296>
  102e6a:	a16d                	j	103314 <Td3+0x2f8>
  102e6c:	1d9e                	slli	s11,s11,0x27
  102e6e:	dcb22f4b          	0xdcb22f4b
  102e72:	0d8630f3          	csrrc	ra,0xd8,a2
  102e76:	52ec                	lw	a1,100(a3)
  102e78:	77c1                	lui	a5,0xffff0
  102e7a:	e3d0                	fsw	fa2,4(a5)
  102e7c:	166c2bb3          	0x166c2bb3
  102e80:	a970                	fsd	fa2,208(a0)
  102e82:	b999                	j	102ad8 <Td1+0x2bc>
  102e84:	1194                	addi	a3,sp,224
  102e86:	48fa                	lw	a7,156(sp)
  102e88:	47e9                	li	a5,26
  102e8a:	6422                	flw	fs0,8(sp)
  102e8c:	a8fc                	fsd	fa5,208(s1)
  102e8e:	8cc4                	0x8cc4
  102e90:	a0f0                	fsd	fa2,192(s1)
  102e92:	3f1a                	fld	ft10,416(sp)
  102e94:	567d                	li	a2,-1
  102e96:	2cd8                	fld	fa4,152(s1)
  102e98:	90ef2233          	0x90ef2233
  102e9c:	8749                	srai	a4,a4,0x12
  102e9e:	d9384ec7          	fmsub.s	ft9,fa6,fs3,fs11,rmm
  102ea2:	d1c1                	beqz	a1,102e22 <Td2+0x206>
  102ea4:	8cca                	mv	s9,s2
  102ea6:	a2fe                	fsd	ft11,320(sp)
  102ea8:	98d4                	0x98d4
  102eaa:	0b36                	slli	s6,s6,0xd
  102eac:	a6f5                	j	103298 <Td3+0x27c>
  102eae:	a57a81cf          	0xa57a81cf
  102eb2:	de28                	sw	a0,120(a2)
  102eb4:	8e26dab7          	lui	s5,0x8e26d
  102eb8:	3fad                	jal	102e32 <Td2+0x216>
  102eba:	bfa4                	fsd	fs1,120(a5)
  102ebc:	2c3a                	fld	fs8,392(sp)
  102ebe:	9de4                	0x9de4
  102ec0:	5078                	lw	a4,100(s0)
  102ec2:	920d                	srli	a2,a2,0x23
  102ec4:	6a5f cc9b 547e      	0x547ecc9b6a5f
  102eca:	4662                	lw	a2,24(sp)
  102ecc:	f68d                	bnez	a3,102df6 <Td2+0x1da>
  102ece:	13c2                	slli	t2,t2,0x30
  102ed0:	90d8                	0x90d8
  102ed2:	b8e8                	fsd	fa0,240(s1)
  102ed4:	2e39                	jal	1031f2 <Td3+0x1d6>
  102ed6:	f75e                	fsw	fs7,172(sp)
  102ed8:	aff582c3          	fmadd.q	ft5,fa1,ft11,fs5,rne
  102edc:	9f5d                	0x9f5d
  102ede:	80be                	mv	ra,a5
  102ee0:	69d0                	flw	fa2,20(a1)
  102ee2:	937c                	0x937c
  102ee4:	6fd5                	lui	t6,0x15
  102ee6:	2da9                	jal	103540 <rcon+0x24>
  102ee8:	cf25                	beqz	a4,102f60 <Td2+0x344>
  102eea:	c8ac12b3          	0xc8ac12b3
  102eee:	1018993b          	0x1018993b
  102ef2:	e89c7da7          	0xe89c7da7
  102ef6:	636e                	flw	ft6,216(sp)
  102ef8:	bb7bdb3b          	0xbb7bdb3b
  102efc:	cd26                	sw	s1,152(sp)
  102efe:	7809                	lui	a6,0xfffe2
  102f00:	6e59                	lui	t3,0x16
  102f02:	18f4                	addi	a3,sp,124
  102f04:	ec9a                	fsw	ft6,88(sp)
  102f06:	b701                	j	102e06 <Td2+0x1ea>
  102f08:	9aa8834f          	fnmadd.d	ft6,fa7,fa0,fs3,rne
  102f0c:	e695                	bnez	a3,102f38 <Td2+0x31c>
  102f0e:	6e65                	lui	t3,0x19
  102f10:	aaff                	0xaaff
  102f12:	e67e                	fsw	ft11,12(sp)
  102f14:	21bc                	fld	fa5,64(a1)
  102f16:	cf08                	sw	a0,24(a4)
  102f18:	ef15                	bnez	a4,102f54 <Td2+0x338>
  102f1a:	e8e6                	fsw	fs9,80(sp)
  102f1c:	9bd9bae7          	0x9bd9bae7
  102f20:	36ce4a6f          	jal	s4,1e728c <_bss_end+0xe3d34>
  102f24:	ea9f 09d4 29b0      	0x29b009d4ea9f
  102f2a:	7cd6                	flw	fs9,116(sp)
  102f2c:	31a4                	fld	fs1,96(a1)
  102f2e:	2a3fb2af          	0x2a3fb2af
  102f32:	2331                	jal	10343e <Td4+0x22>
  102f34:	c6a5                	beqz	a3,102f9c <Td2+0x380>
  102f36:	9430                	0x9430
  102f38:	35a2                	fld	fa1,40(sp)
  102f3a:	66c0                	flw	fs0,12(a3)
  102f3c:	744e                	flw	fs0,240(sp)
  102f3e:	fc82bc37          	lui	s8,0xfc82b
  102f42:	caa6                	sw	s1,84(sp)
  102f44:	e090                	fsw	fa2,0(s1)
  102f46:	d0b0                	sw	a2,96(s1)
  102f48:	d81533a7          	fsd	ft1,-633(a0) # 18d87 <_stack_len+0x10d87>
  102f4c:	f104                	fsw	fs1,32(a0)
  102f4e:	984a                	add	a6,a6,s2
  102f50:	41ec                	lw	a1,68(a1)
  102f52:	7fcddaf7          	0x7fcddaf7
  102f56:	500e                	0x500e
  102f58:	1791                	addi	a5,a5,-28
  102f5a:	764df62f          	0x764df62f
  102f5e:	d68d                	beqz	a3,102e88 <Td2+0x26c>
  102f60:	b04d43ef          	jal	t2,d7264 <_stack_len+0xcf264>
  102f64:	ccaa                	sw	a0,88(sp)
  102f66:	4d54                	lw	a3,28(a0)
  102f68:	e496                	fsw	ft5,72(sp)
  102f6a:	04df 9ed1 b5e3      	0xb5e39ed104df
  102f70:	4c6a                	lw	s8,152(sp)
  102f72:	c12c881b          	0xc12c881b
  102f76:	1fb8                	addi	a4,sp,1016
  102f78:	4665                	li	a2,25
  102f7a:	517f                	0x517f
  102f7c:	9d5e                	add	s10,s10,s7
  102f7e:	ea04                	fsw	fs1,16(a2)
  102f80:	018c                	addi	a1,sp,192
  102f82:	355d                	jal	102e28 <Td2+0x20c>
  102f84:	7473fa87          	0x7473fa87
  102f88:	412efb0b          	0x412efb0b
  102f8c:	1d5ab367          	0x1d5ab367
  102f90:	d25292db          	0xd25292db
  102f94:	e910                	fsw	fa2,16(a0)
  102f96:	6dd65633          	0x6dd65633
  102f9a:	9ad74713          	xori	a4,a4,-1619
  102f9e:	618c                	flw	fa1,0(a1)
  102fa0:	37a1                	jal	102ee8 <Td2+0x2cc>
  102fa2:	0c7a                	slli	s8,s8,0x1e
  102fa4:	59f8                	lw	a4,116(a1)
  102fa6:	148e                	slli	s1,s1,0x23
  102fa8:	3c89eb13          	ori	s6,s3,968
  102fac:	cea9                	beqz	a3,103006 <Td2+0x3ea>
  102fae:	27ee                	fld	fa5,216(sp)
  102fb0:	b761                	j	102f38 <Td2+0x31c>
  102fb2:	c935                	beqz	a0,103026 <Td3+0xa>
  102fb4:	e11c                	fsw	fa5,0(a0)
  102fb6:	e5ed                	bnez	a1,1030a0 <Td3+0x84>
  102fb8:	b13c7a47          	fmsub.s	fs4,fs8,fs3,fs6
  102fbc:	9cd2                	add	s9,s9,s4
  102fbe:	df59                	beqz	a4,102f5c <Td2+0x340>
  102fc0:	55f2                	lw	a1,60(sp)
  102fc2:	1814733f 73c7ce79 	0x73c7ce791814733f
  102fca:	53f737bf 5ffdcdea 	0x5ffdcdea53f737bf
  102fd2:	df3daa5b          	0xdf3daa5b
  102fd6:	6f14                	flw	fa3,24(a4)
  102fd8:	7844                	flw	fs1,52(s0)
  102fda:	db86                	sw	ra,244(sp)
  102fdc:	f381caaf          	0xf381caaf
  102fe0:	b968                	fsd	fa0,240(a0)
  102fe2:	c43e                	sw	a5,8(sp)
  102fe4:	3824                	fld	fs1,112(s0)
  102fe6:	342c                	fld	fa1,104(s0)
  102fe8:	405fc2a3          	0x405fc2a3
  102fec:	161d                	addi	a2,a2,-25
  102fee:	c372                	sw	t3,132(sp)
  102ff0:	bce2                	fsd	fs8,120(sp)
  102ff2:	250c                	fld	fa1,8(a0)
  102ff4:	283c                	fld	fa5,80(s0)
  102ff6:	ff0d498b          	0xff0d498b
  102ffa:	9541                	srai	a0,a0,0x30
  102ffc:	39a8                	fld	fa0,112(a1)
  102ffe:	0171                	addi	sp,sp,28
  103000:	080c                	addi	a1,sp,16
  103002:	b3de                	fsd	fs7,480(sp)
  103004:	d8b4                	sw	a3,112(s1)
  103006:	e49c                	fsw	fa5,8(s1)
  103008:	6456                	flw	fs0,84(sp)
  10300a:	c190                	sw	a2,0(a1)
  10300c:	84617bcb          	0x84617bcb
  103010:	d532                	sw	a2,168(sp)
  103012:	b670                	fsd	fa2,232(a2)
  103014:	486c                	lw	a1,84(s0)
  103016:	5c74                	lw	a3,124(s0)
  103018:	d0b8                	sw	a4,96(s1)
  10301a:	5742                	lw	a4,48(sp)

0010301c <Td3>:
static const u32 Td3[256] = {
  10301c:	5051                	c.li	zero,-12
  10301e:	537ef4a7          	0x537ef4a7
  103022:	4165                	li	sp,25
  103024:	c31a                	sw	t1,132(sp)
  103026:	17a4                	addi	s1,sp,1000
  103028:	963a                	add	a2,a2,a4
  10302a:	275e                	fld	fa4,464(sp)
  10302c:	ab6bcb3b          	0xab6bcb3b
  103030:	f11f 9d45 abac      	0xabac9d45f11f
  103036:	fa58                	fsw	fa4,52(a2)
  103038:	e303934b          	fnmsub.d	ft6,ft7,fa6,ft8,rtz
  10303c:	5520                	lw	s0,104(a0)
  10303e:	30fa                	fld	ft1,440(sp)
  103040:	f6ad                	bnez	a3,102faa <Td2+0x38e>
  103042:	766d                	lui	a2,0xffffb
  103044:	9188                	0x9188
  103046:	cc76                	sw	t4,24(sp)
  103048:	25f5                	jal	103734 <_bss_end+0x1dc>
  10304a:	024c                	addi	a1,sp,260
  10304c:	e5d7fc4f          	0xe5d7fc4f
  103050:	d7c5                	beqz	a5,102ff8 <Td2+0x3dc>
  103052:	80262acb          	fnmsub.s	fs5,fa2,ft2,fa6,rdn
  103056:	3544                	fld	fs1,168(a0)
  103058:	8fb5                	xor	a5,a5,a3
  10305a:	49de62a3          	0x49de62a3
  10305e:	b15a                	fsd	fs6,160(sp)
  103060:	6725                	lui	a4,0x9
  103062:	9845ba1b          	0x9845ba1b
  103066:	ea0e                	fsw	ft3,20(sp)
  103068:	e15d                	bnez	a0,10310e <Td3+0xf2>
  10306a:	fec0                	fsw	fs0,60(a3)
  10306c:	2f7502c3          	fmadd.q	ft5,fa0,fs7,ft5,rne
  103070:	1281                	addi	t0,t0,-32
  103072:	4cf0                	lw	a2,92(s1)
  103074:	a38d                	j	1035d6 <_bss_end+0x7e>
  103076:	c66b4697          	auipc	a3,0xc66b4
  10307a:	d3f9                	beqz	a5,103040 <Td3+0x24>
  10307c:	8f5fe703          	0x8f5fe703
  103080:	9515                	srai	a0,a0,0x25
  103082:	929c                	0x929c
  103084:	6d7aebbf 5259da95 	0x5259da956d7aebbf
  10308c:	2dd4                	fld	fa3,152(a1)
  10308e:	d358be83          	0xd358be83
  103092:	7421                	lui	s0,0xfffe8
  103094:	2949                	jal	103526 <rcon+0xa>
  103096:	e069                	bnez	s0,103158 <Td3+0x13c>
  103098:	448e                	lw	s1,192(sp)
  10309a:	c9c8                	sw	a0,20(a1)
  10309c:	6a75                	lui	s4,0x1d
  10309e:	c289                	beqz	a3,1030a0 <Td3+0x84>
  1030a0:	78f4                	flw	fa3,116(s1)
  1030a2:	8e79                	and	a2,a2,a4
  1030a4:	6b99                	lui	s7,0x6
  1030a6:	583e                	lw	a6,236(sp)
  1030a8:	b971dd27          	0xb971dd27
  1030ac:	b6be                	fsd	fa5,360(sp)
  1030ae:	17f0e14f          	fnmadd.q	ft2,ft1,ft11,ft2,unknown
  1030b2:	88ad                	andi	s1,s1,11
  1030b4:	66c9                	lui	a3,0x12
  1030b6:	20ac                	fld	fa1,64(s1)
  1030b8:	b47d                	j	102b66 <Td1+0x34a>
  1030ba:	ce3a                	sw	a4,28(sp)
  1030bc:	df4a1863          	bne	s4,s4,1026ac <Td0+0x290>
  1030c0:	82e5                	srli	a3,a3,0x19
  1030c2:	1a31                	addi	s4,s4,-20
  1030c4:	51336097          	auipc	ra,0x51336
  1030c8:	4562                	lw	a0,24(sp)
  1030ca:	537f                	0x537f
  1030cc:	e0b1                	bnez	s1,103110 <Td3+0xf4>
  1030ce:	84bb6477          	0x84bb6477
  1030d2:	6bae                	flw	fs7,200(sp)
  1030d4:	1cfe                	slli	s9,s9,0x3f
  1030d6:	81a0                	0x81a0
  1030d8:	94f9                	srai	s1,s1,0x3e
  1030da:	5870082b          	0x5870082b
  1030de:	4868                	lw	a0,84(s0)
  1030e0:	45fd198f          	0x45fd198f
  1030e4:	8794                	0x8794
  1030e6:	de6c                	sw	a1,124(a2)
  1030e8:	b752                	fsd	fs4,424(sp)
  1030ea:	7bf8                	flw	fa4,116(a5)
  1030ec:	73d323ab          	0x73d323ab
  1030f0:	e272                	fsw	ft8,4(sp)
  1030f2:	4b02                	lw	s6,0(sp)
  1030f4:	1f8f57e3          	bge	t5,s8,103ae2 <_bss_end+0x58a>
  1030f8:	2a66                	fld	fs4,88(sp)
  1030fa:	07b255ab          	0x7b255ab
  1030fe:	eb28                	fsw	fa0,80(a4)
  103100:	b5c2032f          	0xb5c2032f
  103104:	9a86                	add	s5,s5,ra
  103106:	a5d3c57b          	0xa5d3c57b
  10310a:	3708                	fld	fa0,40(a4)
  10310c:	f230                	fsw	fa2,96(a2)
  10310e:	b2232887          	flw	fa7,-1246(t1) # 8a5cb22 <_stack_start+0x885cb22>
  103112:	bfa5                	j	10308a <Td3+0x6e>
  103114:	ba02                	fsd	ft0,304(sp)
  103116:	036a                	slli	t1,t1,0x1a
  103118:	5ced                	li	s9,-5
  10311a:	1682                	slli	a3,a3,0x20
  10311c:	2b8a                	fld	fs7,128(sp)
  10311e:	cf1c                	sw	a5,24(a4)
  103120:	79b492a7          	0x79b492a7
  103124:	07f2f0f3          	csrrci	ra,0x7f,5
  103128:	a14e                	fsd	fs3,128(sp)
  10312a:	69e2                	flw	fs3,24(sp)
  10312c:	cd65                	beqz	a0,103224 <Td3+0x208>
  10312e:	daf4                	sw	a3,116(a3)
  103130:	d506                	sw	ra,168(sp)
  103132:	05be                	slli	a1,a1,0xf
  103134:	1fd1                	addi	t6,t6,-12
  103136:	3462                	fld	fs0,56(sp)
  103138:	8ac4                	0x8ac4
  10313a:	a6fe                	fsd	ft11,328(sp)
  10313c:	9d34                	0x9d34
  10313e:	a0a22e53          	feq.s	t3,ft4,fa0
  103142:	f355                	bnez	a4,1030e6 <Td3+0xca>
  103144:	3205                	jal	102a64 <Td1+0x248>
  103146:	8ae1                	andi	a3,a3,24
  103148:	75a4                	flw	fs1,104(a1)
  10314a:	390bf6eb          	0x390bf6eb
  10314e:	83ec                	0x83ec
  103150:	aa40                	fsd	fs0,144(a2)
  103152:	065e60ef          	jal	ra,1e99b6 <_bss_end+0xe645e>
  103156:	719f 51bd 6e10      	0x6e1051bd719f
  10315c:	f93e                	fsw	fa5,176(sp)
  10315e:	218a                	fld	ft3,128(sp)
  103160:	3d96                	fld	fs11,352(sp)
  103162:	dd06                	sw	ra,184(sp)
  103164:	aedd                	j	10355a <_bss_end+0x2>
  103166:	3e05                	jal	102c96 <Td2+0x7a>
  103168:	464d                	li	a2,19
  10316a:	e6bd                	bnez	a3,1031d8 <Td3+0x1bc>
  10316c:	b591                	j	102fb0 <Td2+0x394>
  10316e:	548d                	li	s1,-29
  103170:	0571                	addi	a0,a0,28
  103172:	c45d                	beqz	s0,103220 <Td3+0x204>
  103174:	6f04                	flw	fs1,24(a4)
  103176:	06d4                	addi	a3,sp,836
  103178:	ff60                	fsw	fs0,124(a4)
  10317a:	5015                	c.li	zero,-27
  10317c:	2419                	jal	103382 <Td3+0x366>
  10317e:	97d698fb          	0x97d698fb
  103182:	bde9                	j	10305c <Td3+0x40>
  103184:	cc89                	beqz	s1,10319e <Td3+0x182>
  103186:	77674043          	fmadd.q	ft0,fa4,fs6,fa4,rmm
  10318a:	d99e                	sw	t2,240(sp)
  10318c:	bdb0                	fsd	fa2,120(a1)
  10318e:	e842                	fsw	fa6,16(sp)
  103190:	898b8807          	0x898b8807
  103194:	195b38e7          	0x195b38e7
  103198:	db79                	beqz	a4,10316e <Td3+0x152>
  10319a:	c8ee                	sw	s11,80(sp)
  10319c:	47a1                	li	a5,8
  10319e:	7c0a                	flw	fs8,160(sp)
  1031a0:	e97c                	fsw	fa5,84(a0)
  1031a2:	c9f8420f          	0xc9f8420f
  1031a6:	841e                	mv	s0,t2
  1031a8:	0000                	unimp
  1031aa:	0000                	unimp
  1031ac:	8309                	srli	a4,a4,0x2
  1031ae:	8086                	mv	ra,ra
  1031b0:	4832                	lw	a6,12(sp)
  1031b2:	2bed                	jal	1037ac <_bss_end+0x254>
  1031b4:	ac1e                	fsd	ft7,24(sp)
  1031b6:	1170                	addi	a2,sp,172
  1031b8:	4e6c                	lw	a1,92(a2)
  1031ba:	5a72                	lw	s4,60(sp)
  1031bc:	fbfd                	bnez	a5,1031b2 <Td3+0x196>
  1031be:	0eff                	0xeff
  1031c0:	8538560f          	0x8538560f
  1031c4:	1e3d                	addi	t3,t3,-17
  1031c6:	aed5                	j	1035ba <_bss_end+0x62>
  1031c8:	2736                	fld	fa4,328(sp)
  1031ca:	2d39                	jal	1037e8 <_bss_end+0x290>
  1031cc:	640a                	flw	fs0,128(sp)
  1031ce:	0fd9                	addi	t6,t6,22
  1031d0:	2168                	fld	fa0,192(a0)
  1031d2:	5ca6                	lw	s9,104(sp)
  1031d4:	5b54d19b          	0x5b54d19b
  1031d8:	3a24                	fld	fs1,112(a2)
  1031da:	362e                	fld	fa2,232(sp)
  1031dc:	b10c                	fsd	fa1,32(a0)
  1031de:	0f930a67          	jalr	s4,249(t1)
  1031e2:	d2b457e7          	0xd2b457e7
  1031e6:	ee96                	fsw	ft5,92(sp)
  1031e8:	9b919e1b          	0x9b919e1b
  1031ec:	4f80                	lw	s0,24(a5)
  1031ee:	c0c5                	beqz	s1,10328e <Td3+0x272>
  1031f0:	a261                	j	103378 <Td3+0x35c>
  1031f2:	dc20                	sw	s0,120(s0)
  1031f4:	695a                	flw	fs2,148(sp)
  1031f6:	161c774b          	fnmsub.q	fa4,fs8,ft1,ft2
  1031fa:	121a                	slli	tp,tp,0x26
  1031fc:	0ae2                	slli	s5,s5,0x18
  1031fe:	93ba                	add	t2,t2,a4
  103200:	e5c0                	fsw	fs0,12(a1)
  103202:	a02a                	fsd	fa0,0(sp)
  103204:	433c                	lw	a5,64(a4)
  103206:	22e0                	fld	fs0,192(a3)
  103208:	1d12                	slli	s10,s10,0x24
  10320a:	0b0e1b17          	auipc	s6,0xb0e1
  10320e:	090d                	addi	s2,s2,3
  103210:	adf2                	fsd	ft8,216(sp)
  103212:	b92d8bc7          	fmsub.s	fs7,fs11,fs2,fs7,rne
  103216:	b6a8                	fsd	fa0,104(a3)
  103218:	c814                	sw	a3,16(s0)
  10321a:	1ea9                	addi	t4,t4,-22
  10321c:	f1198557          	0xf1198557
  103220:	75074caf          	0x75074caf
  103224:	bbee                	fsd	fs11,496(sp)
  103226:	99dd                	andi	a1,a1,-9
  103228:	7f60fda3          	0x7f60fda3
  10322c:	01269ff7          	0x1269ff7
  103230:	bc5c                	fsd	fa5,184(s0)
  103232:	72f5                	lui	t0,0xffffd
  103234:	c544                	sw	s1,12(a0)
  103236:	345b663b          	0x345b663b
  10323a:	fb7e                	fsw	ft11,180(sp)
  10323c:	4329768b          	0x4329768b
  103240:	23c6dccb          	fnmsub.d	fs9,fa3,ft8,ft4,unknown
  103244:	68b6                	flw	fa7,76(sp)
  103246:	edfc                	fsw	fa5,92(a1)
  103248:	63b8                	flw	fa4,64(a5)
  10324a:	e4f1                	bnez	s1,103316 <Td3+0x2fa>
  10324c:	31dccad7          	0x31dccad7
  103250:	1042                	c.slli	zero,0x30
  103252:	6385                	lui	t2,0x1
  103254:	97224013          	xori	zero,tp,-1678
  103258:	2084                	fld	fs1,0(s1)
  10325a:	c611                	beqz	a2,103266 <Td3+0x24a>
  10325c:	7d85                	lui	s11,0xfffe1
  10325e:	4a24                	lw	s1,80(a2)
  103260:	f8d2                	fsw	fs4,112(sp)
  103262:	bb3d                	j	102fa0 <Td2+0x384>
  103264:	11ae                	slli	gp,gp,0x2b
  103266:	f932                	fsw	fa2,176(sp)
  103268:	29a16dc7          	fmsub.s	fs11,ft2,fs10,ft5,unknown
  10326c:	4b1d                	li	s6,7
  10326e:	f3dc9e2f          	0xf3dc9e2f
  103272:	b230                	fsd	fa2,96(a2)
  103274:	ec0d                	bnez	s0,1032ae <Td3+0x292>
  103276:	8652                	mv	a2,s4
  103278:	c1e3d077          	0xc1e3d077
  10327c:	b3166c2b          	0xb3166c2b
  103280:	99a9                	andi	a1,a1,-22
  103282:	70b9                	lui	ra,0xfffee
  103284:	fa11                	bnez	a2,103198 <Td3+0x17c>
  103286:	9448                	0x9448
  103288:	e9642247          	fmsub.s	ft4,fs0,fs6,ft9,rdn
  10328c:	c4a8                	sw	a0,72(s1)
  10328e:	fc8c                	fsw	fa1,56(s1)
  103290:	1aa0                	addi	s0,sp,376
  103292:	d856f03f ef227d2c 	0xef227d2cd856f03f
  10329a:	3390                	fld	fa2,32(a5)
  10329c:	494ec787          	flq	fa5,1172(t4)
  1032a0:	c1d9                	beqz	a1,103326 <Td3+0x30a>
  1032a2:	38d1                	jal	102b76 <Td1+0x35a>
  1032a4:	fe8c                	fsw	fa1,56(a3)
  1032a6:	caa2                	sw	s0,84(sp)
  1032a8:	3698                	fld	fa4,40(a3)
  1032aa:	cfa6d40b          	0xcfa6d40b
  1032ae:	f581                	bnez	a1,1031b6 <Td3+0x19a>
  1032b0:	28a5                	jal	103328 <Td3+0x30c>
  1032b2:	7ade                	flw	fs5,244(sp)
  1032b4:	26da                	fld	fa3,400(sp)
  1032b6:	b78e                	fsd	ft3,488(sp)
  1032b8:	adbfa43f 3a9de42c 	0x3a9de42cadbfa43f
  1032c0:	0d50                	addi	a2,sp,660
  1032c2:	7892                	flw	fa7,36(sp)
  1032c4:	9b6a                	add	s6,s6,s10
  1032c6:	5fcc                	lw	a1,60(a5)
  1032c8:	6254                	flw	fa3,4(a2)
  1032ca:	7e46                	flw	ft8,112(sp)
  1032cc:	c2f6                	sw	t4,68(sp)
  1032ce:	e8908d13          	addi	s10,ra,-375 # fffede89 <_stack_start+0xffdede89>
  1032d2:	d8b8                	sw	a4,112(s1)
  1032d4:	5e2e                	lw	t3,232(sp)
  1032d6:	f58239f7          	0xf58239f7
  1032da:	be9fc3af          	0xbe9fc3af
  1032de:	5d80                	lw	s0,56(a1)
  1032e0:	7c69                	lui	s8,0xffffa
  1032e2:	a96fd093          	0xa96fd093
  1032e6:	d52d                	beqz	a0,103250 <Td3+0x234>
  1032e8:	2512b3cf          	0x2512b3cf
  1032ec:	3bc8                	fld	fa0,176(a5)
  1032ee:	ac99                	j	103544 <rcon+0x28>
  1032f0:	a710                	fsd	fa2,8(a4)
  1032f2:	187d                	addi	a6,a6,-1
  1032f4:	6ee8                	flw	fa0,92(a3)
  1032f6:	7bdb9c63          	bne	s7,t4,103aae <_bss_end+0x556>
  1032fa:	09cd3bbb          	0x9cd3bbb
  1032fe:	2678                	fld	fa4,200(a2)
  103300:	f46e                	fsw	fs11,40(sp)
  103302:	5918                	lw	a4,48(a0)
  103304:	01ec                	addi	a1,sp,204
  103306:	a8839ab7          	lui	s5,0xa8839
  10330a:	4f9a                	lw	t6,132(sp)
