
C_files/aes.elf:     format de fichier elf32-littleriscv
architecture: riscv:rv32, fanions 0x00000112:
EXEC_P, HAS_SYMS, D_PAGED
adresse de départ 0x00100084

Sections :
Idx Name          Taille    VMA       LMA       Off fich  Algn
  0 .vectors      00000084  00100000  00100000  00001000  2**0
                  CONTENTS, ALLOC, LOAD, READONLY, CODE
  1 .text         00001328  00100084  00100084  00001084  2**1
                  CONTENTS, ALLOC, LOAD, READONLY, CODE
  2 .rodata       00002198  001013ac  001013ac  000023ac  2**2
                  CONTENTS, ALLOC, LOAD, READONLY, DATA
  3 .data         00000000  00103544  00103544  00004544  2**0
                  CONTENTS, ALLOC, LOAD, DATA
  4 .bss          00000010  00103548  00103548  00004544  2**3
                  ALLOC
  5 .stack        00002000  001f8000  001f8000  00005000  2**0
                  ALLOC
  6 .debug_info   00002305  00000000  00000000  00004544  2**0
                  CONTENTS, READONLY, DEBUGGING
  7 .debug_abbrev 0000080e  00000000  00000000  00006849  2**0
                  CONTENTS, READONLY, DEBUGGING
  8 .debug_aranges 000000a8  00000000  00000000  00007058  2**3
                  CONTENTS, READONLY, DEBUGGING
  9 .debug_line   00001bd5  00000000  00000000  00007100  2**0
                  CONTENTS, READONLY, DEBUGGING
 10 .debug_str    000007f8  00000000  00000000  00008cd5  2**0
                  CONTENTS, READONLY, DEBUGGING
 11 .comment      00000028  00000000  00000000  000094cd  2**0
                  CONTENTS, READONLY
 12 .riscv.attributes 00000021  00000000  00000000  000094f5  2**0
                  CONTENTS, READONLY
 13 .debug_frame  00000274  00000000  00000000  00009518  2**2
                  CONTENTS, READONLY, DEBUGGING
 14 .debug_ranges 00000020  00000000  00000000  00009790  2**3
                  CONTENTS, READONLY, DEBUGGING

Déassemblage de la section .vectors :

00100000 <_stack_start-0x100000>:

  // All unimplemented interrupts/exceptions go to the default_exc_handler.
  .org 0x00
  .rept 7
  jal x0, default_exc_handler
  .endr
  100000:	31e0106f          	j	10131e <default_exc_handler>
  100004:	31a0106f          	j	10131e <default_exc_handler>
  100008:	3160106f          	j	10131e <default_exc_handler>
  10000c:	3120106f          	j	10131e <default_exc_handler>
  100010:	30e0106f          	j	10131e <default_exc_handler>
  100014:	30a0106f          	j	10131e <default_exc_handler>
  100018:	3060106f          	j	10131e <default_exc_handler>
  jal x0, timer_handler
  10001c:	3060106f          	j	101322 <timer_handler>
  .rept 23
  jal x0, default_exc_handler
  .endr
  100020:	2fe0106f          	j	10131e <default_exc_handler>
  100024:	2fa0106f          	j	10131e <default_exc_handler>
  100028:	2f60106f          	j	10131e <default_exc_handler>
  10002c:	2f20106f          	j	10131e <default_exc_handler>
  100030:	2ee0106f          	j	10131e <default_exc_handler>
  100034:	2ea0106f          	j	10131e <default_exc_handler>
  100038:	2e60106f          	j	10131e <default_exc_handler>
  10003c:	2e20106f          	j	10131e <default_exc_handler>
  100040:	2de0106f          	j	10131e <default_exc_handler>
  100044:	2da0106f          	j	10131e <default_exc_handler>
  100048:	2d60106f          	j	10131e <default_exc_handler>
  10004c:	2d20106f          	j	10131e <default_exc_handler>
  100050:	2ce0106f          	j	10131e <default_exc_handler>
  100054:	2ca0106f          	j	10131e <default_exc_handler>
  100058:	2c60106f          	j	10131e <default_exc_handler>
  10005c:	2c20106f          	j	10131e <default_exc_handler>
  100060:	2be0106f          	j	10131e <default_exc_handler>
  100064:	2ba0106f          	j	10131e <default_exc_handler>
  100068:	2b60106f          	j	10131e <default_exc_handler>
  10006c:	2b20106f          	j	10131e <default_exc_handler>
  100070:	2ae0106f          	j	10131e <default_exc_handler>
  100074:	2aa0106f          	j	10131e <default_exc_handler>
  100078:	2a60106f          	j	10131e <default_exc_handler>
  10007c:	0000                	unimp
  10007e:	0000                	unimp

  // reset vector
  .org 0x80
  jal x0, reset_handler
  100080:	2a60106f          	j	101326 <reset_handler>

Déassemblage de la section .text :

00100084 <putchar>:
// Licensed under the Apache License, Version 2.0, see LICENSE for details.
// SPDX-License-Identifier: Apache-2.0

#include "simple_system_common.h"

int putchar(int c) {
  100084:	1141                	addi	sp,sp,-16
  100086:	c62a                	sw	a0,12(sp)
  DEV_WRITE(SIM_CTRL_BASE + SIM_CTRL_OUT, (unsigned char)c);
  100088:	47b2                	lw	a5,12(sp)
  10008a:	0ff7f713          	andi	a4,a5,255
  10008e:	000207b7          	lui	a5,0x20
  100092:	c398                	sw	a4,0(a5)

  return c;
  100094:	47b2                	lw	a5,12(sp)
}
  100096:	853e                	mv	a0,a5
  100098:	0141                	addi	sp,sp,16
  10009a:	8082                	ret

0010009c <puts>:

int puts(const char *str) {
  10009c:	1101                	addi	sp,sp,-32
  10009e:	ce06                	sw	ra,28(sp)
  1000a0:	c62a                	sw	a0,12(sp)
  while (*str) {
  1000a2:	a809                	j	1000b4 <puts+0x18>
    putchar(*str++);
  1000a4:	47b2                	lw	a5,12(sp)
  1000a6:	00178713          	addi	a4,a5,1 # 20001 <_stack_len+0x18001>
  1000aa:	c63a                	sw	a4,12(sp)
  1000ac:	0007c783          	lbu	a5,0(a5)
  1000b0:	853e                	mv	a0,a5
  1000b2:	3fc9                	jal	100084 <putchar>
  while (*str) {
  1000b4:	47b2                	lw	a5,12(sp)
  1000b6:	0007c783          	lbu	a5,0(a5)
  1000ba:	f7ed                	bnez	a5,1000a4 <puts+0x8>
  }

  return 0;
  1000bc:	4781                	li	a5,0
}
  1000be:	853e                	mv	a0,a5
  1000c0:	40f2                	lw	ra,28(sp)
  1000c2:	6105                	addi	sp,sp,32
  1000c4:	8082                	ret

001000c6 <puthex>:

void puthex(uint32_t h) {
  1000c6:	7179                	addi	sp,sp,-48
  1000c8:	d606                	sw	ra,44(sp)
  1000ca:	c62a                	sw	a0,12(sp)
  int cur_digit;
  // Iterate through h taking top 4 bits each time and outputting ASCII of hex
  // digit for those 4 bits
  for (int i = 0; i < 8; i++) {
  1000cc:	ce02                	sw	zero,28(sp)
  1000ce:	a80d                	j	100100 <puthex+0x3a>
    cur_digit = h >> 28;
  1000d0:	47b2                	lw	a5,12(sp)
  1000d2:	83f1                	srli	a5,a5,0x1c
  1000d4:	cc3e                	sw	a5,24(sp)

    if (cur_digit < 10)
  1000d6:	4762                	lw	a4,24(sp)
  1000d8:	47a5                	li	a5,9
  1000da:	00e7c863          	blt	a5,a4,1000ea <puthex+0x24>
      putchar('0' + cur_digit);
  1000de:	47e2                	lw	a5,24(sp)
  1000e0:	03078793          	addi	a5,a5,48
  1000e4:	853e                	mv	a0,a5
  1000e6:	3f79                	jal	100084 <putchar>
  1000e8:	a031                	j	1000f4 <puthex+0x2e>
    else
      putchar('A' - 10 + cur_digit);
  1000ea:	47e2                	lw	a5,24(sp)
  1000ec:	03778793          	addi	a5,a5,55
  1000f0:	853e                	mv	a0,a5
  1000f2:	3f49                	jal	100084 <putchar>

    h <<= 4;
  1000f4:	47b2                	lw	a5,12(sp)
  1000f6:	0792                	slli	a5,a5,0x4
  1000f8:	c63e                	sw	a5,12(sp)
  for (int i = 0; i < 8; i++) {
  1000fa:	47f2                	lw	a5,28(sp)
  1000fc:	0785                	addi	a5,a5,1
  1000fe:	ce3e                	sw	a5,28(sp)
  100100:	4772                	lw	a4,28(sp)
  100102:	479d                	li	a5,7
  100104:	fce7d6e3          	bge	a5,a4,1000d0 <puthex+0xa>
  }
}
  100108:	0001                	nop
  10010a:	50b2                	lw	ra,44(sp)
  10010c:	6145                	addi	sp,sp,48
  10010e:	8082                	ret

00100110 <sim_halt>:

void sim_halt() { DEV_WRITE(SIM_CTRL_BASE + SIM_CTRL_CTRL, 1); }
  100110:	000207b7          	lui	a5,0x20
  100114:	0791                	addi	a5,a5,4
  100116:	4705                	li	a4,1
  100118:	c398                	sw	a4,0(a5)
  10011a:	0001                	nop
  10011c:	8082                	ret

0010011e <pcount_reset>:

void pcount_reset() {
  asm volatile(
  10011e:	b0201073          	csrw	minstret,zero
  100122:	b0001073          	csrw	mcycle,zero
  100126:	b0301073          	csrw	mhpmcounter3,zero
  10012a:	b0401073          	csrw	mhpmcounter4,zero
  10012e:	b0501073          	csrw	mhpmcounter5,zero
  100132:	b0601073          	csrw	mhpmcounter6,zero
  100136:	b0701073          	csrw	mhpmcounter7,zero
  10013a:	b0801073          	csrw	mhpmcounter8,zero
  10013e:	b0901073          	csrw	mhpmcounter9,zero
  100142:	b0a01073          	csrw	mhpmcounter10,zero
  100146:	b0b01073          	csrw	mhpmcounter11,zero
  10014a:	b0c01073          	csrw	mhpmcounter12,zero
  10014e:	b0d01073          	csrw	mhpmcounter13,zero
  100152:	b0e01073          	csrw	mhpmcounter14,zero
  100156:	b0f01073          	csrw	mhpmcounter15,zero
  10015a:	b1001073          	csrw	mhpmcounter16,zero
  10015e:	b1101073          	csrw	mhpmcounter17,zero
  100162:	b1201073          	csrw	mhpmcounter18,zero
  100166:	b1301073          	csrw	mhpmcounter19,zero
  10016a:	b1401073          	csrw	mhpmcounter20,zero
  10016e:	b1501073          	csrw	mhpmcounter21,zero
  100172:	b1601073          	csrw	mhpmcounter22,zero
  100176:	b1701073          	csrw	mhpmcounter23,zero
  10017a:	b1801073          	csrw	mhpmcounter24,zero
  10017e:	b1901073          	csrw	mhpmcounter25,zero
  100182:	b1a01073          	csrw	mhpmcounter26,zero
  100186:	b1b01073          	csrw	mhpmcounter27,zero
  10018a:	b1c01073          	csrw	mhpmcounter28,zero
  10018e:	b1d01073          	csrw	mhpmcounter29,zero
  100192:	b1e01073          	csrw	mhpmcounter30,zero
  100196:	b1f01073          	csrw	mhpmcounter31,zero
  10019a:	b8201073          	csrw	minstreth,zero
  10019e:	b8001073          	csrw	mcycleh,zero
  1001a2:	b8301073          	csrw	mhpmcounter3h,zero
  1001a6:	b8401073          	csrw	mhpmcounter4h,zero
  1001aa:	b8501073          	csrw	mhpmcounter5h,zero
  1001ae:	b8601073          	csrw	mhpmcounter6h,zero
  1001b2:	b8701073          	csrw	mhpmcounter7h,zero
  1001b6:	b8801073          	csrw	mhpmcounter8h,zero
  1001ba:	b8901073          	csrw	mhpmcounter9h,zero
  1001be:	b8a01073          	csrw	mhpmcounter10h,zero
  1001c2:	b8b01073          	csrw	mhpmcounter11h,zero
  1001c6:	b8c01073          	csrw	mhpmcounter12h,zero
  1001ca:	b8d01073          	csrw	mhpmcounter13h,zero
  1001ce:	b8e01073          	csrw	mhpmcounter14h,zero
  1001d2:	b8f01073          	csrw	mhpmcounter15h,zero
  1001d6:	b9001073          	csrw	mhpmcounter16h,zero
  1001da:	b9101073          	csrw	mhpmcounter17h,zero
  1001de:	b9201073          	csrw	mhpmcounter18h,zero
  1001e2:	b9301073          	csrw	mhpmcounter19h,zero
  1001e6:	b9401073          	csrw	mhpmcounter20h,zero
  1001ea:	b9501073          	csrw	mhpmcounter21h,zero
  1001ee:	b9601073          	csrw	mhpmcounter22h,zero
  1001f2:	b9701073          	csrw	mhpmcounter23h,zero
  1001f6:	b9801073          	csrw	mhpmcounter24h,zero
  1001fa:	b9901073          	csrw	mhpmcounter25h,zero
  1001fe:	b9a01073          	csrw	mhpmcounter26h,zero
  100202:	b9b01073          	csrw	mhpmcounter27h,zero
  100206:	b9c01073          	csrw	mhpmcounter28h,zero
  10020a:	b9d01073          	csrw	mhpmcounter29h,zero
  10020e:	b9e01073          	csrw	mhpmcounter30h,zero
  100212:	b9f01073          	csrw	mhpmcounter31h,zero
      "csrw mhpmcounter27h, x0\n"
      "csrw mhpmcounter28h, x0\n"
      "csrw mhpmcounter29h, x0\n"
      "csrw mhpmcounter30h, x0\n"
      "csrw mhpmcounter31h, x0\n");
}
  100216:	0001                	nop
  100218:	8082                	ret

0010021a <pcount_enable>:

void pcount_enable(int enable) {
  10021a:	1101                	addi	sp,sp,-32
  10021c:	c62a                	sw	a0,12(sp)
  // Note cycle is disabled with everything else
  unsigned int inhibit_val = enable ? 0x0 : 0xFFFFFFFF;
  10021e:	47b2                	lw	a5,12(sp)
  100220:	c399                	beqz	a5,100226 <pcount_enable+0xc>
  100222:	4781                	li	a5,0
  100224:	a011                	j	100228 <pcount_enable+0xe>
  100226:	57fd                	li	a5,-1
  100228:	ce3e                	sw	a5,28(sp)
  // mucounteren == mcountinhibit but binutils doesn't seem to known the
  // mcountinhibit name
  asm volatile("csrw  mucounteren, %0\n" : : "r"(inhibit_val));
  10022a:	47f2                	lw	a5,28(sp)
  10022c:	32079073          	csrw	mucounteren,a5
}
  100230:	0001                	nop
  100232:	6105                	addi	sp,sp,32
  100234:	8082                	ret

00100236 <get_mepc>:

unsigned int get_mepc() {
  100236:	1141                	addi	sp,sp,-16
  uint32_t result;
  __asm__ volatile("csrr %0, mepc;" : "=r"(result));
  100238:	341027f3          	csrr	a5,mepc
  10023c:	c63e                	sw	a5,12(sp)
  return result;
  10023e:	47b2                	lw	a5,12(sp)
}
  100240:	853e                	mv	a0,a5
  100242:	0141                	addi	sp,sp,16
  100244:	8082                	ret

00100246 <get_mcause>:

unsigned int get_mcause() {
  100246:	1141                	addi	sp,sp,-16
  uint32_t result;
  __asm__ volatile("csrr %0, mcause;" : "=r"(result));
  100248:	342027f3          	csrr	a5,mcause
  10024c:	c63e                	sw	a5,12(sp)
  return result;
  10024e:	47b2                	lw	a5,12(sp)
}
  100250:	853e                	mv	a0,a5
  100252:	0141                	addi	sp,sp,16
  100254:	8082                	ret

00100256 <get_mtval>:

unsigned int get_mtval() {
  100256:	1141                	addi	sp,sp,-16
  uint32_t result;
  __asm__ volatile("csrr %0, mtval;" : "=r"(result));
  100258:	343027f3          	csrr	a5,mtval
  10025c:	c63e                	sw	a5,12(sp)
  return result;
  10025e:	47b2                	lw	a5,12(sp)
}
  100260:	853e                	mv	a0,a5
  100262:	0141                	addi	sp,sp,16
  100264:	8082                	ret

00100266 <simple_exc_handler>:

void simple_exc_handler(void) {
  100266:	1141                	addi	sp,sp,-16
  100268:	c606                	sw	ra,12(sp)
  puts("EXCEPTION!!!\n");
  10026a:	00001517          	auipc	a0,0x1
  10026e:	14250513          	addi	a0,a0,322 # 1013ac <sleep_loop+0x6>
  100272:	352d                	jal	10009c <puts>
  puts("============\n");
  100274:	00001517          	auipc	a0,0x1
  100278:	14850513          	addi	a0,a0,328 # 1013bc <sleep_loop+0x16>
  10027c:	3505                	jal	10009c <puts>
  puts("MEPC:   0x%0X");puthex(get_mepc());
  10027e:	00001517          	auipc	a0,0x1
  100282:	14e50513          	addi	a0,a0,334 # 1013cc <sleep_loop+0x26>
  100286:	3d19                	jal	10009c <puts>
  100288:	377d                	jal	100236 <get_mepc>
  10028a:	87aa                	mv	a5,a0
  10028c:	853e                	mv	a0,a5
  10028e:	3d25                	jal	1000c6 <puthex>
  puts("\nMCAUSE: 0x%0X");puthex(get_mcause());
  100290:	00001517          	auipc	a0,0x1
  100294:	14c50513          	addi	a0,a0,332 # 1013dc <sleep_loop+0x36>
  100298:	3511                	jal	10009c <puts>
  10029a:	3775                	jal	100246 <get_mcause>
  10029c:	87aa                	mv	a5,a0
  10029e:	853e                	mv	a0,a5
  1002a0:	351d                	jal	1000c6 <puthex>
  puts("\nMTVAL:  0x%0X");puthex(get_mtval());
  1002a2:	00001517          	auipc	a0,0x1
  1002a6:	14a50513          	addi	a0,a0,330 # 1013ec <sleep_loop+0x46>
  1002aa:	3bcd                	jal	10009c <puts>
  1002ac:	376d                	jal	100256 <get_mtval>
  1002ae:	87aa                	mv	a5,a0
  1002b0:	853e                	mv	a0,a5
  1002b2:	3d11                	jal	1000c6 <puthex>
  putchar('\n');
  1002b4:	4529                	li	a0,10
  1002b6:	33f9                	jal	100084 <putchar>
  sim_halt();
  1002b8:	3da1                	jal	100110 <sim_halt>

  while(1);
  1002ba:	a001                	j	1002ba <simple_exc_handler+0x54>

001002bc <increment_timecmp>:
}

volatile uint64_t time_elapsed;
uint64_t time_increment;

inline static void increment_timecmp(uint64_t time_base) {
  1002bc:	7179                	addi	sp,sp,-48
  1002be:	d606                	sw	ra,44(sp)
  1002c0:	c42a                	sw	a0,8(sp)
  1002c2:	c62e                	sw	a1,12(sp)
  uint64_t current_time = timer_read();
  1002c4:	2059                	jal	10034a <timer_read>
  1002c6:	cc2a                	sw	a0,24(sp)
  1002c8:	ce2e                	sw	a1,28(sp)
  current_time += time_base;
  1002ca:	46e2                	lw	a3,24(sp)
  1002cc:	4772                	lw	a4,28(sp)
  1002ce:	45a2                	lw	a1,8(sp)
  1002d0:	4632                	lw	a2,12(sp)
  1002d2:	00b687b3          	add	a5,a3,a1
  1002d6:	853e                	mv	a0,a5
  1002d8:	00d53533          	sltu	a0,a0,a3
  1002dc:	00c70833          	add	a6,a4,a2
  1002e0:	01050733          	add	a4,a0,a6
  1002e4:	883a                	mv	a6,a4
  1002e6:	cc3e                	sw	a5,24(sp)
  1002e8:	ce42                	sw	a6,28(sp)
  timecmp_update(current_time);
  1002ea:	4562                	lw	a0,24(sp)
  1002ec:	45f2                	lw	a1,28(sp)
  1002ee:	2065                	jal	100396 <timecmp_update>
}
  1002f0:	0001                	nop
  1002f2:	50b2                	lw	ra,44(sp)
  1002f4:	6145                	addi	sp,sp,48
  1002f6:	8082                	ret

001002f8 <timer_enable>:

void timer_enable(uint64_t time_base) {
  1002f8:	1101                	addi	sp,sp,-32
  1002fa:	ce06                	sw	ra,28(sp)
  1002fc:	c42a                	sw	a0,8(sp)
  1002fe:	c62e                	sw	a1,12(sp)
  time_elapsed = 0;
  100300:	00003797          	auipc	a5,0x3
  100304:	24878793          	addi	a5,a5,584 # 103548 <time_elapsed>
  100308:	4681                	li	a3,0
  10030a:	4701                	li	a4,0
  10030c:	c394                	sw	a3,0(a5)
  10030e:	c3d8                	sw	a4,4(a5)
  time_increment = time_base;
  100310:	00003717          	auipc	a4,0x3
  100314:	24070713          	addi	a4,a4,576 # 103550 <time_increment>
  100318:	47a2                	lw	a5,8(sp)
  10031a:	4832                	lw	a6,12(sp)
  10031c:	c31c                	sw	a5,0(a4)
  10031e:	01072223          	sw	a6,4(a4)
  // Set timer values
  increment_timecmp(time_base);
  100322:	4522                	lw	a0,8(sp)
  100324:	45b2                	lw	a1,12(sp)
  100326:	3f59                	jal	1002bc <increment_timecmp>
  // enable timer interrupt
  asm volatile("csrs  mie, %0\n" : : "r"(0x80));
  100328:	08000793          	li	a5,128
  10032c:	3047a073          	csrs	mie,a5
  // enable global interrupt
  asm volatile("csrs  mstatus, %0\n" : : "r"(0x8));
  100330:	47a1                	li	a5,8
  100332:	3007a073          	csrs	mstatus,a5
}
  100336:	0001                	nop
  100338:	40f2                	lw	ra,28(sp)
  10033a:	6105                	addi	sp,sp,32
  10033c:	8082                	ret

0010033e <timer_disable>:

void timer_disable(void) { asm volatile("csrc  mie, %0\n" : : "r"(0x80)); }
  10033e:	08000793          	li	a5,128
  100342:	3047b073          	csrc	mie,a5
  100346:	0001                	nop
  100348:	8082                	ret

0010034a <timer_read>:

uint64_t timer_read(void) {
  10034a:	1141                	addi	sp,sp,-16
  uint32_t current_timeh;
  uint32_t current_time;
  // check if time overflowed while reading and try again
  do {
    current_timeh = DEV_READ(TIMER_BASE + TIMER_MTIMEH, 0);
  10034c:	00030537          	lui	a0,0x30
  100350:	0511                	addi	a0,a0,4
  100352:	4108                	lw	a0,0(a0)
  100354:	c62a                	sw	a0,12(sp)
    current_time = DEV_READ(TIMER_BASE + TIMER_MTIME, 0);
  100356:	00030537          	lui	a0,0x30
  10035a:	4108                	lw	a0,0(a0)
  10035c:	c42a                	sw	a0,8(sp)
  } while (current_timeh != DEV_READ(TIMER_BASE + TIMER_MTIMEH, 0));
  10035e:	00030537          	lui	a0,0x30
  100362:	0511                	addi	a0,a0,4
  100364:	4108                	lw	a0,0(a0)
  100366:	48b2                	lw	a7,12(sp)
  100368:	fea892e3          	bne	a7,a0,10034c <timer_read+0x2>
  uint64_t final_time = ((uint64_t)current_timeh << 32) | current_time;
  10036c:	4532                	lw	a0,12(sp)
  10036e:	85aa                	mv	a1,a0
  100370:	4601                	li	a2,0
  100372:	00059813          	slli	a6,a1,0x0
  100376:	4781                	li	a5,0
  100378:	4622                	lw	a2,8(sp)
  10037a:	86b2                	mv	a3,a2
  10037c:	4701                	li	a4,0
  10037e:	00d7e633          	or	a2,a5,a3
  100382:	c032                	sw	a2,0(sp)
  100384:	00e867b3          	or	a5,a6,a4
  100388:	c23e                	sw	a5,4(sp)
  return final_time;
  10038a:	4782                	lw	a5,0(sp)
  10038c:	4812                	lw	a6,4(sp)
}
  10038e:	853e                	mv	a0,a5
  100390:	85c2                	mv	a1,a6
  100392:	0141                	addi	sp,sp,16
  100394:	8082                	ret

00100396 <timecmp_update>:

void timecmp_update(uint64_t new_time) {
  100396:	1141                	addi	sp,sp,-16
  100398:	c42a                	sw	a0,8(sp)
  10039a:	c62e                	sw	a1,12(sp)
  DEV_WRITE(TIMER_BASE + TIMER_MTIMECMP, -1);
  10039c:	00030737          	lui	a4,0x30
  1003a0:	0721                	addi	a4,a4,8
  1003a2:	56fd                	li	a3,-1
  1003a4:	c314                	sw	a3,0(a4)
  DEV_WRITE(TIMER_BASE + TIMER_MTIMECMPH, new_time >> 32);
  1003a6:	4732                	lw	a4,12(sp)
  1003a8:	00075793          	srli	a5,a4,0x0
  1003ac:	4801                	li	a6,0
  1003ae:	00030737          	lui	a4,0x30
  1003b2:	0731                	addi	a4,a4,12
  1003b4:	c31c                	sw	a5,0(a4)
  DEV_WRITE(TIMER_BASE + TIMER_MTIMECMP, new_time);
  1003b6:	000307b7          	lui	a5,0x30
  1003ba:	07a1                	addi	a5,a5,8
  1003bc:	4722                	lw	a4,8(sp)
  1003be:	c398                	sw	a4,0(a5)
}
  1003c0:	0001                	nop
  1003c2:	0141                	addi	sp,sp,16
  1003c4:	8082                	ret

001003c6 <get_elapsed_time>:

uint64_t get_elapsed_time(void) { return time_elapsed; }
  1003c6:	00003797          	auipc	a5,0x3
  1003ca:	18278793          	addi	a5,a5,386 # 103548 <time_elapsed>
  1003ce:	0047a803          	lw	a6,4(a5)
  1003d2:	439c                	lw	a5,0(a5)
  1003d4:	853e                	mv	a0,a5
  1003d6:	85c2                	mv	a1,a6
  1003d8:	8082                	ret

001003da <simple_timer_handler>:

void simple_timer_handler(void) __attribute__((interrupt));

void simple_timer_handler(void) {
  1003da:	7139                	addi	sp,sp,-64
  1003dc:	de06                	sw	ra,60(sp)
  1003de:	dc16                	sw	t0,56(sp)
  1003e0:	da1a                	sw	t1,52(sp)
  1003e2:	d81e                	sw	t2,48(sp)
  1003e4:	d62a                	sw	a0,44(sp)
  1003e6:	d42e                	sw	a1,40(sp)
  1003e8:	d232                	sw	a2,36(sp)
  1003ea:	d036                	sw	a3,32(sp)
  1003ec:	ce3a                	sw	a4,28(sp)
  1003ee:	cc3e                	sw	a5,24(sp)
  1003f0:	ca42                	sw	a6,20(sp)
  1003f2:	c846                	sw	a7,16(sp)
  1003f4:	c672                	sw	t3,12(sp)
  1003f6:	c476                	sw	t4,8(sp)
  1003f8:	c27a                	sw	t5,4(sp)
  1003fa:	c07e                	sw	t6,0(sp)
  increment_timecmp(time_increment);
  1003fc:	00003797          	auipc	a5,0x3
  100400:	15478793          	addi	a5,a5,340 # 103550 <time_increment>
  100404:	0047a803          	lw	a6,4(a5)
  100408:	439c                	lw	a5,0(a5)
  10040a:	853e                	mv	a0,a5
  10040c:	85c2                	mv	a1,a6
  10040e:	357d                	jal	1002bc <increment_timecmp>
  time_elapsed++;
  100410:	00003797          	auipc	a5,0x3
  100414:	13878793          	addi	a5,a5,312 # 103548 <time_elapsed>
  100418:	0047a803          	lw	a6,4(a5)
  10041c:	439c                	lw	a5,0(a5)
  10041e:	4585                	li	a1,1
  100420:	4601                	li	a2,0
  100422:	00b786b3          	add	a3,a5,a1
  100426:	8536                	mv	a0,a3
  100428:	00f53533          	sltu	a0,a0,a5
  10042c:	00c80733          	add	a4,a6,a2
  100430:	00e507b3          	add	a5,a0,a4
  100434:	873e                	mv	a4,a5
  100436:	87b6                	mv	a5,a3
  100438:	883a                	mv	a6,a4
  10043a:	00003717          	auipc	a4,0x3
  10043e:	10e70713          	addi	a4,a4,270 # 103548 <time_elapsed>
  100442:	c31c                	sw	a5,0(a4)
  100444:	01072223          	sw	a6,4(a4)
}
  100448:	0001                	nop
  10044a:	50f2                	lw	ra,60(sp)
  10044c:	52e2                	lw	t0,56(sp)
  10044e:	5352                	lw	t1,52(sp)
  100450:	53c2                	lw	t2,48(sp)
  100452:	5532                	lw	a0,44(sp)
  100454:	55a2                	lw	a1,40(sp)
  100456:	5612                	lw	a2,36(sp)
  100458:	5682                	lw	a3,32(sp)
  10045a:	4772                	lw	a4,28(sp)
  10045c:	47e2                	lw	a5,24(sp)
  10045e:	4852                	lw	a6,20(sp)
  100460:	48c2                	lw	a7,16(sp)
  100462:	4e32                	lw	t3,12(sp)
  100464:	4ea2                	lw	t4,8(sp)
  100466:	4f12                	lw	t5,4(sp)
  100468:	4f82                	lw	t6,0(sp)
  10046a:	6121                	addi	sp,sp,64
  10046c:	30200073          	mret

00100470 <main>:
//AES IBEX
#ifdef AESIBEX
void aes_mode_ecb(void);
 #endif

int main(void) {
  100470:	7129                	addi	sp,sp,-320
  100472:	12112e23          	sw	ra,316(sp)

 #endif

#ifdef OpenSSLAES
//AES - SSL
    asm (    
  100476:	00150f13          	addi	t5,a0,1 # 30001 <_stack_len+0x28001>
        "addi    t5,a0,0x1"
);
uint8_t data_tiny[16]     ={0x6B,0xC1,0xBE,0xE2,0x2E,0x40,0x9F,0x96,0xE9,0x3D,0x7E,0x11,0x73,0x93,0x17,0x2A};
  10047a:	00001797          	auipc	a5,0x1
  10047e:	f8278793          	addi	a5,a5,-126 # 1013fc <sleep_loop+0x56>
  100482:	4390                	lw	a2,0(a5)
  100484:	43d4                	lw	a3,4(a5)
  100486:	4798                	lw	a4,8(a5)
  100488:	47dc                	lw	a5,12(a5)
  10048a:	12c12023          	sw	a2,288(sp)
  10048e:	12d12223          	sw	a3,292(sp)
  100492:	12e12423          	sw	a4,296(sp)
  100496:	12f12623          	sw	a5,300(sp)
uint8_t key_tiny[16]      ={0x2B,0x7E,0x15,0x16,0x28,0xAE,0xD2,0xA6,0xAB,0xF7,0x15,0x88,0x09,0xCF,0x4F,0x3C};
  10049a:	00001797          	auipc	a5,0x1
  10049e:	f7278793          	addi	a5,a5,-142 # 10140c <sleep_loop+0x66>
  1004a2:	4390                	lw	a2,0(a5)
  1004a4:	43d4                	lw	a3,4(a5)
  1004a6:	4798                	lw	a4,8(a5)
  1004a8:	47dc                	lw	a5,12(a5)
  1004aa:	10c12823          	sw	a2,272(sp)
  1004ae:	10d12a23          	sw	a3,276(sp)
  1004b2:	10e12c23          	sw	a4,280(sp)
  1004b6:	10f12e23          	sw	a5,284(sp)
  uint8_t out[16] = { 0,0,0,0,0,0,0,0,0,0,0,0,0,0,0,0 };
  1004ba:	10010023          	sb	zero,256(sp)
  1004be:	100100a3          	sb	zero,257(sp)
  1004c2:	10010123          	sb	zero,258(sp)
  1004c6:	100101a3          	sb	zero,259(sp)
  1004ca:	10010223          	sb	zero,260(sp)
  1004ce:	100102a3          	sb	zero,261(sp)
  1004d2:	10010323          	sb	zero,262(sp)
  1004d6:	100103a3          	sb	zero,263(sp)
  1004da:	10010423          	sb	zero,264(sp)
  1004de:	100104a3          	sb	zero,265(sp)
  1004e2:	10010523          	sb	zero,266(sp)
  1004e6:	100105a3          	sb	zero,267(sp)
  1004ea:	10010623          	sb	zero,268(sp)
  1004ee:	100106a3          	sb	zero,269(sp)
  1004f2:	10010723          	sb	zero,270(sp)
  1004f6:	100107a3          	sb	zero,271(sp)
  AES_KEY key_ssl;
  AES_set_encrypt_key(key_tiny, 128, &key_ssl);
  1004fa:	0078                	addi	a4,sp,12
  1004fc:	0a1c                	addi	a5,sp,272
  1004fe:	863a                	mv	a2,a4
  100500:	08000593          	li	a1,128
  100504:	853e                	mv	a0,a5
  100506:	28d9                	jal	1005dc <AES_set_encrypt_key>
  AES_ecb_encrypt(data_tiny, out, &key_ssl, AES_ENCRYPT);
  100508:	0070                	addi	a2,sp,12
  10050a:	0218                	addi	a4,sp,256
  10050c:	121c                	addi	a5,sp,288
  10050e:	4685                	li	a3,1
  100510:	85ba                	mv	a1,a4
  100512:	853e                	mv	a0,a5
  100514:	5ef000ef          	jal	ra,101302 <AES_ecb_encrypt>
//Read the outputs
    asm (    
  100518:	10012803          	lw	a6,256(sp)
  10051c:	10412883          	lw	a7,260(sp)
  100520:	10812903          	lw	s2,264(sp)
  100524:	10c12983          	lw	s3,268(sp)
        "lw	a6,256(sp);"
          "lw	a7,260(sp);"
        "lw	s2,264(sp);"
          "lw	s3,268(sp)"
);
    asm (    
  100528:	00050f13          	mv	t5,a0
        "addi    t5,a0,0x0"
);

    asm (    
  10052c:	00150f13          	addi	t5,a0,1
        "addi    t5,a0,0x1"
);
 data_tiny[0]     =0xAE;
  100530:	fae00793          	li	a5,-82
  100534:	12f10023          	sb	a5,288(sp)
  data_tiny[1]     =0x2D;
  100538:	02d00793          	li	a5,45
  10053c:	12f100a3          	sb	a5,289(sp)
   data_tiny[2]     =0x8A;
  100540:	f8a00793          	li	a5,-118
  100544:	12f10123          	sb	a5,290(sp)
    data_tiny[3]     =0x57;
  100548:	05700793          	li	a5,87
  10054c:	12f101a3          	sb	a5,291(sp)
     data_tiny[4]     =0x1E;
  100550:	47f9                	li	a5,30
  100552:	12f10223          	sb	a5,292(sp)
  data_tiny[5]     =0x03;
  100556:	478d                	li	a5,3
  100558:	12f102a3          	sb	a5,293(sp)
   data_tiny[6]     =0xAC;
  10055c:	fac00793          	li	a5,-84
  100560:	12f10323          	sb	a5,294(sp)
    data_tiny[7]     =0x9C;
  100564:	f9c00793          	li	a5,-100
  100568:	12f103a3          	sb	a5,295(sp)
     data_tiny[8]     =0x9E;
  10056c:	f9e00793          	li	a5,-98
  100570:	12f10423          	sb	a5,296(sp)
  data_tiny[9]     =0xB7;
  100574:	fb700793          	li	a5,-73
  100578:	12f104a3          	sb	a5,297(sp)
   data_tiny[10]     =0x6F;
  10057c:	06f00793          	li	a5,111
  100580:	12f10523          	sb	a5,298(sp)
    data_tiny[11]     =0xAC;
  100584:	fac00793          	li	a5,-84
  100588:	12f105a3          	sb	a5,299(sp)
   data_tiny[12]     =0x45;
  10058c:	04500793          	li	a5,69
  100590:	12f10623          	sb	a5,300(sp)
  data_tiny[13]     =0xAF;
  100594:	faf00793          	li	a5,-81
  100598:	12f106a3          	sb	a5,301(sp)
   data_tiny[14]     =0x8E;
  10059c:	f8e00793          	li	a5,-114
  1005a0:	12f10723          	sb	a5,302(sp)
    data_tiny[15]     =0x51;
  1005a4:	05100793          	li	a5,81
  1005a8:	12f107a3          	sb	a5,303(sp)
  AES_ecb_encrypt(data_tiny, out, &key_ssl, AES_ENCRYPT);
  1005ac:	0070                	addi	a2,sp,12
  1005ae:	0218                	addi	a4,sp,256
  1005b0:	121c                	addi	a5,sp,288
  1005b2:	4685                	li	a3,1
  1005b4:	85ba                	mv	a1,a4
  1005b6:	853e                	mv	a0,a5
  1005b8:	54b000ef          	jal	ra,101302 <AES_ecb_encrypt>
//Read the outputs
    asm (    
  1005bc:	10012803          	lw	a6,256(sp)
  1005c0:	10412883          	lw	a7,260(sp)
  1005c4:	10812903          	lw	s2,264(sp)
  1005c8:	10c12983          	lw	s3,268(sp)
        "lw	a6,256(sp);"
          "lw	a7,260(sp);"
        "lw	s2,264(sp);"
          "lw	s3,268(sp)"
);
    asm (    
  1005cc:	00050f13          	mv	t5,a0
#endif

////////////////////
///End Of Program///
////////////////////
  return(0);
  1005d0:	4781                	li	a5,0
}
  1005d2:	853e                	mv	a0,a5
  1005d4:	13c12083          	lw	ra,316(sp)
  1005d8:	6131                	addi	sp,sp,320
  1005da:	8082                	ret

001005dc <AES_set_encrypt_key>:
/**
 * Expand the cipher key into the encryption key schedule.
 */
int AES_set_encrypt_key(const unsigned char *userKey, const int bits,
                        AES_KEY *key)
{
  1005dc:	1101                	addi	sp,sp,-32
  1005de:	c62a                	sw	a0,12(sp)
  1005e0:	c42e                	sw	a1,8(sp)
  1005e2:	c232                	sw	a2,4(sp)

    u32 *rk;
    int i = 0;
  1005e4:	cc02                	sw	zero,24(sp)
    u32 temp;

    if (!userKey || !key)
  1005e6:	47b2                	lw	a5,12(sp)
  1005e8:	c399                	beqz	a5,1005ee <AES_set_encrypt_key+0x12>
  1005ea:	4792                	lw	a5,4(sp)
  1005ec:	e399                	bnez	a5,1005f2 <AES_set_encrypt_key+0x16>
        return -1;
  1005ee:	57fd                	li	a5,-1
  1005f0:	abf5                	j	100bec <AES_set_encrypt_key+0x610>
    if (bits != 128 && bits != 192 && bits != 256)
  1005f2:	4722                	lw	a4,8(sp)
  1005f4:	08000793          	li	a5,128
  1005f8:	00f70e63          	beq	a4,a5,100614 <AES_set_encrypt_key+0x38>
  1005fc:	4722                	lw	a4,8(sp)
  1005fe:	0c000793          	li	a5,192
  100602:	00f70963          	beq	a4,a5,100614 <AES_set_encrypt_key+0x38>
  100606:	4722                	lw	a4,8(sp)
  100608:	10000793          	li	a5,256
  10060c:	00f70463          	beq	a4,a5,100614 <AES_set_encrypt_key+0x38>
        return -2;
  100610:	57f9                	li	a5,-2
  100612:	abe9                	j	100bec <AES_set_encrypt_key+0x610>

    rk = key->rd_key;
  100614:	4792                	lw	a5,4(sp)
  100616:	ce3e                	sw	a5,28(sp)

    if (bits == 128)
  100618:	4722                	lw	a4,8(sp)
  10061a:	08000793          	li	a5,128
  10061e:	00f71763          	bne	a4,a5,10062c <AES_set_encrypt_key+0x50>
        key->rounds = 10;
  100622:	4792                	lw	a5,4(sp)
  100624:	4729                	li	a4,10
  100626:	0ee7a823          	sw	a4,240(a5)
  10062a:	a839                	j	100648 <AES_set_encrypt_key+0x6c>
    else if (bits == 192)
  10062c:	4722                	lw	a4,8(sp)
  10062e:	0c000793          	li	a5,192
  100632:	00f71763          	bne	a4,a5,100640 <AES_set_encrypt_key+0x64>
        key->rounds = 12;
  100636:	4792                	lw	a5,4(sp)
  100638:	4731                	li	a4,12
  10063a:	0ee7a823          	sw	a4,240(a5)
  10063e:	a029                	j	100648 <AES_set_encrypt_key+0x6c>
    else
        key->rounds = 14;
  100640:	4792                	lw	a5,4(sp)
  100642:	4739                	li	a4,14
  100644:	0ee7a823          	sw	a4,240(a5)

    rk[0] = GETU32(userKey     );
  100648:	47b2                	lw	a5,12(sp)
  10064a:	0007c783          	lbu	a5,0(a5)
  10064e:	01879713          	slli	a4,a5,0x18
  100652:	47b2                	lw	a5,12(sp)
  100654:	0785                	addi	a5,a5,1
  100656:	0007c783          	lbu	a5,0(a5)
  10065a:	07c2                	slli	a5,a5,0x10
  10065c:	8f3d                	xor	a4,a4,a5
  10065e:	47b2                	lw	a5,12(sp)
  100660:	0789                	addi	a5,a5,2
  100662:	0007c783          	lbu	a5,0(a5)
  100666:	07a2                	slli	a5,a5,0x8
  100668:	8fb9                	xor	a5,a5,a4
  10066a:	4732                	lw	a4,12(sp)
  10066c:	070d                	addi	a4,a4,3
  10066e:	00074703          	lbu	a4,0(a4)
  100672:	8f3d                	xor	a4,a4,a5
  100674:	47f2                	lw	a5,28(sp)
  100676:	c398                	sw	a4,0(a5)
    rk[1] = GETU32(userKey +  4);
  100678:	47b2                	lw	a5,12(sp)
  10067a:	0791                	addi	a5,a5,4
  10067c:	0007c783          	lbu	a5,0(a5)
  100680:	01879713          	slli	a4,a5,0x18
  100684:	47b2                	lw	a5,12(sp)
  100686:	0795                	addi	a5,a5,5
  100688:	0007c783          	lbu	a5,0(a5)
  10068c:	07c2                	slli	a5,a5,0x10
  10068e:	8f3d                	xor	a4,a4,a5
  100690:	47b2                	lw	a5,12(sp)
  100692:	0799                	addi	a5,a5,6
  100694:	0007c783          	lbu	a5,0(a5)
  100698:	07a2                	slli	a5,a5,0x8
  10069a:	8f3d                	xor	a4,a4,a5
  10069c:	47b2                	lw	a5,12(sp)
  10069e:	079d                	addi	a5,a5,7
  1006a0:	0007c783          	lbu	a5,0(a5)
  1006a4:	86be                	mv	a3,a5
  1006a6:	47f2                	lw	a5,28(sp)
  1006a8:	0791                	addi	a5,a5,4
  1006aa:	8f35                	xor	a4,a4,a3
  1006ac:	c398                	sw	a4,0(a5)
    rk[2] = GETU32(userKey +  8);
  1006ae:	47b2                	lw	a5,12(sp)
  1006b0:	07a1                	addi	a5,a5,8
  1006b2:	0007c783          	lbu	a5,0(a5)
  1006b6:	01879713          	slli	a4,a5,0x18
  1006ba:	47b2                	lw	a5,12(sp)
  1006bc:	07a5                	addi	a5,a5,9
  1006be:	0007c783          	lbu	a5,0(a5)
  1006c2:	07c2                	slli	a5,a5,0x10
  1006c4:	8f3d                	xor	a4,a4,a5
  1006c6:	47b2                	lw	a5,12(sp)
  1006c8:	07a9                	addi	a5,a5,10
  1006ca:	0007c783          	lbu	a5,0(a5)
  1006ce:	07a2                	slli	a5,a5,0x8
  1006d0:	8f3d                	xor	a4,a4,a5
  1006d2:	47b2                	lw	a5,12(sp)
  1006d4:	07ad                	addi	a5,a5,11
  1006d6:	0007c783          	lbu	a5,0(a5)
  1006da:	86be                	mv	a3,a5
  1006dc:	47f2                	lw	a5,28(sp)
  1006de:	07a1                	addi	a5,a5,8
  1006e0:	8f35                	xor	a4,a4,a3
  1006e2:	c398                	sw	a4,0(a5)
    rk[3] = GETU32(userKey + 12);
  1006e4:	47b2                	lw	a5,12(sp)
  1006e6:	07b1                	addi	a5,a5,12
  1006e8:	0007c783          	lbu	a5,0(a5)
  1006ec:	01879713          	slli	a4,a5,0x18
  1006f0:	47b2                	lw	a5,12(sp)
  1006f2:	07b5                	addi	a5,a5,13
  1006f4:	0007c783          	lbu	a5,0(a5)
  1006f8:	07c2                	slli	a5,a5,0x10
  1006fa:	8f3d                	xor	a4,a4,a5
  1006fc:	47b2                	lw	a5,12(sp)
  1006fe:	07b9                	addi	a5,a5,14
  100700:	0007c783          	lbu	a5,0(a5)
  100704:	07a2                	slli	a5,a5,0x8
  100706:	8f3d                	xor	a4,a4,a5
  100708:	47b2                	lw	a5,12(sp)
  10070a:	07bd                	addi	a5,a5,15
  10070c:	0007c783          	lbu	a5,0(a5)
  100710:	86be                	mv	a3,a5
  100712:	47f2                	lw	a5,28(sp)
  100714:	07b1                	addi	a5,a5,12
  100716:	8f35                	xor	a4,a4,a3
  100718:	c398                	sw	a4,0(a5)
    if (bits == 128) {
  10071a:	4722                	lw	a4,8(sp)
  10071c:	08000793          	li	a5,128
  100720:	0ef71863          	bne	a4,a5,100810 <AES_set_encrypt_key+0x234>
        while (1) {
            temp  = rk[3];
  100724:	47f2                	lw	a5,28(sp)
  100726:	47dc                	lw	a5,12(a5)
  100728:	ca3e                	sw	a5,20(sp)
            rk[4] = rk[0] ^
  10072a:	47f2                	lw	a5,28(sp)
  10072c:	4398                	lw	a4,0(a5)
                (Te2[(temp >> 16) & 0xff] & 0xff000000) ^
  10072e:	47d2                	lw	a5,20(sp)
  100730:	83c1                	srli	a5,a5,0x10
  100732:	0ff7f793          	andi	a5,a5,255
  100736:	00001697          	auipc	a3,0x1
  10073a:	4e668693          	addi	a3,a3,1254 # 101c1c <Te2>
  10073e:	078a                	slli	a5,a5,0x2
  100740:	97b6                	add	a5,a5,a3
  100742:	4394                	lw	a3,0(a5)
  100744:	ff0007b7          	lui	a5,0xff000
  100748:	8ff5                	and	a5,a5,a3
            rk[4] = rk[0] ^
  10074a:	8f3d                	xor	a4,a4,a5
                (Te3[(temp >>  8) & 0xff] & 0x00ff0000) ^
  10074c:	47d2                	lw	a5,20(sp)
  10074e:	83a1                	srli	a5,a5,0x8
  100750:	0ff7f793          	andi	a5,a5,255
  100754:	00002697          	auipc	a3,0x2
  100758:	8c868693          	addi	a3,a3,-1848 # 10201c <Te3>
  10075c:	078a                	slli	a5,a5,0x2
  10075e:	97b6                	add	a5,a5,a3
  100760:	4394                	lw	a3,0(a5)
  100762:	00ff07b7          	lui	a5,0xff0
  100766:	8ff5                	and	a5,a5,a3
                (Te2[(temp >> 16) & 0xff] & 0xff000000) ^
  100768:	8f3d                	xor	a4,a4,a5
                (Te0[(temp      ) & 0xff] & 0x0000ff00) ^
  10076a:	47d2                	lw	a5,20(sp)
  10076c:	0ff7f793          	andi	a5,a5,255
  100770:	00001697          	auipc	a3,0x1
  100774:	cac68693          	addi	a3,a3,-852 # 10141c <Te0>
  100778:	078a                	slli	a5,a5,0x2
  10077a:	97b6                	add	a5,a5,a3
  10077c:	4394                	lw	a3,0(a5)
  10077e:	67c1                	lui	a5,0x10
  100780:	f0078793          	addi	a5,a5,-256 # ff00 <_stack_len+0x7f00>
  100784:	8ff5                	and	a5,a5,a3
                (Te3[(temp >>  8) & 0xff] & 0x00ff0000) ^
  100786:	8f3d                	xor	a4,a4,a5
                (Te1[(temp >> 24)       ] & 0x000000ff) ^
  100788:	47d2                	lw	a5,20(sp)
  10078a:	83e1                	srli	a5,a5,0x18
  10078c:	00001697          	auipc	a3,0x1
  100790:	09068693          	addi	a3,a3,144 # 10181c <Te1>
  100794:	078a                	slli	a5,a5,0x2
  100796:	97b6                	add	a5,a5,a3
  100798:	439c                	lw	a5,0(a5)
  10079a:	0ff7f793          	andi	a5,a5,255
                (Te0[(temp      ) & 0xff] & 0x0000ff00) ^
  10079e:	00f746b3          	xor	a3,a4,a5
                rcon[i];
  1007a2:	00003717          	auipc	a4,0x3
  1007a6:	d7a70713          	addi	a4,a4,-646 # 10351c <rcon>
  1007aa:	47e2                	lw	a5,24(sp)
  1007ac:	078a                	slli	a5,a5,0x2
  1007ae:	97ba                	add	a5,a5,a4
  1007b0:	4398                	lw	a4,0(a5)
            rk[4] = rk[0] ^
  1007b2:	47f2                	lw	a5,28(sp)
  1007b4:	07c1                	addi	a5,a5,16
                (Te1[(temp >> 24)       ] & 0x000000ff) ^
  1007b6:	8f35                	xor	a4,a4,a3
            rk[4] = rk[0] ^
  1007b8:	c398                	sw	a4,0(a5)
            rk[5] = rk[1] ^ rk[4];
  1007ba:	47f2                	lw	a5,28(sp)
  1007bc:	0791                	addi	a5,a5,4
  1007be:	4394                	lw	a3,0(a5)
  1007c0:	47f2                	lw	a5,28(sp)
  1007c2:	07c1                	addi	a5,a5,16
  1007c4:	4398                	lw	a4,0(a5)
  1007c6:	47f2                	lw	a5,28(sp)
  1007c8:	07d1                	addi	a5,a5,20
  1007ca:	8f35                	xor	a4,a4,a3
  1007cc:	c398                	sw	a4,0(a5)
            rk[6] = rk[2] ^ rk[5];
  1007ce:	47f2                	lw	a5,28(sp)
  1007d0:	07a1                	addi	a5,a5,8
  1007d2:	4394                	lw	a3,0(a5)
  1007d4:	47f2                	lw	a5,28(sp)
  1007d6:	07d1                	addi	a5,a5,20
  1007d8:	4398                	lw	a4,0(a5)
  1007da:	47f2                	lw	a5,28(sp)
  1007dc:	07e1                	addi	a5,a5,24
  1007de:	8f35                	xor	a4,a4,a3
  1007e0:	c398                	sw	a4,0(a5)
            rk[7] = rk[3] ^ rk[6];
  1007e2:	47f2                	lw	a5,28(sp)
  1007e4:	07b1                	addi	a5,a5,12
  1007e6:	4394                	lw	a3,0(a5)
  1007e8:	47f2                	lw	a5,28(sp)
  1007ea:	07e1                	addi	a5,a5,24
  1007ec:	4398                	lw	a4,0(a5)
  1007ee:	47f2                	lw	a5,28(sp)
  1007f0:	07f1                	addi	a5,a5,28
  1007f2:	8f35                	xor	a4,a4,a3
  1007f4:	c398                	sw	a4,0(a5)
            if (++i == 10) {
  1007f6:	47e2                	lw	a5,24(sp)
  1007f8:	0785                	addi	a5,a5,1
  1007fa:	cc3e                	sw	a5,24(sp)
  1007fc:	4762                	lw	a4,24(sp)
  1007fe:	47a9                	li	a5,10
  100800:	00f71463          	bne	a4,a5,100808 <AES_set_encrypt_key+0x22c>
                return 0;
  100804:	4781                	li	a5,0
  100806:	a6dd                	j	100bec <AES_set_encrypt_key+0x610>
            }
            rk += 4;
  100808:	47f2                	lw	a5,28(sp)
  10080a:	07c1                	addi	a5,a5,16
  10080c:	ce3e                	sw	a5,28(sp)
            temp  = rk[3];
  10080e:	bf19                	j	100724 <AES_set_encrypt_key+0x148>
        }
    }
    rk[4] = GETU32(userKey + 16);
  100810:	47b2                	lw	a5,12(sp)
  100812:	07c1                	addi	a5,a5,16
  100814:	0007c783          	lbu	a5,0(a5)
  100818:	01879713          	slli	a4,a5,0x18
  10081c:	47b2                	lw	a5,12(sp)
  10081e:	07c5                	addi	a5,a5,17
  100820:	0007c783          	lbu	a5,0(a5)
  100824:	07c2                	slli	a5,a5,0x10
  100826:	8f3d                	xor	a4,a4,a5
  100828:	47b2                	lw	a5,12(sp)
  10082a:	07c9                	addi	a5,a5,18
  10082c:	0007c783          	lbu	a5,0(a5)
  100830:	07a2                	slli	a5,a5,0x8
  100832:	8f3d                	xor	a4,a4,a5
  100834:	47b2                	lw	a5,12(sp)
  100836:	07cd                	addi	a5,a5,19
  100838:	0007c783          	lbu	a5,0(a5)
  10083c:	86be                	mv	a3,a5
  10083e:	47f2                	lw	a5,28(sp)
  100840:	07c1                	addi	a5,a5,16
  100842:	8f35                	xor	a4,a4,a3
  100844:	c398                	sw	a4,0(a5)
    rk[5] = GETU32(userKey + 20);
  100846:	47b2                	lw	a5,12(sp)
  100848:	07d1                	addi	a5,a5,20
  10084a:	0007c783          	lbu	a5,0(a5)
  10084e:	01879713          	slli	a4,a5,0x18
  100852:	47b2                	lw	a5,12(sp)
  100854:	07d5                	addi	a5,a5,21
  100856:	0007c783          	lbu	a5,0(a5)
  10085a:	07c2                	slli	a5,a5,0x10
  10085c:	8f3d                	xor	a4,a4,a5
  10085e:	47b2                	lw	a5,12(sp)
  100860:	07d9                	addi	a5,a5,22
  100862:	0007c783          	lbu	a5,0(a5)
  100866:	07a2                	slli	a5,a5,0x8
  100868:	8f3d                	xor	a4,a4,a5
  10086a:	47b2                	lw	a5,12(sp)
  10086c:	07dd                	addi	a5,a5,23
  10086e:	0007c783          	lbu	a5,0(a5)
  100872:	86be                	mv	a3,a5
  100874:	47f2                	lw	a5,28(sp)
  100876:	07d1                	addi	a5,a5,20
  100878:	8f35                	xor	a4,a4,a3
  10087a:	c398                	sw	a4,0(a5)
    if (bits == 192) {
  10087c:	4722                	lw	a4,8(sp)
  10087e:	0c000793          	li	a5,192
  100882:	12f71363          	bne	a4,a5,1009a8 <AES_set_encrypt_key+0x3cc>
        while (1) {
            temp = rk[ 5];
  100886:	47f2                	lw	a5,28(sp)
  100888:	4bdc                	lw	a5,20(a5)
  10088a:	ca3e                	sw	a5,20(sp)
            rk[ 6] = rk[ 0] ^
  10088c:	47f2                	lw	a5,28(sp)
  10088e:	4398                	lw	a4,0(a5)
                (Te2[(temp >> 16) & 0xff] & 0xff000000) ^
  100890:	47d2                	lw	a5,20(sp)
  100892:	83c1                	srli	a5,a5,0x10
  100894:	0ff7f793          	andi	a5,a5,255
  100898:	00001697          	auipc	a3,0x1
  10089c:	38468693          	addi	a3,a3,900 # 101c1c <Te2>
  1008a0:	078a                	slli	a5,a5,0x2
  1008a2:	97b6                	add	a5,a5,a3
  1008a4:	4394                	lw	a3,0(a5)
  1008a6:	ff0007b7          	lui	a5,0xff000
  1008aa:	8ff5                	and	a5,a5,a3
            rk[ 6] = rk[ 0] ^
  1008ac:	8f3d                	xor	a4,a4,a5
                (Te3[(temp >>  8) & 0xff] & 0x00ff0000) ^
  1008ae:	47d2                	lw	a5,20(sp)
  1008b0:	83a1                	srli	a5,a5,0x8
  1008b2:	0ff7f793          	andi	a5,a5,255
  1008b6:	00001697          	auipc	a3,0x1
  1008ba:	76668693          	addi	a3,a3,1894 # 10201c <Te3>
  1008be:	078a                	slli	a5,a5,0x2
  1008c0:	97b6                	add	a5,a5,a3
  1008c2:	4394                	lw	a3,0(a5)
  1008c4:	00ff07b7          	lui	a5,0xff0
  1008c8:	8ff5                	and	a5,a5,a3
                (Te2[(temp >> 16) & 0xff] & 0xff000000) ^
  1008ca:	8f3d                	xor	a4,a4,a5
                (Te0[(temp      ) & 0xff] & 0x0000ff00) ^
  1008cc:	47d2                	lw	a5,20(sp)
  1008ce:	0ff7f793          	andi	a5,a5,255
  1008d2:	00001697          	auipc	a3,0x1
  1008d6:	b4a68693          	addi	a3,a3,-1206 # 10141c <Te0>
  1008da:	078a                	slli	a5,a5,0x2
  1008dc:	97b6                	add	a5,a5,a3
  1008de:	4394                	lw	a3,0(a5)
  1008e0:	67c1                	lui	a5,0x10
  1008e2:	f0078793          	addi	a5,a5,-256 # ff00 <_stack_len+0x7f00>
  1008e6:	8ff5                	and	a5,a5,a3
                (Te3[(temp >>  8) & 0xff] & 0x00ff0000) ^
  1008e8:	8f3d                	xor	a4,a4,a5
                (Te1[(temp >> 24)       ] & 0x000000ff) ^
  1008ea:	47d2                	lw	a5,20(sp)
  1008ec:	83e1                	srli	a5,a5,0x18
  1008ee:	00001697          	auipc	a3,0x1
  1008f2:	f2e68693          	addi	a3,a3,-210 # 10181c <Te1>
  1008f6:	078a                	slli	a5,a5,0x2
  1008f8:	97b6                	add	a5,a5,a3
  1008fa:	439c                	lw	a5,0(a5)
  1008fc:	0ff7f793          	andi	a5,a5,255
                (Te0[(temp      ) & 0xff] & 0x0000ff00) ^
  100900:	00f746b3          	xor	a3,a4,a5
                rcon[i];
  100904:	00003717          	auipc	a4,0x3
  100908:	c1870713          	addi	a4,a4,-1000 # 10351c <rcon>
  10090c:	47e2                	lw	a5,24(sp)
  10090e:	078a                	slli	a5,a5,0x2
  100910:	97ba                	add	a5,a5,a4
  100912:	4398                	lw	a4,0(a5)
            rk[ 6] = rk[ 0] ^
  100914:	47f2                	lw	a5,28(sp)
  100916:	07e1                	addi	a5,a5,24
                (Te1[(temp >> 24)       ] & 0x000000ff) ^
  100918:	8f35                	xor	a4,a4,a3
            rk[ 6] = rk[ 0] ^
  10091a:	c398                	sw	a4,0(a5)
            rk[ 7] = rk[ 1] ^ rk[ 6];
  10091c:	47f2                	lw	a5,28(sp)
  10091e:	0791                	addi	a5,a5,4
  100920:	4394                	lw	a3,0(a5)
  100922:	47f2                	lw	a5,28(sp)
  100924:	07e1                	addi	a5,a5,24
  100926:	4398                	lw	a4,0(a5)
  100928:	47f2                	lw	a5,28(sp)
  10092a:	07f1                	addi	a5,a5,28
  10092c:	8f35                	xor	a4,a4,a3
  10092e:	c398                	sw	a4,0(a5)
            rk[ 8] = rk[ 2] ^ rk[ 7];
  100930:	47f2                	lw	a5,28(sp)
  100932:	07a1                	addi	a5,a5,8
  100934:	4394                	lw	a3,0(a5)
  100936:	47f2                	lw	a5,28(sp)
  100938:	07f1                	addi	a5,a5,28
  10093a:	4398                	lw	a4,0(a5)
  10093c:	47f2                	lw	a5,28(sp)
  10093e:	02078793          	addi	a5,a5,32
  100942:	8f35                	xor	a4,a4,a3
  100944:	c398                	sw	a4,0(a5)
            rk[ 9] = rk[ 3] ^ rk[ 8];
  100946:	47f2                	lw	a5,28(sp)
  100948:	07b1                	addi	a5,a5,12
  10094a:	4394                	lw	a3,0(a5)
  10094c:	47f2                	lw	a5,28(sp)
  10094e:	02078793          	addi	a5,a5,32
  100952:	4398                	lw	a4,0(a5)
  100954:	47f2                	lw	a5,28(sp)
  100956:	02478793          	addi	a5,a5,36
  10095a:	8f35                	xor	a4,a4,a3
  10095c:	c398                	sw	a4,0(a5)
            if (++i == 8) {
  10095e:	47e2                	lw	a5,24(sp)
  100960:	0785                	addi	a5,a5,1
  100962:	cc3e                	sw	a5,24(sp)
  100964:	4762                	lw	a4,24(sp)
  100966:	47a1                	li	a5,8
  100968:	00f71463          	bne	a4,a5,100970 <AES_set_encrypt_key+0x394>
                return 0;
  10096c:	4781                	li	a5,0
  10096e:	acbd                	j	100bec <AES_set_encrypt_key+0x610>
            }
            rk[10] = rk[ 4] ^ rk[ 9];
  100970:	47f2                	lw	a5,28(sp)
  100972:	07c1                	addi	a5,a5,16
  100974:	4394                	lw	a3,0(a5)
  100976:	47f2                	lw	a5,28(sp)
  100978:	02478793          	addi	a5,a5,36
  10097c:	4398                	lw	a4,0(a5)
  10097e:	47f2                	lw	a5,28(sp)
  100980:	02878793          	addi	a5,a5,40
  100984:	8f35                	xor	a4,a4,a3
  100986:	c398                	sw	a4,0(a5)
            rk[11] = rk[ 5] ^ rk[10];
  100988:	47f2                	lw	a5,28(sp)
  10098a:	07d1                	addi	a5,a5,20
  10098c:	4394                	lw	a3,0(a5)
  10098e:	47f2                	lw	a5,28(sp)
  100990:	02878793          	addi	a5,a5,40
  100994:	4398                	lw	a4,0(a5)
  100996:	47f2                	lw	a5,28(sp)
  100998:	02c78793          	addi	a5,a5,44
  10099c:	8f35                	xor	a4,a4,a3
  10099e:	c398                	sw	a4,0(a5)
            rk += 6;
  1009a0:	47f2                	lw	a5,28(sp)
  1009a2:	07e1                	addi	a5,a5,24
  1009a4:	ce3e                	sw	a5,28(sp)
            temp = rk[ 5];
  1009a6:	b5c5                	j	100886 <AES_set_encrypt_key+0x2aa>
        }
    }
    rk[6] = GETU32(userKey + 24);
  1009a8:	47b2                	lw	a5,12(sp)
  1009aa:	07e1                	addi	a5,a5,24
  1009ac:	0007c783          	lbu	a5,0(a5)
  1009b0:	01879713          	slli	a4,a5,0x18
  1009b4:	47b2                	lw	a5,12(sp)
  1009b6:	07e5                	addi	a5,a5,25
  1009b8:	0007c783          	lbu	a5,0(a5)
  1009bc:	07c2                	slli	a5,a5,0x10
  1009be:	8f3d                	xor	a4,a4,a5
  1009c0:	47b2                	lw	a5,12(sp)
  1009c2:	07e9                	addi	a5,a5,26
  1009c4:	0007c783          	lbu	a5,0(a5)
  1009c8:	07a2                	slli	a5,a5,0x8
  1009ca:	8f3d                	xor	a4,a4,a5
  1009cc:	47b2                	lw	a5,12(sp)
  1009ce:	07ed                	addi	a5,a5,27
  1009d0:	0007c783          	lbu	a5,0(a5)
  1009d4:	86be                	mv	a3,a5
  1009d6:	47f2                	lw	a5,28(sp)
  1009d8:	07e1                	addi	a5,a5,24
  1009da:	8f35                	xor	a4,a4,a3
  1009dc:	c398                	sw	a4,0(a5)
    rk[7] = GETU32(userKey + 28);
  1009de:	47b2                	lw	a5,12(sp)
  1009e0:	07f1                	addi	a5,a5,28
  1009e2:	0007c783          	lbu	a5,0(a5)
  1009e6:	01879713          	slli	a4,a5,0x18
  1009ea:	47b2                	lw	a5,12(sp)
  1009ec:	07f5                	addi	a5,a5,29
  1009ee:	0007c783          	lbu	a5,0(a5)
  1009f2:	07c2                	slli	a5,a5,0x10
  1009f4:	8f3d                	xor	a4,a4,a5
  1009f6:	47b2                	lw	a5,12(sp)
  1009f8:	07f9                	addi	a5,a5,30
  1009fa:	0007c783          	lbu	a5,0(a5)
  1009fe:	07a2                	slli	a5,a5,0x8
  100a00:	8f3d                	xor	a4,a4,a5
  100a02:	47b2                	lw	a5,12(sp)
  100a04:	07fd                	addi	a5,a5,31
  100a06:	0007c783          	lbu	a5,0(a5)
  100a0a:	86be                	mv	a3,a5
  100a0c:	47f2                	lw	a5,28(sp)
  100a0e:	07f1                	addi	a5,a5,28
  100a10:	8f35                	xor	a4,a4,a3
  100a12:	c398                	sw	a4,0(a5)
    if (bits == 256) {
  100a14:	4722                	lw	a4,8(sp)
  100a16:	10000793          	li	a5,256
  100a1a:	1cf71863          	bne	a4,a5,100bea <AES_set_encrypt_key+0x60e>
        while (1) {
            temp = rk[ 7];
  100a1e:	47f2                	lw	a5,28(sp)
  100a20:	4fdc                	lw	a5,28(a5)
  100a22:	ca3e                	sw	a5,20(sp)
            rk[ 8] = rk[ 0] ^
  100a24:	47f2                	lw	a5,28(sp)
  100a26:	4398                	lw	a4,0(a5)
                (Te2[(temp >> 16) & 0xff] & 0xff000000) ^
  100a28:	47d2                	lw	a5,20(sp)
  100a2a:	83c1                	srli	a5,a5,0x10
  100a2c:	0ff7f793          	andi	a5,a5,255
  100a30:	00001697          	auipc	a3,0x1
  100a34:	1ec68693          	addi	a3,a3,492 # 101c1c <Te2>
  100a38:	078a                	slli	a5,a5,0x2
  100a3a:	97b6                	add	a5,a5,a3
  100a3c:	4394                	lw	a3,0(a5)
  100a3e:	ff0007b7          	lui	a5,0xff000
  100a42:	8ff5                	and	a5,a5,a3
            rk[ 8] = rk[ 0] ^
  100a44:	8f3d                	xor	a4,a4,a5
                (Te3[(temp >>  8) & 0xff] & 0x00ff0000) ^
  100a46:	47d2                	lw	a5,20(sp)
  100a48:	83a1                	srli	a5,a5,0x8
  100a4a:	0ff7f793          	andi	a5,a5,255
  100a4e:	00001697          	auipc	a3,0x1
  100a52:	5ce68693          	addi	a3,a3,1486 # 10201c <Te3>
  100a56:	078a                	slli	a5,a5,0x2
  100a58:	97b6                	add	a5,a5,a3
  100a5a:	4394                	lw	a3,0(a5)
  100a5c:	00ff07b7          	lui	a5,0xff0
  100a60:	8ff5                	and	a5,a5,a3
                (Te2[(temp >> 16) & 0xff] & 0xff000000) ^
  100a62:	8f3d                	xor	a4,a4,a5
                (Te0[(temp      ) & 0xff] & 0x0000ff00) ^
  100a64:	47d2                	lw	a5,20(sp)
  100a66:	0ff7f793          	andi	a5,a5,255
  100a6a:	00001697          	auipc	a3,0x1
  100a6e:	9b268693          	addi	a3,a3,-1614 # 10141c <Te0>
  100a72:	078a                	slli	a5,a5,0x2
  100a74:	97b6                	add	a5,a5,a3
  100a76:	4394                	lw	a3,0(a5)
  100a78:	67c1                	lui	a5,0x10
  100a7a:	f0078793          	addi	a5,a5,-256 # ff00 <_stack_len+0x7f00>
  100a7e:	8ff5                	and	a5,a5,a3
                (Te3[(temp >>  8) & 0xff] & 0x00ff0000) ^
  100a80:	8f3d                	xor	a4,a4,a5
                (Te1[(temp >> 24)       ] & 0x000000ff) ^
  100a82:	47d2                	lw	a5,20(sp)
  100a84:	83e1                	srli	a5,a5,0x18
  100a86:	00001697          	auipc	a3,0x1
  100a8a:	d9668693          	addi	a3,a3,-618 # 10181c <Te1>
  100a8e:	078a                	slli	a5,a5,0x2
  100a90:	97b6                	add	a5,a5,a3
  100a92:	439c                	lw	a5,0(a5)
  100a94:	0ff7f793          	andi	a5,a5,255
                (Te0[(temp      ) & 0xff] & 0x0000ff00) ^
  100a98:	00f746b3          	xor	a3,a4,a5
                rcon[i];
  100a9c:	00003717          	auipc	a4,0x3
  100aa0:	a8070713          	addi	a4,a4,-1408 # 10351c <rcon>
  100aa4:	47e2                	lw	a5,24(sp)
  100aa6:	078a                	slli	a5,a5,0x2
  100aa8:	97ba                	add	a5,a5,a4
  100aaa:	4398                	lw	a4,0(a5)
            rk[ 8] = rk[ 0] ^
  100aac:	47f2                	lw	a5,28(sp)
  100aae:	02078793          	addi	a5,a5,32
                (Te1[(temp >> 24)       ] & 0x000000ff) ^
  100ab2:	8f35                	xor	a4,a4,a3
            rk[ 8] = rk[ 0] ^
  100ab4:	c398                	sw	a4,0(a5)
            rk[ 9] = rk[ 1] ^ rk[ 8];
  100ab6:	47f2                	lw	a5,28(sp)
  100ab8:	0791                	addi	a5,a5,4
  100aba:	4394                	lw	a3,0(a5)
  100abc:	47f2                	lw	a5,28(sp)
  100abe:	02078793          	addi	a5,a5,32
  100ac2:	4398                	lw	a4,0(a5)
  100ac4:	47f2                	lw	a5,28(sp)
  100ac6:	02478793          	addi	a5,a5,36
  100aca:	8f35                	xor	a4,a4,a3
  100acc:	c398                	sw	a4,0(a5)
            rk[10] = rk[ 2] ^ rk[ 9];
  100ace:	47f2                	lw	a5,28(sp)
  100ad0:	07a1                	addi	a5,a5,8
  100ad2:	4394                	lw	a3,0(a5)
  100ad4:	47f2                	lw	a5,28(sp)
  100ad6:	02478793          	addi	a5,a5,36
  100ada:	4398                	lw	a4,0(a5)
  100adc:	47f2                	lw	a5,28(sp)
  100ade:	02878793          	addi	a5,a5,40
  100ae2:	8f35                	xor	a4,a4,a3
  100ae4:	c398                	sw	a4,0(a5)
            rk[11] = rk[ 3] ^ rk[10];
  100ae6:	47f2                	lw	a5,28(sp)
  100ae8:	07b1                	addi	a5,a5,12
  100aea:	4394                	lw	a3,0(a5)
  100aec:	47f2                	lw	a5,28(sp)
  100aee:	02878793          	addi	a5,a5,40
  100af2:	4398                	lw	a4,0(a5)
  100af4:	47f2                	lw	a5,28(sp)
  100af6:	02c78793          	addi	a5,a5,44
  100afa:	8f35                	xor	a4,a4,a3
  100afc:	c398                	sw	a4,0(a5)
            if (++i == 7) {
  100afe:	47e2                	lw	a5,24(sp)
  100b00:	0785                	addi	a5,a5,1
  100b02:	cc3e                	sw	a5,24(sp)
  100b04:	4762                	lw	a4,24(sp)
  100b06:	479d                	li	a5,7
  100b08:	00f71463          	bne	a4,a5,100b10 <AES_set_encrypt_key+0x534>
                return 0;
  100b0c:	4781                	li	a5,0
  100b0e:	a8f9                	j	100bec <AES_set_encrypt_key+0x610>
            }
            temp = rk[11];
  100b10:	47f2                	lw	a5,28(sp)
  100b12:	57dc                	lw	a5,44(a5)
  100b14:	ca3e                	sw	a5,20(sp)
            rk[12] = rk[ 4] ^
  100b16:	47f2                	lw	a5,28(sp)
  100b18:	07c1                	addi	a5,a5,16
  100b1a:	4398                	lw	a4,0(a5)
                (Te2[(temp >> 24)       ] & 0xff000000) ^
  100b1c:	47d2                	lw	a5,20(sp)
  100b1e:	83e1                	srli	a5,a5,0x18
  100b20:	00001697          	auipc	a3,0x1
  100b24:	0fc68693          	addi	a3,a3,252 # 101c1c <Te2>
  100b28:	078a                	slli	a5,a5,0x2
  100b2a:	97b6                	add	a5,a5,a3
  100b2c:	4394                	lw	a3,0(a5)
  100b2e:	ff0007b7          	lui	a5,0xff000
  100b32:	8ff5                	and	a5,a5,a3
            rk[12] = rk[ 4] ^
  100b34:	8f3d                	xor	a4,a4,a5
                (Te3[(temp >> 16) & 0xff] & 0x00ff0000) ^
  100b36:	47d2                	lw	a5,20(sp)
  100b38:	83c1                	srli	a5,a5,0x10
  100b3a:	0ff7f793          	andi	a5,a5,255
  100b3e:	00001697          	auipc	a3,0x1
  100b42:	4de68693          	addi	a3,a3,1246 # 10201c <Te3>
  100b46:	078a                	slli	a5,a5,0x2
  100b48:	97b6                	add	a5,a5,a3
  100b4a:	4394                	lw	a3,0(a5)
  100b4c:	00ff07b7          	lui	a5,0xff0
  100b50:	8ff5                	and	a5,a5,a3
                (Te2[(temp >> 24)       ] & 0xff000000) ^
  100b52:	8f3d                	xor	a4,a4,a5
                (Te0[(temp >>  8) & 0xff] & 0x0000ff00) ^
  100b54:	47d2                	lw	a5,20(sp)
  100b56:	83a1                	srli	a5,a5,0x8
  100b58:	0ff7f793          	andi	a5,a5,255
  100b5c:	00001697          	auipc	a3,0x1
  100b60:	8c068693          	addi	a3,a3,-1856 # 10141c <Te0>
  100b64:	078a                	slli	a5,a5,0x2
  100b66:	97b6                	add	a5,a5,a3
  100b68:	4394                	lw	a3,0(a5)
  100b6a:	67c1                	lui	a5,0x10
  100b6c:	f0078793          	addi	a5,a5,-256 # ff00 <_stack_len+0x7f00>
  100b70:	8ff5                	and	a5,a5,a3
                (Te3[(temp >> 16) & 0xff] & 0x00ff0000) ^
  100b72:	00f746b3          	xor	a3,a4,a5
                (Te1[(temp      ) & 0xff] & 0x000000ff);
  100b76:	47d2                	lw	a5,20(sp)
  100b78:	0ff7f793          	andi	a5,a5,255
  100b7c:	00001717          	auipc	a4,0x1
  100b80:	ca070713          	addi	a4,a4,-864 # 10181c <Te1>
  100b84:	078a                	slli	a5,a5,0x2
  100b86:	97ba                	add	a5,a5,a4
  100b88:	439c                	lw	a5,0(a5)
  100b8a:	0ff7f713          	andi	a4,a5,255
            rk[12] = rk[ 4] ^
  100b8e:	47f2                	lw	a5,28(sp)
  100b90:	03078793          	addi	a5,a5,48
                (Te0[(temp >>  8) & 0xff] & 0x0000ff00) ^
  100b94:	8f35                	xor	a4,a4,a3
            rk[12] = rk[ 4] ^
  100b96:	c398                	sw	a4,0(a5)
            rk[13] = rk[ 5] ^ rk[12];
  100b98:	47f2                	lw	a5,28(sp)
  100b9a:	07d1                	addi	a5,a5,20
  100b9c:	4394                	lw	a3,0(a5)
  100b9e:	47f2                	lw	a5,28(sp)
  100ba0:	03078793          	addi	a5,a5,48
  100ba4:	4398                	lw	a4,0(a5)
  100ba6:	47f2                	lw	a5,28(sp)
  100ba8:	03478793          	addi	a5,a5,52
  100bac:	8f35                	xor	a4,a4,a3
  100bae:	c398                	sw	a4,0(a5)
            rk[14] = rk[ 6] ^ rk[13];
  100bb0:	47f2                	lw	a5,28(sp)
  100bb2:	07e1                	addi	a5,a5,24
  100bb4:	4394                	lw	a3,0(a5)
  100bb6:	47f2                	lw	a5,28(sp)
  100bb8:	03478793          	addi	a5,a5,52
  100bbc:	4398                	lw	a4,0(a5)
  100bbe:	47f2                	lw	a5,28(sp)
  100bc0:	03878793          	addi	a5,a5,56
  100bc4:	8f35                	xor	a4,a4,a3
  100bc6:	c398                	sw	a4,0(a5)
            rk[15] = rk[ 7] ^ rk[14];
  100bc8:	47f2                	lw	a5,28(sp)
  100bca:	07f1                	addi	a5,a5,28
  100bcc:	4394                	lw	a3,0(a5)
  100bce:	47f2                	lw	a5,28(sp)
  100bd0:	03878793          	addi	a5,a5,56
  100bd4:	4398                	lw	a4,0(a5)
  100bd6:	47f2                	lw	a5,28(sp)
  100bd8:	03c78793          	addi	a5,a5,60
  100bdc:	8f35                	xor	a4,a4,a3
  100bde:	c398                	sw	a4,0(a5)

            rk += 8;
  100be0:	47f2                	lw	a5,28(sp)
  100be2:	02078793          	addi	a5,a5,32
  100be6:	ce3e                	sw	a5,28(sp)
            temp = rk[ 7];
  100be8:	bd1d                	j	100a1e <AES_set_encrypt_key+0x442>
            }
    }
    return 0;
  100bea:	4781                	li	a5,0
}
  100bec:	853e                	mv	a0,a5
  100bee:	6105                	addi	sp,sp,32
  100bf0:	8082                	ret

00100bf2 <AES_encrypt>:
/*
 * Encrypt a single block
 * in and out can overlap
 */
void AES_encrypt(const unsigned char *in, unsigned char *out,
                 const AES_KEY *key) {
  100bf2:	7139                	addi	sp,sp,-64
  100bf4:	c62a                	sw	a0,12(sp)
  100bf6:	c42e                	sw	a1,8(sp)
  100bf8:	c232                	sw	a2,4(sp)
#ifndef FULL_UNROLL
    int r;
#endif /* ?FULL_UNROLL */

    //assert(in && out && key);
    rk = key->rd_key;
  100bfa:	4792                	lw	a5,4(sp)
  100bfc:	de3e                	sw	a5,60(sp)

    /*
     * map byte array block to cipher state
     * and add initial round key:
     */
    s0 = GETU32(in     ) ^ rk[0];
  100bfe:	47b2                	lw	a5,12(sp)
  100c00:	0007c783          	lbu	a5,0(a5)
  100c04:	01879713          	slli	a4,a5,0x18
  100c08:	47b2                	lw	a5,12(sp)
  100c0a:	0785                	addi	a5,a5,1
  100c0c:	0007c783          	lbu	a5,0(a5)
  100c10:	07c2                	slli	a5,a5,0x10
  100c12:	8f3d                	xor	a4,a4,a5
  100c14:	47b2                	lw	a5,12(sp)
  100c16:	0789                	addi	a5,a5,2
  100c18:	0007c783          	lbu	a5,0(a5)
  100c1c:	07a2                	slli	a5,a5,0x8
  100c1e:	8fb9                	xor	a5,a5,a4
  100c20:	4732                	lw	a4,12(sp)
  100c22:	070d                	addi	a4,a4,3
  100c24:	00074703          	lbu	a4,0(a4)
  100c28:	8f3d                	xor	a4,a4,a5
  100c2a:	57f2                	lw	a5,60(sp)
  100c2c:	439c                	lw	a5,0(a5)
  100c2e:	8fb9                	xor	a5,a5,a4
  100c30:	dc3e                	sw	a5,56(sp)
    s1 = GETU32(in +  4) ^ rk[1];
  100c32:	47b2                	lw	a5,12(sp)
  100c34:	0791                	addi	a5,a5,4
  100c36:	0007c783          	lbu	a5,0(a5)
  100c3a:	01879713          	slli	a4,a5,0x18
  100c3e:	47b2                	lw	a5,12(sp)
  100c40:	0795                	addi	a5,a5,5
  100c42:	0007c783          	lbu	a5,0(a5)
  100c46:	07c2                	slli	a5,a5,0x10
  100c48:	8f3d                	xor	a4,a4,a5
  100c4a:	47b2                	lw	a5,12(sp)
  100c4c:	0799                	addi	a5,a5,6
  100c4e:	0007c783          	lbu	a5,0(a5)
  100c52:	07a2                	slli	a5,a5,0x8
  100c54:	8fb9                	xor	a5,a5,a4
  100c56:	4732                	lw	a4,12(sp)
  100c58:	071d                	addi	a4,a4,7
  100c5a:	00074703          	lbu	a4,0(a4)
  100c5e:	8f3d                	xor	a4,a4,a5
  100c60:	57f2                	lw	a5,60(sp)
  100c62:	0791                	addi	a5,a5,4
  100c64:	439c                	lw	a5,0(a5)
  100c66:	8fb9                	xor	a5,a5,a4
  100c68:	da3e                	sw	a5,52(sp)
    s2 = GETU32(in +  8) ^ rk[2];
  100c6a:	47b2                	lw	a5,12(sp)
  100c6c:	07a1                	addi	a5,a5,8
  100c6e:	0007c783          	lbu	a5,0(a5)
  100c72:	01879713          	slli	a4,a5,0x18
  100c76:	47b2                	lw	a5,12(sp)
  100c78:	07a5                	addi	a5,a5,9
  100c7a:	0007c783          	lbu	a5,0(a5)
  100c7e:	07c2                	slli	a5,a5,0x10
  100c80:	8f3d                	xor	a4,a4,a5
  100c82:	47b2                	lw	a5,12(sp)
  100c84:	07a9                	addi	a5,a5,10
  100c86:	0007c783          	lbu	a5,0(a5)
  100c8a:	07a2                	slli	a5,a5,0x8
  100c8c:	8fb9                	xor	a5,a5,a4
  100c8e:	4732                	lw	a4,12(sp)
  100c90:	072d                	addi	a4,a4,11
  100c92:	00074703          	lbu	a4,0(a4)
  100c96:	8f3d                	xor	a4,a4,a5
  100c98:	57f2                	lw	a5,60(sp)
  100c9a:	07a1                	addi	a5,a5,8
  100c9c:	439c                	lw	a5,0(a5)
  100c9e:	8fb9                	xor	a5,a5,a4
  100ca0:	d83e                	sw	a5,48(sp)
    s3 = GETU32(in + 12) ^ rk[3];
  100ca2:	47b2                	lw	a5,12(sp)
  100ca4:	07b1                	addi	a5,a5,12
  100ca6:	0007c783          	lbu	a5,0(a5)
  100caa:	01879713          	slli	a4,a5,0x18
  100cae:	47b2                	lw	a5,12(sp)
  100cb0:	07b5                	addi	a5,a5,13
  100cb2:	0007c783          	lbu	a5,0(a5)
  100cb6:	07c2                	slli	a5,a5,0x10
  100cb8:	8f3d                	xor	a4,a4,a5
  100cba:	47b2                	lw	a5,12(sp)
  100cbc:	07b9                	addi	a5,a5,14
  100cbe:	0007c783          	lbu	a5,0(a5)
  100cc2:	07a2                	slli	a5,a5,0x8
  100cc4:	8fb9                	xor	a5,a5,a4
  100cc6:	4732                	lw	a4,12(sp)
  100cc8:	073d                	addi	a4,a4,15
  100cca:	00074703          	lbu	a4,0(a4)
  100cce:	8f3d                	xor	a4,a4,a5
  100cd0:	57f2                	lw	a5,60(sp)
  100cd2:	07b1                	addi	a5,a5,12
  100cd4:	439c                	lw	a5,0(a5)
  100cd6:	8fb9                	xor	a5,a5,a4
  100cd8:	d63e                	sw	a5,44(sp)
    rk += key->rounds << 2;
#else  /* !FULL_UNROLL */
    /*
     * Nr - 1 full rounds:
     */
    r = key->rounds >> 1;
  100cda:	4792                	lw	a5,4(sp)
  100cdc:	0f07a783          	lw	a5,240(a5)
  100ce0:	8785                	srai	a5,a5,0x1
  100ce2:	d43e                	sw	a5,40(sp)
    for (;;) {
        t0 =
            Te0[(s0 >> 24)       ] ^
  100ce4:	57e2                	lw	a5,56(sp)
  100ce6:	83e1                	srli	a5,a5,0x18
  100ce8:	00000717          	auipc	a4,0x0
  100cec:	73470713          	addi	a4,a4,1844 # 10141c <Te0>
  100cf0:	078a                	slli	a5,a5,0x2
  100cf2:	97ba                	add	a5,a5,a4
  100cf4:	4398                	lw	a4,0(a5)
            Te1[(s1 >> 16) & 0xff] ^
  100cf6:	57d2                	lw	a5,52(sp)
  100cf8:	83c1                	srli	a5,a5,0x10
  100cfa:	0ff7f793          	andi	a5,a5,255
  100cfe:	00001697          	auipc	a3,0x1
  100d02:	b1e68693          	addi	a3,a3,-1250 # 10181c <Te1>
  100d06:	078a                	slli	a5,a5,0x2
  100d08:	97b6                	add	a5,a5,a3
  100d0a:	439c                	lw	a5,0(a5)
            Te0[(s0 >> 24)       ] ^
  100d0c:	8f3d                	xor	a4,a4,a5
            Te2[(s2 >>  8) & 0xff] ^
  100d0e:	57c2                	lw	a5,48(sp)
  100d10:	83a1                	srli	a5,a5,0x8
  100d12:	0ff7f793          	andi	a5,a5,255
  100d16:	00001697          	auipc	a3,0x1
  100d1a:	f0668693          	addi	a3,a3,-250 # 101c1c <Te2>
  100d1e:	078a                	slli	a5,a5,0x2
  100d20:	97b6                	add	a5,a5,a3
  100d22:	439c                	lw	a5,0(a5)
            Te1[(s1 >> 16) & 0xff] ^
  100d24:	8f3d                	xor	a4,a4,a5
            Te3[(s3      ) & 0xff] ^
  100d26:	57b2                	lw	a5,44(sp)
  100d28:	0ff7f793          	andi	a5,a5,255
  100d2c:	00001697          	auipc	a3,0x1
  100d30:	2f068693          	addi	a3,a3,752 # 10201c <Te3>
  100d34:	078a                	slli	a5,a5,0x2
  100d36:	97b6                	add	a5,a5,a3
  100d38:	439c                	lw	a5,0(a5)
            Te2[(s2 >>  8) & 0xff] ^
  100d3a:	8f3d                	xor	a4,a4,a5
            rk[4];
  100d3c:	57f2                	lw	a5,60(sp)
  100d3e:	07c1                	addi	a5,a5,16
  100d40:	439c                	lw	a5,0(a5)
        t0 =
  100d42:	8fb9                	xor	a5,a5,a4
  100d44:	d23e                	sw	a5,36(sp)
        t1 =
            Te0[(s1 >> 24)       ] ^
  100d46:	57d2                	lw	a5,52(sp)
  100d48:	83e1                	srli	a5,a5,0x18
  100d4a:	00000717          	auipc	a4,0x0
  100d4e:	6d270713          	addi	a4,a4,1746 # 10141c <Te0>
  100d52:	078a                	slli	a5,a5,0x2
  100d54:	97ba                	add	a5,a5,a4
  100d56:	4398                	lw	a4,0(a5)
            Te1[(s2 >> 16) & 0xff] ^
  100d58:	57c2                	lw	a5,48(sp)
  100d5a:	83c1                	srli	a5,a5,0x10
  100d5c:	0ff7f793          	andi	a5,a5,255
  100d60:	00001697          	auipc	a3,0x1
  100d64:	abc68693          	addi	a3,a3,-1348 # 10181c <Te1>
  100d68:	078a                	slli	a5,a5,0x2
  100d6a:	97b6                	add	a5,a5,a3
  100d6c:	439c                	lw	a5,0(a5)
            Te0[(s1 >> 24)       ] ^
  100d6e:	8f3d                	xor	a4,a4,a5
            Te2[(s3 >>  8) & 0xff] ^
  100d70:	57b2                	lw	a5,44(sp)
  100d72:	83a1                	srli	a5,a5,0x8
  100d74:	0ff7f793          	andi	a5,a5,255
  100d78:	00001697          	auipc	a3,0x1
  100d7c:	ea468693          	addi	a3,a3,-348 # 101c1c <Te2>
  100d80:	078a                	slli	a5,a5,0x2
  100d82:	97b6                	add	a5,a5,a3
  100d84:	439c                	lw	a5,0(a5)
            Te1[(s2 >> 16) & 0xff] ^
  100d86:	8f3d                	xor	a4,a4,a5
            Te3[(s0      ) & 0xff] ^
  100d88:	57e2                	lw	a5,56(sp)
  100d8a:	0ff7f793          	andi	a5,a5,255
  100d8e:	00001697          	auipc	a3,0x1
  100d92:	28e68693          	addi	a3,a3,654 # 10201c <Te3>
  100d96:	078a                	slli	a5,a5,0x2
  100d98:	97b6                	add	a5,a5,a3
  100d9a:	439c                	lw	a5,0(a5)
            Te2[(s3 >>  8) & 0xff] ^
  100d9c:	8f3d                	xor	a4,a4,a5
            rk[5];
  100d9e:	57f2                	lw	a5,60(sp)
  100da0:	07d1                	addi	a5,a5,20
  100da2:	439c                	lw	a5,0(a5)
        t1 =
  100da4:	8fb9                	xor	a5,a5,a4
  100da6:	d03e                	sw	a5,32(sp)
        t2 =
            Te0[(s2 >> 24)       ] ^
  100da8:	57c2                	lw	a5,48(sp)
  100daa:	83e1                	srli	a5,a5,0x18
  100dac:	00000717          	auipc	a4,0x0
  100db0:	67070713          	addi	a4,a4,1648 # 10141c <Te0>
  100db4:	078a                	slli	a5,a5,0x2
  100db6:	97ba                	add	a5,a5,a4
  100db8:	4398                	lw	a4,0(a5)
            Te1[(s3 >> 16) & 0xff] ^
  100dba:	57b2                	lw	a5,44(sp)
  100dbc:	83c1                	srli	a5,a5,0x10
  100dbe:	0ff7f793          	andi	a5,a5,255
  100dc2:	00001697          	auipc	a3,0x1
  100dc6:	a5a68693          	addi	a3,a3,-1446 # 10181c <Te1>
  100dca:	078a                	slli	a5,a5,0x2
  100dcc:	97b6                	add	a5,a5,a3
  100dce:	439c                	lw	a5,0(a5)
            Te0[(s2 >> 24)       ] ^
  100dd0:	8f3d                	xor	a4,a4,a5
            Te2[(s0 >>  8) & 0xff] ^
  100dd2:	57e2                	lw	a5,56(sp)
  100dd4:	83a1                	srli	a5,a5,0x8
  100dd6:	0ff7f793          	andi	a5,a5,255
  100dda:	00001697          	auipc	a3,0x1
  100dde:	e4268693          	addi	a3,a3,-446 # 101c1c <Te2>
  100de2:	078a                	slli	a5,a5,0x2
  100de4:	97b6                	add	a5,a5,a3
  100de6:	439c                	lw	a5,0(a5)
            Te1[(s3 >> 16) & 0xff] ^
  100de8:	8f3d                	xor	a4,a4,a5
            Te3[(s1      ) & 0xff] ^
  100dea:	57d2                	lw	a5,52(sp)
  100dec:	0ff7f793          	andi	a5,a5,255
  100df0:	00001697          	auipc	a3,0x1
  100df4:	22c68693          	addi	a3,a3,556 # 10201c <Te3>
  100df8:	078a                	slli	a5,a5,0x2
  100dfa:	97b6                	add	a5,a5,a3
  100dfc:	439c                	lw	a5,0(a5)
            Te2[(s0 >>  8) & 0xff] ^
  100dfe:	8f3d                	xor	a4,a4,a5
            rk[6];
  100e00:	57f2                	lw	a5,60(sp)
  100e02:	07e1                	addi	a5,a5,24
  100e04:	439c                	lw	a5,0(a5)
        t2 =
  100e06:	8fb9                	xor	a5,a5,a4
  100e08:	ce3e                	sw	a5,28(sp)
        t3 =
            Te0[(s3 >> 24)       ] ^
  100e0a:	57b2                	lw	a5,44(sp)
  100e0c:	83e1                	srli	a5,a5,0x18
  100e0e:	00000717          	auipc	a4,0x0
  100e12:	60e70713          	addi	a4,a4,1550 # 10141c <Te0>
  100e16:	078a                	slli	a5,a5,0x2
  100e18:	97ba                	add	a5,a5,a4
  100e1a:	4398                	lw	a4,0(a5)
            Te1[(s0 >> 16) & 0xff] ^
  100e1c:	57e2                	lw	a5,56(sp)
  100e1e:	83c1                	srli	a5,a5,0x10
  100e20:	0ff7f793          	andi	a5,a5,255
  100e24:	00001697          	auipc	a3,0x1
  100e28:	9f868693          	addi	a3,a3,-1544 # 10181c <Te1>
  100e2c:	078a                	slli	a5,a5,0x2
  100e2e:	97b6                	add	a5,a5,a3
  100e30:	439c                	lw	a5,0(a5)
            Te0[(s3 >> 24)       ] ^
  100e32:	8f3d                	xor	a4,a4,a5
            Te2[(s1 >>  8) & 0xff] ^
  100e34:	57d2                	lw	a5,52(sp)
  100e36:	83a1                	srli	a5,a5,0x8
  100e38:	0ff7f793          	andi	a5,a5,255
  100e3c:	00001697          	auipc	a3,0x1
  100e40:	de068693          	addi	a3,a3,-544 # 101c1c <Te2>
  100e44:	078a                	slli	a5,a5,0x2
  100e46:	97b6                	add	a5,a5,a3
  100e48:	439c                	lw	a5,0(a5)
            Te1[(s0 >> 16) & 0xff] ^
  100e4a:	8f3d                	xor	a4,a4,a5
            Te3[(s2      ) & 0xff] ^
  100e4c:	57c2                	lw	a5,48(sp)
  100e4e:	0ff7f793          	andi	a5,a5,255
  100e52:	00001697          	auipc	a3,0x1
  100e56:	1ca68693          	addi	a3,a3,458 # 10201c <Te3>
  100e5a:	078a                	slli	a5,a5,0x2
  100e5c:	97b6                	add	a5,a5,a3
  100e5e:	439c                	lw	a5,0(a5)
            Te2[(s1 >>  8) & 0xff] ^
  100e60:	8f3d                	xor	a4,a4,a5
            rk[7];
  100e62:	57f2                	lw	a5,60(sp)
  100e64:	07f1                	addi	a5,a5,28
  100e66:	439c                	lw	a5,0(a5)
        t3 =
  100e68:	8fb9                	xor	a5,a5,a4
  100e6a:	cc3e                	sw	a5,24(sp)

        rk += 8;
  100e6c:	57f2                	lw	a5,60(sp)
  100e6e:	02078793          	addi	a5,a5,32
  100e72:	de3e                	sw	a5,60(sp)
        if (--r == 0) {
  100e74:	57a2                	lw	a5,40(sp)
  100e76:	17fd                	addi	a5,a5,-1
  100e78:	d43e                	sw	a5,40(sp)
  100e7a:	57a2                	lw	a5,40(sp)
  100e7c:	18078663          	beqz	a5,101008 <AES_encrypt+0x416>
            break;
        }

        s0 =
            Te0[(t0 >> 24)       ] ^
  100e80:	5792                	lw	a5,36(sp)
  100e82:	83e1                	srli	a5,a5,0x18
  100e84:	00000717          	auipc	a4,0x0
  100e88:	59870713          	addi	a4,a4,1432 # 10141c <Te0>
  100e8c:	078a                	slli	a5,a5,0x2
  100e8e:	97ba                	add	a5,a5,a4
  100e90:	4398                	lw	a4,0(a5)
            Te1[(t1 >> 16) & 0xff] ^
  100e92:	5782                	lw	a5,32(sp)
  100e94:	83c1                	srli	a5,a5,0x10
  100e96:	0ff7f793          	andi	a5,a5,255
  100e9a:	00001697          	auipc	a3,0x1
  100e9e:	98268693          	addi	a3,a3,-1662 # 10181c <Te1>
  100ea2:	078a                	slli	a5,a5,0x2
  100ea4:	97b6                	add	a5,a5,a3
  100ea6:	439c                	lw	a5,0(a5)
            Te0[(t0 >> 24)       ] ^
  100ea8:	8f3d                	xor	a4,a4,a5
            Te2[(t2 >>  8) & 0xff] ^
  100eaa:	47f2                	lw	a5,28(sp)
  100eac:	83a1                	srli	a5,a5,0x8
  100eae:	0ff7f793          	andi	a5,a5,255
  100eb2:	00001697          	auipc	a3,0x1
  100eb6:	d6a68693          	addi	a3,a3,-662 # 101c1c <Te2>
  100eba:	078a                	slli	a5,a5,0x2
  100ebc:	97b6                	add	a5,a5,a3
  100ebe:	439c                	lw	a5,0(a5)
            Te1[(t1 >> 16) & 0xff] ^
  100ec0:	8f3d                	xor	a4,a4,a5
            Te3[(t3      ) & 0xff] ^
  100ec2:	47e2                	lw	a5,24(sp)
  100ec4:	0ff7f793          	andi	a5,a5,255
  100ec8:	00001697          	auipc	a3,0x1
  100ecc:	15468693          	addi	a3,a3,340 # 10201c <Te3>
  100ed0:	078a                	slli	a5,a5,0x2
  100ed2:	97b6                	add	a5,a5,a3
  100ed4:	439c                	lw	a5,0(a5)
            Te2[(t2 >>  8) & 0xff] ^
  100ed6:	8f3d                	xor	a4,a4,a5
            rk[0];
  100ed8:	57f2                	lw	a5,60(sp)
  100eda:	439c                	lw	a5,0(a5)
        s0 =
  100edc:	8fb9                	xor	a5,a5,a4
  100ede:	dc3e                	sw	a5,56(sp)
        s1 =
            Te0[(t1 >> 24)       ] ^
  100ee0:	5782                	lw	a5,32(sp)
  100ee2:	83e1                	srli	a5,a5,0x18
  100ee4:	00000717          	auipc	a4,0x0
  100ee8:	53870713          	addi	a4,a4,1336 # 10141c <Te0>
  100eec:	078a                	slli	a5,a5,0x2
  100eee:	97ba                	add	a5,a5,a4
  100ef0:	4398                	lw	a4,0(a5)
            Te1[(t2 >> 16) & 0xff] ^
  100ef2:	47f2                	lw	a5,28(sp)
  100ef4:	83c1                	srli	a5,a5,0x10
  100ef6:	0ff7f793          	andi	a5,a5,255
  100efa:	00001697          	auipc	a3,0x1
  100efe:	92268693          	addi	a3,a3,-1758 # 10181c <Te1>
  100f02:	078a                	slli	a5,a5,0x2
  100f04:	97b6                	add	a5,a5,a3
  100f06:	439c                	lw	a5,0(a5)
            Te0[(t1 >> 24)       ] ^
  100f08:	8f3d                	xor	a4,a4,a5
            Te2[(t3 >>  8) & 0xff] ^
  100f0a:	47e2                	lw	a5,24(sp)
  100f0c:	83a1                	srli	a5,a5,0x8
  100f0e:	0ff7f793          	andi	a5,a5,255
  100f12:	00001697          	auipc	a3,0x1
  100f16:	d0a68693          	addi	a3,a3,-758 # 101c1c <Te2>
  100f1a:	078a                	slli	a5,a5,0x2
  100f1c:	97b6                	add	a5,a5,a3
  100f1e:	439c                	lw	a5,0(a5)
            Te1[(t2 >> 16) & 0xff] ^
  100f20:	8f3d                	xor	a4,a4,a5
            Te3[(t0      ) & 0xff] ^
  100f22:	5792                	lw	a5,36(sp)
  100f24:	0ff7f793          	andi	a5,a5,255
  100f28:	00001697          	auipc	a3,0x1
  100f2c:	0f468693          	addi	a3,a3,244 # 10201c <Te3>
  100f30:	078a                	slli	a5,a5,0x2
  100f32:	97b6                	add	a5,a5,a3
  100f34:	439c                	lw	a5,0(a5)
            Te2[(t3 >>  8) & 0xff] ^
  100f36:	8f3d                	xor	a4,a4,a5
            rk[1];
  100f38:	57f2                	lw	a5,60(sp)
  100f3a:	0791                	addi	a5,a5,4
  100f3c:	439c                	lw	a5,0(a5)
        s1 =
  100f3e:	8fb9                	xor	a5,a5,a4
  100f40:	da3e                	sw	a5,52(sp)
        s2 =
            Te0[(t2 >> 24)       ] ^
  100f42:	47f2                	lw	a5,28(sp)
  100f44:	83e1                	srli	a5,a5,0x18
  100f46:	00000717          	auipc	a4,0x0
  100f4a:	4d670713          	addi	a4,a4,1238 # 10141c <Te0>
  100f4e:	078a                	slli	a5,a5,0x2
  100f50:	97ba                	add	a5,a5,a4
  100f52:	4398                	lw	a4,0(a5)
            Te1[(t3 >> 16) & 0xff] ^
  100f54:	47e2                	lw	a5,24(sp)
  100f56:	83c1                	srli	a5,a5,0x10
  100f58:	0ff7f793          	andi	a5,a5,255
  100f5c:	00001697          	auipc	a3,0x1
  100f60:	8c068693          	addi	a3,a3,-1856 # 10181c <Te1>
  100f64:	078a                	slli	a5,a5,0x2
  100f66:	97b6                	add	a5,a5,a3
  100f68:	439c                	lw	a5,0(a5)
            Te0[(t2 >> 24)       ] ^
  100f6a:	8f3d                	xor	a4,a4,a5
            Te2[(t0 >>  8) & 0xff] ^
  100f6c:	5792                	lw	a5,36(sp)
  100f6e:	83a1                	srli	a5,a5,0x8
  100f70:	0ff7f793          	andi	a5,a5,255
  100f74:	00001697          	auipc	a3,0x1
  100f78:	ca868693          	addi	a3,a3,-856 # 101c1c <Te2>
  100f7c:	078a                	slli	a5,a5,0x2
  100f7e:	97b6                	add	a5,a5,a3
  100f80:	439c                	lw	a5,0(a5)
            Te1[(t3 >> 16) & 0xff] ^
  100f82:	8f3d                	xor	a4,a4,a5
            Te3[(t1      ) & 0xff] ^
  100f84:	5782                	lw	a5,32(sp)
  100f86:	0ff7f793          	andi	a5,a5,255
  100f8a:	00001697          	auipc	a3,0x1
  100f8e:	09268693          	addi	a3,a3,146 # 10201c <Te3>
  100f92:	078a                	slli	a5,a5,0x2
  100f94:	97b6                	add	a5,a5,a3
  100f96:	439c                	lw	a5,0(a5)
            Te2[(t0 >>  8) & 0xff] ^
  100f98:	8f3d                	xor	a4,a4,a5
            rk[2];
  100f9a:	57f2                	lw	a5,60(sp)
  100f9c:	07a1                	addi	a5,a5,8
  100f9e:	439c                	lw	a5,0(a5)
        s2 =
  100fa0:	8fb9                	xor	a5,a5,a4
  100fa2:	d83e                	sw	a5,48(sp)
        s3 =
            Te0[(t3 >> 24)       ] ^
  100fa4:	47e2                	lw	a5,24(sp)
  100fa6:	83e1                	srli	a5,a5,0x18
  100fa8:	00000717          	auipc	a4,0x0
  100fac:	47470713          	addi	a4,a4,1140 # 10141c <Te0>
  100fb0:	078a                	slli	a5,a5,0x2
  100fb2:	97ba                	add	a5,a5,a4
  100fb4:	4398                	lw	a4,0(a5)
            Te1[(t0 >> 16) & 0xff] ^
  100fb6:	5792                	lw	a5,36(sp)
  100fb8:	83c1                	srli	a5,a5,0x10
  100fba:	0ff7f793          	andi	a5,a5,255
  100fbe:	00001697          	auipc	a3,0x1
  100fc2:	85e68693          	addi	a3,a3,-1954 # 10181c <Te1>
  100fc6:	078a                	slli	a5,a5,0x2
  100fc8:	97b6                	add	a5,a5,a3
  100fca:	439c                	lw	a5,0(a5)
            Te0[(t3 >> 24)       ] ^
  100fcc:	8f3d                	xor	a4,a4,a5
            Te2[(t1 >>  8) & 0xff] ^
  100fce:	5782                	lw	a5,32(sp)
  100fd0:	83a1                	srli	a5,a5,0x8
  100fd2:	0ff7f793          	andi	a5,a5,255
  100fd6:	00001697          	auipc	a3,0x1
  100fda:	c4668693          	addi	a3,a3,-954 # 101c1c <Te2>
  100fde:	078a                	slli	a5,a5,0x2
  100fe0:	97b6                	add	a5,a5,a3
  100fe2:	439c                	lw	a5,0(a5)
            Te1[(t0 >> 16) & 0xff] ^
  100fe4:	8f3d                	xor	a4,a4,a5
            Te3[(t2      ) & 0xff] ^
  100fe6:	47f2                	lw	a5,28(sp)
  100fe8:	0ff7f793          	andi	a5,a5,255
  100fec:	00001697          	auipc	a3,0x1
  100ff0:	03068693          	addi	a3,a3,48 # 10201c <Te3>
  100ff4:	078a                	slli	a5,a5,0x2
  100ff6:	97b6                	add	a5,a5,a3
  100ff8:	439c                	lw	a5,0(a5)
            Te2[(t1 >>  8) & 0xff] ^
  100ffa:	8f3d                	xor	a4,a4,a5
            rk[3];
  100ffc:	57f2                	lw	a5,60(sp)
  100ffe:	07b1                	addi	a5,a5,12
  101000:	439c                	lw	a5,0(a5)
        s3 =
  101002:	8fb9                	xor	a5,a5,a4
  101004:	d63e                	sw	a5,44(sp)
        t0 =
  101006:	b9f9                	j	100ce4 <AES_encrypt+0xf2>
            break;
  101008:	0001                	nop
    /*
     * apply last round and
     * map cipher state to byte array block:
     */
    s0 =
        (Te2[(t0 >> 24)       ] & 0xff000000) ^
  10100a:	5792                	lw	a5,36(sp)
  10100c:	83e1                	srli	a5,a5,0x18
  10100e:	00001717          	auipc	a4,0x1
  101012:	c0e70713          	addi	a4,a4,-1010 # 101c1c <Te2>
  101016:	078a                	slli	a5,a5,0x2
  101018:	97ba                	add	a5,a5,a4
  10101a:	4398                	lw	a4,0(a5)
  10101c:	ff0007b7          	lui	a5,0xff000
  101020:	8f7d                	and	a4,a4,a5
        (Te3[(t1 >> 16) & 0xff] & 0x00ff0000) ^
  101022:	5782                	lw	a5,32(sp)
  101024:	83c1                	srli	a5,a5,0x10
  101026:	0ff7f793          	andi	a5,a5,255
  10102a:	00001697          	auipc	a3,0x1
  10102e:	ff268693          	addi	a3,a3,-14 # 10201c <Te3>
  101032:	078a                	slli	a5,a5,0x2
  101034:	97b6                	add	a5,a5,a3
  101036:	4394                	lw	a3,0(a5)
  101038:	00ff07b7          	lui	a5,0xff0
  10103c:	8ff5                	and	a5,a5,a3
        (Te2[(t0 >> 24)       ] & 0xff000000) ^
  10103e:	8f5d                	or	a4,a4,a5
        (Te0[(t2 >>  8) & 0xff] & 0x0000ff00) ^
  101040:	47f2                	lw	a5,28(sp)
  101042:	83a1                	srli	a5,a5,0x8
  101044:	0ff7f793          	andi	a5,a5,255
  101048:	00000697          	auipc	a3,0x0
  10104c:	3d468693          	addi	a3,a3,980 # 10141c <Te0>
  101050:	078a                	slli	a5,a5,0x2
  101052:	97b6                	add	a5,a5,a3
  101054:	4394                	lw	a3,0(a5)
  101056:	67c1                	lui	a5,0x10
  101058:	f0078793          	addi	a5,a5,-256 # ff00 <_stack_len+0x7f00>
  10105c:	8ff5                	and	a5,a5,a3
        (Te3[(t1 >> 16) & 0xff] & 0x00ff0000) ^
  10105e:	8f3d                	xor	a4,a4,a5
        (Te1[(t3      ) & 0xff] & 0x000000ff) ^
  101060:	47e2                	lw	a5,24(sp)
  101062:	0ff7f793          	andi	a5,a5,255
  101066:	00000697          	auipc	a3,0x0
  10106a:	7b668693          	addi	a3,a3,1974 # 10181c <Te1>
  10106e:	078a                	slli	a5,a5,0x2
  101070:	97b6                	add	a5,a5,a3
  101072:	439c                	lw	a5,0(a5)
  101074:	0ff7f793          	andi	a5,a5,255
        (Te0[(t2 >>  8) & 0xff] & 0x0000ff00) ^
  101078:	8f3d                	xor	a4,a4,a5
        rk[0];
  10107a:	57f2                	lw	a5,60(sp)
  10107c:	439c                	lw	a5,0(a5)
    s0 =
  10107e:	8fb9                	xor	a5,a5,a4
  101080:	dc3e                	sw	a5,56(sp)
    PUTU32(out     , s0);
  101082:	57e2                	lw	a5,56(sp)
  101084:	83e1                	srli	a5,a5,0x18
  101086:	0ff7f713          	andi	a4,a5,255
  10108a:	47a2                	lw	a5,8(sp)
  10108c:	00e78023          	sb	a4,0(a5)
  101090:	57e2                	lw	a5,56(sp)
  101092:	0107d713          	srli	a4,a5,0x10
  101096:	47a2                	lw	a5,8(sp)
  101098:	0785                	addi	a5,a5,1
  10109a:	0ff77713          	andi	a4,a4,255
  10109e:	00e78023          	sb	a4,0(a5)
  1010a2:	57e2                	lw	a5,56(sp)
  1010a4:	0087d713          	srli	a4,a5,0x8
  1010a8:	47a2                	lw	a5,8(sp)
  1010aa:	0789                	addi	a5,a5,2
  1010ac:	0ff77713          	andi	a4,a4,255
  1010b0:	00e78023          	sb	a4,0(a5)
  1010b4:	47a2                	lw	a5,8(sp)
  1010b6:	078d                	addi	a5,a5,3
  1010b8:	5762                	lw	a4,56(sp)
  1010ba:	0ff77713          	andi	a4,a4,255
  1010be:	00e78023          	sb	a4,0(a5)
    s1 =
        (Te2[(t1 >> 24)       ] & 0xff000000) ^
  1010c2:	5782                	lw	a5,32(sp)
  1010c4:	83e1                	srli	a5,a5,0x18
  1010c6:	00001717          	auipc	a4,0x1
  1010ca:	b5670713          	addi	a4,a4,-1194 # 101c1c <Te2>
  1010ce:	078a                	slli	a5,a5,0x2
  1010d0:	97ba                	add	a5,a5,a4
  1010d2:	4398                	lw	a4,0(a5)
  1010d4:	ff0007b7          	lui	a5,0xff000
  1010d8:	8f7d                	and	a4,a4,a5
        (Te3[(t2 >> 16) & 0xff] & 0x00ff0000) ^
  1010da:	47f2                	lw	a5,28(sp)
  1010dc:	83c1                	srli	a5,a5,0x10
  1010de:	0ff7f793          	andi	a5,a5,255
  1010e2:	00001697          	auipc	a3,0x1
  1010e6:	f3a68693          	addi	a3,a3,-198 # 10201c <Te3>
  1010ea:	078a                	slli	a5,a5,0x2
  1010ec:	97b6                	add	a5,a5,a3
  1010ee:	4394                	lw	a3,0(a5)
  1010f0:	00ff07b7          	lui	a5,0xff0
  1010f4:	8ff5                	and	a5,a5,a3
        (Te2[(t1 >> 24)       ] & 0xff000000) ^
  1010f6:	8f5d                	or	a4,a4,a5
        (Te0[(t3 >>  8) & 0xff] & 0x0000ff00) ^
  1010f8:	47e2                	lw	a5,24(sp)
  1010fa:	83a1                	srli	a5,a5,0x8
  1010fc:	0ff7f793          	andi	a5,a5,255
  101100:	00000697          	auipc	a3,0x0
  101104:	31c68693          	addi	a3,a3,796 # 10141c <Te0>
  101108:	078a                	slli	a5,a5,0x2
  10110a:	97b6                	add	a5,a5,a3
  10110c:	4394                	lw	a3,0(a5)
  10110e:	67c1                	lui	a5,0x10
  101110:	f0078793          	addi	a5,a5,-256 # ff00 <_stack_len+0x7f00>
  101114:	8ff5                	and	a5,a5,a3
        (Te3[(t2 >> 16) & 0xff] & 0x00ff0000) ^
  101116:	8f3d                	xor	a4,a4,a5
        (Te1[(t0      ) & 0xff] & 0x000000ff) ^
  101118:	5792                	lw	a5,36(sp)
  10111a:	0ff7f793          	andi	a5,a5,255
  10111e:	00000697          	auipc	a3,0x0
  101122:	6fe68693          	addi	a3,a3,1790 # 10181c <Te1>
  101126:	078a                	slli	a5,a5,0x2
  101128:	97b6                	add	a5,a5,a3
  10112a:	439c                	lw	a5,0(a5)
  10112c:	0ff7f793          	andi	a5,a5,255
        (Te0[(t3 >>  8) & 0xff] & 0x0000ff00) ^
  101130:	8f3d                	xor	a4,a4,a5
        rk[1];
  101132:	57f2                	lw	a5,60(sp)
  101134:	0791                	addi	a5,a5,4
  101136:	439c                	lw	a5,0(a5)
    s1 =
  101138:	8fb9                	xor	a5,a5,a4
  10113a:	da3e                	sw	a5,52(sp)
    PUTU32(out +  4, s1);
  10113c:	57d2                	lw	a5,52(sp)
  10113e:	0187d713          	srli	a4,a5,0x18
  101142:	47a2                	lw	a5,8(sp)
  101144:	0791                	addi	a5,a5,4
  101146:	0ff77713          	andi	a4,a4,255
  10114a:	00e78023          	sb	a4,0(a5)
  10114e:	57d2                	lw	a5,52(sp)
  101150:	0107d713          	srli	a4,a5,0x10
  101154:	47a2                	lw	a5,8(sp)
  101156:	0795                	addi	a5,a5,5
  101158:	0ff77713          	andi	a4,a4,255
  10115c:	00e78023          	sb	a4,0(a5)
  101160:	57d2                	lw	a5,52(sp)
  101162:	0087d713          	srli	a4,a5,0x8
  101166:	47a2                	lw	a5,8(sp)
  101168:	0799                	addi	a5,a5,6
  10116a:	0ff77713          	andi	a4,a4,255
  10116e:	00e78023          	sb	a4,0(a5)
  101172:	47a2                	lw	a5,8(sp)
  101174:	079d                	addi	a5,a5,7
  101176:	5752                	lw	a4,52(sp)
  101178:	0ff77713          	andi	a4,a4,255
  10117c:	00e78023          	sb	a4,0(a5)
    s2 =
        (Te2[(t2 >> 24)       ] & 0xff000000) ^
  101180:	47f2                	lw	a5,28(sp)
  101182:	83e1                	srli	a5,a5,0x18
  101184:	00001717          	auipc	a4,0x1
  101188:	a9870713          	addi	a4,a4,-1384 # 101c1c <Te2>
  10118c:	078a                	slli	a5,a5,0x2
  10118e:	97ba                	add	a5,a5,a4
  101190:	4398                	lw	a4,0(a5)
  101192:	ff0007b7          	lui	a5,0xff000
  101196:	8f7d                	and	a4,a4,a5
        (Te3[(t3 >> 16) & 0xff] & 0x00ff0000) ^
  101198:	47e2                	lw	a5,24(sp)
  10119a:	83c1                	srli	a5,a5,0x10
  10119c:	0ff7f793          	andi	a5,a5,255
  1011a0:	00001697          	auipc	a3,0x1
  1011a4:	e7c68693          	addi	a3,a3,-388 # 10201c <Te3>
  1011a8:	078a                	slli	a5,a5,0x2
  1011aa:	97b6                	add	a5,a5,a3
  1011ac:	4394                	lw	a3,0(a5)
  1011ae:	00ff07b7          	lui	a5,0xff0
  1011b2:	8ff5                	and	a5,a5,a3
        (Te2[(t2 >> 24)       ] & 0xff000000) ^
  1011b4:	8f5d                	or	a4,a4,a5
        (Te0[(t0 >>  8) & 0xff] & 0x0000ff00) ^
  1011b6:	5792                	lw	a5,36(sp)
  1011b8:	83a1                	srli	a5,a5,0x8
  1011ba:	0ff7f793          	andi	a5,a5,255
  1011be:	00000697          	auipc	a3,0x0
  1011c2:	25e68693          	addi	a3,a3,606 # 10141c <Te0>
  1011c6:	078a                	slli	a5,a5,0x2
  1011c8:	97b6                	add	a5,a5,a3
  1011ca:	4394                	lw	a3,0(a5)
  1011cc:	67c1                	lui	a5,0x10
  1011ce:	f0078793          	addi	a5,a5,-256 # ff00 <_stack_len+0x7f00>
  1011d2:	8ff5                	and	a5,a5,a3
        (Te3[(t3 >> 16) & 0xff] & 0x00ff0000) ^
  1011d4:	8f3d                	xor	a4,a4,a5
        (Te1[(t1      ) & 0xff] & 0x000000ff) ^
  1011d6:	5782                	lw	a5,32(sp)
  1011d8:	0ff7f793          	andi	a5,a5,255
  1011dc:	00000697          	auipc	a3,0x0
  1011e0:	64068693          	addi	a3,a3,1600 # 10181c <Te1>
  1011e4:	078a                	slli	a5,a5,0x2
  1011e6:	97b6                	add	a5,a5,a3
  1011e8:	439c                	lw	a5,0(a5)
  1011ea:	0ff7f793          	andi	a5,a5,255
        (Te0[(t0 >>  8) & 0xff] & 0x0000ff00) ^
  1011ee:	8f3d                	xor	a4,a4,a5
        rk[2];
  1011f0:	57f2                	lw	a5,60(sp)
  1011f2:	07a1                	addi	a5,a5,8
  1011f4:	439c                	lw	a5,0(a5)
    s2 =
  1011f6:	8fb9                	xor	a5,a5,a4
  1011f8:	d83e                	sw	a5,48(sp)
    PUTU32(out +  8, s2);
  1011fa:	57c2                	lw	a5,48(sp)
  1011fc:	0187d713          	srli	a4,a5,0x18
  101200:	47a2                	lw	a5,8(sp)
  101202:	07a1                	addi	a5,a5,8
  101204:	0ff77713          	andi	a4,a4,255
  101208:	00e78023          	sb	a4,0(a5)
  10120c:	57c2                	lw	a5,48(sp)
  10120e:	0107d713          	srli	a4,a5,0x10
  101212:	47a2                	lw	a5,8(sp)
  101214:	07a5                	addi	a5,a5,9
  101216:	0ff77713          	andi	a4,a4,255
  10121a:	00e78023          	sb	a4,0(a5)
  10121e:	57c2                	lw	a5,48(sp)
  101220:	0087d713          	srli	a4,a5,0x8
  101224:	47a2                	lw	a5,8(sp)
  101226:	07a9                	addi	a5,a5,10
  101228:	0ff77713          	andi	a4,a4,255
  10122c:	00e78023          	sb	a4,0(a5)
  101230:	47a2                	lw	a5,8(sp)
  101232:	07ad                	addi	a5,a5,11
  101234:	5742                	lw	a4,48(sp)
  101236:	0ff77713          	andi	a4,a4,255
  10123a:	00e78023          	sb	a4,0(a5)
    s3 =
        (Te2[(t3 >> 24)       ] & 0xff000000) ^
  10123e:	47e2                	lw	a5,24(sp)
  101240:	83e1                	srli	a5,a5,0x18
  101242:	00001717          	auipc	a4,0x1
  101246:	9da70713          	addi	a4,a4,-1574 # 101c1c <Te2>
  10124a:	078a                	slli	a5,a5,0x2
  10124c:	97ba                	add	a5,a5,a4
  10124e:	4398                	lw	a4,0(a5)
  101250:	ff0007b7          	lui	a5,0xff000
  101254:	8f7d                	and	a4,a4,a5
        (Te3[(t0 >> 16) & 0xff] & 0x00ff0000) ^
  101256:	5792                	lw	a5,36(sp)
  101258:	83c1                	srli	a5,a5,0x10
  10125a:	0ff7f793          	andi	a5,a5,255
  10125e:	00001697          	auipc	a3,0x1
  101262:	dbe68693          	addi	a3,a3,-578 # 10201c <Te3>
  101266:	078a                	slli	a5,a5,0x2
  101268:	97b6                	add	a5,a5,a3
  10126a:	4394                	lw	a3,0(a5)
  10126c:	00ff07b7          	lui	a5,0xff0
  101270:	8ff5                	and	a5,a5,a3
        (Te2[(t3 >> 24)       ] & 0xff000000) ^
  101272:	8f5d                	or	a4,a4,a5
        (Te0[(t1 >>  8) & 0xff] & 0x0000ff00) ^
  101274:	5782                	lw	a5,32(sp)
  101276:	83a1                	srli	a5,a5,0x8
  101278:	0ff7f793          	andi	a5,a5,255
  10127c:	00000697          	auipc	a3,0x0
  101280:	1a068693          	addi	a3,a3,416 # 10141c <Te0>
  101284:	078a                	slli	a5,a5,0x2
  101286:	97b6                	add	a5,a5,a3
  101288:	4394                	lw	a3,0(a5)
  10128a:	67c1                	lui	a5,0x10
  10128c:	f0078793          	addi	a5,a5,-256 # ff00 <_stack_len+0x7f00>
  101290:	8ff5                	and	a5,a5,a3
        (Te3[(t0 >> 16) & 0xff] & 0x00ff0000) ^
  101292:	8f3d                	xor	a4,a4,a5
        (Te1[(t2      ) & 0xff] & 0x000000ff) ^
  101294:	47f2                	lw	a5,28(sp)
  101296:	0ff7f793          	andi	a5,a5,255
  10129a:	00000697          	auipc	a3,0x0
  10129e:	58268693          	addi	a3,a3,1410 # 10181c <Te1>
  1012a2:	078a                	slli	a5,a5,0x2
  1012a4:	97b6                	add	a5,a5,a3
  1012a6:	439c                	lw	a5,0(a5)
  1012a8:	0ff7f793          	andi	a5,a5,255
        (Te0[(t1 >>  8) & 0xff] & 0x0000ff00) ^
  1012ac:	8f3d                	xor	a4,a4,a5
        rk[3];
  1012ae:	57f2                	lw	a5,60(sp)
  1012b0:	07b1                	addi	a5,a5,12
  1012b2:	439c                	lw	a5,0(a5)
    s3 =
  1012b4:	8fb9                	xor	a5,a5,a4
  1012b6:	d63e                	sw	a5,44(sp)
    PUTU32(out + 12, s3);
  1012b8:	57b2                	lw	a5,44(sp)
  1012ba:	0187d713          	srli	a4,a5,0x18
  1012be:	47a2                	lw	a5,8(sp)
  1012c0:	07b1                	addi	a5,a5,12
  1012c2:	0ff77713          	andi	a4,a4,255
  1012c6:	00e78023          	sb	a4,0(a5)
  1012ca:	57b2                	lw	a5,44(sp)
  1012cc:	0107d713          	srli	a4,a5,0x10
  1012d0:	47a2                	lw	a5,8(sp)
  1012d2:	07b5                	addi	a5,a5,13
  1012d4:	0ff77713          	andi	a4,a4,255
  1012d8:	00e78023          	sb	a4,0(a5)
  1012dc:	57b2                	lw	a5,44(sp)
  1012de:	0087d713          	srli	a4,a5,0x8
  1012e2:	47a2                	lw	a5,8(sp)
  1012e4:	07b9                	addi	a5,a5,14
  1012e6:	0ff77713          	andi	a4,a4,255
  1012ea:	00e78023          	sb	a4,0(a5)
  1012ee:	47a2                	lw	a5,8(sp)
  1012f0:	07bd                	addi	a5,a5,15
  1012f2:	5732                	lw	a4,44(sp)
  1012f4:	0ff77713          	andi	a4,a4,255
  1012f8:	00e78023          	sb	a4,0(a5)
}
  1012fc:	0001                	nop
  1012fe:	6121                	addi	sp,sp,64
  101300:	8082                	ret

00101302 <AES_ecb_encrypt>:
#include "../H_files/aes_ssl.h"
#include "../H_files/aes_local_ssl.h"

void AES_ecb_encrypt(const unsigned char *in, unsigned char *out,
                     const AES_KEY *key, const int enc)
{
  101302:	1101                	addi	sp,sp,-32
  101304:	ce06                	sw	ra,28(sp)
  101306:	c62a                	sw	a0,12(sp)
  101308:	c42e                	sw	a1,8(sp)
  10130a:	c232                	sw	a2,4(sp)
  10130c:	c036                	sw	a3,0(sp)

    //assert(in && out && key);
    //assert((AES_ENCRYPT == enc) || (AES_DECRYPT == enc));

   // if (AES_ENCRYPT == enc)  //Never used //AZ //31082020
        AES_encrypt(in, out, key);
  10130e:	4612                	lw	a2,4(sp)
  101310:	45a2                	lw	a1,8(sp)
  101312:	4532                	lw	a0,12(sp)
  101314:	38f9                	jal	100bf2 <AES_encrypt>
  //  else
  //      AES_decrypt(in, out, key);
}
  101316:	0001                	nop
  101318:	40f2                	lw	ra,28(sp)
  10131a:	6105                	addi	sp,sp,32
  10131c:	8082                	ret

0010131e <default_exc_handler>:
  jal x0, simple_exc_handler
  10131e:	f49fe06f          	j	100266 <simple_exc_handler>

00101322 <timer_handler>:
  jal x0, simple_timer_handler
  101322:	8b8ff06f          	j	1003da <simple_timer_handler>

00101326 <reset_handler>:
  mv  x1, x0
  101326:	00000093          	li	ra,0
  mv  x2, x1
  10132a:	8106                	mv	sp,ra
  mv  x3, x1
  10132c:	8186                	mv	gp,ra
  mv  x4, x1
  10132e:	8206                	mv	tp,ra
  mv  x5, x1
  101330:	8286                	mv	t0,ra
  mv  x6, x1
  101332:	8306                	mv	t1,ra
  mv  x7, x1
  101334:	8386                	mv	t2,ra
  mv  x8, x1
  101336:	8406                	mv	s0,ra
  mv  x9, x1
  101338:	8486                	mv	s1,ra
  mv x10, x1
  10133a:	8506                	mv	a0,ra
  mv x11, x1
  10133c:	8586                	mv	a1,ra
  mv x12, x1
  10133e:	8606                	mv	a2,ra
  mv x13, x1
  101340:	8686                	mv	a3,ra
  mv x14, x1
  101342:	8706                	mv	a4,ra
  mv x15, x1
  101344:	8786                	mv	a5,ra
  mv x16, x1
  101346:	8806                	mv	a6,ra
  mv x17, x1
  101348:	8886                	mv	a7,ra
  mv x18, x1
  10134a:	8906                	mv	s2,ra
  mv x19, x1
  10134c:	8986                	mv	s3,ra
  mv x20, x1
  10134e:	8a06                	mv	s4,ra
  mv x21, x1
  101350:	8a86                	mv	s5,ra
  mv x22, x1
  101352:	8b06                	mv	s6,ra
  mv x23, x1
  101354:	8b86                	mv	s7,ra
  mv x24, x1
  101356:	8c06                	mv	s8,ra
  mv x25, x1
  101358:	8c86                	mv	s9,ra
  mv x26, x1
  10135a:	8d06                	mv	s10,ra
  mv x27, x1
  10135c:	8d86                	mv	s11,ra
  mv x28, x1
  10135e:	8e06                	mv	t3,ra
  mv x29, x1
  101360:	8e86                	mv	t4,ra
  mv x30, x1
  101362:	8f06                	mv	t5,ra
  mv x31, x1
  101364:	8f86                	mv	t6,ra
  la   x2, _stack_start
  101366:	000ff117          	auipc	sp,0xff
  10136a:	c9a10113          	addi	sp,sp,-870 # 200000 <_stack_start>

0010136e <_start>:
  la x26, _bss_start
  10136e:	00002d17          	auipc	s10,0x2
  101372:	1dad0d13          	addi	s10,s10,474 # 103548 <time_elapsed>
  la x27, _bss_end
  101376:	00002d97          	auipc	s11,0x2
  10137a:	1e2d8d93          	addi	s11,s11,482 # 103558 <_bss_end>
  bge x26, x27, zero_loop_end
  10137e:	01bd5763          	bge	s10,s11,10138c <main_entry>

00101382 <zero_loop>:
  sw x0, 0(x26)
  101382:	000d2023          	sw	zero,0(s10)
  addi x26, x26, 4
  101386:	0d11                	addi	s10,s10,4
  ble x26, x27, zero_loop
  101388:	ffaddde3          	bge	s11,s10,101382 <zero_loop>

0010138c <main_entry>:
  addi x10, x0, 0
  10138c:	00000513          	li	a0,0
  addi x11, x0, 0
  101390:	00000593          	li	a1,0
  jal x1, main
  101394:	8dcff0ef          	jal	ra,100470 <main>
  li x5, SIM_CTRL_BASE + SIM_CTRL_CTRL
  101398:	000202b7          	lui	t0,0x20
  10139c:	00428293          	addi	t0,t0,4 # 20004 <_stack_len+0x18004>
  li x6, 1
  1013a0:	4305                	li	t1,1
  sw x6, 0(x5)
  1013a2:	0062a023          	sw	t1,0(t0)

001013a6 <sleep_loop>:
  wfi
  1013a6:	10500073          	wfi
  j sleep_loop
  1013aa:	bff5                	j	1013a6 <sleep_loop>

Déassemblage de la section .rodata :

001013ac <Te0-0x70>:
  1013ac:	5845                	li	a6,-15
  1013ae:	54504543          	0x54504543
  1013b2:	4f49                	li	t5,18
  1013b4:	214e                	fld	ft2,208(sp)
  1013b6:	2121                	jal	1017be <Te0+0x3a2>
  1013b8:	000a                	c.slli	zero,0x2
  1013ba:	0000                	unimp
  1013bc:	3d3d                	jal	1011fa <AES_encrypt+0x608>
  1013be:	3d3d                	jal	1011fc <AES_encrypt+0x60a>
  1013c0:	3d3d                	jal	1011fe <AES_encrypt+0x60c>
  1013c2:	3d3d                	jal	101200 <AES_encrypt+0x60e>
  1013c4:	3d3d                	jal	101202 <AES_encrypt+0x610>
  1013c6:	3d3d                	jal	101204 <AES_encrypt+0x612>
  1013c8:	000a                	c.slli	zero,0x2
  1013ca:	0000                	unimp
  1013cc:	454d                	li	a0,19
  1013ce:	4350                	lw	a2,4(a4)
  1013d0:	203a                	fld	ft0,392(sp)
  1013d2:	2020                	fld	fs0,64(s0)
  1013d4:	7830                	flw	fa2,112(s0)
  1013d6:	3025                	jal	100bfe <AES_encrypt+0xc>
  1013d8:	0058                	addi	a4,sp,4
  1013da:	0000                	unimp
  1013dc:	4d0a                	lw	s10,128(sp)
  1013de:	53554143          	fmadd.d	ft2,fa0,fs5,fa0,rmm
  1013e2:	3a45                	jal	100d92 <AES_encrypt+0x1a0>
  1013e4:	3020                	fld	fs0,96(s0)
  1013e6:	2578                	fld	fa4,200(a0)
  1013e8:	5830                	lw	a2,112(s0)
  1013ea:	0000                	unimp
  1013ec:	4d0a                	lw	s10,128(sp)
  1013ee:	5654                	lw	a3,44(a2)
  1013f0:	4c41                	li	s8,16
  1013f2:	203a                	fld	ft0,392(sp)
  1013f4:	3020                	fld	fs0,96(s0)
  1013f6:	2578                	fld	fa4,200(a0)
  1013f8:	5830                	lw	a2,112(s0)
  1013fa:	0000                	unimp
  1013fc:	e2bec16b          	0xe2bec16b
  101400:	402e                	0x402e
  101402:	969f 3de9 117e      	0x117e3de9969f
  101408:	2a179373          	csrrw	t1,0x2a1,a5
  10140c:	16157e2b          	0x16157e2b
  101410:	ae28                	fsd	fa0,88(a2)
  101412:	a6d2                	fsd	fs4,328(sp)
  101414:	8815f7ab          	0x8815f7ab
  101418:	cf09                	beqz	a4,101432 <Te0+0x16>
  10141a:	          	fnmadd.d	fs8,fa0,fs10,fa2,rup

0010141c <Te0>:
static const u32 Te0[256] = {
  10141c:	63a5                	lui	t2,0x9
  10141e:	7c84c663          	blt	s1,s0,101bea <Te1+0x3ce>
  101422:	f87c                	fsw	fa5,116(s0)
  101424:	7799                	lui	a5,0xfffe6
  101426:	7b8dee77          	0x7b8dee77
  10142a:	f20df67b          	0xf20df67b
  10142e:	fff2                	fsw	ft8,252(sp)
  101430:	6bbd                	lui	s7,0xf
  101432:	6fb1d66b          	0x6fb1d66b
  101436:	c554de6f          	jal	t3,4f08a <_stack_len+0x4708a>
  10143a:	91c5                	srli	a1,a1,0x31
  10143c:	3050                	fld	fa2,160(s0)
  10143e:	6030                	flw	fa2,64(s0)
  101440:	02010103          	lb	sp,32(sp)
  101444:	67a9                	lui	a5,0xa
  101446:	2b7dce67          	0x2b7dce67
  10144a:	fe19562b          	0xfe19562b
  10144e:	e7fe                	fsw	ft11,204(sp)
  101450:	d762                	sw	s8,172(sp)
  101452:	abe6b5d7          	0xabe6b5d7
  101456:	769a4dab          	0x769a4dab
  10145a:	ec76                	fsw	ft9,24(sp)
  10145c:	ca45                	beqz	a2,10150c <Te0+0xf0>
  10145e:	8fca                	mv	t6,s2
  101460:	829d                	srli	a3,a3,0x7
  101462:	1f82                	slli	t6,t6,0x20
  101464:	c940                	sw	s0,20(a0)
  101466:	89c9                	andi	a1,a1,18
  101468:	fa7d7d87          	0xfa7d7d87
  10146c:	fa15                	bnez	a2,1013a0 <main_entry+0x14>
  10146e:	effa                	fsw	ft10,220(sp)
  101470:	b25959eb          	0xb25959eb
  101474:	47c9                	li	a5,18
  101476:	f00b8e47          	fmsub.s	ft8,fs7,ft0,ft10,rne
  10147a:	fbf0                	fsw	fa2,116(a5)
  10147c:	adec                	fsd	fa1,216(a1)
  10147e:	41ad                	li	gp,11
  101480:	b3d4d467          	0xb3d4d467
  101484:	a2fd                	j	101672 <Te0+0x256>
  101486:	5fa2                	lw	t6,40(sp)
  101488:	afea                	fsd	fs10,472(sp)
  10148a:	9cbf45af          	0x9cbf45af
  10148e:	239c                	fld	fa5,0(a5)
  101490:	53a4a4f7          	0x53a4a4f7
  101494:	7296                	flw	ft5,100(sp)
  101496:	e472                	fsw	ft8,8(sp)
  101498:	9bc0c05b          	0x9bc0c05b
  10149c:	b7c2                	fsd	fa6,488(sp)
  10149e:	fd1c75b7          	lui	a1,0xfd1c7
  1014a2:	e1fd                	bnez	a1,101588 <Te0+0x16c>
  1014a4:	93ae                	add	t2,t2,a1
  1014a6:	266a3d93          	sltiu	s11,s4,614
  1014aa:	4c26                	lw	s8,72(sp)
  1014ac:	365a                	fld	fa2,432(sp)
  1014ae:	6c36                	flw	fs8,76(sp)
  1014b0:	3f41                	jal	101440 <Te0+0x24>
  1014b2:	f7027e3f cc4ff5f7 	0xcc4ff5f7f7027e3f
  1014ba:	83cc                	0x83cc
  1014bc:	345c                	fld	fa5,168(s0)
  1014be:	6834                	flw	fa3,80(s0)
  1014c0:	a5f4                	fsd	fa3,200(a1)
  1014c2:	51a5                	li	gp,-23
  1014c4:	e534                	fsw	fa3,72(a0)
  1014c6:	d1e5                	beqz	a1,1014a6 <Te0+0x8a>
  1014c8:	f108                	fsw	fa0,32(a0)
  1014ca:	f9f1                	bnez	a1,10149e <Te0+0x82>
  1014cc:	e2717193          	andi	gp,sp,-473
  1014d0:	abd8d873          	csrrwi	a6,0xabd,17
  1014d4:	62313153          	0x62313153
  1014d8:	2a15153f 0804040c 	0x804040c2a15153f
  1014e0:	c752                	sw	s4,140(sp)
  1014e2:	236595c7          	fmsub.d	fa1,fa1,fs6,ft4,rtz
  1014e6:	c35e4623          	0xc35e4623
  1014ea:	18289dc3          	fmadd.s	fs11,fa7,ft2,ft3,rtz
  1014ee:	3018                	fld	fa4,32(s0)
  1014f0:	96a1                	srai	a3,a3,0x28
  1014f2:	3796                	fld	fa5,352(sp)
  1014f4:	0a05050f          	0xa05050f
  1014f8:	9ab5                	andi	a3,a3,-19
  1014fa:	2f9a                	fld	ft11,384(sp)
  1014fc:	0709                	addi	a4,a4,2
  1014fe:	12360e07          	0x12360e07
  101502:	2412                	fld	fs0,256(sp)
  101504:	1b80809b          	0x1b80809b
  101508:	e23d                	bnez	a2,10156e <Te0+0x152>
  10150a:	dfe2                	sw	s8,252(sp)
  10150c:	eb26                	fsw	fs1,148(sp)
  10150e:	2769cdeb          	0x2769cdeb
  101512:	b2cd4e27          	fsq	fa2,-1220(s10)
  101516:	7fb2                	flw	ft11,44(sp)
  101518:	759f ea75 091b      	0x91bea75759f
  10151e:	1209                	addi	tp,tp,-30
  101520:	839e                	mv	t2,t2
  101522:	2c741d83          	lh	s11,711(s0)
  101526:	582c                	lw	a1,112(s0)
  101528:	1a2e                	slli	s4,s4,0x2b
  10152a:	341a                	fld	fs0,416(sp)
  10152c:	1b2d                	addi	s6,s6,-21
  10152e:	6eb2361b          	0x6eb2361b
  101532:	dc6e                	sw	s11,56(sp)
  101534:	5aee                	lw	s5,248(sp)
  101536:	b45a                	fsd	fs6,40(sp)
  101538:	5ba0a0fb          	0x5ba0a0fb
  10153c:	52f6                	lw	t0,124(sp)
  10153e:	a452                	fsd	fs4,8(sp)
  101540:	3b4d                	jal	1012f2 <AES_encrypt+0x700>
  101542:	d661763b          	0xd661763b
  101546:	b7d6                	fsd	fs5,488(sp)
  101548:	b3ce                	fsd	fs3,480(sp)
  10154a:	297b7db3          	0x297b7db3
  10154e:	5229                	li	tp,-22
  101550:	e33e                	fsw	fa5,132(sp)
  101552:	2f71dde3          	bge	gp,s7,10204c <Te3+0x30>
  101556:	84975e2f          	0x84975e2f
  10155a:	1384                	addi	s1,sp,480
  10155c:	53f5                	li	t2,-3
  10155e:	d168a653          	0xd168a653
  101562:	b9d1                	j	101236 <AES_encrypt+0x644>
  101564:	0000                	unimp
  101566:	0000                	unimp
  101568:	ed2c                	fsw	fa1,88(a0)
  10156a:	c1ed                	beqz	a1,10164c <Te0+0x230>
  10156c:	2060                	fld	fs0,192(s0)
  10156e:	4020                	lw	s0,64(s0)
  101570:	fc1f e3fc b1c8      	0xb1c8e3fcfc1f
  101576:	79b1                	lui	s3,0xfffec
  101578:	5bed                	li	s7,-5
  10157a:	6abeb65b          	0x6abeb65b
  10157e:	d46a                	sw	s10,40(sp)
  101580:	cb46                	sw	a7,148(sp)
  101582:	bed98dcb          	fnmsub.q	fs11,fs3,fa3,fs7,rne
  101586:	67be                	flw	fa5,204(sp)
  101588:	7239394b          	fnmsub.d	fs2,fs2,ft3,fa4,rup
  10158c:	4ade                	lw	s5,212(sp)
  10158e:	944a                	add	s0,s0,s2
  101590:	4cd4                	lw	a3,28(s1)
  101592:	984c                	0x984c
  101594:	58e8                	lw	a0,116(s1)
  101596:	b058                	fsd	fa4,160(s0)
  101598:	cf4a                	sw	s2,156(sp)
  10159a:	d06b85cf          	fnmadd.s	fa1,fs7,ft6,fs10,rne
  10159e:	bbd0                	fsd	fa2,176(a5)
  1015a0:	ef2a                	fsw	fa0,156(sp)
  1015a2:	aae5c5ef          	jal	a1,5d850 <_stack_len+0x55850>
  1015a6:	4faa                	lw	t6,136(sp)
  1015a8:	fb16                	fsw	ft5,180(sp)
  1015aa:	43c5edfb          	0x43c5edfb
  1015ae:	4dd78643          	0x4dd78643
  1015b2:	9a4d                	andi	a2,a2,-13
  1015b4:	3355                	jal	101358 <reset_handler+0x32>
  1015b6:	85946633          	0x85946633
  1015ba:	1185                	addi	gp,gp,-31
  1015bc:	8a4545cf          	fnmadd.d	fa1,fa0,ft4,fa7,rmm
  1015c0:	f910                	fsw	fa2,48(a0)
  1015c2:	e9f9                	bnez	a1,101698 <Te0+0x27c>
  1015c4:	0206                	slli	tp,tp,0x1
  1015c6:	0402                	c.slli64	s0
  1015c8:	7f81                	lui	t6,0xfffe0
  1015ca:	fe7f                	0xfe7f
  1015cc:	50f0                	lw	a2,100(s1)
  1015ce:	a050                	fsd	fa2,128(s0)
  1015d0:	3c44                	fld	fs1,184(s0)
  1015d2:	783c                	flw	fa5,112(s0)
  1015d4:	9fba                	add	t6,t6,a4
  1015d6:	259f a8e3 4ba8      	0x4ba8a8e3259f
  1015dc:	a25151f3          	csrrwi	gp,0xa25,2
  1015e0:	a3fe                	fsd	ft11,448(sp)
  1015e2:	40c05da3          	0x40c05da3
  1015e6:	8040                	0x8040
  1015e8:	8f8a                	mv	t6,sp
  1015ea:	92ad058f          	0x92ad058f
  1015ee:	3f92                	fld	ft11,288(sp)
  1015f0:	9dbc                	0x9dbc
  1015f2:	219d                	jal	101a58 <Te1+0x23c>
  1015f4:	3848                	fld	fa0,176(s0)
  1015f6:	7038                	flw	fa4,96(s0)
  1015f8:	f504                	fsw	fs1,40(a0)
  1015fa:	f1f5                	bnez	a1,1015de <Te0+0x1c2>
  1015fc:	bcdf 63bc b6c1      	0xb6c163bcbcdf
  101602:	77b6                	flw	fa5,108(sp)
  101604:	da75                	beqz	a2,1015f8 <Te0+0x1dc>
  101606:	afda                	fsd	fs6,472(sp)
  101608:	42212163          	0x42212163
  10160c:	1030                	addi	a2,sp,40
  10160e:	2010                	fld	fa2,0(s0)
  101610:	ff1a                	fsw	ft6,188(sp)
  101612:	e5ff                	0xe5ff
  101614:	f30e                	fsw	ft3,164(sp)
  101616:	d26dfdf3          	csrrci	s11,0xd26,27
  10161a:	bfd2                	fsd	fs4,504(sp)
  10161c:	cd4c                	sw	a1,28(a0)
  10161e:	81cd                	srli	a1,a1,0x13
  101620:	0c14                	addi	a3,sp,528
  101622:	180c                	addi	a1,sp,48
  101624:	1335                	addi	t1,t1,-19
  101626:	ec2f2613          	slti	a2,t5,-318
  10162a:	c3ec                	sw	a1,68(a5)
  10162c:	5fe1                	li	t6,-8
  10162e:	be5f 97a2 3597      	0x359797a2be5f
  101634:	44cc                	lw	a1,12(s1)
  101636:	8844                	0x8844
  101638:	1739                	addi	a4,a4,-18
  10163a:	c4572e17          	auipc	t3,0xc4572
  10163e:	93c4                	0x93c4
  101640:	a7f2                	fsd	ft8,456(sp)
  101642:	7e8255a7          	0x7e8255a7
  101646:	fc7e                	fsw	ft11,56(sp)
  101648:	7a3d3d47          	fmsub.d	fs10,fs10,ft3,fa5,rup
  10164c:	64ac                	flw	fa1,72(s1)
  10164e:	c864                	sw	s1,84(s0)
  101650:	ba5d5de7          	0xba5d5de7
  101654:	3219192b          	0x3219192b
  101658:	7395                	lui	t2,0xfffe5
  10165a:	60a0e673          	csrrsi	a2,0x60a,1
  10165e:	c060                	sw	s0,68(s0)
  101660:	8198                	0x8198
  101662:	1981                	addi	s3,s3,-32
  101664:	4fd1                	li	t6,20
  101666:	dc7f9e4f          	0xdc7f9e4f
  10166a:	a3dc                	fsd	fa5,128(a5)
  10166c:	2266                	fld	ft4,88(sp)
  10166e:	4422                	lw	s0,8(sp)
  101670:	2a7e                	fld	fs4,472(sp)
  101672:	542a                	lw	s0,168(sp)
  101674:	3b9090ab          	0x3b9090ab
  101678:	0b888883          	lb	a7,184(a7)
  10167c:	46ca                	lw	a3,144(sp)
  10167e:	8c46                	mv	s8,a7
  101680:	ee29                	bnez	a2,1016da <Te0+0x2be>
  101682:	c7ee                	sw	s11,204(sp)
  101684:	6bb8b8d3          	0x6bb8b8d3
  101688:	143c                	addi	a5,sp,552
  10168a:	2814                	fld	fa3,16(s0)
  10168c:	de79                	beqz	a2,10166a <Te0+0x24e>
  10168e:	a7de                	fsd	fs7,456(sp)
  101690:	5ee2                	lw	t4,56(sp)
  101692:	bc5e                	fsd	fs7,56(sp)
  101694:	0b1d                	addi	s6,s6,7
  101696:	db76160b          	0xdb76160b
  10169a:	e03baddb          	0xe03baddb
  10169e:	dbe0                	sw	s0,116(a5)
  1016a0:	3256                	fld	ft4,368(sp)
  1016a2:	6432                	flw	fs0,12(sp)
  1016a4:	3a4e                	fld	fs4,240(sp)
  1016a6:	743a                	flw	fs0,172(sp)
  1016a8:	0a1e                	slli	s4,s4,0x7
  1016aa:	140a                	slli	s0,s0,0x22
  1016ac:	924949db          	0x924949db
  1016b0:	060a                	slli	a2,a2,0x2
  1016b2:	0c06                	slli	s8,s8,0x1
  1016b4:	246c                	fld	fa1,200(s0)
  1016b6:	4824                	lw	s1,80(s0)
  1016b8:	5ce4                	lw	s1,124(s1)
  1016ba:	b85c                	fsd	fa5,176(s0)
  1016bc:	c25d                	beqz	a2,101762 <Te0+0x346>
  1016be:	9fc2                	add	t6,t6,a6
  1016c0:	d36e                	sw	s11,164(sp)
  1016c2:	acefbdd3          	0xacefbdd3
  1016c6:	43ac                	lw	a1,64(a5)
  1016c8:	62a6                	flw	ft5,72(sp)
  1016ca:	c462                	sw	s8,8(sp)
  1016cc:	91a8                	0x91a8
  1016ce:	3991                	jal	101322 <timer_handler>
  1016d0:	95a4                	0x95a4
  1016d2:	3195                	jal	101336 <reset_handler+0x10>
  1016d4:	d3e4e437          	lui	s0,0xd3e4e
  1016d8:	f279798b          	0xf279798b
  1016dc:	e732                	fsw	fa2,140(sp)
  1016de:	c843d5e7          	0xc843d5e7
  1016e2:	8bc8                	0x8bc8
  1016e4:	3759                	jal	10166a <Te0+0x24e>
  1016e6:	6db76e37          	lui	t3,0x6db76
  1016ea:	da6d                	beqz	a2,1016dc <Te0+0x2c0>
  1016ec:	8d8c                	0x8d8c
  1016ee:	018d                	addi	gp,gp,3
  1016f0:	d564                	sw	s1,108(a0)
  1016f2:	b1d5                	j	1013d6 <sleep_loop+0x30>
  1016f4:	4ed2                	lw	t4,20(sp)
  1016f6:	9c4e                	add	s8,s8,s3
  1016f8:	a9e0                	fsd	fs0,208(a1)
  1016fa:	49a9                	li	s3,10
  1016fc:	6cb4                	flw	fa3,88(s1)
  1016fe:	d86c                	sw	a1,116(s0)
  101700:	56fa                	lw	a3,188(sp)
  101702:	ac56                	fsd	fs5,24(sp)
  101704:	f3f4f407          	0xf3f4f407
  101708:	ea25                	bnez	a2,101778 <Te0+0x35c>
  10170a:	cfea                	sw	s10,220(sp)
  10170c:	ca6565af          	0xca6565af
  101710:	7a8e                	flw	fs5,224(sp)
  101712:	f47a                	fsw	ft10,40(sp)
  101714:	aee9                	j	101aee <Te1+0x2d2>
  101716:	47ae                	lw	a5,200(sp)
  101718:	0818                	addi	a4,sp,16
  10171a:	1008                	addi	a0,sp,32
  10171c:	bad5                	j	101110 <AES_encrypt+0x51e>
  10171e:	6fba                	flw	ft11,140(sp)
  101720:	7888                	flw	fa0,48(s1)
  101722:	f078                	fsw	fa4,100(s0)
  101724:	4a25256f          	jal	a0,153bc6 <_bss_end+0x5066e>
  101728:	2e72                	fld	ft8,280(sp)
  10172a:	5c2e                	lw	s8,232(sp)
  10172c:	1c24                	addi	s1,sp,568
  10172e:	381c                	fld	fa5,48(s0)
  101730:	a6f1                	j	101afc <Te1+0x2e0>
  101732:	57a6                	lw	a5,104(sp)
  101734:	73b4b4c7          	fmsub.d	fs1,fs1,fs11,fa4,rup
  101738:	c651                	beqz	a2,1017c4 <Te0+0x3a8>
  10173a:	97c6                	add	a5,a5,a7
  10173c:	cbe8e823          	0xcbe8e823
  101740:	dd7c                	sw	a5,124(a0)
  101742:	a1dd                	j	101c28 <Te2+0xc>
  101744:	749c                	flw	fa5,40(s1)
  101746:	e874                	fsw	fa3,84(s0)
  101748:	1f21                	addi	t5,t5,-24
  10174a:	3e1f 4bdd 964b      	0x964b4bdd3e1f
  101750:	bddc                	fsd	fa5,184(a1)
  101752:	61bd                	lui	gp,0xf
  101754:	8b86                	mv	s7,ra
  101756:	8a850d8b          	0x8a850d8b
  10175a:	0f8a                	slli	t6,t6,0x2
  10175c:	7090                	flw	fa2,32(s1)
  10175e:	e070                	fsw	fa2,68(s0)
  101760:	3e42                	fld	ft8,48(sp)
  101762:	7c3e                	flw	fs8,236(sp)
  101764:	b5c4                	fsd	fs1,168(a1)
  101766:	71b5                	lui	gp,0xfffed
  101768:	66aa                	flw	fa3,136(sp)
  10176a:	cc66                	sw	s9,24(sp)
  10176c:	48d8                	lw	a4,20(s1)
  10176e:	9048                	0x9048
  101770:	0305                	addi	t1,t1,1
  101772:	f6010603          	lb	a2,-160(sp)
  101776:	f7f6                	fsw	ft9,236(sp)
  101778:	0e12                	slli	t3,t3,0x4
  10177a:	1c0e                	slli	s8,s8,0x23
  10177c:	c26161a3          	0xc26161a3
  101780:	355f 6a35 57f9      	0x57f96a35355f
  101786:	b9d0ae57          	0xb9d0ae57
  10178a:	69b9                	lui	s3,0xe
  10178c:	8691                	srai	a3,a3,0x4
  10178e:	1786                	slli	a5,a5,0x21
  101790:	c158                	sw	a4,4(a0)
  101792:	99c1                	andi	a1,a1,-16
  101794:	3a1d1d27          	0x3a1d1d27
  101798:	9eb9                	0x9eb9
  10179a:	279e                	fld	fa5,448(sp)
  10179c:	e138                	fsw	fa4,64(a0)
  10179e:	d9e1                	beqz	a1,10176e <Te0+0x352>
  1017a0:	ebf8f813          	andi	a6,a7,-321
  1017a4:	2b9898b3          	0x2b9898b3
  1017a8:	22111133          	0x22111133
  1017ac:	d26969bb          	0xd26969bb
  1017b0:	d970                	sw	a2,116(a0)
  1017b2:	a9d9                	j	101c88 <Te2+0x6c>
  1017b4:	8e89                	sub	a3,a3,a0
  1017b6:	078e                	slli	a5,a5,0x3
  1017b8:	339494a7          	0x339494a7
  1017bc:	9bb6                	add	s7,s7,a3
  1017be:	1e222d9b          	0x1e222d9b
  1017c2:	3c1e                	fld	fs8,480(sp)
  1017c4:	8792                	mv	a5,tp
  1017c6:	e9201587          	0xe9201587
  1017ca:	c9e9                	beqz	a1,10189c <Te1+0x80>
  1017cc:	ce49                	beqz	a2,101866 <Te1+0x4a>
  1017ce:	87ce                	mv	a5,s3
  1017d0:	55ff                	0x55ff
  1017d2:	aa55                	j	101986 <Te1+0x16a>
  1017d4:	2878                	fld	fa4,208(s0)
  1017d6:	5028                	lw	a0,96(s0)
  1017d8:	df7a                	sw	t5,188(sp)
  1017da:	a5df 8c8f 038c      	0x38c8c8fa5df
  1017e0:	a1f8                	fsd	fa4,192(a1)
  1017e2:	59a1                	li	s3,-24
  1017e4:	8980                	0x8980
  1017e6:	0989                	addi	s3,s3,2
  1017e8:	1a0d0d17          	auipc	s10,0x1a0d0
  1017ec:	bfda                	fsd	fs6,504(sp)
  1017ee:	e63165bf 42c6d7e6 	0x42c6d7e6e63165bf
  1017f6:	8442                	mv	s0,a6
  1017f8:	68b8                	flw	fa4,80(s1)
  1017fa:	d068                	sw	a0,100(s0)
  1017fc:	824141c3          	fmadd.d	ft3,ft2,ft4,fa6,rmm
  101800:	99b0                	0x99b0
  101802:	2999                	jal	101c58 <Te2+0x3c>
  101804:	5a2d2d77          	0x5a2d2d77
  101808:	0f11                	addi	t5,t5,4
  10180a:	b0cb1e0f          	0xb0cb1e0f
  10180e:	7bb0                	flw	fa2,112(a5)
  101810:	54fc                	lw	a5,108(s1)
  101812:	a854                	fsd	fa3,144(s0)
  101814:	bbd6                	fsd	fs5,496(sp)
  101816:	163a6dbb          	0x163a6dbb
  10181a:	2c16                	fld	fs8,320(sp)

0010181c <Te1>:
static const u32 Te1[256] = {
  10181c:	a5c66363          	bltu	a2,t3,100a62 <AES_set_encrypt_key+0x486>
  101820:	7c7c                	flw	fa5,124(s0)
  101822:	84f8                	0x84f8
  101824:	99ee7777          	0x99ee7777
  101828:	8df67b7b          	0x8df67b7b
  10182c:	f2f2                	fsw	ft8,100(sp)
  10182e:	0dff                	0xdff
  101830:	bdd66b6b          	0xbdd66b6b
  101834:	b1de6f6f          	jal	t5,e8350 <_stack_len+0xe0350>
  101838:	c5c5                	beqz	a1,1018e0 <Te1+0xc4>
  10183a:	5491                	li	s1,-28
  10183c:	3030                	fld	fa2,96(s0)
  10183e:	5060                	lw	s0,100(s0)
  101840:	0101                	addi	sp,sp,0
  101842:	0302                	c.slli64	t1
  101844:	a9ce6767          	0xa9ce6767
  101848:	7d562b2b          	0x7d562b2b
  10184c:	fefe                	fsw	ft11,124(sp)
  10184e:	d7d719e7          	0xd7d719e7
  101852:	62b5                	lui	t0,0xd
  101854:	e64dabab          	0xe64dabab
  101858:	7676                	flw	fa2,124(sp)
  10185a:	9aec                	0x9aec
  10185c:	caca                	sw	s2,84(sp)
  10185e:	8282458f          	0x8282458f
  101862:	9d1f c9c9 4089      	0x4089c9c99d1f
  101868:	7d7d                	lui	s10,0xfffff
  10186a:	87fa                	mv	a5,t5
  10186c:	fafa                	fsw	ft10,116(sp)
  10186e:	595915ef          	jal	a1,193602 <_bss_end+0x900aa>
  101872:	ebb2                	fsw	fa2,212(sp)
  101874:	c98e4747          	fmsub.s	fa4,ft8,fs8,fs9,rmm
  101878:	f0f0                	fsw	fa2,100(s1)
  10187a:	adad0bfb          	0xadad0bfb
  10187e:	ec41                	bnez	s0,101916 <Te1+0xfa>
  101880:	d4d4                	sw	a3,44(s1)
  101882:	a2a267b3          	0xa2a267b3
  101886:	fd5f afaf ea45      	0xea45afaffd5f
  10188c:	9c9c                	0x9c9c
  10188e:	a4a4bf23          	0xa4a4bf23
  101892:	7272f753          	0x7272f753
  101896:	96e4                	0x96e4
  101898:	c0c0                	sw	s0,4(s1)
  10189a:	b7b75b9b          	0xb7b75b9b
  10189e:	c275                	beqz	a2,101982 <Te1+0x166>
  1018a0:	fdfd                	bnez	a1,10189e <Te1+0x82>
  1018a2:	1ce1                	addi	s9,s9,-8
  1018a4:	ae3d9393          	0xae3d9393
  1018a8:	2626                	fld	fa2,72(sp)
  1018aa:	6a4c                	flw	fa1,20(a2)
  1018ac:	3636                	fld	fa2,360(sp)
  1018ae:	5a6c                	lw	a1,116(a2)
  1018b0:	417e3f3f 02f5f7f7 	0x2f5f7f7417e3f3f
  1018b8:	cccc                	sw	a1,28(s1)
  1018ba:	34344f83          	lbu	t6,835(s0) # d3e4e343 <_stack_start+0xd3c4e343>
  1018be:	5c68                	lw	a0,124(s0)
  1018c0:	a5a5                	j	101f28 <Te2+0x30c>
  1018c2:	f451                	bnez	s0,10184e <Te1+0x32>
  1018c4:	e5e5                	bnez	a1,1019ac <Te1+0x190>
  1018c6:	34d1                	jal	10138a <zero_loop+0x8>
  1018c8:	f1f1                	bnez	a1,10188c <Te1+0x70>
  1018ca:	08f9                	addi	a7,a7,30
  1018cc:	7171                	addi	sp,sp,-176
  1018ce:	93e2                	add	t2,t2,s8
  1018d0:	d8d8                	sw	a4,52(s1)
  1018d2:	313173ab          	0x313173ab
  1018d6:	5362                	lw	t1,56(sp)
  1018d8:	1515                	addi	a0,a0,-27
  1018da:	3f2a                	fld	ft10,168(sp)
  1018dc:	0404                	addi	s1,sp,512
  1018de:	0c08                	addi	a0,sp,528
  1018e0:	5295c7c7          	fmsub.d	fa5,fa1,fs1,fa0,rmm
  1018e4:	65462323          	sw	s4,1606(a2)
  1018e8:	5e9dc3c3          	fmadd.q	ft7,fs11,fs1,fa1,rmm
  1018ec:	1818                	addi	a4,sp,48
  1018ee:	2830                	fld	fa2,80(s0)
  1018f0:	9696                	add	a3,a3,t0
  1018f2:	0505a137          	lui	sp,0x505a
  1018f6:	0f0a                	slli	t5,t5,0x2
  1018f8:	9a9a                	add	s5,s5,t1
  1018fa:	0707b52f          	0x707b52f
  1018fe:	090e                	slli	s2,s2,0x3
  101900:	1212                	slli	tp,tp,0x24
  101902:	3624                	fld	fs1,104(a2)
  101904:	8080                	0x8080
  101906:	e2e29b1b          	0xe2e29b1b
  10190a:	3ddf ebeb 26cd      	0x26cdebeb3ddf
  101910:	694e2727          	fsw	fs4,1678(t3) # 6db7668e <_stack_start+0x6d97668e>
  101914:	b2b2                	fsd	fa2,352(sp)
  101916:	cd7f                	0xcd7f
  101918:	7575                	lui	a0,0xffffd
  10191a:	9fea                	add	t6,t6,s10
  10191c:	0909                	addi	s2,s2,2
  10191e:	1b12                	slli	s6,s6,0x24
  101920:	9e1d8383          	lb	t2,-1567(s11)
  101924:	2c2c                	fld	fa1,88(s0)
  101926:	7458                	flw	fa4,44(s0)
  101928:	1a1a                	slli	s4,s4,0x26
  10192a:	2e34                	fld	fa3,88(a2)
  10192c:	2d361b1b          	0x2d361b1b
  101930:	6e6e                	flw	ft8,216(sp)
  101932:	b2dc                	fsd	fa5,160(a3)
  101934:	5a5a                	lw	s4,180(sp)
  101936:	eeb4                	fsw	fa3,88(a3)
  101938:	a0a0                	fsd	fs0,64(s1)
  10193a:	5252fb5b          	0x5252fb5b
  10193e:	f6a4                	fsw	fs1,104(a3)
  101940:	4d763b3b          	0x4d763b3b
  101944:	d6d6                	sw	s5,108(sp)
  101946:	b3b361b7          	lui	gp,0xb3b36
  10194a:	ce7d                	beqz	a2,101a48 <Te1+0x22c>
  10194c:	2929                	jal	101d66 <Te2+0x14a>
  10194e:	7b52                	flw	fs6,52(sp)
  101950:	3edde3e3          	bltu	s11,a3,102536 <Td0+0x11a>
  101954:	715e2f2f          	0x715e2f2f
  101958:	8484                	0x8484
  10195a:	53539713          	0x53539713
  10195e:	f5a6                	fsw	fs1,232(sp)
  101960:	d1d1                	beqz	a1,1018e4 <Te1+0xc8>
  101962:	68b9                	lui	a7,0xe
  101964:	0000                	unimp
  101966:	0000                	unimp
  101968:	eded                	bnez	a1,101a62 <Te1+0x246>
  10196a:	2cc1                	jal	101c3a <Te2+0x1e>
  10196c:	2020                	fld	fs0,64(s0)
  10196e:	6040                	flw	fs0,4(s0)
  101970:	fcfc                	fsw	fa5,124(s1)
  101972:	b1b11fe3          	bne	sp,s11,101490 <Te0+0x74>
  101976:	c879                	beqz	s0,101a4c <Te1+0x230>
  101978:	edb65b5b          	0xedb65b5b
  10197c:	6a6a                	flw	fs4,152(sp)
  10197e:	bed4                	fsd	fa3,184(a3)
  101980:	468dcbcb          	fnmsub.q	fs7,fs11,fs0,fs0,rmm
  101984:	bebe                	fsd	fa5,376(sp)
  101986:	3939d967          	0x3939d967
  10198a:	4b72                	lw	s6,28(sp)
  10198c:	4a4a                	lw	s4,144(sp)
  10198e:	de94                	sw	a3,56(a3)
  101990:	4c4c                	lw	a1,28(s0)
  101992:	d498                	sw	a4,40(s1)
  101994:	5858                	lw	a4,52(s0)
  101996:	e8b0                	fsw	fa2,80(s1)
  101998:	4a85cfcf          	fnmadd.d	ft11,fa1,fs0,fs1,rmm
  10199c:	d0d0                	sw	a2,36(s1)
  10199e:	efef6bbb          	0xefef6bbb
  1019a2:	2ac5                	jal	101b92 <Te1+0x376>
  1019a4:	aaaa                	fsd	fa0,336(sp)
  1019a6:	fbfbe54f          	fnmadd.d	fa0,fs7,ft11,ft11,unknown
  1019aa:	16ed                	addi	a3,a3,-5
  1019ac:	c5864343          	0xc5864343
  1019b0:	4d4d                	li	s10,19
  1019b2:	d79a                	sw	t1,236(sp)
  1019b4:	55663333          	0x55663333
  1019b8:	8585                	srai	a1,a1,0x1
  1019ba:	9411                	srai	s0,s0,0x24
  1019bc:	4545                	li	a0,17
  1019be:	cf8a                	sw	sp,220(sp)
  1019c0:	f9f9                	bnez	a1,101996 <Te1+0x17a>
  1019c2:	10e9                	addi	ra,ra,-6
  1019c4:	0202                	c.slli64	tp
  1019c6:	0604                	addi	s1,sp,768
  1019c8:	7f7f                	0x7f7f
  1019ca:	81fe                	mv	gp,t6
  1019cc:	5050                	lw	a2,36(s0)
  1019ce:	f0a0                	fsw	fs0,96(s1)
  1019d0:	3c3c                	fld	fa5,120(s0)
  1019d2:	4478                	lw	a4,76(s0)
  1019d4:	9f9f ba25 a8a8      	0xa8a8ba259f9f
  1019da:	5151e34b          	fnmsub.s	ft6,ft3,fs5,fa0,unknown
  1019de:	f3a2                	fsw	fs0,228(sp)
  1019e0:	fe5da3a3          	sw	t0,-25(s11)
  1019e4:	4040                	lw	s0,4(s0)
  1019e6:	c080                	sw	s0,0(s1)
  1019e8:	8a058f8f          	0x8a058f8f
  1019ec:	9292                	add	t0,t0,tp
  1019ee:	9d9dad3f 3838bc21 	0x3838bc219d9dad3f
  1019f6:	4870                	lw	a2,84(s0)
  1019f8:	f5f5                	bnez	a1,1019e4 <Te1+0x1c8>
  1019fa:	04f1                	addi	s1,s1,28
  1019fc:	bcbc                	fsd	fa5,120(s1)
  1019fe:	b6b6df63          	bge	a3,a1,100d7c <AES_encrypt+0x18a>
  101a02:	dadac177          	0xdadac177
  101a06:	212175af          	0x212175af
  101a0a:	6342                	flw	ft6,16(sp)
  101a0c:	1010                	addi	a2,sp,32
  101a0e:	3020                	fld	fs0,96(s0)
  101a10:	ffff                	0xffff
  101a12:	1ae5                	addi	s5,s5,-7
  101a14:	0efdf3f3          	csrrci	t2,0xef,27
  101a18:	d2d2                	sw	s4,100(sp)
  101a1a:	cdcd6dbf 0c0c4c81 	0xc0c4c81cdcd6dbf
  101a22:	1418                	addi	a4,sp,544
  101a24:	35261313          	0x35261313
  101a28:	ecec                	fsw	fa1,92(s1)
  101a2a:	5f5f2fc3          	fmadd.q	ft11,ft10,fs5,fa1,rdn
  101a2e:	e1be                	fsw	fa5,192(sp)
  101a30:	a2359797          	auipc	a5,0xa2359
  101a34:	4444                	lw	s1,12(s0)
  101a36:	cc88                	sw	a0,24(s1)
  101a38:	392e1717          	auipc	a4,0x392e1
  101a3c:	c4c4                	sw	s1,12(s1)
  101a3e:	a7a75793          	0xa7a75793
  101a42:	f255                	bnez	a2,1019e6 <Te1+0x1ca>
  101a44:	7e7e                	flw	ft8,252(sp)
  101a46:	82fc                	0x82fc
  101a48:	3d3d                	jal	101886 <Te1+0x6a>
  101a4a:	477a                	lw	a4,156(sp)
  101a4c:	6464                	flw	fs1,76(s0)
  101a4e:	acc8                	fsd	fa0,152(s1)
  101a50:	5d5d                	li	s10,-9
  101a52:	e7ba                	fsw	fa4,204(sp)
  101a54:	1919                	addi	s2,s2,-26
  101a56:	2b32                	fld	fs6,264(sp)
  101a58:	95e67373          	csrrci	t1,0x95e,12
  101a5c:	6060                	flw	fs0,68(s0)
  101a5e:	a0c0                	fsd	fs0,128(s1)
  101a60:	8181                	c.srli64	a1
  101a62:	9819                	andi	s0,s0,-26
  101a64:	d19e4f4f          	fnmadd.s	ft10,ft8,fs9,fs10,rmm
  101a68:	dcdc                	sw	a5,60(s1)
  101a6a:	22227fa3          	0x22227fa3
  101a6e:	6644                	flw	fs1,12(a2)
  101a70:	2a2a                	fld	fs4,136(sp)
  101a72:	7e54                	flw	fa3,60(a2)
  101a74:	9090                	0x9090
  101a76:	8888ab3b          	0x8888ab3b
  101a7a:	4646830b          	0x4646830b
  101a7e:	ca8c                	sw	a1,16(a3)
  101a80:	eeee                	fsw	fs11,92(sp)
  101a82:	b8b829c7          	fmsub.s	fs3,fa6,fa1,fs7,rdn
  101a86:	1414d36b          	0x1414d36b
  101a8a:	3c28                	fld	fa0,120(s0)
  101a8c:	dede                	sw	s7,124(sp)
  101a8e:	5e5e79a7          	0x5e5e79a7
  101a92:	e2bc                	fsw	fa5,64(a3)
  101a94:	1d160b0b          	0x1d160b0b
  101a98:	76addbdb          	0x76addbdb
  101a9c:	e0e0                	fsw	fs0,68(s1)
  101a9e:	32323bdb          	0x32323bdb
  101aa2:	5664                	lw	s1,108(a2)
  101aa4:	3a3a                	fld	fs4,424(sp)
  101aa6:	4e74                	lw	a3,92(a2)
  101aa8:	0a0a                	slli	s4,s4,0x2
  101aaa:	1e14                	addi	a3,sp,816
  101aac:	4949                	li	s2,18
  101aae:	db92                	sw	tp,244(sp)
  101ab0:	0606                	slli	a2,a2,0x1
  101ab2:	0a0c                	addi	a1,sp,272
  101ab4:	2424                	fld	fs1,72(s0)
  101ab6:	6c48                	flw	fa0,28(s0)
  101ab8:	5c5c                	lw	a5,60(s0)
  101aba:	e4b8                	fsw	fa4,72(s1)
  101abc:	c2c2                	sw	a6,68(sp)
  101abe:	5d9f d3d3 6ebd      	0x6ebdd3d35d9f
  101ac4:	acac                	fsd	fa1,88(s1)
  101ac6:	6262ef43          	fmadd.d	ft10,ft5,ft6,fa2,unknown
  101aca:	a6c4                	fsd	fs1,136(a3)
  101acc:	9191                	srli	a1,a1,0x24
  101ace:	a839                	j	101aec <Te1+0x2d0>
  101ad0:	9595                	srai	a1,a1,0x25
  101ad2:	a431                	j	101cde <Te2+0xc2>
  101ad4:	e4e4                	fsw	fs1,76(s1)
  101ad6:	797937d3          	0x797937d3
  101ada:	8bf2                	mv	s7,t3
  101adc:	32d5e7e7          	0x32d5e7e7
  101ae0:	c8c8                	sw	a0,20(s1)
  101ae2:	3737438b          	0x3737438b
  101ae6:	596e                	lw	s2,248(sp)
  101ae8:	6d6d                	lui	s10,0x1b
  101aea:	b7da                	fsd	fs6,488(sp)
  101aec:	8d8d                	sub	a1,a1,a1
  101aee:	8c01                	sub	s0,s0,s0
  101af0:	d5d5                	beqz	a1,101a9c <Te1+0x280>
  101af2:	64b1                	lui	s1,0xc
  101af4:	4e4e                	lw	t3,208(sp)
  101af6:	d29c                	sw	a5,32(a3)
  101af8:	a9a9                	j	101f52 <Te2+0x336>
  101afa:	e049                	bnez	s0,101b7c <Te1+0x360>
  101afc:	6c6c                	flw	fa1,92(s0)
  101afe:	b4d8                	fsd	fa4,168(s1)
  101b00:	5656                	lw	a2,116(sp)
  101b02:	faac                	fsw	fa1,112(a3)
  101b04:	f4f4                	fsw	fa3,108(s1)
  101b06:	eaea07f3          	0xeaea07f3
  101b0a:	656525cf          	0x656525cf
  101b0e:	afca                	fsd	fs2,472(sp)
  101b10:	7a7a                	flw	fs4,188(sp)
  101b12:	8ef4                	0x8ef4
  101b14:	aeae                	fsd	fa1,344(sp)
  101b16:	0808e947          	fmsub.s	fs2,fa7,ft0,ft1,unknown
  101b1a:	1810                	addi	a2,sp,48
  101b1c:	baba                	fsd	fa4,368(sp)
  101b1e:	7878d56f          	jal	a0,18faa4 <_bss_end+0x8c54c>
  101b22:	88f0                	0x88f0
  101b24:	2525                	jal	10214c <Te3+0x130>
  101b26:	6f4a                	flw	ft10,144(sp)
  101b28:	2e2e                	fld	ft8,200(sp)
  101b2a:	725c                	flw	fa5,36(a2)
  101b2c:	1c1c                	addi	a5,sp,560
  101b2e:	2438                	fld	fa4,72(s0)
  101b30:	a6a6                	fsd	fs1,328(sp)
  101b32:	b4b4f157          	0xb4b4f157
  101b36:	c6c6c773          	0xc6c6c773
  101b3a:	e8e85197          	auipc	gp,0xe8e85
  101b3e:	dddd23cb          	0xdddd23cb
  101b42:	7ca1                	lui	s9,0xfffe8
  101b44:	7474                	flw	fa3,108(s0)
  101b46:	9ce8                	0x9ce8
  101b48:	1f1f 213e 4b4b      	0x4b4b213e1f1f
  101b4e:	dd96                	sw	t0,248(sp)
  101b50:	bdbd                	j	1019ce <Te1+0x1b2>
  101b52:	dc61                	beqz	s0,101b2a <Te1+0x30e>
  101b54:	860d8b8b          	0x860d8b8b
  101b58:	8a8a                	mv	s5,sp
  101b5a:	7070850f          	0x7070850f
  101b5e:	90e0                	0x90e0
  101b60:	3e3e                	fld	ft8,488(sp)
  101b62:	427c                	lw	a5,68(a2)
  101b64:	b5b5                	j	1019d0 <Te1+0x1b4>
  101b66:	c471                	beqz	s0,101c32 <Te2+0x16>
  101b68:	6666                	flw	fa2,88(sp)
  101b6a:	aacc                	fsd	fa1,144(a3)
  101b6c:	4848                	lw	a0,20(s0)
  101b6e:	d890                	sw	a2,48(s1)
  101b70:	05060303          	lb	t1,80(a2)
  101b74:	f6f6                	fsw	ft9,108(sp)
  101b76:	0e0e01f7          	0xe0e01f7
  101b7a:	121c                	addi	a5,sp,288
  101b7c:	6161                	addi	sp,sp,80
  101b7e:	a3c2                	fsd	fa6,448(sp)
  101b80:	3535                	jal	1019ac <Te1+0x190>
  101b82:	5f6a                	lw	t5,184(sp)
  101b84:	f9ae5757          	0xf9ae5757
  101b88:	b9b9                	j	1017e6 <Te0+0x3ca>
  101b8a:	d069                	beqz	s0,101b4c <Te1+0x330>
  101b8c:	8686                	mv	a3,ra
  101b8e:	c1c19117          	auipc	sp,0xc1c19
  101b92:	5899                	li	a7,-26
  101b94:	1d1d                	addi	s10,s10,-25
  101b96:	273a                	fld	fa4,392(sp)
  101b98:	9e9e                	add	t4,t4,t2
  101b9a:	e1e1b927          	fsd	ft10,-494(gp) # e8f8694c <_stack_start+0xe8d8694c>
  101b9e:	38d9                	jal	101474 <Te0+0x58>
  101ba0:	f8f8                	fsw	fa4,116(s1)
  101ba2:	989813eb          	0x989813eb
  101ba6:	1111b32b          	0x1111b32b
  101baa:	3322                	fld	ft6,40(sp)
  101bac:	6969                	lui	s2,0x1a
  101bae:	bbd2                	fsd	fs4,496(sp)
  101bb0:	d9d9                	beqz	a1,101b46 <Te1+0x32a>
  101bb2:	70a9                	lui	ra,0xfffea
  101bb4:	8e8e                	mv	t4,gp
  101bb6:	94948907          	0x94948907
  101bba:	9b9ba733          	0x9b9ba733
  101bbe:	b62d                	j	1016e8 <Te0+0x2cc>
  101bc0:	1e1e                	slli	t3,t3,0x27
  101bc2:	223c                	fld	fa5,64(a2)
  101bc4:	92158787          	0x92158787
  101bc8:	e9e9                	bnez	a1,101c9a <Te2+0x7e>
  101bca:	20c9                	jal	101c8c <Te2+0x70>
  101bcc:	cece                	sw	s3,92(sp)
  101bce:	55554987          	flq	fs3,1365(a0) # ffffd555 <_stack_start+0xffdfd555>
  101bd2:	ffaa                	fsw	fa0,252(sp)
  101bd4:	2828                	fld	fa0,80(s0)
  101bd6:	7850                	flw	fa2,52(s0)
  101bd8:	dfdf 7aa5 8c8c      	0x8c8c7aa5dfdf
  101bde:	a1a18f03          	lb	t5,-1510(gp)
  101be2:	f859                	bnez	s0,101b78 <Te1+0x35c>
  101be4:	8989                	andi	a1,a1,2
  101be6:	8009                	srli	s0,s0,0x2
  101be8:	0d0d                	addi	s10,s10,3
  101bea:	171a                	slli	a4,a4,0x26
  101bec:	da65bfbf 31d7e6e6 	0x31d7e6e6da65bfbf
  101bf4:	4242                	lw	tp,16(sp)
  101bf6:	c684                	sw	s1,8(a3)
  101bf8:	6868                	flw	fa0,84(s0)
  101bfa:	b8d0                	fsd	fa2,176(s1)
  101bfc:	4141                	li	sp,16
  101bfe:	c382                	sw	zero,196(sp)
  101c00:	9999                	andi	a1,a1,-26
  101c02:	b029                	j	10140c <sleep_loop+0x66>
  101c04:	2d2d                	jal	10223e <Te3+0x222>
  101c06:	775a                	flw	fa4,180(sp)
  101c08:	111e0f0f          	0x111e0f0f
  101c0c:	b0b0                	fsd	fa2,96(s1)
  101c0e:	5454cb7b          	0x5454cb7b
  101c12:	fca8                	fsw	fa0,120(s1)
  101c14:	d66dbbbb          	0xd66dbbbb
  101c18:	1616                	slli	a2,a2,0x25
  101c1a:	3a2c                	fld	fa1,112(a2)

00101c1c <Te2>:
static const u32 Te2[256] = {
  101c1c:	63a5c663          	blt	a1,s10,102248 <Te3+0x22c>
  101c20:	f87c                	fsw	fa5,116(s0)
  101c22:	7c84                	flw	fs1,56(s1)
  101c24:	7799ee77          	0x7799ee77
  101c28:	7b8df67b          	0x7b8df67b
  101c2c:	fff2                	fsw	ft8,252(sp)
  101c2e:	f20d                	bnez	a2,101b50 <Te1+0x334>
  101c30:	6bbdd66b          	0x6bbdd66b
  101c34:	6fb1de6f          	jal	t3,11fb2e <_bss_end+0x1c5d6>
  101c38:	91c5                	srli	a1,a1,0x31
  101c3a:	c554                	sw	a3,12(a0)
  101c3c:	6030                	flw	fa2,64(s0)
  101c3e:	3050                	fld	fa2,160(s0)
  101c40:	0201                	addi	tp,tp,0
  101c42:	ce670103          	lb	sp,-794(a4) # 393e271e <_stack_start+0x391e271e>
  101c46:	67a9                	lui	a5,0xa
  101c48:	2b7d562b          	0x2b7d562b
  101c4c:	e7fe                	fsw	ft11,204(sp)
  101c4e:	fe19                	bnez	a2,101b6c <Te1+0x350>
  101c50:	d762b5d7          	0xd762b5d7
  101c54:	abe64dab          	0xabe64dab
  101c58:	ec76                	fsw	ft9,24(sp)
  101c5a:	769a                	flw	fa3,164(sp)
  101c5c:	8fca                	mv	t6,s2
  101c5e:	ca45                	beqz	a2,101d0e <Te2+0xf2>
  101c60:	1f82                	slli	t6,t6,0x20
  101c62:	829d                	srli	a3,a3,0x7
  101c64:	89c9                	andi	a1,a1,18
  101c66:	c940                	sw	s0,20(a0)
  101c68:	fa7d                	bnez	a2,101c5e <Te2+0x42>
  101c6a:	effa7d87          	0xeffa7d87
  101c6e:	fa15                	bnez	a2,101ba2 <Te1+0x386>
  101c70:	b259                	j	1015f6 <Te0+0x1da>
  101c72:	8e4759eb          	0x8e4759eb
  101c76:	47c9                	li	a5,18
  101c78:	fbf0                	fsw	fa2,116(a5)
  101c7a:	41adf00b          	0x41adf00b
  101c7e:	adec                	fsd	fa1,216(a1)
  101c80:	b3d4                	fsd	fa3,160(a5)
  101c82:	5fa2d467          	0x5fa2d467
  101c86:	a2fd                	j	101e74 <Te2+0x258>
  101c88:	afea45af          	0xafea45af
  101c8c:	239c                	fld	fa5,0(a5)
  101c8e:	53a49cbf e472a4f7 	0xe472a4f753a49cbf
  101c96:	7296                	flw	ft5,100(sp)
  101c98:	9bc0                	0x9bc0
  101c9a:	75b7c05b          	0x75b7c05b
  101c9e:	b7c2                	fsd	fa6,488(sp)
  101ca0:	e1fd                	bnez	a1,101d86 <Te2+0x16a>
  101ca2:	fd1c                	fsw	fa5,56(a0)
  101ca4:	93ae3d93          	sltiu	s11,t3,-1734
  101ca8:	4c26                	lw	s8,72(sp)
  101caa:	266a                	fld	fa2,152(sp)
  101cac:	6c36                	flw	fs8,76(sp)
  101cae:	365a                	fld	fa2,432(sp)
  101cb0:	3f417e3f f702f5f7 	0xf702f5f73f417e3f
  101cb8:	83cc                	0x83cc
  101cba:	6834cc4f          	fnmadd.s	fs8,fs1,ft3,fa3,rmm
  101cbe:	345c                	fld	fa5,168(s0)
  101cc0:	51a5                	li	gp,-23
  101cc2:	a5f4                	fsd	fa3,200(a1)
  101cc4:	d1e5                	beqz	a1,101ca4 <Te2+0x88>
  101cc6:	e534                	fsw	fa3,72(a0)
  101cc8:	f9f1                	bnez	a1,101c9c <Te2+0x80>
  101cca:	f108                	fsw	fa0,32(a0)
  101ccc:	e271                	bnez	a2,101d90 <Te2+0x174>
  101cce:	abd87193          	andi	gp,a6,-1347
  101cd2:	6231d873          	csrrwi	a6,0x623,3
  101cd6:	2a153153          	0x2a153153
  101cda:	0804153f 95c7040c 	0x95c7040c0804153f
  101ce2:	c752                	sw	s4,140(sp)
  101ce4:	23654623          	0x23654623
  101ce8:	c35e9dc3          	fmadd.d	fs11,ft9,fs5,fs8,rtz
  101cec:	3018                	fld	fa4,32(s0)
  101cee:	1828                	addi	a0,sp,56
  101cf0:	3796                	fld	fa5,352(sp)
  101cf2:	96a1                	srai	a3,a3,0x28
  101cf4:	0a05                	addi	s4,s4,1
  101cf6:	2f9a050f          	0x2f9a050f
  101cfa:	9ab5                	andi	a3,a3,-19
  101cfc:	07090e07          	0x7090e07
  101d00:	2412                	fld	fs0,256(sp)
  101d02:	1236                	slli	tp,tp,0x2d
  101d04:	1b80                	addi	s0,sp,496
  101d06:	dfe2809b          	0xdfe2809b
  101d0a:	e23d                	bnez	a2,101d70 <Te2+0x154>
  101d0c:	eb26cdeb          	0xeb26cdeb
  101d10:	27694e27          	fsq	fs6,636(s2) # 1a27c <_stack_len+0x1227c>
  101d14:	7fb2                	flw	ft11,44(sp)
  101d16:	b2cd                	j	1016f8 <Te0+0x2dc>
  101d18:	ea75                	bnez	a2,101e0c <Te2+0x1f0>
  101d1a:	759f 1209 091b      	0x91b1209759f
  101d20:	839e1d83          	lh	s11,-1991(t3)
  101d24:	582c                	lw	a1,112(s0)
  101d26:	2c74                	fld	fa3,216(s0)
  101d28:	341a                	fld	fs0,416(sp)
  101d2a:	1a2e                	slli	s4,s4,0x2b
  101d2c:	1b2d361b          	0x1b2d361b
  101d30:	dc6e                	sw	s11,56(sp)
  101d32:	6eb2                	flw	ft9,12(sp)
  101d34:	b45a                	fsd	fs6,40(sp)
  101d36:	5aee                	lw	s5,248(sp)
  101d38:	5ba0                	lw	s0,112(a5)
  101d3a:	a452a0fb          	0xa452a0fb
  101d3e:	52f6                	lw	t0,124(sp)
  101d40:	3b4d763b          	0x3b4d763b
  101d44:	b7d6                	fsd	fs5,488(sp)
  101d46:	d661                	beqz	a2,101d0e <Te2+0xf2>
  101d48:	b3ce7db3          	0xb3ce7db3
  101d4c:	5229                	li	tp,-22
  101d4e:	dde3297b          	0xdde3297b
  101d52:	e33e                	fsw	fa5,132(sp)
  101d54:	2f715e2f          	0x2f715e2f
  101d58:	1384                	addi	s1,sp,480
  101d5a:	a6538497          	auipc	s1,0xa6538
  101d5e:	53f5                	li	t2,-3
  101d60:	b9d1                	j	101a34 <Te1+0x218>
  101d62:	d168                	sw	a0,100(a0)
  101d64:	0000                	unimp
  101d66:	0000                	unimp
  101d68:	c1ed                	beqz	a1,101e4a <Te2+0x22e>
  101d6a:	ed2c                	fsw	fa1,88(a0)
  101d6c:	4020                	lw	s0,64(s0)
  101d6e:	2060                	fld	fs0,192(s0)
  101d70:	e3fc                	fsw	fa5,68(a5)
  101d72:	fc1f 79b1 b1c8      	0xb1c879b1fc1f
  101d78:	5bedb65b          	0x5bedb65b
  101d7c:	d46a                	sw	s10,40(sp)
  101d7e:	6abe                	flw	fs5,204(sp)
  101d80:	cb468dcb          	fnmsub.d	fs11,fa3,fs4,fs9,rne
  101d84:	67be                	flw	fa5,204(sp)
  101d86:	bed9                	j	10195c <Te1+0x140>
  101d88:	7239                	lui	tp,0xfffee
  101d8a:	944a394b          	0x944a394b
  101d8e:	4ade                	lw	s5,212(sp)
  101d90:	984c                	0x984c
  101d92:	4cd4                	lw	a3,28(s1)
  101d94:	b058                	fsd	fa4,160(s0)
  101d96:	58e8                	lw	a0,116(s1)
  101d98:	cf4a85cf          	fnmadd.q	fa1,fs5,fs4,fs9,rne
  101d9c:	bbd0                	fsd	fa2,176(a5)
  101d9e:	c5efd06b          	0xc5efd06b
  101da2:	ef2a                	fsw	fa0,156(sp)
  101da4:	4faa                	lw	t6,136(sp)
  101da6:	aae5                	j	101f9e <Te2+0x382>
  101da8:	fb16edfb          	0xfb16edfb
  101dac:	43c58643          	fmadd.d	fa2,fa1,ft8,fs0,rne
  101db0:	9a4d                	andi	a2,a2,-13
  101db2:	66334dd7          	0x66334dd7
  101db6:	3355                	jal	101b5a <Te1+0x33e>
  101db8:	1185                	addi	gp,gp,-31
  101dba:	8594                	0x8594
  101dbc:	8a45                	andi	a2,a2,17
  101dbe:	e9f945cf          	fnmadd.s	fa1,fs2,ft11,ft9,rmm
  101dc2:	f910                	fsw	fa2,48(a0)
  101dc4:	0402                	c.slli64	s0
  101dc6:	0206                	slli	tp,tp,0x1
  101dc8:	fe7f                	0xfe7f
  101dca:	7f81                	lui	t6,0xfffe0
  101dcc:	a050                	fsd	fa2,128(s0)
  101dce:	50f0                	lw	a2,100(s1)
  101dd0:	783c                	flw	fa5,112(s0)
  101dd2:	3c44                	fld	fs1,184(s0)
  101dd4:	259f 9fba 4ba8      	0x4ba89fba259f
  101dda:	a251a8e3          	0xa251a8e3
  101dde:	5da351f3          	csrrwi	gp,0x5da,6
  101de2:	a3fe                	fsd	ft11,448(sp)
  101de4:	8040                	0x8040
  101de6:	40c0                	lw	s0,4(s1)
  101de8:	8f8a058f          	0x8f8a058f
  101dec:	3f92                	fld	ft11,288(sp)
  101dee:	92ad                	srli	a3,a3,0x2b
  101df0:	219d                	jal	102256 <Te3+0x23a>
  101df2:	9dbc                	0x9dbc
  101df4:	7038                	flw	fa4,96(s0)
  101df6:	3848                	fld	fa0,176(s0)
  101df8:	f1f5                	bnez	a1,101ddc <Te2+0x1c0>
  101dfa:	f504                	fsw	fs1,40(a0)
  101dfc:	63bc                	flw	fa5,64(a5)
  101dfe:	bcdf 77b6 b6c1      	0xb6c177b6bcdf
  101e04:	afda                	fsd	fs6,472(sp)
  101e06:	da75                	beqz	a2,101dfa <Te2+0x1de>
  101e08:	4221                	li	tp,8
  101e0a:	20102163          	0x20102163
  101e0e:	1030                	addi	a2,sp,40
  101e10:	e5ff                	0xe5ff
  101e12:	ff1a                	fsw	ft6,188(sp)
  101e14:	f30efdf3          	csrrci	s11,0xf30,29
  101e18:	bfd2                	fsd	fs4,504(sp)
  101e1a:	d26d                	beqz	a2,101dfc <Te2+0x1e0>
  101e1c:	81cd                	srli	a1,a1,0x13
  101e1e:	cd4c                	sw	a1,28(a0)
  101e20:	180c                	addi	a1,sp,48
  101e22:	0c14                	addi	a3,sp,528
  101e24:	13352613          	slti	a2,a0,307
  101e28:	c3ec                	sw	a1,68(a5)
  101e2a:	be5fec2f          	0xbe5fec2f
  101e2e:	5fe1                	li	t6,-8
  101e30:	97a23597          	auipc	a1,0x97a23
  101e34:	8844                	0x8844
  101e36:	44cc                	lw	a1,12(s1)
  101e38:	17392e17          	auipc	t3,0x17392
  101e3c:	93c4                	0x93c4
  101e3e:	55a7c457          	0x55a7c457
  101e42:	a7f2                	fsd	ft8,456(sp)
  101e44:	fc7e                	fsw	ft11,56(sp)
  101e46:	7e82                	flw	ft9,32(sp)
  101e48:	7a3d                	lui	s4,0xfffef
  101e4a:	c8643d47          	fmsub.s	fs10,fs0,ft6,fs9,rup
  101e4e:	64ac                	flw	fa1,72(s1)
  101e50:	ba5d                	j	101806 <Te0+0x3ea>
  101e52:	32195de7          	0x32195de7
  101e56:	e673192b          	0xe673192b
  101e5a:	7395                	lui	t2,0xfffe5
  101e5c:	c060                	sw	s0,68(s0)
  101e5e:	60a0                	flw	fs0,64(s1)
  101e60:	1981                	addi	s3,s3,-32
  101e62:	8198                	0x8198
  101e64:	4fd19e4f          	fnmadd.q	ft8,ft3,ft9,fs1,rtz
  101e68:	a3dc                	fsd	fa5,128(a5)
  101e6a:	dc7f                	0xdc7f
  101e6c:	4422                	lw	s0,8(sp)
  101e6e:	2266                	fld	ft4,88(sp)
  101e70:	542a                	lw	s0,168(sp)
  101e72:	2a7e                	fld	fs4,472(sp)
  101e74:	3b90                	fld	fa2,48(a5)
  101e76:	0b8890ab          	0xb8890ab
  101e7a:	8c468883          	lb	a7,-1852(a3)
  101e7e:	46ca                	lw	a3,144(sp)
  101e80:	c7ee                	sw	s11,204(sp)
  101e82:	ee29                	bnez	a2,101edc <Te2+0x2c0>
  101e84:	6bb8                	flw	fa4,80(a5)
  101e86:	2814b8d3          	0x2814b8d3
  101e8a:	143c                	addi	a5,sp,552
  101e8c:	a7de                	fsd	fs7,456(sp)
  101e8e:	de79                	beqz	a2,101e6c <Te2+0x250>
  101e90:	bc5e                	fsd	fs7,56(sp)
  101e92:	5ee2                	lw	t4,56(sp)
  101e94:	0b1d160b          	0xb1d160b
  101e98:	db76addb          	0xdb76addb
  101e9c:	dbe0                	sw	s0,116(a5)
  101e9e:	6432e03b          	0x6432e03b
  101ea2:	3256                	fld	ft4,368(sp)
  101ea4:	743a                	flw	fs0,172(sp)
  101ea6:	3a4e                	fld	fs4,240(sp)
  101ea8:	140a                	slli	s0,s0,0x22
  101eaa:	0a1e                	slli	s4,s4,0x7
  101eac:	9249                	srli	a2,a2,0x32
  101eae:	0c0649db          	0xc0649db
  101eb2:	060a                	slli	a2,a2,0x2
  101eb4:	4824                	lw	s1,80(s0)
  101eb6:	246c                	fld	fa1,200(s0)
  101eb8:	b85c                	fsd	fa5,176(s0)
  101eba:	5ce4                	lw	s1,124(s1)
  101ebc:	9fc2                	add	t6,t6,a6
  101ebe:	c25d                	beqz	a2,101f64 <Te2+0x348>
  101ec0:	d36ebdd3          	0xd36ebdd3
  101ec4:	43ac                	lw	a1,64(a5)
  101ec6:	c462acef          	jal	s9,2c30c <_stack_len+0x2430c>
  101eca:	62a6                	flw	ft5,72(sp)
  101ecc:	3991                	jal	101b20 <Te1+0x304>
  101ece:	91a8                	0x91a8
  101ed0:	3195                	jal	101b34 <Te1+0x318>
  101ed2:	95a4                	0x95a4
  101ed4:	d3e4                	sw	s1,100(a5)
  101ed6:	f279e437          	lui	s0,0xf279e
  101eda:	d5e7798b          	0xd5e7798b
  101ede:	e732                	fsw	fa2,140(sp)
  101ee0:	8bc8                	0x8bc8
  101ee2:	6e37c843          	fmadd.q	fa6,fa5,ft3,fa3,rmm
  101ee6:	3759                	jal	101e6c <Te2+0x250>
  101ee8:	da6d                	beqz	a2,101eda <Te2+0x2be>
  101eea:	018d6db7          	lui	s11,0x18d6
  101eee:	8d8c                	0x8d8c
  101ef0:	b1d5                	j	101bd4 <Te1+0x3b8>
  101ef2:	d564                	sw	s1,108(a0)
  101ef4:	9c4e                	add	s8,s8,s3
  101ef6:	4ed2                	lw	t4,20(sp)
  101ef8:	49a9                	li	s3,10
  101efa:	a9e0                	fsd	fs0,208(a1)
  101efc:	d86c                	sw	a1,116(s0)
  101efe:	6cb4                	flw	fa3,88(s1)
  101f00:	ac56                	fsd	fs5,24(sp)
  101f02:	56fa                	lw	a3,188(sp)
  101f04:	f3f4                	fsw	fa3,100(a5)
  101f06:	cfeaf407          	0xcfeaf407
  101f0a:	ea25                	bnez	a2,101f7a <Te2+0x35e>
  101f0c:	ca65                	beqz	a2,101ffc <Te2+0x3e0>
  101f0e:	f47a65af          	0xf47a65af
  101f12:	7a8e                	flw	fs5,224(sp)
  101f14:	47ae                	lw	a5,200(sp)
  101f16:	aee9                	j	1022f0 <Te3+0x2d4>
  101f18:	1008                	addi	a0,sp,32
  101f1a:	0818                	addi	a4,sp,16
  101f1c:	6fba                	flw	ft11,140(sp)
  101f1e:	bad5                	j	101912 <Te1+0xf6>
  101f20:	f078                	fsw	fa4,100(s0)
  101f22:	7888                	flw	fa0,48(s1)
  101f24:	4a25                	li	s4,9
  101f26:	5c2e256f          	jal	a0,1e44e8 <_bss_end+0xe0f90>
  101f2a:	2e72                	fld	ft8,280(sp)
  101f2c:	381c                	fld	fa5,48(s0)
  101f2e:	1c24                	addi	s1,sp,568
  101f30:	57a6                	lw	a5,104(sp)
  101f32:	a6f1                	j	1022fe <Te3+0x2e2>
  101f34:	73b4                	flw	fa3,96(a5)
  101f36:	97c6b4c7          	fmsub.q	fs1,fa3,ft8,fs2,rup
  101f3a:	c651                	beqz	a2,101fc6 <Te2+0x3aa>
  101f3c:	cbe8                	sw	a0,84(a5)
  101f3e:	a1dde823          	0xa1dde823
  101f42:	dd7c                	sw	a5,124(a0)
  101f44:	e874                	fsw	fa3,84(s0)
  101f46:	749c                	flw	fa5,40(s1)
  101f48:	3e1f 1f21 964b      	0x964b1f213e1f
  101f4e:	4bdd                	li	s7,23
  101f50:	61bd                	lui	gp,0xf
  101f52:	bddc                	fsd	fa5,184(a1)
  101f54:	8b860d8b          	0x8b860d8b
  101f58:	0f8a                	slli	t6,t6,0x2
  101f5a:	8a85                	andi	a3,a3,1
  101f5c:	e070                	fsw	fa2,68(s0)
  101f5e:	7090                	flw	fa2,32(s1)
  101f60:	7c3e                	flw	fs8,236(sp)
  101f62:	3e42                	fld	ft8,48(sp)
  101f64:	71b5                	lui	gp,0xfffed
  101f66:	b5c4                	fsd	fs1,168(a1)
  101f68:	cc66                	sw	s9,24(sp)
  101f6a:	66aa                	flw	fa3,136(sp)
  101f6c:	9048                	0x9048
  101f6e:	48d8                	lw	a4,20(s1)
  101f70:	03050603          	lb	a2,48(a0)
  101f74:	f7f6                	fsw	ft9,236(sp)
  101f76:	f601                	bnez	a2,101e7e <Te2+0x262>
  101f78:	1c0e                	slli	s8,s8,0x23
  101f7a:	0e12                	slli	t3,t3,0x4
  101f7c:	c261                	beqz	a2,10203c <Te3+0x20>
  101f7e:	6a3561a3          	0x6a3561a3
  101f82:	355f ae57 57f9      	0x57f9ae57355f
  101f88:	69b9                	lui	s3,0xe
  101f8a:	b9d0                	fsd	fa2,176(a1)
  101f8c:	1786                	slli	a5,a5,0x21
  101f8e:	8691                	srai	a3,a3,0x4
  101f90:	99c1                	andi	a1,a1,-16
  101f92:	c158                	sw	a4,4(a0)
  101f94:	3a1d                	jal	1018ca <Te1+0xae>
  101f96:	279e1d27          	0x279e1d27
  101f9a:	9eb9                	0x9eb9
  101f9c:	d9e1                	beqz	a1,101f6c <Te2+0x350>
  101f9e:	e138                	fsw	fa4,64(a0)
  101fa0:	ebf8                	fsw	fa4,84(a5)
  101fa2:	2b98f813          	andi	a6,a7,697
  101fa6:	221198b3          	0x221198b3
  101faa:	d2691133          	0xd2691133
  101fae:	a9d969bb          	0xa9d969bb
  101fb2:	d970                	sw	a2,116(a0)
  101fb4:	078e                	slli	a5,a5,0x3
  101fb6:	8e89                	sub	a3,a3,a0
  101fb8:	3394                	fld	fa3,32(a5)
  101fba:	2d9b94a7          	0x2d9b94a7
  101fbe:	9bb6                	add	s7,s7,a3
  101fc0:	3c1e                	fld	fs8,480(sp)
  101fc2:	1e22                	slli	t3,t3,0x28
  101fc4:	87921587          	0x87921587
  101fc8:	c9e9                	beqz	a1,10209a <Te3+0x7e>
  101fca:	e920                	fsw	fs0,80(a0)
  101fcc:	87ce                	mv	a5,s3
  101fce:	ce49                	beqz	a2,102068 <Te3+0x4c>
  101fd0:	aa55                	j	102184 <Te3+0x168>
  101fd2:	55ff                	0x55ff
  101fd4:	5028                	lw	a0,96(s0)
  101fd6:	2878                	fld	fa4,208(s0)
  101fd8:	a5df df7a 038c      	0x38cdf7aa5df
  101fde:	59a18c8f          	0x59a18c8f
  101fe2:	a1f8                	fsd	fa4,192(a1)
  101fe4:	0989                	addi	s3,s3,2
  101fe6:	8980                	0x8980
  101fe8:	1a0d                	addi	s4,s4,-29
  101fea:	65bf0d17          	auipc	s10,0x65bf0
  101fee:	bfda                	fsd	fs6,504(sp)
  101ff0:	d7e6                	sw	s9,236(sp)
  101ff2:	e631                	bnez	a2,10203e <Te3+0x22>
  101ff4:	8442                	mv	s0,a6
  101ff6:	42c6                	lw	t0,80(sp)
  101ff8:	d068                	sw	a0,100(s0)
  101ffa:	68b8                	flw	fa4,80(s1)
  101ffc:	8241                	srli	a2,a2,0x10
  101ffe:	299941c3          	fmadd.s	ft3,fs2,fs9,ft5,rmm
  102002:	99b0                	0x99b0
  102004:	5a2d                	li	s4,-21
  102006:	1e0f2d77          	0x1e0f2d77
  10200a:	0f11                	addi	t5,t5,4
  10200c:	7bb0                	flw	fa2,112(a5)
  10200e:	a854b0cb          	fnmsub.s	ft1,fs1,ft5,fs5,rup
  102012:	54fc                	lw	a5,108(s1)
  102014:	bbd66dbb          	0xbbd66dbb
  102018:	2c16                	fld	fs8,320(sp)
  10201a:	163a                	slli	a2,a2,0x2e

0010201c <Te3>:
static const u32 Te3[256] = {
  10201c:	a5c6                	fsd	fa7,200(sp)
  10201e:	84f86363          	bltu	a6,a5,101064 <AES_encrypt+0x472>
  102022:	7c7c                	flw	fa5,124(s0)
  102024:	99ee                	add	s3,s3,s11
  102026:	8df67777          	0x8df67777
  10202a:	0dff7b7b          	0xdff7b7b
  10202e:	f2f2                	fsw	ft8,100(sp)
  102030:	bdd6                	fsd	fs5,248(sp)
  102032:	b1de6b6b          	0xb1de6b6b
  102036:	54916f6f          	jal	t5,118d7e <_bss_end+0x15826>
  10203a:	c5c5                	beqz	a1,1020e2 <Te3+0xc6>
  10203c:	5060                	lw	s0,100(s0)
  10203e:	3030                	fld	fa2,96(s0)
  102040:	0302                	c.slli64	t1
  102042:	0101                	addi	sp,sp,0
  102044:	a9ce                	fsd	fs3,208(sp)
  102046:	7d566767          	0x7d566767
  10204a:	19e72b2b          	0x19e72b2b
  10204e:	fefe                	fsw	ft11,124(sp)
  102050:	62b5                	lui	t0,0xd
  102052:	e64dd7d7          	0xe64dd7d7
  102056:	9aecabab          	0x9aecabab
  10205a:	7676                	flw	fa2,124(sp)
  10205c:	caca458f          	0xcaca458f
  102060:	9d1f 8282 4089      	0x408982829d1f
  102066:	c9c9                	beqz	a1,1020f8 <Te3+0xdc>
  102068:	87fa                	mv	a5,t5
  10206a:	7d7d                	lui	s10,0xfffff
  10206c:	fafa15ef          	jal	a1,a401a <_stack_len+0x9c01a>
  102070:	ebb2                	fsw	fa2,212(sp)
  102072:	5959                	li	s2,-10
  102074:	c98e                	sw	gp,208(sp)
  102076:	0bfb4747          	fmsub.d	fa4,fs6,ft11,ft1,rmm
  10207a:	f0f0                	fsw	fa2,100(s1)
  10207c:	ec41                	bnez	s0,102114 <Te3+0xf8>
  10207e:	adad                	j	1026f8 <Td0+0x2dc>
  102080:	d4d467b3          	0xd4d467b3
  102084:	fd5f a2a2 ea45      	0xea45a2a2fd5f
  10208a:	bf23afaf          	0xbf23afaf
  10208e:	9c9c                	0x9c9c
  102090:	a4a4f753          	0xa4a4f753
  102094:	96e4                	0x96e4
  102096:	7272                	flw	ft4,60(sp)
  102098:	c0c05b9b          	0xc0c05b9b
  10209c:	c275                	beqz	a2,102180 <Te3+0x164>
  10209e:	1ce1b7b7          	lui	a5,0x1ce1b
  1020a2:	fdfd                	bnez	a1,1020a0 <Te3+0x84>
  1020a4:	ae3d                	j	1023e2 <Te3+0x3c6>
  1020a6:	6a4c9393          	0x6a4c9393
  1020aa:	2626                	fld	fa2,72(sp)
  1020ac:	5a6c                	lw	a1,116(a2)
  1020ae:	3636                	fld	fa2,360(sp)
  1020b0:	417e                	lw	sp,220(sp)
  1020b2:	02f53f3f 4f83f7f7 	0x4f83f7f702f53f3f
  1020ba:	cccc                	sw	a1,28(s1)
  1020bc:	5c68                	lw	a0,124(s0)
  1020be:	3434                	fld	fa3,104(s0)
  1020c0:	f451                	bnez	s0,10204c <Te3+0x30>
  1020c2:	a5a5                	j	10272a <Td0+0x30e>
  1020c4:	34d1                	jal	101b88 <Te1+0x36c>
  1020c6:	e5e5                	bnez	a1,1021ae <Te3+0x192>
  1020c8:	08f9                	addi	a7,a7,30
  1020ca:	f1f1                	bnez	a1,10208e <Te3+0x72>
  1020cc:	93e2                	add	t2,t2,s8
  1020ce:	7171                	addi	sp,sp,-176
  1020d0:	d8d873ab          	0xd8d873ab
  1020d4:	5362                	lw	t1,56(sp)
  1020d6:	3131                	jal	101ce2 <Te2+0xc6>
  1020d8:	3f2a                	fld	ft10,168(sp)
  1020da:	1515                	addi	a0,a0,-27
  1020dc:	0c08                	addi	a0,sp,528
  1020de:	0404                	addi	s1,sp,512
  1020e0:	5295                	li	t0,-27
  1020e2:	6546c7c7          	0x6546c7c7
  1020e6:	5e9d2323          	sw	s1,1510(s10) # fffff5e6 <_stack_start+0xffdff5e6>
  1020ea:	2830c3c3          	fmadd.s	ft7,ft1,ft3,ft5,rmm
  1020ee:	1818                	addi	a4,sp,48
  1020f0:	9696a137          	lui	sp,0x9696a
  1020f4:	0f0a                	slli	t5,t5,0x2
  1020f6:	0505                	addi	a0,a0,1
  1020f8:	9a9ab52f          	0x9a9ab52f
  1020fc:	090e                	slli	s2,s2,0x3
  1020fe:	36240707          	0x36240707
  102102:	1212                	slli	tp,tp,0x24
  102104:	80809b1b          	0x80809b1b
  102108:	3ddf e2e2 26cd      	0x26cde2e23ddf
  10210e:	694eebeb          	0x694eebeb
  102112:	cd7f2727          	fsw	fs7,-818(t5)
  102116:	b2b2                	fsd	fa2,352(sp)
  102118:	9fea                	add	t6,t6,s10
  10211a:	7575                	lui	a0,0xffffd
  10211c:	1b12                	slli	s6,s6,0x24
  10211e:	0909                	addi	s2,s2,2
  102120:	9e1d                	0x9e1d
  102122:	74588383          	lb	t2,1861(a7) # e745 <_stack_len+0x6745>
  102126:	2c2c                	fld	fa1,88(s0)
  102128:	2e34                	fld	fa3,88(a2)
  10212a:	1a1a                	slli	s4,s4,0x26
  10212c:	2d36                	fld	fs10,328(sp)
  10212e:	b2dc1b1b          	0xb2dc1b1b
  102132:	6e6e                	flw	ft8,216(sp)
  102134:	eeb4                	fsw	fa3,88(a3)
  102136:	5a5a                	lw	s4,180(sp)
  102138:	a0a0fb5b          	0xa0a0fb5b
  10213c:	f6a4                	fsw	fs1,104(a3)
  10213e:	5252                	lw	tp,52(sp)
  102140:	4d76                	lw	s10,92(sp)
  102142:	61b73b3b          	0x61b73b3b
  102146:	d6d6                	sw	s5,108(sp)
  102148:	ce7d                	beqz	a2,102246 <Te3+0x22a>
  10214a:	7b52b3b3          	0x7b52b3b3
  10214e:	2929                	jal	102568 <Td0+0x14c>
  102150:	3edd                	jal	101d46 <Te2+0x12a>
  102152:	715ee3e3          	bltu	t4,s5,103058 <Td3+0x3c>
  102156:	97132f2f          	0x97132f2f
  10215a:	8484                	0x8484
  10215c:	f5a6                	fsw	fs1,232(sp)
  10215e:	68b95353          	0x68b95353
  102162:	d1d1                	beqz	a1,1020e6 <Te3+0xca>
  102164:	0000                	unimp
  102166:	0000                	unimp
  102168:	2cc1                	jal	102438 <Td0+0x1c>
  10216a:	eded                	bnez	a1,102264 <Te3+0x248>
  10216c:	6040                	flw	fs0,4(s0)
  10216e:	2020                	fld	fs0,64(s0)
  102170:	fcfc1fe3          	bne	s8,a5,10214e <Te3+0x132>
  102174:	c879                	beqz	s0,10224a <Te3+0x22e>
  102176:	b1b1                	j	101dc2 <Te2+0x1a6>
  102178:	edb6                	fsw	fa3,216(sp)
  10217a:	bed45b5b          	0xbed45b5b
  10217e:	6a6a                	flw	fs4,152(sp)
  102180:	468d                	li	a3,3
  102182:	d967cbcb          	fnmsub.s	fs7,fa5,fs6,fs11,rmm
  102186:	bebe                	fsd	fa5,376(sp)
  102188:	4b72                	lw	s6,28(sp)
  10218a:	3939                	jal	101da8 <Te2+0x18c>
  10218c:	de94                	sw	a3,56(a3)
  10218e:	4a4a                	lw	s4,144(sp)
  102190:	d498                	sw	a4,40(s1)
  102192:	4c4c                	lw	a1,28(s0)
  102194:	e8b0                	fsw	fa2,80(s1)
  102196:	5858                	lw	a4,52(s0)
  102198:	4a85                	li	s5,1
  10219a:	6bbbcfcf          	fnmadd.d	ft11,fs7,fs11,fa3,rmm
  10219e:	d0d0                	sw	a2,36(s1)
  1021a0:	2ac5                	jal	102390 <Te3+0x374>
  1021a2:	e54fefef          	jal	t6,1007f6 <AES_set_encrypt_key+0x21a>
  1021a6:	aaaa                	fsd	fa0,336(sp)
  1021a8:	16ed                	addi	a3,a3,-5
  1021aa:	c586fbfb          	0xc586fbfb
  1021ae:	d79a4343          	fmadd.q	ft6,fs4,fs9,fs10,rmm
  1021b2:	4d4d                	li	s10,19
  1021b4:	5566                	lw	a0,120(sp)
  1021b6:	94113333          	0x94113333
  1021ba:	8585                	srai	a1,a1,0x1
  1021bc:	cf8a                	sw	sp,220(sp)
  1021be:	4545                	li	a0,17
  1021c0:	10e9                	addi	ra,ra,-6
  1021c2:	f9f9                	bnez	a1,102198 <Te3+0x17c>
  1021c4:	0604                	addi	s1,sp,768
  1021c6:	0202                	c.slli64	tp
  1021c8:	81fe                	mv	gp,t6
  1021ca:	7f7f                	0x7f7f
  1021cc:	f0a0                	fsw	fs0,96(s1)
  1021ce:	5050                	lw	a2,36(s0)
  1021d0:	4478                	lw	a4,76(s0)
  1021d2:	3c3c                	fld	fa5,120(s0)
  1021d4:	ba25                	j	101b0c <Te1+0x2f0>
  1021d6:	9f9f e34b a8a8      	0xa8a8e34b9f9f
  1021dc:	f3a2                	fsw	fs0,228(sp)
  1021de:	5151                	li	sp,-12
  1021e0:	fe5d                	bnez	a2,10219e <Te3+0x182>
  1021e2:	c080a3a3          	sw	s0,-1017(ra) # fffe9c07 <_stack_start+0xffde9c07>
  1021e6:	4040                	lw	s0,4(s0)
  1021e8:	8a05                	andi	a2,a2,1
  1021ea:	ad3f8f8f          	0xad3f8f8f
  1021ee:	9292                	add	t0,t0,tp
  1021f0:	bc21                	j	101c08 <Te1+0x3ec>
  1021f2:	9d9d                	0x9d9d
  1021f4:	4870                	lw	a2,84(s0)
  1021f6:	3838                	fld	fa4,112(s0)
  1021f8:	04f1                	addi	s1,s1,28
  1021fa:	f5f5                	bnez	a1,1021e6 <Te3+0x1ca>
  1021fc:	bcbcdf63          	bge	s9,a1,1015da <Te0+0x1be>
  102200:	b6b6c177          	0xb6b6c177
  102204:	dada75af          	0xdada75af
  102208:	6342                	flw	ft6,16(sp)
  10220a:	2121                	jal	102612 <Td0+0x1f6>
  10220c:	3020                	fld	fs0,96(s0)
  10220e:	1010                	addi	a2,sp,32
  102210:	1ae5                	addi	s5,s5,-7
  102212:	ffff                	0xffff
  102214:	0efd                	addi	t4,t4,31
  102216:	6dbff3f3          	csrrci	t2,0x6db,31
  10221a:	d2d2                	sw	s4,100(sp)
  10221c:	4c81                	li	s9,0
  10221e:	cdcd                	beqz	a1,1022d8 <Te3+0x2bc>
  102220:	1418                	addi	a4,sp,544
  102222:	0c0c                	addi	a1,sp,528
  102224:	3526                	fld	fa0,104(sp)
  102226:	2fc31313          	0x2fc31313
  10222a:	ecec                	fsw	fa1,92(s1)
  10222c:	e1be                	fsw	fa5,192(sp)
  10222e:	5f5f a235 9797      	0x9797a2355f5f
  102234:	cc88                	sw	a0,24(s1)
  102236:	4444                	lw	s1,12(s0)
  102238:	392e                	fld	fs2,232(sp)
  10223a:	57931717          	auipc	a4,0x57931
  10223e:	c4c4                	sw	s1,12(s1)
  102240:	f255                	bnez	a2,1021e4 <Te3+0x1c8>
  102242:	82fca7a7          	fsw	fa5,-2001(s9) # fffe782f <_stack_start+0xffde782f>
  102246:	7e7e                	flw	ft8,252(sp)
  102248:	477a                	lw	a4,156(sp)
  10224a:	3d3d                	jal	102088 <Te3+0x6c>
  10224c:	acc8                	fsd	fa0,152(s1)
  10224e:	6464                	flw	fs1,76(s0)
  102250:	e7ba                	fsw	fa4,204(sp)
  102252:	5d5d                	li	s10,-9
  102254:	2b32                	fld	fs6,264(sp)
  102256:	1919                	addi	s2,s2,-26
  102258:	95e6                	add	a1,a1,s9
  10225a:	a0c07373          	csrrci	t1,0xa0c,0
  10225e:	6060                	flw	fs0,68(s0)
  102260:	9819                	andi	s0,s0,-26
  102262:	8181                	c.srli64	a1
  102264:	d19e                	sw	t2,224(sp)
  102266:	7fa34f4f          	fnmadd.q	ft10,ft6,fs10,fa5,rmm
  10226a:	dcdc                	sw	a5,60(s1)
  10226c:	6644                	flw	fs1,12(a2)
  10226e:	2222                	fld	ft4,8(sp)
  102270:	7e54                	flw	fa3,60(a2)
  102272:	2a2a                	fld	fs4,136(sp)
  102274:	9090ab3b          	0x9090ab3b
  102278:	8888830b          	0x8888830b
  10227c:	ca8c                	sw	a1,16(a3)
  10227e:	4646                	lw	a2,80(sp)
  102280:	eeee29c7          	fmsub.q	fs3,ft8,fa4,ft9,rdn
  102284:	b8b8d36b          	0xb8b8d36b
  102288:	3c28                	fld	fa0,120(s0)
  10228a:	1414                	addi	a3,sp,544
  10228c:	dede79a7          	0xdede79a7
  102290:	e2bc                	fsw	fa5,64(a3)
  102292:	5e5e                	lw	t3,244(sp)
  102294:	1d16                	slli	s10,s10,0x25
  102296:	76ad0b0b          	0x76ad0b0b
  10229a:	3bdbdbdb          	0x3bdbdbdb
  10229e:	e0e0                	fsw	fs0,68(s1)
  1022a0:	5664                	lw	s1,108(a2)
  1022a2:	3232                	fld	ft4,296(sp)
  1022a4:	4e74                	lw	a3,92(a2)
  1022a6:	3a3a                	fld	fs4,424(sp)
  1022a8:	1e14                	addi	a3,sp,816
  1022aa:	0a0a                	slli	s4,s4,0x2
  1022ac:	db92                	sw	tp,244(sp)
  1022ae:	4949                	li	s2,18
  1022b0:	0a0c                	addi	a1,sp,272
  1022b2:	0606                	slli	a2,a2,0x1
  1022b4:	6c48                	flw	fa0,28(s0)
  1022b6:	2424                	fld	fs1,72(s0)
  1022b8:	e4b8                	fsw	fa4,72(s1)
  1022ba:	5c5c                	lw	a5,60(s0)
  1022bc:	5d9f c2c2 6ebd      	0x6ebdc2c25d9f
  1022c2:	ef43d3d3          	0xef43d3d3
  1022c6:	acac                	fsd	fa1,88(s1)
  1022c8:	a6c4                	fsd	fs1,136(a3)
  1022ca:	6262                	flw	ft4,24(sp)
  1022cc:	a839                	j	1022ea <Te3+0x2ce>
  1022ce:	9191                	srli	a1,a1,0x24
  1022d0:	a431                	j	1024dc <Td0+0xc0>
  1022d2:	9595                	srai	a1,a1,0x25
  1022d4:	e4e437d3          	0xe4e437d3
  1022d8:	8bf2                	mv	s7,t3
  1022da:	7979                	lui	s2,0xffffe
  1022dc:	32d5                	jal	101cc0 <Te2+0xa4>
  1022de:	438be7e7          	0x438be7e7
  1022e2:	c8c8                	sw	a0,20(s1)
  1022e4:	596e                	lw	s2,248(sp)
  1022e6:	b7da3737          	lui	a4,0xb7da3
  1022ea:	6d6d                	lui	s10,0x1b
  1022ec:	8c01                	sub	s0,s0,s0
  1022ee:	8d8d                	sub	a1,a1,a1
  1022f0:	64b1                	lui	s1,0xc
  1022f2:	d5d5                	beqz	a1,10229e <Te3+0x282>
  1022f4:	d29c                	sw	a5,32(a3)
  1022f6:	4e4e                	lw	t3,208(sp)
  1022f8:	e049                	bnez	s0,10237a <Te3+0x35e>
  1022fa:	a9a9                	j	102754 <Td0+0x338>
  1022fc:	b4d8                	fsd	fa4,168(s1)
  1022fe:	6c6c                	flw	fa1,92(s0)
  102300:	faac                	fsw	fa1,112(a3)
  102302:	5656                	lw	a2,116(sp)
  102304:	f4f407f3          	0xf4f407f3
  102308:	eaea25cf          	fnmadd.d	fa1,fs4,fa4,ft9,rdn
  10230c:	afca                	fsd	fs2,472(sp)
  10230e:	6565                	lui	a0,0x19
  102310:	8ef4                	0x8ef4
  102312:	7a7a                	flw	fs4,188(sp)
  102314:	aeaee947          	fmsub.q	fs2,ft9,fa0,fs5,unknown
  102318:	1810                	addi	a2,sp,48
  10231a:	0808                	addi	a0,sp,16
  10231c:	babad56f          	jal	a0,afec6 <_stack_len+0xa7ec6>
  102320:	88f0                	0x88f0
  102322:	7878                	flw	fa4,116(s0)
  102324:	6f4a                	flw	ft10,144(sp)
  102326:	2525                	jal	10294e <Td1+0x132>
  102328:	725c                	flw	fa5,36(a2)
  10232a:	2e2e                	fld	ft8,200(sp)
  10232c:	2438                	fld	fa4,72(s0)
  10232e:	1c1c                	addi	a5,sp,560
  102330:	a6a6f157          	0xa6a6f157
  102334:	b4b4c773          	0xb4b4c773
  102338:	c6c65197          	auipc	gp,0xc6c65
  10233c:	e8e823cb          	fnmsub.s	ft7,fa6,fa4,ft9,rdn
  102340:	7ca1                	lui	s9,0xfffe8
  102342:	dddd                	beqz	a1,102300 <Te3+0x2e4>
  102344:	9ce8                	0x9ce8
  102346:	7474                	flw	fa3,108(s0)
  102348:	213e                	fld	ft2,456(sp)
  10234a:	1f1f dd96 4b4b      	0x4b4bdd961f1f
  102350:	dc61                	beqz	s0,102328 <Te3+0x30c>
  102352:	bdbd                	j	1021d0 <Te3+0x1b4>
  102354:	860d                	srai	a2,a2,0x3
  102356:	850f8b8b          	0x850f8b8b
  10235a:	8a8a                	mv	s5,sp
  10235c:	90e0                	0x90e0
  10235e:	7070                	flw	fa2,100(s0)
  102360:	427c                	lw	a5,68(a2)
  102362:	3e3e                	fld	ft8,488(sp)
  102364:	c471                	beqz	s0,102430 <Td0+0x14>
  102366:	b5b5                	j	1021d2 <Te3+0x1b6>
  102368:	aacc                	fsd	fa1,144(a3)
  10236a:	6666                	flw	fa2,88(sp)
  10236c:	d890                	sw	a2,48(s1)
  10236e:	4848                	lw	a0,20(s0)
  102370:	0506                	slli	a0,a0,0x1
  102372:	01f70303          	lb	t1,31(a4) # b7da301f <_stack_start+0xb7ba301f>
  102376:	f6f6                	fsw	ft9,108(sp)
  102378:	121c                	addi	a5,sp,288
  10237a:	0e0e                	slli	t3,t3,0x3
  10237c:	a3c2                	fsd	fa6,448(sp)
  10237e:	6161                	addi	sp,sp,80
  102380:	5f6a                	lw	t5,184(sp)
  102382:	3535                	jal	1021ae <Te3+0x192>
  102384:	f9ae                	fsw	fa1,240(sp)
  102386:	d0695757          	0xd0695757
  10238a:	b9b9                	j	101fe8 <Te2+0x3cc>
  10238c:	86869117          	auipc	sp,0x86869
  102390:	5899                	li	a7,-26
  102392:	c1c1                	beqz	a1,102412 <Te3+0x3f6>
  102394:	273a                	fld	fa4,392(sp)
  102396:	1d1d                	addi	s10,s10,-25
  102398:	9e9eb927          	fsd	fs1,-1550(t4)
  10239c:	38d9                	jal	101c72 <Te2+0x56>
  10239e:	e1e1                	bnez	a1,10245e <Td0+0x42>
  1023a0:	f8f813eb          	0xf8f813eb
  1023a4:	9898b32b          	0x9898b32b
  1023a8:	3322                	fld	ft6,40(sp)
  1023aa:	1111                	addi	sp,sp,-28
  1023ac:	bbd2                	fsd	fs4,496(sp)
  1023ae:	6969                	lui	s2,0x1a
  1023b0:	70a9                	lui	ra,0xfffea
  1023b2:	d9d9                	beqz	a1,102348 <Te3+0x32c>
  1023b4:	8e8e8907          	0x8e8e8907
  1023b8:	9494a733          	0x9494a733
  1023bc:	b62d                	j	101ee6 <Te2+0x2ca>
  1023be:	223c9b9b          	0x223c9b9b
  1023c2:	1e1e                	slli	t3,t3,0x27
  1023c4:	9215                	srli	a2,a2,0x25
  1023c6:	20c98787          	0x20c98787
  1023ca:	e9e9                	bnez	a1,10249c <Td0+0x80>
  1023cc:	cece4987          	flq	fs3,-788(t3) # 17493b24 <_stack_start+0x17293b24>
  1023d0:	ffaa                	fsw	fa0,252(sp)
  1023d2:	5555                	li	a0,-11
  1023d4:	7850                	flw	fa2,52(s0)
  1023d6:	2828                	fld	fa0,80(s0)
  1023d8:	7aa5                	lui	s5,0xfffe9
  1023da:	dfdf 8f03 8c8c      	0x8c8c8f03dfdf
  1023e0:	f859                	bnez	s0,102376 <Te3+0x35a>
  1023e2:	a1a1                	j	10282a <Td1+0xe>
  1023e4:	8009                	srli	s0,s0,0x2
  1023e6:	8989                	andi	a1,a1,2
  1023e8:	171a                	slli	a4,a4,0x26
  1023ea:	0d0d                	addi	s10,s10,3
  1023ec:	da65                	beqz	a2,1023dc <Te3+0x3c0>
  1023ee:	31d7bfbf c684e6e6 	0xc684e6e631d7bfbf
  1023f6:	4242                	lw	tp,16(sp)
  1023f8:	b8d0                	fsd	fa2,176(s1)
  1023fa:	6868                	flw	fa0,84(s0)
  1023fc:	c382                	sw	zero,196(sp)
  1023fe:	4141                	li	sp,16
  102400:	b029                	j	101c0a <Te1+0x3ee>
  102402:	9999                	andi	a1,a1,-26
  102404:	775a                	flw	fa4,180(sp)
  102406:	2d2d                	jal	102a40 <Td1+0x224>
  102408:	111e                	slli	sp,sp,0x27
  10240a:	cb7b0f0f          	0xcb7b0f0f
  10240e:	b0b0                	fsd	fa2,96(s1)
  102410:	fca8                	fsw	fa0,120(s1)
  102412:	5454                	lw	a3,44(s0)
  102414:	d66d                	beqz	a2,1023fe <Te3+0x3e2>
  102416:	3a2cbbbb          	0x3a2cbbbb
  10241a:	1616                	slli	a2,a2,0x25

0010241c <Td0>:
static const u32 Td0[256] = {
  10241c:	a750                	fsd	fa2,136(a4)
  10241e:	51f4                	lw	a3,100(a1)
  102420:	7e416553          	0x7e416553
  102424:	1a17a4c3          	fmadd.d	fs1,fa5,ft1,ft3,rdn
  102428:	5e96                	lw	t4,100(sp)
  10242a:	6bcb3a27          	fsd	ft8,1716(s6)
  10242e:	45f13bab          	0x45f13bab
  102432:	1f9d                	addi	t6,t6,-25
  102434:	acfa58ab          	0xacfa58ab
  102438:	4be30393          	addi	t2,t1,1214
  10243c:	fa55                	bnez	a2,1023f0 <Te3+0x3d4>
  10243e:	2030                	fld	fa2,64(s0)
  102440:	6df6                	flw	fs11,92(sp)
  102442:	ad76                	fsd	ft9,152(sp)
  102444:	7691                	lui	a3,0xfffe4
  102446:	88cc                	0x88cc
  102448:	4c25                	li	s8,9
  10244a:	f502                	fsw	ft0,168(sp)
  10244c:	d7fc                	sw	a5,108(a5)
  10244e:	4fe5                	li	t6,25
  102450:	c52acbd7          	0xc52acbd7
  102454:	4480                	lw	s0,8(s1)
  102456:	2635                	jal	102782 <Td0+0x366>
  102458:	b562a38f          	0xb562a38f
  10245c:	5a49                	li	s4,-14
  10245e:	deb1                	beqz	a3,1023ba <Te3+0x39e>
  102460:	25ba1b67          	0x25ba1b67
  102464:	0e98                	addi	a4,sp,848
  102466:	45ea                	lw	a1,152(sp)
  102468:	c0e1                	beqz	s1,102528 <Td0+0x10c>
  10246a:	5dfe                	lw	s11,252(sp)
  10246c:	7502                	flw	fa0,32(sp)
  10246e:	f012c32f          	0xf012c32f
  102472:	814c                	0x814c
  102474:	8d4697a3          	sh	s4,-1841(a3) # fffe38cf <_stack_start+0xffde38cf>
  102478:	f9c6                	fsw	fa7,240(sp)
  10247a:	5fe76bd3          	0x5fe76bd3
  10247e:	9c95038f          	0x9c95038f
  102482:	1592                	slli	a1,a1,0x24
  102484:	bf6d7aeb          	0xbf6d7aeb
  102488:	59da                	lw	s3,180(sp)
  10248a:	9552                	add	a0,a0,s4
  10248c:	832d                	srli	a4,a4,0xb
  10248e:	d4be                	sw	a5,104(sp)
  102490:	587421d3          	0x587421d3
  102494:	6929                	lui	s2,0xa
  102496:	49e0                	lw	s0,84(a1)
  102498:	c844                	sw	s1,20(s0)
  10249a:	8ec9                	or	a3,a3,a0
  10249c:	896a                	mv	s2,s10
  10249e:	75c2                	flw	fa1,48(sp)
  1024a0:	7978                	flw	fa4,116(a0)
  1024a2:	f48e                	fsw	ft3,104(sp)
  1024a4:	99583e6b          	0x99583e6b
  1024a8:	71dd                	lui	gp,0xffff7
  1024aa:	27b9                	jal	102bf8 <Td1+0x3dc>
  1024ac:	4fb6                	lw	t6,76(sp)
  1024ae:	bee1                	j	102086 <Te3+0x6a>
  1024b0:	f088ad17          	auipc	s10,0xf088a
  1024b4:	ac66                	fsd	fs9,24(sp)
  1024b6:	c920                	sw	s0,80(a0)
  1024b8:	3ab4                	fld	fa3,112(a3)
  1024ba:	7dce                	flw	fs11,240(sp)
  1024bc:	4a18                	lw	a4,16(a2)
  1024be:	63df 3182 e51a      	0xe51a318263df
  1024c4:	3360                	fld	fs0,224(a4)
  1024c6:	9751                	srai	a4,a4,0x34
  1024c8:	7f45                	lui	t5,0xffff1
  1024ca:	77e06253          	0x77e06253
  1024ce:	b164                	fsd	fs1,224(a0)
  1024d0:	ae84                	fsd	fs1,24(a3)
  1024d2:	a01cbb6b          	0xa01cbb6b
  1024d6:	fe81                	bnez	a3,1023ee <Te3+0x3d2>
  1024d8:	2b94                	fld	fa3,16(a5)
  1024da:	f908                	fsw	fa0,48(a0)
  1024dc:	6858                	flw	fa4,20(s0)
  1024de:	7048                	flw	fa0,36(s0)
  1024e0:	fd19                	bnez	a0,1023fe <Te3+0x3e2>
  1024e2:	8f45                	or	a4,a4,s1
  1024e4:	94de6c87          	0x94de6c87
  1024e8:	527bf8b7          	lui	a7,0x527bf
  1024ec:	ab73d323          	0xab73d323
  1024f0:	02e2                	slli	t0,t0,0x18
  1024f2:	8f57724b          	fnmsub.q	ft4,fa4,fs5,fa7
  1024f6:	e31f ab2a 6655      	0x6655ab2ae31f
  1024fc:	b2eb2807          	flw	fa6,-1234(s6)
  102500:	2fb5c203          	lbu	tp,763(a1) # 97b2512b <_stack_start+0x9792512b>
  102504:	7b9a                	flw	fs7,164(sp)
  102506:	86c5                	srai	a3,a3,0x11
  102508:	08a5                	addi	a7,a7,9
  10250a:	87f2d337          	lui	t1,0x87f2d
  10250e:	3028                	fld	fa0,96(s0)
  102510:	a5b2                	fsd	fa2,200(sp)
  102512:	6aba23bf 825c0203 	0x825c02036aba23bf
  10251a:	ed16                	fsw	ft5,152(sp)
  10251c:	8acf1c2b          	0x8acf1c2b
  102520:	b492                	fsd	ft4,104(sp)
  102522:	a779                	j	102cb0 <Td2+0x94>
  102524:	f2f0                	fsw	fa2,100(a3)
  102526:	e2a1f307          	0xe2a1f307
  10252a:	4e69                	li	t3,26
  10252c:	f4cd                	bnez	s1,1024d6 <Td0+0xba>
  10252e:	65da                	flw	fa1,148(sp)
  102530:	bed5                	j	102124 <Te3+0x108>
  102532:	0605                	addi	a2,a2,1
  102534:	621f d134 fe8a      	0xfe8ad134621f
  10253a:	c4a6                	sw	s1,72(sp)
  10253c:	539d                	li	t2,-25
  10253e:	342e                	fld	fs0,232(sp)
  102540:	55a0                	lw	s0,104(a1)
  102542:	e132a2f3          	csrrs	t0,0xe13,t0
  102546:	058a                	slli	a1,a1,0x2
  102548:	eb75                	bnez	a4,10263c <Td0+0x220>
  10254a:	a4f6                	fsd	ft9,72(sp)
  10254c:	ec39                	bnez	s0,1025aa <Td0+0x18e>
  10254e:	efaa0b83          	lb	s7,-262(s4) # fffeeefa <_stack_start+0xffdeeefa>
  102552:	4060                	lw	s0,68(s0)
  102554:	9f06                	add	t5,t5,ra
  102556:	5e71                	li	t3,-4
  102558:	1051                	c.nop	-12
  10255a:	bd6e                	fsd	fs11,184(sp)
  10255c:	8af9                	andi	a3,a3,30
  10255e:	3e21                	jal	102076 <Te3+0x5a>
  102560:	063d                	addi	a2,a2,15
  102562:	96dd                	srai	a3,a3,0x37
  102564:	05ae                	slli	a1,a1,0xb
  102566:	dd3e                	sw	a5,184(sp)
  102568:	bd46                	fsd	fa7,184(sp)
  10256a:	4de6                	lw	s11,88(sp)
  10256c:	8db5                	xor	a1,a1,a3
  10256e:	9154                	0x9154
  102570:	5d05                	li	s10,-31
  102572:	71c4                	flw	fs1,36(a1)
  102574:	0406d46f          	jal	s0,16f5b4 <_bss_end+0x6c05c>
  102578:	15ff                	0x15ff
  10257a:	6050                	flw	fa2,4(s0)
  10257c:	fb24                	fsw	fs1,112(a4)
  10257e:	1998                	addi	a4,sp,240
  102580:	d6bde997          	auipc	s3,0xd6bde
  102584:	43cc                	lw	a1,4(a5)
  102586:	8940                	0x8940
  102588:	67d99e77          	0x67d99e77
  10258c:	42bd                	li	t0,15
  10258e:	b0e8                	fsd	fa0,224(s1)
  102590:	8b88                	0x8b88
  102592:	0789                	addi	a5,a5,2
  102594:	5b38                	lw	a4,112(a4)
  102596:	e719                	bnez	a4,1025a4 <Td0+0x188>
  102598:	79c8eedb          	0x79c8eedb
  10259c:	a17c0a47          	fmsub.s	fs4,fs8,fs7,fs4,rne
  1025a0:	0fe9                	addi	t6,t6,26
  1025a2:	7c42                	flw	fs8,48(sp)
  1025a4:	1ec9                	addi	t4,t4,-14
  1025a6:	f884                	fsw	fs1,48(s1)
  1025a8:	0000                	unimp
  1025aa:	0000                	unimp
  1025ac:	09808683          	lb	a3,152(ra) # fffea098 <_stack_start+0xffdea098>
  1025b0:	ed48                	fsw	fa0,28(a0)
  1025b2:	70ac322b          	0x70ac322b
  1025b6:	1e11                	addi	t3,t3,-28
  1025b8:	724e                	flw	ft4,240(sp)
  1025ba:	6c5a                	flw	fs8,148(sp)
  1025bc:	fd0efffb          	0xfd0efffb
  1025c0:	3856                	fld	fa6,368(sp)
  1025c2:	0f85                	addi	t6,t6,1
  1025c4:	d51e                	sw	t2,168(sp)
  1025c6:	3dae                	fld	fs11,232(sp)
  1025c8:	362d3927          	fsd	ft2,882(s10) # f098c822 <_stack_start+0xf078c822>
  1025cc:	d964                	sw	s1,116(a0)
  1025ce:	a6210a0f          	0xa6210a0f
  1025d2:	685c                	flw	fa5,20(s0)
  1025d4:	54d1                	li	s1,-12
  1025d6:	2e3a9b5b          	0x2e3a9b5b
  1025da:	2436                	fld	fs0,328(sp)
  1025dc:	67b1                	lui	a5,0xc
  1025de:	0c0a                	slli	s8,s8,0x2
  1025e0:	9357e70f          	0x9357e70f
  1025e4:	96d2                	add	a3,a3,s4
  1025e6:	b4ee                	fsd	fs11,104(sp)
  1025e8:	919e                	add	gp,gp,t2
  1025ea:	c54f1b9b          	0xc54f1b9b
  1025ee:	80c0                	0x80c0
  1025f0:	20a2                	fld	ft1,8(sp)
  1025f2:	61dc                	flw	fa5,4(a1)
  1025f4:	4b69                	li	s6,26
  1025f6:	1a165a77          	0x1a165a77
  1025fa:	1c12                	slli	s8,s8,0x24
  1025fc:	ba0a                	fsd	ft2,304(sp)
  1025fe:	2ae5e293          	ori	t0,a1,686
  102602:	c0a0                	sw	s0,64(s1)
  102604:	3c22e043          	0x3c22e043
  102608:	171d                	addi	a4,a4,-25
  10260a:	0d0b121b          	0xd0b121b
  10260e:	0e09                	addi	t3,t3,2
  102610:	c7ad                	beqz	a5,10267a <Td0+0x25e>
  102612:	a8b9f28b          	0xa8b9f28b
  102616:	2db6                	fld	fs11,328(sp)
  102618:	a9c8                	fsd	fa0,144(a1)
  10261a:	141e                	slli	s0,s0,0x27
  10261c:	1985                	addi	s3,s3,-31
  10261e:	57f1                	li	a5,-4
  102620:	074c                	addi	a1,sp,900
  102622:	af75                	j	102dde <Td2+0x1c2>
  102624:	ee99ddbb          	0xee99ddbb
  102628:	60fd                	lui	ra,0x1f
  10262a:	a37f                	0xa37f
  10262c:	269f f701 f5bc      	0xf5bcf701269f
  102632:	5c72                	lw	s8,60(sp)
  102634:	3bc5                	jal	102424 <Td0+0x8>
  102636:	4466                	lw	s0,88(sp)
  102638:	7e34                	flw	fa3,120(a2)
  10263a:	29765bfb          	0x29765bfb
  10263e:	c6dc8b43          	fmadd.q	fs6,fs9,fa3,fs8,rne
  102642:	fc68cb23          	0xfc68cb23
  102646:	b6ed                	j	102230 <Te3+0x214>
  102648:	b8e4f163          	bgeu	s1,a4,1019ca <Te1+0x1ae>
  10264c:	dcca                	sw	s2,120(sp)
  10264e:	d731                	beqz	a4,10259a <Td0+0x17e>
  102650:	8510                	0x8510
  102652:	22404263          	bgtz	tp,102876 <Td1+0x5a>
  102656:	11201397          	auipc	t2,0x11201
  10265a:	84c6                	mv	s1,a7
  10265c:	247d                	jal	10290a <Td1+0xee>
  10265e:	854a                	mv	a0,s2
  102660:	3df8                	fld	fa4,248(a1)
  102662:	3211d2bb          	0x3211d2bb
  102666:	aef9                	j	102a44 <Td1+0x228>
  102668:	a16d                	j	102b12 <Td1+0x2f6>
  10266a:	c729                	beqz	a4,1026b4 <Td0+0x298>
  10266c:	1d9e2f4b          	0x1d9e2f4b
  102670:	dcb230f3          	csrrc	ra,0xdcb,tp
  102674:	52ec                	lw	a1,100(a3)
  102676:	0d86                	slli	s11,s11,0x1
  102678:	e3d0                	fsw	fa2,4(a5)
  10267a:	77c1                	lui	a5,0xffff0
  10267c:	166c                	addi	a1,sp,812
  10267e:	b9992bb3          	0xb9992bb3
  102682:	a970                	fsd	fa2,208(a0)
  102684:	48fa                	lw	a7,156(sp)
  102686:	1194                	addi	a3,sp,224
  102688:	6422                	flw	fs0,8(sp)
  10268a:	47e9                	li	a5,26
  10268c:	8cc4                	0x8cc4
  10268e:	a8fc                	fsd	fa5,208(s1)
  102690:	3f1a                	fld	ft10,416(sp)
  102692:	a0f0                	fsd	fa2,192(s1)
  102694:	2cd8                	fld	fa4,152(s1)
  102696:	567d                	li	a2,-1
  102698:	223390ef          	jal	ra,13c0ba <_bss_end+0x38b62>
  10269c:	87494ec7          	fmsub.q	ft9,fs2,fs4,fa6,rmm
  1026a0:	d1c1                	beqz	a1,102620 <Td0+0x204>
  1026a2:	d938                	sw	a4,112(a0)
  1026a4:	a2fe                	fsd	ft11,320(sp)
  1026a6:	8cca                	mv	s9,s2
  1026a8:	0b36                	slli	s6,s6,0xd
  1026aa:	98d4                	0x98d4
  1026ac:	a6f581cf          	fnmadd.q	ft3,fa1,fa5,fs4,rne
  1026b0:	de28                	sw	a0,120(a2)
  1026b2:	a57a                	fsd	ft10,136(sp)
  1026b4:	8e26                	mv	t3,s1
  1026b6:	bfa4dab7          	lui	s5,0xbfa4d
  1026ba:	3fad                	jal	102634 <Td0+0x218>
  1026bc:	9de4                	0x9de4
  1026be:	2c3a                	fld	fs8,392(sp)
  1026c0:	920d                	srli	a2,a2,0x23
  1026c2:	5078                	lw	a4,100(s0)
  1026c4:	6a5fcc9b          	0x6a5fcc9b
  1026c8:	4662                	lw	a2,24(sp)
  1026ca:	547e                	lw	s0,252(sp)
  1026cc:	13c2                	slli	t2,t2,0x30
  1026ce:	f68d                	bnez	a3,1025f8 <Td0+0x1dc>
  1026d0:	b8e8                	fsd	fa0,240(s1)
  1026d2:	90d8                	0x90d8
  1026d4:	f75e                	fsw	fs7,172(sp)
  1026d6:	2e39                	jal	1029f4 <Td1+0x1d8>
  1026d8:	aff5                	j	102ed4 <Td2+0x2b8>
  1026da:	80be82c3          	fmadd.s	ft5,ft9,fa1,fa6,rne
  1026de:	9f5d                	0x9f5d
  1026e0:	937c                	0x937c
  1026e2:	69d0                	flw	fa2,20(a1)
  1026e4:	2da9                	jal	102d3e <Td2+0x122>
  1026e6:	6fd5                	lui	t6,0x15
  1026e8:	cf2512b3          	0xcf2512b3
  1026ec:	c8ac993b          	0xc8ac993b
  1026f0:	10187da7          	0x10187da7
  1026f4:	636e                	flw	ft6,216(sp)
  1026f6:	e89c                	fsw	fa5,16(s1)
  1026f8:	db3bbb7b          	0xdb3bbb7b
  1026fc:	7809                	lui	a6,0xfffe2
  1026fe:	cd26                	sw	s1,152(sp)
  102700:	18f4                	addi	a3,sp,124
  102702:	6e59                	lui	t3,0x16
  102704:	b701                	j	102604 <Td0+0x1e8>
  102706:	ec9a                	fsw	ft6,88(sp)
  102708:	9aa8                	0x9aa8
  10270a:	6e65834f          	fnmadd.q	ft6,fa1,ft6,fa3,rne
  10270e:	e695                	bnez	a3,10273a <Td0+0x31e>
  102710:	e67e                	fsw	ft11,12(sp)
  102712:	aaff                	0xaaff
  102714:	cf08                	sw	a0,24(a4)
  102716:	21bc                	fld	fa5,64(a1)
  102718:	e8e6                	fsw	fs9,80(sp)
  10271a:	ef15                	bnez	a4,102756 <Td0+0x33a>
  10271c:	9bd9                	andi	a5,a5,-10
  10271e:	36cebae7          	0x36cebae7
  102722:	09d44a6f          	jal	s4,146fbe <_bss_end+0x43a66>
  102726:	ea9f 7cd6 29b0      	0x29b07cd6ea9f
  10272c:	31a4b2af          	0x31a4b2af
  102730:	2331                	jal	102c3c <Td2+0x20>
  102732:	94302a3f 66c0c6a5 	0x66c0c6a594302a3f
  10273a:	35a2                	fld	fa1,40(sp)
  10273c:	744ebc37          	lui	s8,0x744eb
  102740:	caa6                	sw	s1,84(sp)
  102742:	fc82                	fsw	ft0,120(sp)
  102744:	d0b0                	sw	a2,96(s1)
  102746:	e090                	fsw	fa2,0(s1)
  102748:	d815                	beqz	s0,10267c <Td0+0x260>
  10274a:	984a33a7          	fsd	ft4,-1657(s4)
  10274e:	f104                	fsw	fs1,32(a0)
  102750:	41ecdaf7          	0x41ecdaf7
  102754:	500e                	0x500e
  102756:	7fcd                	lui	t6,0xffff3
  102758:	1791f62f          	0x1791f62f
  10275c:	d68d                	beqz	a3,102686 <Td0+0x26a>
  10275e:	764d                	lui	a2,0xffff3
  102760:	b04d                	j	102002 <Te2+0x3e6>
  102762:	4d5443ef          	jal	t2,147436 <_bss_end+0x43ede>
  102766:	ccaa                	sw	a0,88(sp)
  102768:	04df e496 b5e3      	0xb5e3e49604df
  10276e:	9ed1                	0x9ed1
  102770:	4c6a881b          	0x4c6a881b
  102774:	1fb8                	addi	a4,sp,1016
  102776:	c12c                	sw	a1,64(a0)
  102778:	517f                	0x517f
  10277a:	4665                	li	a2,25
  10277c:	ea04                	fsw	fs1,16(a2)
  10277e:	9d5e                	add	s10,s10,s7
  102780:	355d                	jal	102626 <Td0+0x20a>
  102782:	018c                	addi	a1,sp,192
  102784:	fa877473          	csrrci	s0,0xfa8,14
  102788:	412e                	lw	sp,200(sp)
  10278a:	1d5afb0b          	0x1d5afb0b
  10278e:	d252b367          	0xd252b367
  102792:	563392db          	0x563392db
  102796:	e910                	fsw	fa2,16(a0)
  102798:	6dd64713          	xori	a4,a2,1757
  10279c:	618c                	flw	fa1,0(a1)
  10279e:	0c7a9ad7          	0xc7a9ad7
  1027a2:	37a1                	jal	1026ea <Td0+0x2ce>
  1027a4:	148e                	slli	s1,s1,0x23
  1027a6:	59f8                	lw	a4,116(a1)
  1027a8:	3c89                	jal	1021fa <Te3+0x1de>
  1027aa:	27eeeb13          	ori	s6,t4,638
  1027ae:	cea9                	beqz	a3,102808 <Td0+0x3ec>
  1027b0:	c935                	beqz	a0,102824 <Td1+0x8>
  1027b2:	b761                	j	10273a <Td0+0x31e>
  1027b4:	e5ed                	bnez	a1,10289e <Td1+0x82>
  1027b6:	e11c                	fsw	fa5,0(a0)
  1027b8:	b13c                	fsd	fa5,96(a0)
  1027ba:	df597a47          	fmsub.q	fs4,fs2,fs5,fs11
  1027be:	9cd2                	add	s9,s9,s4
  1027c0:	55f2733f 1814ce79 	0x1814ce7955f2733f
  1027c8:	73c737bf 53f7cdea 	0x53f7cdea73c737bf
  1027d0:	5ffdaa5b          	0x5ffdaa5b
  1027d4:	6f14                	flw	fa3,24(a4)
  1027d6:	df3d                	beqz	a4,102754 <Td0+0x338>
  1027d8:	db86                	sw	ra,244(sp)
  1027da:	7844                	flw	fs1,52(s0)
  1027dc:	f381                	bnez	a5,1026dc <Td0+0x2c0>
  1027de:	c43ecaaf          	0xc43ecaaf
  1027e2:	b968                	fsd	fa0,240(a0)
  1027e4:	342c                	fld	fa1,104(s0)
  1027e6:	3824                	fld	fs1,112(s0)
  1027e8:	405f c2a3 c372      	0xc372c2a3405f
  1027ee:	161d                	addi	a2,a2,-25
  1027f0:	250c                	fld	fa1,8(a0)
  1027f2:	bce2                	fsd	fs8,120(sp)
  1027f4:	283c498b          	0x283c498b
  1027f8:	9541                	srai	a0,a0,0x30
  1027fa:	ff0d                	bnez	a4,102734 <Td0+0x318>
  1027fc:	0171                	addi	sp,sp,28
  1027fe:	39a8                	fld	fa0,112(a1)
  102800:	b3de                	fsd	fs7,480(sp)
  102802:	080c                	addi	a1,sp,16
  102804:	e49c                	fsw	fa5,8(s1)
  102806:	d8b4                	sw	a3,112(s1)
  102808:	c190                	sw	a2,0(a1)
  10280a:	6456                	flw	fs0,84(sp)
  10280c:	8461                	srai	s0,s0,0x18
  10280e:	b6707bcb          	fnmsub.q	fs7,ft0,ft7,fs6
  102812:	d532                	sw	a2,168(sp)
  102814:	5c74                	lw	a3,124(s0)
  102816:	486c                	lw	a1,84(s0)
  102818:	5742                	lw	a4,48(sp)
  10281a:	d0b8                	sw	a4,96(s1)

0010281c <Td1>:
static const u32 Td1[256] = {
  10281c:	5051f4a7          	0x5051f4a7
  102820:	4165                	li	sp,25
  102822:	537e                	lw	t1,252(sp)
  102824:	17a4                	addi	s1,sp,1000
  102826:	c31a                	sw	t1,132(sp)
  102828:	275e                	fld	fa4,464(sp)
  10282a:	963a                	add	a2,a2,a4
  10282c:	cb3bab6b          	0xcb3bab6b
  102830:	9d45                	0x9d45
  102832:	f11f fa58 abac      	0xabacfa58f11f
  102838:	934be303          	0x934be303
  10283c:	30fa                	fld	ft1,440(sp)
  10283e:	5520                	lw	s0,104(a0)
  102840:	766d                	lui	a2,0xffffb
  102842:	f6ad                	bnez	a3,1027ac <Td0+0x390>
  102844:	cc76                	sw	t4,24(sp)
  102846:	9188                	0x9188
  102848:	024c                	addi	a1,sp,260
  10284a:	25f5                	jal	102f36 <Td2+0x31a>
  10284c:	fc4fe5d7          	0xfc4fe5d7
  102850:	d7c52acb          	fnmsub.q	fs5,fa0,ft8,fs10,rdn
  102854:	3544                	fld	fs1,168(a0)
  102856:	8026                	c.mv	zero,s1
  102858:	8fb562a3          	0x8fb562a3
  10285c:	b15a                	fsd	fs6,160(sp)
  10285e:	49de                	lw	s3,212(sp)
  102860:	6725ba1b          	0x6725ba1b
  102864:	ea0e                	fsw	ft3,20(sp)
  102866:	9845                	andi	s0,s0,-15
  102868:	fec0                	fsw	fs0,60(a3)
  10286a:	e15d                	bnez	a0,102910 <Td1+0xf4>
  10286c:	2f75                	jal	103028 <Td3+0xc>
  10286e:	4cf002c3          	0x4cf002c3
  102872:	1281                	addi	t0,t0,-32
  102874:	a38d4697          	auipc	a3,0xa38d4
  102878:	d3f9                	beqz	a5,10283e <Td1+0x22>
  10287a:	8f5fc66b          	0x8f5fc66b
  10287e:	929ce703          	0x929ce703
  102882:	9515                	srai	a0,a0,0x25
  102884:	6d7a                	flw	fs10,156(sp)
  102886:	5259ebbf be83da95 	0xbe83da955259ebbf
  10288e:	2dd4                	fld	fa3,152(a1)
  102890:	7421                	lui	s0,0xfffe8
  102892:	d358                	sw	a4,36(a4)
  102894:	e069                	bnez	s0,102956 <Td1+0x13a>
  102896:	2949                	jal	102d28 <Td2+0x10c>
  102898:	c9c8                	sw	a0,20(a1)
  10289a:	448e                	lw	s1,192(sp)
  10289c:	c289                	beqz	a3,10289e <Td1+0x82>
  10289e:	6a75                	lui	s4,0x1d
  1028a0:	8e79                	and	a2,a2,a4
  1028a2:	78f4                	flw	fa3,116(s1)
  1028a4:	583e                	lw	a6,236(sp)
  1028a6:	6b99                	lui	s7,0x6
  1028a8:	b971                	j	102544 <Td0+0x128>
  1028aa:	e14fdd27          	0xe14fdd27
  1028ae:	b6be                	fsd	fa5,360(sp)
  1028b0:	88ad                	andi	s1,s1,11
  1028b2:	17f0                	addi	a2,sp,1004
  1028b4:	20ac                	fld	fa1,64(s1)
  1028b6:	66c9                	lui	a3,0x12
  1028b8:	ce3a                	sw	a4,28(sp)
  1028ba:	b47d                	j	102368 <Te3+0x34c>
  1028bc:	df4a                	sw	s2,188(sp)
  1028be:	1a311863          	bne	sp,gp,102a6e <Td1+0x252>
  1028c2:	82e5                	srli	a3,a3,0x19
  1028c4:	60975133          	0x60975133
  1028c8:	537f                	0x537f
  1028ca:	4562                	lw	a0,24(sp)
  1028cc:	e0b16477          	0xe0b16477
  1028d0:	6bae                	flw	fs7,200(sp)
  1028d2:	81a084bb          	0x81a084bb
  1028d6:	1cfe                	slli	s9,s9,0x3f
  1028d8:	94f9082b          	0x94f9082b
  1028dc:	4868                	lw	a0,84(s0)
  1028de:	5870                	lw	a2,116(s0)
  1028e0:	45fd                	li	a1,31
  1028e2:	de6c198f          	0xde6c198f
  1028e6:	8794                	0x8794
  1028e8:	7bf8                	flw	fa4,116(a5)
  1028ea:	b752                	fsd	fs4,424(sp)
  1028ec:	23ab73d3          	0x23ab73d3
  1028f0:	4b02                	lw	s6,0(sp)
  1028f2:	e272                	fsw	ft8,4(sp)
  1028f4:	57e31f8f          	0x57e31f8f
  1028f8:	2a6655ab          	0x2a6655ab
  1028fc:	eb28                	fsw	fa0,80(a4)
  1028fe:	07b2                	slli	a5,a5,0xc
  102900:	b5c2                	fsd	fa6,232(sp)
  102902:	c57b032f          	0xc57b032f
  102906:	9a86                	add	s5,s5,ra
  102908:	3708                	fld	fa0,40(a4)
  10290a:	2887a5d3          	0x2887a5d3
  10290e:	f230                	fsw	fa2,96(a2)
  102910:	bfa5                	j	102888 <Td1+0x6c>
  102912:	036ab223          	0x36ab223
  102916:	ba02                	fsd	ft0,304(sp)
  102918:	1682                	slli	a3,a3,0x20
  10291a:	5ced                	li	s9,-5
  10291c:	cf1c                	sw	a5,24(a4)
  10291e:	2b8a                	fld	fs7,128(sp)
  102920:	79b4                	flw	fa3,112(a1)
  102922:	07f292a7          	0x7f292a7
  102926:	69e2f0f3          	csrrci	ra,0x69e,5
  10292a:	a14e                	fsd	fs3,128(sp)
  10292c:	daf4                	sw	a3,116(a3)
  10292e:	cd65                	beqz	a0,102a26 <Td1+0x20a>
  102930:	05be                	slli	a1,a1,0xf
  102932:	d506                	sw	ra,168(sp)
  102934:	3462                	fld	fs0,56(sp)
  102936:	1fd1                	addi	t6,t6,-12
  102938:	a6fe                	fsd	ft11,328(sp)
  10293a:	8ac4                	0x8ac4
  10293c:	9d342e53          	0x9d342e53
  102940:	f355                	bnez	a4,1028e4 <Td1+0xc8>
  102942:	a0a2                	fsd	fs0,64(sp)
  102944:	8ae1                	andi	a3,a3,24
  102946:	3205                	jal	102266 <Te3+0x24a>
  102948:	75a4f6eb          	0x75a4f6eb
  10294c:	83ec                	0x83ec
  10294e:	60ef390b          	0x60ef390b
  102952:	aa40                	fsd	fs0,144(a2)
  102954:	719f 065e 6e10      	0x6e10065e719f
  10295a:	51bd                	li	gp,-17
  10295c:	218a                	fld	ft3,128(sp)
  10295e:	f93e                	fsw	fa5,176(sp)
  102960:	dd06                	sw	ra,184(sp)
  102962:	3d96                	fld	fs11,352(sp)
  102964:	3e05                	jal	102494 <Td0+0x78>
  102966:	aedd                	j	102d5c <Td2+0x140>
  102968:	e6bd                	bnez	a3,1029d6 <Td1+0x1ba>
  10296a:	464d                	li	a2,19
  10296c:	548d                	li	s1,-29
  10296e:	b591                	j	1027b2 <Td0+0x396>
  102970:	c45d                	beqz	s0,102a1e <Td1+0x202>
  102972:	0571                	addi	a0,a0,28
  102974:	06d4                	addi	a3,sp,836
  102976:	6f04                	flw	fs1,24(a4)
  102978:	5015                	c.li	zero,-27
  10297a:	ff60                	fsw	fs0,124(a4)
  10297c:	241998fb          	0x241998fb
  102980:	bde9                	j	10285a <Td1+0x3e>
  102982:	97d6                	add	a5,a5,s5
  102984:	cc894043          	0xcc894043
  102988:	d99e                	sw	t2,240(sp)
  10298a:	e8427767          	0xe8427767
  10298e:	bdb0                	fsd	fa2,120(a1)
  102990:	8807898b          	0x8807898b
  102994:	38e7195b          	0x38e7195b
  102998:	c8ee                	sw	s11,80(sp)
  10299a:	db79                	beqz	a4,102970 <Td1+0x154>
  10299c:	7c0a                	flw	fs8,160(sp)
  10299e:	47a1                	li	a5,8
  1029a0:	e97c420f          	0xe97c420f
  1029a4:	841e                	mv	s0,t2
  1029a6:	c9f8                	sw	a4,84(a1)
  1029a8:	0000                	unimp
  1029aa:	0000                	unimp
  1029ac:	8086                	mv	ra,ra
  1029ae:	8309                	srli	a4,a4,0x2
  1029b0:	2bed                	jal	102faa <Td2+0x38e>
  1029b2:	4832                	lw	a6,12(sp)
  1029b4:	1170                	addi	a2,sp,172
  1029b6:	ac1e                	fsd	ft7,24(sp)
  1029b8:	5a72                	lw	s4,60(sp)
  1029ba:	4e6c                	lw	a1,92(a2)
  1029bc:	0eff                	0xeff
  1029be:	fbfd                	bnez	a5,1029b4 <Td1+0x198>
  1029c0:	8538                	0x8538
  1029c2:	aed5560f          	0xaed5560f
  1029c6:	1e3d                	addi	t3,t3,-17
  1029c8:	2d39                	jal	102fe6 <Td2+0x3ca>
  1029ca:	2736                	fld	fa4,328(sp)
  1029cc:	0fd9                	addi	t6,t6,22
  1029ce:	640a                	flw	fs0,128(sp)
  1029d0:	5ca6                	lw	s9,104(sp)
  1029d2:	2168                	fld	fa0,192(a0)
  1029d4:	5b54                	lw	a3,52(a4)
  1029d6:	362ed19b          	0x362ed19b
  1029da:	3a24                	fld	fs1,112(a2)
  1029dc:	b10c0a67          	jalr	s4,-1264(s8) # 744eab10 <_stack_start+0x742eab10>
  1029e0:	0f9357e7          	0xf9357e7
  1029e4:	ee96                	fsw	ft5,92(sp)
  1029e6:	d2b4                	sw	a3,96(a3)
  1029e8:	9b91                	andi	a5,a5,-28
  1029ea:	c0c59e1b          	0xc0c59e1b
  1029ee:	4f80                	lw	s0,24(a5)
  1029f0:	dc20                	sw	s0,120(s0)
  1029f2:	a261                	j	102b7a <Td1+0x35e>
  1029f4:	695a774b          	fnmsub.s	fa4,fs4,fs5,fa3
  1029f8:	121a                	slli	tp,tp,0x26
  1029fa:	161c                	addi	a5,sp,800
  1029fc:	93ba                	add	t2,t2,a4
  1029fe:	0ae2                	slli	s5,s5,0x18
  102a00:	a02a                	fsd	fa0,0(sp)
  102a02:	e5c0                	fsw	fs0,12(a1)
  102a04:	22e0                	fld	fs0,192(a3)
  102a06:	433c                	lw	a5,64(a4)
  102a08:	1d121b17          	auipc	s6,0x1d121
  102a0c:	090d                	addi	s2,s2,3
  102a0e:	0b0e                	slli	s6,s6,0x3
  102a10:	adf28bc7          	0xadf28bc7
  102a14:	b6a8                	fsd	fa0,104(a3)
  102a16:	b92d                	j	102650 <Td0+0x234>
  102a18:	1ea9                	addi	t4,t4,-22
  102a1a:	c814                	sw	a3,16(s0)
  102a1c:	f119                	bnez	a0,102922 <Td1+0x106>
  102a1e:	75078557          	0x75078557
  102a22:	99dd4caf          	0x99dd4caf
  102a26:	bbee                	fsd	fs11,496(sp)
  102a28:	7f60                	flw	fs0,124(a4)
  102a2a:	0126fda3          	0x126fda3
  102a2e:	72f59ff7          	0x72f59ff7
  102a32:	bc5c                	fsd	fa5,184(s0)
  102a34:	c544663b          	0xc544663b
  102a38:	fb7e                	fsw	ft11,180(sp)
  102a3a:	4329345b          	0x4329345b
  102a3e:	23c6768b          	0x23c6768b
  102a42:	edfcdccb          	0xedfcdccb
  102a46:	68b6                	flw	fa7,76(sp)
  102a48:	e4f1                	bnez	s1,102b14 <Td1+0x2f8>
  102a4a:	63b8                	flw	fa4,64(a5)
  102a4c:	31dc                	fld	fa5,160(a1)
  102a4e:	6385cad7          	0x6385cad7
  102a52:	1042                	c.slli	zero,0x30
  102a54:	9722                	add	a4,a4,s0
  102a56:	c6114013          	xori	zero,sp,-927
  102a5a:	2084                	fld	fs1,0(s1)
  102a5c:	4a24                	lw	s1,80(a2)
  102a5e:	7d85                	lui	s11,0xfffe1
  102a60:	bb3d                	j	10279e <Td0+0x382>
  102a62:	f8d2                	fsw	fs4,112(sp)
  102a64:	f932                	fsw	fa2,176(sp)
  102a66:	11ae                	slli	gp,gp,0x2b
  102a68:	29a1                	jal	102ec0 <Td2+0x2a4>
  102a6a:	9e2f6dc7          	fmsub.q	fs11,ft10,ft2,fs3,unknown
  102a6e:	4b1d                	li	s6,7
  102a70:	b230                	fsd	fa2,96(a2)
  102a72:	f3dc                	fsw	fa5,36(a5)
  102a74:	8652                	mv	a2,s4
  102a76:	ec0d                	bnez	s0,102ab0 <Td1+0x294>
  102a78:	d077c1e3          	blt	a5,t2,10277a <Td0+0x35e>
  102a7c:	b316                	fsd	ft5,416(sp)
  102a7e:	70b96c2b          	0x70b96c2b
  102a82:	99a9                	andi	a1,a1,-22
  102a84:	9448                	0x9448
  102a86:	fa11                	bnez	a2,10299a <Td1+0x17e>
  102a88:	e964                	fsw	fs1,84(a0)
  102a8a:	fc8c2247          	0xfc8c2247
  102a8e:	c4a8                	sw	a0,72(s1)
  102a90:	1aa0f03f d8567d2c 	0xd8567d2c1aa0f03f
  102a98:	3390                	fld	fa2,32(a5)
  102a9a:	ef22                	fsw	fs0,156(sp)
  102a9c:	494e                	lw	s2,208(sp)
  102a9e:	38d1c787          	flq	fa5,909(gp) # ffff738d <_stack_start+0xffdf738d>
  102aa2:	c1d9                	beqz	a1,102b28 <Td1+0x30c>
  102aa4:	caa2                	sw	s0,84(sp)
  102aa6:	fe8c                	fsw	fa1,56(a3)
  102aa8:	3698d40b          	0x3698d40b
  102aac:	f581                	bnez	a1,1029b4 <Td1+0x198>
  102aae:	cfa6                	sw	s1,220(sp)
  102ab0:	7ade                	flw	fs5,244(sp)
  102ab2:	28a5                	jal	102b2a <Td1+0x30e>
  102ab4:	b78e                	fsd	ft3,488(sp)
  102ab6:	26da                	fld	fa3,400(sp)
  102ab8:	a43fadbf e42c3a9d 	0xe42c3a9da43fadbf
  102ac0:	7892                	flw	fa7,36(sp)
  102ac2:	0d50                	addi	a2,sp,660
  102ac4:	5fcc                	lw	a1,60(a5)
  102ac6:	9b6a                	add	s6,s6,s10
  102ac8:	7e46                	flw	ft8,112(sp)
  102aca:	6254                	flw	fa3,4(a2)
  102acc:	c2f68d13          	addi	s10,a3,-977 # 11c2f <_stack_len+0x9c2f>
  102ad0:	d8b8                	sw	a4,112(s1)
  102ad2:	e890                	fsw	fa2,16(s1)
  102ad4:	5e2e39f7          	0x5e2e39f7
  102ad8:	f582c3af          	0xf582c3af
  102adc:	5d80                	lw	s0,56(a1)
  102ade:	be9f d093 7c69      	0x7c69d093be9f
  102ae4:	d52d                	beqz	a0,102a4e <Td1+0x232>
  102ae6:	2512a96f          	jal	s2,12d536 <_bss_end+0x29fde>
  102aea:	ac99b3cf          	0xac99b3cf
  102aee:	3bc8                	fld	fa0,176(a5)
  102af0:	187d                	addi	a6,a6,-1
  102af2:	a710                	fsd	fa2,8(a4)
  102af4:	6ee89c63          	bne	a7,a4,1031ec <Td3+0x1d0>
  102af8:	7bdb3bbb          	0x7bdb3bbb
  102afc:	2678                	fld	fa4,200(a2)
  102afe:	09cd                	addi	s3,s3,19
  102b00:	5918                	lw	a4,48(a0)
  102b02:	f46e                	fsw	fs11,40(sp)
  102b04:	01ec9ab7          	lui	s5,0x1ec9
  102b08:	4f9a                	lw	t6,132(sp)
  102b0a:	956ea883          	lw	a7,-1706(t4)
  102b0e:	65e6                	flw	fa1,88(sp)
  102b10:	ffe6                	fsw	fs9,252(sp)
  102b12:	7eaa                	flw	ft9,168(sp)
  102b14:	0821bccf          	fnmadd.s	fs9,ft3,ft2,ft1,rup
  102b18:	15e8                	addi	a0,sp,748
  102b1a:	e79be6ef          	jal	a3,c1992 <_stack_len+0xb9992>
  102b1e:	d9ba                	sw	a4,240(sp)
  102b20:	6f36                	flw	ft10,76(sp)
  102b22:	ce4a                	sw	s2,28(sp)
  102b24:	9f09                	0x9f09
  102b26:	d4ea                	sw	s10,104(sp)
  102b28:	b07c                	fsd	fa5,224(s0)
  102b2a:	d629                	beqz	a2,102a74 <Td1+0x258>
  102b2c:	a4b2                	fsd	fa2,72(sp)
  102b2e:	af31                	j	10324a <Td3+0x22e>
  102b30:	312a3f23          	0x312a3f23
  102b34:	a594                	fsd	fa3,8(a1)
  102b36:	30c6                	fld	ft1,112(sp)
  102b38:	a266                	fsd	fs9,256(sp)
  102b3a:	c035                	beqz	s0,102b9e <Td1+0x382>
  102b3c:	4ebc                	lw	a5,88(a3)
  102b3e:	3774                	fld	fa3,232(a4)
  102b40:	82ca                	mv	t0,s2
  102b42:	a6fc                	fsd	fa5,200(a3)
  102b44:	90d0                	0x90d0
  102b46:	b0e0                	fsd	fs0,224(s1)
  102b48:	a7d8                	fsd	fa4,136(a5)
  102b4a:	04981533          	0x4981533
  102b4e:	4af1                	li	s5,28
  102b50:	ecda                	fsw	fs6,88(sp)
  102b52:	f741                	bnez	a4,102ada <Td1+0x2be>
  102b54:	cd50                	sw	a2,28(a0)
  102b56:	0e7f                	0xe7f
  102b58:	91f6                	add	gp,gp,t4
  102b5a:	4dd62f17          	auipc	t5,0x4dd62
  102b5e:	8d76                	mv	s10,t4
  102b60:	efb0                	fsw	fa2,88(a5)
  102b62:	aa4d4d43          	fmadd.d	fs10,fs10,ft4,fs5,rmm
  102b66:	54cc                	lw	a1,44(s1)
  102b68:	9604                	0x9604
  102b6a:	dfe4                	sw	s1,124(a5)
  102b6c:	d1b5                	beqz	a1,102ad0 <Td1+0x2b4>
  102b6e:	e39e                	fsw	ft7,196(sp)
  102b70:	6a88                	flw	fa0,16(a3)
  102b72:	1b4c                	addi	a1,sp,436
  102b74:	2c1f b8c1 6551      	0x6551b8c12c1f
  102b7a:	7f46                	flw	ft10,112(sp)
  102b7c:	5eea                	lw	t4,184(sp)
  102b7e:	049d                	addi	s1,s1,7
  102b80:	8c35                	xor	s0,s0,a3
  102b82:	5d01                	li	s10,-32
  102b84:	8774                	0x8774
  102b86:	73fa                	flw	ft7,188(sp)
  102b88:	0b41                	addi	s6,s6,16
  102b8a:	671d2efb          	0x671d2efb
  102b8e:	dbd25ab3          	0xdbd25ab3
  102b92:	5292                	lw	t0,36(sp)
  102b94:	1056                	c.slli	zero,0x35
  102b96:	33e9                	jal	102960 <Td1+0x144>
  102b98:	136dd647          	fmsub.d	fa2,fs11,fs6,ft2,unknown
  102b9c:	d761                	beqz	a4,102b64 <Td1+0x348>
  102b9e:	8c9a                	mv	s9,t1
  102ba0:	a10c                	fsd	fa1,0(a0)
  102ba2:	f8147a37          	lui	s4,0xf8147
  102ba6:	8e59                	or	a2,a2,a4
  102ba8:	133c                	addi	a5,sp,424
  102baa:	a92789eb          	0xa92789eb
  102bae:	eece                	fsw	fs3,92(sp)
  102bb0:	61c9                	lui	gp,0x12
  102bb2:	1ce535b7          	lui	a1,0x1ce53
  102bb6:	ede1                	bnez	a1,102c8e <Td2+0x72>
  102bb8:	47b1                	li	a5,12
  102bba:	3c7a                	fld	fs8,440(sp)
  102bbc:	d2df 599c f273      	0xf273599cd2df
  102bc2:	3f55                	jal	102b76 <Td1+0x35a>
  102bc4:	14ce                	slli	s1,s1,0x33
  102bc6:	7918                	flw	fa4,48(a0)
  102bc8:	bf73c737          	lui	a4,0xbf73c
  102bcc:	f7cd                	bnez	a5,102b76 <Td1+0x35a>
  102bce:	fdaaea53          	0xfdaaea53
  102bd2:	5b5f 3d6f 14df      	0x14df3d6f5b5f
  102bd8:	867844db          	0x867844db
  102bdc:	81caaff3          	csrrs	t6,0x81c,s5
  102be0:	68c4                	flw	fs1,20(s1)
  102be2:	3eb9                	jal	102740 <Td0+0x324>
  102be4:	2434                	fld	fa3,72(s0)
  102be6:	2c38                	fld	fa4,88(s0)
  102be8:	a340                	fsd	fs0,128(a4)
  102bea:	5fc2                	lw	t6,48(sp)
  102bec:	72161dc3          	fmadd.d	fs11,fa2,ft1,fa4,rtz
  102bf0:	e225                	bnez	a2,102c50 <Td2+0x34>
  102bf2:	0cbc                	addi	a5,sp,600
  102bf4:	3c49                	jal	102686 <Td0+0x26a>
  102bf6:	8b28                	0x8b28
  102bf8:	0d95                	addi	s11,s11,5
  102bfa:	41ff                	0x41ff
  102bfc:	a801                	j	102c0c <Td1+0x3f0>
  102bfe:	7139                	addi	sp,sp,-64
  102c00:	de080cb3          	0xde080cb3
  102c04:	b4e4                	fsd	fs1,232(s1)
  102c06:	9cd8                	0x9cd8
  102c08:	56c1                	li	a3,-16
  102c0a:	9064                	0x9064
  102c0c:	cb84                	sw	s1,16(a5)
  102c0e:	32b6617b          	0x32b6617b
  102c12:	70d5                	lui	ra,0xffff5
  102c14:	6c5c                	flw	fa5,28(s0)
  102c16:	7448                	flw	fa0,44(s0)
  102c18:	42d0b857          	0x42d0b857

00102c1c <Td2>:
static const u32 Td2[256] = {
  102c1c:	51f4                	lw	a3,100(a1)
  102c1e:	a750                	fsd	fa2,136(a4)
  102c20:	7e41                	lui	t3,0xffff0
  102c22:	1a176553          	fdiv.d	fa0,fa4,ft1,unknown
  102c26:	3a27a4c3          	fmadd.d	fs1,fa5,ft2,ft7,rdn
  102c2a:	5e96                	lw	t4,100(sp)
  102c2c:	6bcb3bab          	0x6bcb3bab
  102c30:	1f9d                	addi	t6,t6,-25
  102c32:	45f1                	li	a1,28
  102c34:	acfa                	fsd	ft10,88(sp)
  102c36:	4be358ab          	0x4be358ab
  102c3a:	20300393          	li	t2,515
  102c3e:	fa55                	bnez	a2,102bf2 <Td1+0x3d6>
  102c40:	ad76                	fsd	ft9,152(sp)
  102c42:	6df6                	flw	fs11,92(sp)
  102c44:	88cc                	0x88cc
  102c46:	7691                	lui	a3,0xfffe4
  102c48:	f502                	fsw	ft0,168(sp)
  102c4a:	4c25                	li	s8,9
  102c4c:	4fe5                	li	t6,25
  102c4e:	d7fc                	sw	a5,108(a5)
  102c50:	c52a                	sw	a0,136(sp)
  102c52:	2635cbd7          	0x2635cbd7
  102c56:	4480                	lw	s0,8(s1)
  102c58:	b562                	fsd	fs8,168(sp)
  102c5a:	deb1a38f          	0xdeb1a38f
  102c5e:	5a49                	li	s4,-14
  102c60:	25ba                	fld	fa1,392(sp)
  102c62:	45ea1b67          	0x45ea1b67
  102c66:	0e98                	addi	a4,sp,848
  102c68:	5dfe                	lw	s11,252(sp)
  102c6a:	c0e1                	beqz	s1,102d2a <Td2+0x10e>
  102c6c:	7502c32f          	0x7502c32f
  102c70:	814c                	0x814c
  102c72:	f012                	fsw	ft4,32(sp)
  102c74:	8d46                	mv	s10,a7
  102c76:	6bd397a3          	sh	t4,1711(t2) # 11303d05 <_stack_start+0x11103d05>
  102c7a:	f9c6                	fsw	fa7,240(sp)
  102c7c:	5fe7038f          	0x5fe7038f
  102c80:	1592                	slli	a1,a1,0x24
  102c82:	9c95                	0x9c95
  102c84:	bf6d                	j	102c3e <Td2+0x22>
  102c86:	95527aeb          	0x95527aeb
  102c8a:	59da                	lw	s3,180(sp)
  102c8c:	d4be                	sw	a5,104(sp)
  102c8e:	832d                	srli	a4,a4,0xb
  102c90:	5874                	lw	a3,116(s0)
  102c92:	49e021d3          	0x49e021d3
  102c96:	6929                	lui	s2,0xa
  102c98:	8ec9                	or	a3,a3,a0
  102c9a:	c844                	sw	s1,20(s0)
  102c9c:	75c2                	flw	fa1,48(sp)
  102c9e:	896a                	mv	s2,s10
  102ca0:	f48e                	fsw	ft3,104(sp)
  102ca2:	7978                	flw	fa4,116(a0)
  102ca4:	9958                	0x9958
  102ca6:	27b93e6b          	0x27b93e6b
  102caa:	71dd                	lui	gp,0xffff7
  102cac:	bee1                	j	102884 <Td1+0x68>
  102cae:	4fb6                	lw	t6,76(sp)
  102cb0:	f088                	fsw	fa0,32(s1)
  102cb2:	c920ad17          	auipc	s10,0xc920a
  102cb6:	ac66                	fsd	fs9,24(sp)
  102cb8:	7dce                	flw	fs11,240(sp)
  102cba:	3ab4                	fld	fa3,112(a3)
  102cbc:	63df 4a18 e51a      	0xe51a4a1863df
  102cc2:	3182                	fld	ft3,32(sp)
  102cc4:	9751                	srai	a4,a4,0x34
  102cc6:	3360                	fld	fs0,224(a4)
  102cc8:	7f456253          	0x7f456253
  102ccc:	b164                	fsd	fs1,224(a0)
  102cce:	77e0                	flw	fs0,108(a5)
  102cd0:	ae84bb6b          	0xae84bb6b
  102cd4:	fe81                	bnez	a3,102bec <Td1+0x3d0>
  102cd6:	a01c                	fsd	fa5,0(s0)
  102cd8:	f908                	fsw	fa0,48(a0)
  102cda:	2b94                	fld	fa3,16(a5)
  102cdc:	7048                	flw	fa0,36(s0)
  102cde:	6858                	flw	fa4,20(s0)
  102ce0:	8f45                	or	a4,a4,s1
  102ce2:	fd19                	bnez	a0,102c00 <Td1+0x3e4>
  102ce4:	94de                	add	s1,s1,s7
  102ce6:	527b6c87          	0x527b6c87
  102cea:	ab73f8b7          	lui	a7,0xab73f
  102cee:	724bd323          	0x724bd323
  102cf2:	02e2                	slli	t0,t0,0x18
  102cf4:	e31f 8f57 6655      	0x66558f57e31f
  102cfa:	ab2a                	fsd	fa0,400(sp)
  102cfc:	2807b2eb          	0x2807b2eb
  102d00:	2fb5                	jal	10347c <Td4+0x60>
  102d02:	86c5c203          	lbu	tp,-1940(a1) # 1ce5286c <_stack_start+0x1cc5286c>
  102d06:	7b9a                	flw	fs7,164(sp)
  102d08:	08a5d337          	lui	t1,0x8a5d
  102d0c:	3028                	fld	fa0,96(s0)
  102d0e:	87f2                	mv	a5,t3
  102d10:	a5b223bf 6aba0203 	0x6aba0203a5b223bf
  102d18:	ed16                	fsw	ft5,152(sp)
  102d1a:	825c                	0x825c
  102d1c:	1c2b8acf          	0x1c2b8acf
  102d20:	a779                	j	1034ae <Td4+0x92>
  102d22:	b492                	fsd	ft4,104(sp)
  102d24:	f2f0f307          	0xf2f0f307
  102d28:	4e69                	li	t3,26
  102d2a:	e2a1                	bnez	a3,102d6a <Td2+0x14e>
  102d2c:	65da                	flw	fa1,148(sp)
  102d2e:	f4cd                	bnez	s1,102cd8 <Td2+0xbc>
  102d30:	0605                	addi	a2,a2,1
  102d32:	bed5                	j	102926 <Td1+0x10a>
  102d34:	d134                	sw	a3,96(a0)
  102d36:	621f c4a6 fe8a      	0xfe8ac4a6621f
  102d3c:	342e                	fld	fs0,232(sp)
  102d3e:	539d                	li	t2,-25
  102d40:	55a0a2f3          	csrrs	t0,0x55a,ra
  102d44:	058a                	slli	a1,a1,0x2
  102d46:	e132                	fsw	fa2,128(sp)
  102d48:	a4f6                	fsd	ft9,72(sp)
  102d4a:	eb75                	bnez	a4,102e3e <Td2+0x222>
  102d4c:	ec390b83          	lb	s7,-317(s2) # 9ec3 <_stack_len+0x1ec3>
  102d50:	4060                	lw	s0,68(s0)
  102d52:	efaa                	fsw	fa0,220(sp)
  102d54:	5e71                	li	t3,-4
  102d56:	9f06                	add	t5,t5,ra
  102d58:	bd6e                	fsd	fs11,184(sp)
  102d5a:	1051                	c.nop	-12
  102d5c:	3e21                	jal	102874 <Td1+0x58>
  102d5e:	8af9                	andi	a3,a3,30
  102d60:	96dd                	srai	a3,a3,0x37
  102d62:	063d                	addi	a2,a2,15
  102d64:	dd3e                	sw	a5,184(sp)
  102d66:	05ae                	slli	a1,a1,0xb
  102d68:	4de6                	lw	s11,88(sp)
  102d6a:	bd46                	fsd	fa7,184(sp)
  102d6c:	9154                	0x9154
  102d6e:	8db5                	xor	a1,a1,a3
  102d70:	71c4                	flw	fs1,36(a1)
  102d72:	5d05                	li	s10,-31
  102d74:	0406                	slli	s0,s0,0x1
  102d76:	6050d46f          	jal	s0,110b7a <_bss_end+0xd622>
  102d7a:	15ff                	0x15ff
  102d7c:	1998                	addi	a4,sp,240
  102d7e:	fb24                	fsw	fs1,112(a4)
  102d80:	d6bd                	beqz	a3,102cee <Td2+0xd2>
  102d82:	8940e997          	auipc	s3,0x8940e
  102d86:	43cc                	lw	a1,4(a5)
  102d88:	67d9                	lui	a5,0x16
  102d8a:	b0e89e77          	0xb0e89e77
  102d8e:	42bd                	li	t0,15
  102d90:	0789                	addi	a5,a5,2
  102d92:	8b88                	0x8b88
  102d94:	e719                	bnez	a4,102da2 <Td2+0x186>
  102d96:	5b38                	lw	a4,112(a4)
  102d98:	79c8                	flw	fa0,52(a1)
  102d9a:	a17ceedb          	0xa17ceedb
  102d9e:	7c420a47          	0x7c420a47
  102da2:	0fe9                	addi	t6,t6,26
  102da4:	f884                	fsw	fs1,48(s1)
  102da6:	1ec9                	addi	t4,t4,-14
  102da8:	0000                	unimp
  102daa:	0000                	unimp
  102dac:	0980                	addi	s0,sp,208
  102dae:	322b8683          	lb	a3,802(s7) # 6322 <_min_stack+0x4322>
  102db2:	ed48                	fsw	fa0,28(a0)
  102db4:	1e11                	addi	t3,t3,-28
  102db6:	70ac                	flw	fa1,96(s1)
  102db8:	6c5a                	flw	fs8,148(sp)
  102dba:	724e                	flw	ft4,240(sp)
  102dbc:	fd0e                	fsw	ft3,184(sp)
  102dbe:	0f85fffb          	0xf85fffb
  102dc2:	3856                	fld	fa6,368(sp)
  102dc4:	3dae                	fld	fs11,232(sp)
  102dc6:	d51e                	sw	t2,168(sp)
  102dc8:	362d                	jal	1028f2 <Td1+0xd6>
  102dca:	0a0f3927          	fsd	ft0,178(t5) # 4de64c0c <_stack_start+0x4dc64c0c>
  102dce:	d964                	sw	s1,116(a0)
  102dd0:	685c                	flw	fa5,20(s0)
  102dd2:	a621                	j	1030da <Td3+0xbe>
  102dd4:	54d19b5b          	0x54d19b5b
  102dd8:	2436                	fld	fs0,328(sp)
  102dda:	2e3a                	fld	ft8,392(sp)
  102ddc:	0c0a                	slli	s8,s8,0x2
  102dde:	67b1                	lui	a5,0xc
  102de0:	e70f9357          	0xe70f9357
  102de4:	b4ee                	fsd	fs11,104(sp)
  102de6:	96d2                	add	a3,a3,s4
  102de8:	919e1b9b          	0x919e1b9b
  102dec:	80c0                	0x80c0
  102dee:	61dcc54f          	fnmadd.s	fa0,fs9,ft9,fa2,rmm
  102df2:	20a2                	fld	ft1,8(sp)
  102df4:	4b695a77          	0x4b695a77
  102df8:	1c12                	slli	s8,s8,0x24
  102dfa:	1a16                	slli	s4,s4,0x25
  102dfc:	ba0ae293          	ori	t0,s5,-1120
  102e00:	c0a0                	sw	s0,64(s1)
  102e02:	2ae5                	jal	102ffa <Td2+0x3de>
  102e04:	3c22                	fld	fs8,40(sp)
  102e06:	121be043          	fmadd.d	ft0,fs7,ft1,ft2,unknown
  102e0a:	171d                	addi	a4,a4,-25
  102e0c:	0e09                	addi	t3,t3,2
  102e0e:	f28b0d0b          	0xf28b0d0b
  102e12:	c7ad                	beqz	a5,102e7c <Td2+0x260>
  102e14:	2db6                	fld	fs11,328(sp)
  102e16:	a8b9                	j	102e74 <Td2+0x258>
  102e18:	141e                	slli	s0,s0,0x27
  102e1a:	a9c8                	fsd	fa0,144(a1)
  102e1c:	57f1                	li	a5,-4
  102e1e:	1985                	addi	s3,s3,-31
  102e20:	af75                	j	1035dc <_bss_end+0x84>
  102e22:	074c                	addi	a1,sp,900
  102e24:	ee99                	bnez	a3,102e42 <Td2+0x226>
  102e26:	a37fddbb          	0xa37fddbb
  102e2a:	60fd                	lui	ra,0x1f
  102e2c:	f701                	bnez	a4,102d34 <Td2+0x118>
  102e2e:	269f 5c72 f5bc      	0xf5bc5c72269f
  102e34:	4466                	lw	s0,88(sp)
  102e36:	3bc5                	jal	102c26 <Td2+0xa>
  102e38:	7e345bfb          	0x7e345bfb
  102e3c:	29768b43          	fmadd.s	fs6,fa3,fs7,ft5,rne
  102e40:	c6dccb23          	0xc6dccb23
  102e44:	b6ed                	j	102a2e <Td1+0x212>
  102e46:	fc68                	fsw	fa0,124(s0)
  102e48:	b8e4                	fsd	fs1,240(s1)
  102e4a:	d731f163          	bgeu	gp,s3,1023ac <Te3+0x390>
  102e4e:	dcca                	sw	s2,120(sp)
  102e50:	85104263          	bgtz	a7,101e94 <Te2+0x278>
  102e54:	22401397          	auipc	t2,0x22401
  102e58:	84c6                	mv	s1,a7
  102e5a:	1120                	addi	s0,sp,168
  102e5c:	854a                	mv	a0,s2
  102e5e:	247d                	jal	10310c <Td3+0xf0>
  102e60:	3df8d2bb          	0x3df8d2bb
  102e64:	aef9                	j	103242 <Td3+0x226>
  102e66:	3211                	jal	10276a <Td0+0x34e>
  102e68:	c729                	beqz	a4,102eb2 <Td2+0x296>
  102e6a:	a16d                	j	103314 <Td3+0x2f8>
  102e6c:	1d9e                	slli	s11,s11,0x27
  102e6e:	dcb22f4b          	0xdcb22f4b
  102e72:	0d8630f3          	csrrc	ra,0xd8,a2
  102e76:	52ec                	lw	a1,100(a3)
  102e78:	77c1                	lui	a5,0xffff0
  102e7a:	e3d0                	fsw	fa2,4(a5)
  102e7c:	166c2bb3          	0x166c2bb3
  102e80:	a970                	fsd	fa2,208(a0)
  102e82:	b999                	j	102ad8 <Td1+0x2bc>
  102e84:	1194                	addi	a3,sp,224
  102e86:	48fa                	lw	a7,156(sp)
  102e88:	47e9                	li	a5,26
  102e8a:	6422                	flw	fs0,8(sp)
  102e8c:	a8fc                	fsd	fa5,208(s1)
  102e8e:	8cc4                	0x8cc4
  102e90:	a0f0                	fsd	fa2,192(s1)
  102e92:	3f1a                	fld	ft10,416(sp)
  102e94:	567d                	li	a2,-1
  102e96:	2cd8                	fld	fa4,152(s1)
  102e98:	90ef2233          	0x90ef2233
  102e9c:	8749                	srai	a4,a4,0x12
  102e9e:	d9384ec7          	fmsub.s	ft9,fa6,fs3,fs11,rmm
  102ea2:	d1c1                	beqz	a1,102e22 <Td2+0x206>
  102ea4:	8cca                	mv	s9,s2
  102ea6:	a2fe                	fsd	ft11,320(sp)
  102ea8:	98d4                	0x98d4
  102eaa:	0b36                	slli	s6,s6,0xd
  102eac:	a6f5                	j	103298 <Td3+0x27c>
  102eae:	a57a81cf          	0xa57a81cf
  102eb2:	de28                	sw	a0,120(a2)
  102eb4:	8e26dab7          	lui	s5,0x8e26d
  102eb8:	3fad                	jal	102e32 <Td2+0x216>
  102eba:	bfa4                	fsd	fs1,120(a5)
  102ebc:	2c3a                	fld	fs8,392(sp)
  102ebe:	9de4                	0x9de4
  102ec0:	5078                	lw	a4,100(s0)
  102ec2:	920d                	srli	a2,a2,0x23
  102ec4:	6a5f cc9b 547e      	0x547ecc9b6a5f
  102eca:	4662                	lw	a2,24(sp)
  102ecc:	f68d                	bnez	a3,102df6 <Td2+0x1da>
  102ece:	13c2                	slli	t2,t2,0x30
  102ed0:	90d8                	0x90d8
  102ed2:	b8e8                	fsd	fa0,240(s1)
  102ed4:	2e39                	jal	1031f2 <Td3+0x1d6>
  102ed6:	f75e                	fsw	fs7,172(sp)
  102ed8:	aff582c3          	fmadd.q	ft5,fa1,ft11,fs5,rne
  102edc:	9f5d                	0x9f5d
  102ede:	80be                	mv	ra,a5
  102ee0:	69d0                	flw	fa2,20(a1)
  102ee2:	937c                	0x937c
  102ee4:	6fd5                	lui	t6,0x15
  102ee6:	2da9                	jal	103540 <rcon+0x24>
  102ee8:	cf25                	beqz	a4,102f60 <Td2+0x344>
  102eea:	c8ac12b3          	0xc8ac12b3
  102eee:	1018993b          	0x1018993b
  102ef2:	e89c7da7          	0xe89c7da7
  102ef6:	636e                	flw	ft6,216(sp)
  102ef8:	bb7bdb3b          	0xbb7bdb3b
  102efc:	cd26                	sw	s1,152(sp)
  102efe:	7809                	lui	a6,0xfffe2
  102f00:	6e59                	lui	t3,0x16
  102f02:	18f4                	addi	a3,sp,124
  102f04:	ec9a                	fsw	ft6,88(sp)
  102f06:	b701                	j	102e06 <Td2+0x1ea>
  102f08:	9aa8834f          	fnmadd.d	ft6,fa7,fa0,fs3,rne
  102f0c:	e695                	bnez	a3,102f38 <Td2+0x31c>
  102f0e:	6e65                	lui	t3,0x19
  102f10:	aaff                	0xaaff
  102f12:	e67e                	fsw	ft11,12(sp)
  102f14:	21bc                	fld	fa5,64(a1)
  102f16:	cf08                	sw	a0,24(a4)
  102f18:	ef15                	bnez	a4,102f54 <Td2+0x338>
  102f1a:	e8e6                	fsw	fs9,80(sp)
  102f1c:	9bd9bae7          	0x9bd9bae7
  102f20:	36ce4a6f          	jal	s4,1e728c <_bss_end+0xe3d34>
  102f24:	ea9f 09d4 29b0      	0x29b009d4ea9f
  102f2a:	7cd6                	flw	fs9,116(sp)
  102f2c:	31a4                	fld	fs1,96(a1)
  102f2e:	2a3fb2af          	0x2a3fb2af
  102f32:	2331                	jal	10343e <Td4+0x22>
  102f34:	c6a5                	beqz	a3,102f9c <Td2+0x380>
  102f36:	9430                	0x9430
  102f38:	35a2                	fld	fa1,40(sp)
  102f3a:	66c0                	flw	fs0,12(a3)
  102f3c:	744e                	flw	fs0,240(sp)
  102f3e:	fc82bc37          	lui	s8,0xfc82b
  102f42:	caa6                	sw	s1,84(sp)
  102f44:	e090                	fsw	fa2,0(s1)
  102f46:	d0b0                	sw	a2,96(s1)
  102f48:	d81533a7          	fsd	ft1,-633(a0) # 18d87 <_stack_len+0x10d87>
  102f4c:	f104                	fsw	fs1,32(a0)
  102f4e:	984a                	add	a6,a6,s2
  102f50:	41ec                	lw	a1,68(a1)
  102f52:	7fcddaf7          	0x7fcddaf7
  102f56:	500e                	0x500e
  102f58:	1791                	addi	a5,a5,-28
  102f5a:	764df62f          	0x764df62f
  102f5e:	d68d                	beqz	a3,102e88 <Td2+0x26c>
  102f60:	b04d43ef          	jal	t2,d7264 <_stack_len+0xcf264>
  102f64:	ccaa                	sw	a0,88(sp)
  102f66:	4d54                	lw	a3,28(a0)
  102f68:	e496                	fsw	ft5,72(sp)
  102f6a:	04df 9ed1 b5e3      	0xb5e39ed104df
  102f70:	4c6a                	lw	s8,152(sp)
  102f72:	c12c881b          	0xc12c881b
  102f76:	1fb8                	addi	a4,sp,1016
  102f78:	4665                	li	a2,25
  102f7a:	517f                	0x517f
  102f7c:	9d5e                	add	s10,s10,s7
  102f7e:	ea04                	fsw	fs1,16(a2)
  102f80:	018c                	addi	a1,sp,192
  102f82:	355d                	jal	102e28 <Td2+0x20c>
  102f84:	7473fa87          	0x7473fa87
  102f88:	412efb0b          	0x412efb0b
  102f8c:	1d5ab367          	0x1d5ab367
  102f90:	d25292db          	0xd25292db
  102f94:	e910                	fsw	fa2,16(a0)
  102f96:	6dd65633          	0x6dd65633
  102f9a:	9ad74713          	xori	a4,a4,-1619
  102f9e:	618c                	flw	fa1,0(a1)
  102fa0:	37a1                	jal	102ee8 <Td2+0x2cc>
  102fa2:	0c7a                	slli	s8,s8,0x1e
  102fa4:	59f8                	lw	a4,116(a1)
  102fa6:	148e                	slli	s1,s1,0x23
  102fa8:	3c89eb13          	ori	s6,s3,968
  102fac:	cea9                	beqz	a3,103006 <Td2+0x3ea>
  102fae:	27ee                	fld	fa5,216(sp)
  102fb0:	b761                	j	102f38 <Td2+0x31c>
  102fb2:	c935                	beqz	a0,103026 <Td3+0xa>
  102fb4:	e11c                	fsw	fa5,0(a0)
  102fb6:	e5ed                	bnez	a1,1030a0 <Td3+0x84>
  102fb8:	b13c7a47          	fmsub.s	fs4,fs8,fs3,fs6
  102fbc:	9cd2                	add	s9,s9,s4
  102fbe:	df59                	beqz	a4,102f5c <Td2+0x340>
  102fc0:	55f2                	lw	a1,60(sp)
  102fc2:	1814733f 73c7ce79 	0x73c7ce791814733f
  102fca:	53f737bf 5ffdcdea 	0x5ffdcdea53f737bf
  102fd2:	df3daa5b          	0xdf3daa5b
  102fd6:	6f14                	flw	fa3,24(a4)
  102fd8:	7844                	flw	fs1,52(s0)
  102fda:	db86                	sw	ra,244(sp)
  102fdc:	f381caaf          	0xf381caaf
  102fe0:	b968                	fsd	fa0,240(a0)
  102fe2:	c43e                	sw	a5,8(sp)
  102fe4:	3824                	fld	fs1,112(s0)
  102fe6:	342c                	fld	fa1,104(s0)
  102fe8:	405fc2a3          	0x405fc2a3
  102fec:	161d                	addi	a2,a2,-25
  102fee:	c372                	sw	t3,132(sp)
  102ff0:	bce2                	fsd	fs8,120(sp)
  102ff2:	250c                	fld	fa1,8(a0)
  102ff4:	283c                	fld	fa5,80(s0)
  102ff6:	ff0d498b          	0xff0d498b
  102ffa:	9541                	srai	a0,a0,0x30
  102ffc:	39a8                	fld	fa0,112(a1)
  102ffe:	0171                	addi	sp,sp,28
  103000:	080c                	addi	a1,sp,16
  103002:	b3de                	fsd	fs7,480(sp)
  103004:	d8b4                	sw	a3,112(s1)
  103006:	e49c                	fsw	fa5,8(s1)
  103008:	6456                	flw	fs0,84(sp)
  10300a:	c190                	sw	a2,0(a1)
  10300c:	84617bcb          	0x84617bcb
  103010:	d532                	sw	a2,168(sp)
  103012:	b670                	fsd	fa2,232(a2)
  103014:	486c                	lw	a1,84(s0)
  103016:	5c74                	lw	a3,124(s0)
  103018:	d0b8                	sw	a4,96(s1)
  10301a:	5742                	lw	a4,48(sp)

0010301c <Td3>:
static const u32 Td3[256] = {
  10301c:	5051                	c.li	zero,-12
  10301e:	537ef4a7          	0x537ef4a7
  103022:	4165                	li	sp,25
  103024:	c31a                	sw	t1,132(sp)
  103026:	17a4                	addi	s1,sp,1000
  103028:	963a                	add	a2,a2,a4
  10302a:	275e                	fld	fa4,464(sp)
  10302c:	ab6bcb3b          	0xab6bcb3b
  103030:	f11f 9d45 abac      	0xabac9d45f11f
  103036:	fa58                	fsw	fa4,52(a2)
  103038:	e303934b          	fnmsub.d	ft6,ft7,fa6,ft8,rtz
  10303c:	5520                	lw	s0,104(a0)
  10303e:	30fa                	fld	ft1,440(sp)
  103040:	f6ad                	bnez	a3,102faa <Td2+0x38e>
  103042:	766d                	lui	a2,0xffffb
  103044:	9188                	0x9188
  103046:	cc76                	sw	t4,24(sp)
  103048:	25f5                	jal	103734 <_bss_end+0x1dc>
  10304a:	024c                	addi	a1,sp,260
  10304c:	e5d7fc4f          	0xe5d7fc4f
  103050:	d7c5                	beqz	a5,102ff8 <Td2+0x3dc>
  103052:	80262acb          	fnmsub.s	fs5,fa2,ft2,fa6,rdn
  103056:	3544                	fld	fs1,168(a0)
  103058:	8fb5                	xor	a5,a5,a3
  10305a:	49de62a3          	0x49de62a3
  10305e:	b15a                	fsd	fs6,160(sp)
  103060:	6725                	lui	a4,0x9
  103062:	9845ba1b          	0x9845ba1b
  103066:	ea0e                	fsw	ft3,20(sp)
  103068:	e15d                	bnez	a0,10310e <Td3+0xf2>
  10306a:	fec0                	fsw	fs0,60(a3)
  10306c:	2f7502c3          	fmadd.q	ft5,fa0,fs7,ft5,rne
  103070:	1281                	addi	t0,t0,-32
  103072:	4cf0                	lw	a2,92(s1)
  103074:	a38d                	j	1035d6 <_bss_end+0x7e>
  103076:	c66b4697          	auipc	a3,0xc66b4
  10307a:	d3f9                	beqz	a5,103040 <Td3+0x24>
  10307c:	8f5fe703          	0x8f5fe703
  103080:	9515                	srai	a0,a0,0x25
  103082:	929c                	0x929c
  103084:	6d7aebbf 5259da95 	0x5259da956d7aebbf
  10308c:	2dd4                	fld	fa3,152(a1)
  10308e:	d358be83          	0xd358be83
  103092:	7421                	lui	s0,0xfffe8
  103094:	2949                	jal	103526 <rcon+0xa>
  103096:	e069                	bnez	s0,103158 <Td3+0x13c>
  103098:	448e                	lw	s1,192(sp)
  10309a:	c9c8                	sw	a0,20(a1)
  10309c:	6a75                	lui	s4,0x1d
  10309e:	c289                	beqz	a3,1030a0 <Td3+0x84>
  1030a0:	78f4                	flw	fa3,116(s1)
  1030a2:	8e79                	and	a2,a2,a4
  1030a4:	6b99                	lui	s7,0x6
  1030a6:	583e                	lw	a6,236(sp)
  1030a8:	b971dd27          	0xb971dd27
  1030ac:	b6be                	fsd	fa5,360(sp)
  1030ae:	17f0e14f          	fnmadd.q	ft2,ft1,ft11,ft2,unknown
  1030b2:	88ad                	andi	s1,s1,11
  1030b4:	66c9                	lui	a3,0x12
  1030b6:	20ac                	fld	fa1,64(s1)
  1030b8:	b47d                	j	102b66 <Td1+0x34a>
  1030ba:	ce3a                	sw	a4,28(sp)
  1030bc:	df4a1863          	bne	s4,s4,1026ac <Td0+0x290>
  1030c0:	82e5                	srli	a3,a3,0x19
  1030c2:	1a31                	addi	s4,s4,-20
  1030c4:	51336097          	auipc	ra,0x51336
  1030c8:	4562                	lw	a0,24(sp)
  1030ca:	537f                	0x537f
  1030cc:	e0b1                	bnez	s1,103110 <Td3+0xf4>
  1030ce:	84bb6477          	0x84bb6477
  1030d2:	6bae                	flw	fs7,200(sp)
  1030d4:	1cfe                	slli	s9,s9,0x3f
  1030d6:	81a0                	0x81a0
  1030d8:	94f9                	srai	s1,s1,0x3e
  1030da:	5870082b          	0x5870082b
  1030de:	4868                	lw	a0,84(s0)
  1030e0:	45fd198f          	0x45fd198f
  1030e4:	8794                	0x8794
  1030e6:	de6c                	sw	a1,124(a2)
  1030e8:	b752                	fsd	fs4,424(sp)
  1030ea:	7bf8                	flw	fa4,116(a5)
  1030ec:	73d323ab          	0x73d323ab
  1030f0:	e272                	fsw	ft8,4(sp)
  1030f2:	4b02                	lw	s6,0(sp)
  1030f4:	1f8f57e3          	bge	t5,s8,103ae2 <_bss_end+0x58a>
  1030f8:	2a66                	fld	fs4,88(sp)
  1030fa:	07b255ab          	0x7b255ab
  1030fe:	eb28                	fsw	fa0,80(a4)
  103100:	b5c2032f          	0xb5c2032f
  103104:	9a86                	add	s5,s5,ra
  103106:	a5d3c57b          	0xa5d3c57b
  10310a:	3708                	fld	fa0,40(a4)
  10310c:	f230                	fsw	fa2,96(a2)
  10310e:	b2232887          	flw	fa7,-1246(t1) # 8a5cb22 <_stack_start+0x885cb22>
  103112:	bfa5                	j	10308a <Td3+0x6e>
  103114:	ba02                	fsd	ft0,304(sp)
  103116:	036a                	slli	t1,t1,0x1a
  103118:	5ced                	li	s9,-5
  10311a:	1682                	slli	a3,a3,0x20
  10311c:	2b8a                	fld	fs7,128(sp)
  10311e:	cf1c                	sw	a5,24(a4)
  103120:	79b492a7          	0x79b492a7
  103124:	07f2f0f3          	csrrci	ra,0x7f,5
  103128:	a14e                	fsd	fs3,128(sp)
  10312a:	69e2                	flw	fs3,24(sp)
  10312c:	cd65                	beqz	a0,103224 <Td3+0x208>
  10312e:	daf4                	sw	a3,116(a3)
  103130:	d506                	sw	ra,168(sp)
  103132:	05be                	slli	a1,a1,0xf
  103134:	1fd1                	addi	t6,t6,-12
  103136:	3462                	fld	fs0,56(sp)
  103138:	8ac4                	0x8ac4
  10313a:	a6fe                	fsd	ft11,328(sp)
  10313c:	9d34                	0x9d34
  10313e:	a0a22e53          	feq.s	t3,ft4,fa0
  103142:	f355                	bnez	a4,1030e6 <Td3+0xca>
  103144:	3205                	jal	102a64 <Td1+0x248>
  103146:	8ae1                	andi	a3,a3,24
  103148:	75a4                	flw	fs1,104(a1)
  10314a:	390bf6eb          	0x390bf6eb
  10314e:	83ec                	0x83ec
  103150:	aa40                	fsd	fs0,144(a2)
  103152:	065e60ef          	jal	ra,1e99b6 <_bss_end+0xe645e>
  103156:	719f 51bd 6e10      	0x6e1051bd719f
  10315c:	f93e                	fsw	fa5,176(sp)
  10315e:	218a                	fld	ft3,128(sp)
  103160:	3d96                	fld	fs11,352(sp)
  103162:	dd06                	sw	ra,184(sp)
  103164:	aedd                	j	10355a <_bss_end+0x2>
  103166:	3e05                	jal	102c96 <Td2+0x7a>
  103168:	464d                	li	a2,19
  10316a:	e6bd                	bnez	a3,1031d8 <Td3+0x1bc>
  10316c:	b591                	j	102fb0 <Td2+0x394>
  10316e:	548d                	li	s1,-29
  103170:	0571                	addi	a0,a0,28
  103172:	c45d                	beqz	s0,103220 <Td3+0x204>
  103174:	6f04                	flw	fs1,24(a4)
  103176:	06d4                	addi	a3,sp,836
  103178:	ff60                	fsw	fs0,124(a4)
  10317a:	5015                	c.li	zero,-27
  10317c:	2419                	jal	103382 <Td3+0x366>
  10317e:	97d698fb          	0x97d698fb
  103182:	bde9                	j	10305c <Td3+0x40>
  103184:	cc89                	beqz	s1,10319e <Td3+0x182>
  103186:	77674043          	fmadd.q	ft0,fa4,fs6,fa4,rmm
  10318a:	d99e                	sw	t2,240(sp)
  10318c:	bdb0                	fsd	fa2,120(a1)
  10318e:	e842                	fsw	fa6,16(sp)
  103190:	898b8807          	0x898b8807
  103194:	195b38e7          	0x195b38e7
  103198:	db79                	beqz	a4,10316e <Td3+0x152>
  10319a:	c8ee                	sw	s11,80(sp)
  10319c:	47a1                	li	a5,8
  10319e:	7c0a                	flw	fs8,160(sp)
  1031a0:	e97c                	fsw	fa5,84(a0)
  1031a2:	c9f8420f          	0xc9f8420f
  1031a6:	841e                	mv	s0,t2
  1031a8:	0000                	unimp
  1031aa:	0000                	unimp
  1031ac:	8309                	srli	a4,a4,0x2
  1031ae:	8086                	mv	ra,ra
  1031b0:	4832                	lw	a6,12(sp)
  1031b2:	2bed                	jal	1037ac <_bss_end+0x254>
  1031b4:	ac1e                	fsd	ft7,24(sp)
  1031b6:	1170                	addi	a2,sp,172
  1031b8:	4e6c                	lw	a1,92(a2)
  1031ba:	5a72                	lw	s4,60(sp)
  1031bc:	fbfd                	bnez	a5,1031b2 <Td3+0x196>
  1031be:	0eff                	0xeff
  1031c0:	8538560f          	0x8538560f
  1031c4:	1e3d                	addi	t3,t3,-17
  1031c6:	aed5                	j	1035ba <_bss_end+0x62>
  1031c8:	2736                	fld	fa4,328(sp)
  1031ca:	2d39                	jal	1037e8 <_bss_end+0x290>
  1031cc:	640a                	flw	fs0,128(sp)
  1031ce:	0fd9                	addi	t6,t6,22
  1031d0:	2168                	fld	fa0,192(a0)
  1031d2:	5ca6                	lw	s9,104(sp)
  1031d4:	5b54d19b          	0x5b54d19b
  1031d8:	3a24                	fld	fs1,112(a2)
  1031da:	362e                	fld	fa2,232(sp)
  1031dc:	b10c                	fsd	fa1,32(a0)
  1031de:	0f930a67          	jalr	s4,249(t1)
  1031e2:	d2b457e7          	0xd2b457e7
  1031e6:	ee96                	fsw	ft5,92(sp)
  1031e8:	9b919e1b          	0x9b919e1b
  1031ec:	4f80                	lw	s0,24(a5)
  1031ee:	c0c5                	beqz	s1,10328e <Td3+0x272>
  1031f0:	a261                	j	103378 <Td3+0x35c>
  1031f2:	dc20                	sw	s0,120(s0)
  1031f4:	695a                	flw	fs2,148(sp)
  1031f6:	161c774b          	fnmsub.q	fa4,fs8,ft1,ft2
  1031fa:	121a                	slli	tp,tp,0x26
  1031fc:	0ae2                	slli	s5,s5,0x18
  1031fe:	93ba                	add	t2,t2,a4
  103200:	e5c0                	fsw	fs0,12(a1)
  103202:	a02a                	fsd	fa0,0(sp)
  103204:	433c                	lw	a5,64(a4)
  103206:	22e0                	fld	fs0,192(a3)
  103208:	1d12                	slli	s10,s10,0x24
  10320a:	0b0e1b17          	auipc	s6,0xb0e1
  10320e:	090d                	addi	s2,s2,3
  103210:	adf2                	fsd	ft8,216(sp)
  103212:	b92d8bc7          	fmsub.s	fs7,fs11,fs2,fs7,rne
  103216:	b6a8                	fsd	fa0,104(a3)
  103218:	c814                	sw	a3,16(s0)
  10321a:	1ea9                	addi	t4,t4,-22
  10321c:	f1198557          	0xf1198557
  103220:	75074caf          	0x75074caf
  103224:	bbee                	fsd	fs11,496(sp)
  103226:	99dd                	andi	a1,a1,-9
  103228:	7f60fda3          	0x7f60fda3
  10322c:	01269ff7          	0x1269ff7
  103230:	bc5c                	fsd	fa5,184(s0)
  103232:	72f5                	lui	t0,0xffffd
  103234:	c544                	sw	s1,12(a0)
  103236:	345b663b          	0x345b663b
  10323a:	fb7e                	fsw	ft11,180(sp)
  10323c:	4329768b          	0x4329768b
  103240:	23c6dccb          	fnmsub.d	fs9,fa3,ft8,ft4,unknown
  103244:	68b6                	flw	fa7,76(sp)
  103246:	edfc                	fsw	fa5,92(a1)
  103248:	63b8                	flw	fa4,64(a5)
  10324a:	e4f1                	bnez	s1,103316 <Td3+0x2fa>
  10324c:	31dccad7          	0x31dccad7
  103250:	1042                	c.slli	zero,0x30
  103252:	6385                	lui	t2,0x1
  103254:	97224013          	xori	zero,tp,-1678
  103258:	2084                	fld	fs1,0(s1)
  10325a:	c611                	beqz	a2,103266 <Td3+0x24a>
  10325c:	7d85                	lui	s11,0xfffe1
  10325e:	4a24                	lw	s1,80(a2)
  103260:	f8d2                	fsw	fs4,112(sp)
  103262:	bb3d                	j	102fa0 <Td2+0x384>
  103264:	11ae                	slli	gp,gp,0x2b
  103266:	f932                	fsw	fa2,176(sp)
  103268:	29a16dc7          	fmsub.s	fs11,ft2,fs10,ft5,unknown
  10326c:	4b1d                	li	s6,7
  10326e:	f3dc9e2f          	0xf3dc9e2f
  103272:	b230                	fsd	fa2,96(a2)
  103274:	ec0d                	bnez	s0,1032ae <Td3+0x292>
  103276:	8652                	mv	a2,s4
  103278:	c1e3d077          	0xc1e3d077
  10327c:	b3166c2b          	0xb3166c2b
  103280:	99a9                	andi	a1,a1,-22
  103282:	70b9                	lui	ra,0xfffee
  103284:	fa11                	bnez	a2,103198 <Td3+0x17c>
  103286:	9448                	0x9448
  103288:	e9642247          	fmsub.s	ft4,fs0,fs6,ft9,rdn
  10328c:	c4a8                	sw	a0,72(s1)
  10328e:	fc8c                	fsw	fa1,56(s1)
  103290:	1aa0                	addi	s0,sp,376
  103292:	d856f03f ef227d2c 	0xef227d2cd856f03f
  10329a:	3390                	fld	fa2,32(a5)
  10329c:	494ec787          	flq	fa5,1172(t4)
  1032a0:	c1d9                	beqz	a1,103326 <Td3+0x30a>
  1032a2:	38d1                	jal	102b76 <Td1+0x35a>
  1032a4:	fe8c                	fsw	fa1,56(a3)
  1032a6:	caa2                	sw	s0,84(sp)
  1032a8:	3698                	fld	fa4,40(a3)
  1032aa:	cfa6d40b          	0xcfa6d40b
  1032ae:	f581                	bnez	a1,1031b6 <Td3+0x19a>
  1032b0:	28a5                	jal	103328 <Td3+0x30c>
  1032b2:	7ade                	flw	fs5,244(sp)
  1032b4:	26da                	fld	fa3,400(sp)
  1032b6:	b78e                	fsd	ft3,488(sp)
  1032b8:	adbfa43f 3a9de42c 	0x3a9de42cadbfa43f
  1032c0:	0d50                	addi	a2,sp,660
  1032c2:	7892                	flw	fa7,36(sp)
  1032c4:	9b6a                	add	s6,s6,s10
  1032c6:	5fcc                	lw	a1,60(a5)
  1032c8:	6254                	flw	fa3,4(a2)
  1032ca:	7e46                	flw	ft8,112(sp)
  1032cc:	c2f6                	sw	t4,68(sp)
  1032ce:	e8908d13          	addi	s10,ra,-375 # fffede89 <_stack_start+0xffdede89>
  1032d2:	d8b8                	sw	a4,112(s1)
  1032d4:	5e2e                	lw	t3,232(sp)
  1032d6:	f58239f7          	0xf58239f7
  1032da:	be9fc3af          	0xbe9fc3af
  1032de:	5d80                	lw	s0,56(a1)
  1032e0:	7c69                	lui	s8,0xffffa
  1032e2:	a96fd093          	0xa96fd093
  1032e6:	d52d                	beqz	a0,103250 <Td3+0x234>
  1032e8:	2512b3cf          	0x2512b3cf
  1032ec:	3bc8                	fld	fa0,176(a5)
  1032ee:	ac99                	j	103544 <rcon+0x28>
  1032f0:	a710                	fsd	fa2,8(a4)
  1032f2:	187d                	addi	a6,a6,-1
  1032f4:	6ee8                	flw	fa0,92(a3)
  1032f6:	7bdb9c63          	bne	s7,t4,103aae <_bss_end+0x556>
  1032fa:	09cd3bbb          	0x9cd3bbb
  1032fe:	2678                	fld	fa4,200(a2)
  103300:	f46e                	fsw	fs11,40(sp)
  103302:	5918                	lw	a4,48(a0)
  103304:	01ec                	addi	a1,sp,204
  103306:	a8839ab7          	lui	s5,0xa8839
  10330a:	4f9a                	lw	t6,132(sp)
  10330c:	65e6                	flw	fa1,88(sp)
  10330e:	956e                	add	a0,a0,s11
  103310:	7eaa                	flw	ft9,168(sp)
  103312:	ffe6                	fsw	fs9,252(sp)
  103314:	0821                	addi	a6,a6,8
  103316:	e6efbccf          	fnmadd.q	fs9,ft11,fa4,ft8,rup
  10331a:	15e8                	addi	a0,sp,748
  10331c:	d9ba                	sw	a4,240(sp)
  10331e:	ce4ae79b          	0xce4ae79b
  103322:	6f36                	flw	ft10,76(sp)
  103324:	d4ea                	sw	s10,104(sp)
  103326:	9f09                	0x9f09
  103328:	d629                	beqz	a2,103272 <Td3+0x256>
  10332a:	b07c                	fsd	fa5,224(s0)
  10332c:	af31                	j	103a48 <_bss_end+0x4f0>
  10332e:	a4b2                	fsd	fa2,72(sp)
  103330:	312a                	fld	ft2,168(sp)
  103332:	30c63f23          	0x30c63f23
  103336:	a594                	fsd	fa3,8(a1)
  103338:	c035                	beqz	s0,10339c <Td3+0x380>
  10333a:	a266                	fsd	fs9,256(sp)
  10333c:	3774                	fld	fa3,232(a4)
  10333e:	4ebc                	lw	a5,88(a3)
  103340:	a6fc                	fsd	fa5,200(a3)
  103342:	82ca                	mv	t0,s2
  103344:	b0e0                	fsd	fs0,224(s1)
  103346:	90d0                	0x90d0
  103348:	a7d81533          	0xa7d81533
  10334c:	4af1                	li	s5,28
  10334e:	0498                	addi	a4,sp,576
  103350:	f741                	bnez	a4,1032d8 <Td3+0x2bc>
  103352:	ecda                	fsw	fs6,88(sp)
  103354:	0e7f                	0xe7f
  103356:	cd50                	sw	a2,28(a0)
  103358:	91f62f17          	auipc	t5,0x91f62
  10335c:	8d76                	mv	s10,t4
  10335e:	4dd6                	lw	s11,84(sp)
  103360:	efb04d43          	fmadd.q	fs10,ft0,fs11,ft9,rmm
  103364:	54cc                	lw	a1,44(s1)
  103366:	aa4d                	j	103518 <Td4+0xfc>
  103368:	dfe4                	sw	s1,124(a5)
  10336a:	9604                	0x9604
  10336c:	e39e                	fsw	ft7,196(sp)
  10336e:	d1b5                	beqz	a1,1032d2 <Td3+0x2b6>
  103370:	1b4c                	addi	a1,sp,436
  103372:	6a88                	flw	fa0,16(a3)
  103374:	b8c1                	j	102c44 <Td2+0x28>
  103376:	2c1f 7f46 6551      	0x65517f462c1f
  10337c:	049d                	addi	s1,s1,7
  10337e:	5eea                	lw	t4,184(sp)
  103380:	5d01                	li	s10,-32
  103382:	8c35                	xor	s0,s0,a3
  103384:	73fa                	flw	ft7,188(sp)
  103386:	8774                	0x8774
  103388:	0b412efb          	0xb412efb
  10338c:	671d5ab3          	0x671d5ab3
  103390:	5292                	lw	t0,36(sp)
  103392:	dbd2                	sw	s4,244(sp)
  103394:	33e9                	jal	10315e <Td3+0x142>
  103396:	1056                	c.slli	zero,0x35
  103398:	136d                	addi	t1,t1,-5
  10339a:	8c9ad647          	0x8c9ad647
  10339e:	d761                	beqz	a4,103366 <Td3+0x34a>
  1033a0:	a10c7a37          	lui	s4,0xa10c7
  1033a4:	8e59                	or	a2,a2,a4
  1033a6:	f814                	fsw	fa3,48(s0)
  1033a8:	133c89eb          	0x133c89eb
  1033ac:	eece                	fsw	fs3,92(sp)
  1033ae:	35b7a927          	fsw	fs11,850(a5) # ffff0352 <_stack_start+0xffdf0352>
  1033b2:	61c9                	lui	gp,0x12
  1033b4:	ede1                	bnez	a1,10348c <Td4+0x70>
  1033b6:	1ce5                	addi	s9,s9,-7
  1033b8:	3c7a                	fld	fs8,440(sp)
  1033ba:	47b1                	li	a5,12
  1033bc:	599c                	lw	a5,48(a1)
  1033be:	d2df 3f55 f273      	0xf2733f55d2df
  1033c4:	7918                	flw	fa4,48(a0)
  1033c6:	14ce                	slli	s1,s1,0x33
  1033c8:	c737bf73          	csrrc	t5,0xc73,a5
  1033cc:	f7cdea53          	0xf7cdea53
  1033d0:	5b5f fdaa 14df      	0x14dffdaa5b5f
  1033d6:	86783d6f          	jal	s10,86c3c <_stack_len+0x7ec3c>
  1033da:	81ca44db          	0x81ca44db
  1033de:	3eb9aff3          	csrrs	t6,0x3eb,s3
  1033e2:	68c4                	flw	fs1,20(s1)
  1033e4:	2c38                	fld	fa4,88(s0)
  1033e6:	2434                	fld	fa3,72(s0)
  1033e8:	5fc2                	lw	t6,48(sp)
  1033ea:	a340                	fsd	fs0,128(a4)
  1033ec:	7216                	flw	ft4,100(sp)
  1033ee:	0cbc1dc3          	0xcbc1dc3
  1033f2:	e225                	bnez	a2,103452 <Td4+0x36>
  1033f4:	8b28                	0x8b28
  1033f6:	3c49                	jal	102e88 <Td2+0x26c>
  1033f8:	41ff                	0x41ff
  1033fa:	0d95                	addi	s11,s11,5
  1033fc:	7139                	addi	sp,sp,-64
  1033fe:	a801                	j	10340e <Td3+0x3f2>
  103400:	de08                	sw	a0,56(a2)
  103402:	9cd80cb3          	0x9cd80cb3
  103406:	b4e4                	fsd	fs1,232(s1)
  103408:	9064                	0x9064
  10340a:	56c1                	li	a3,-16
  10340c:	cb84617b          	0xcb84617b
  103410:	70d5                	lui	ra,0xffff5
  103412:	32b6                	fld	ft5,360(sp)
  103414:	7448                	flw	fa0,44(s0)
  103416:	6c5c                	flw	fa5,28(s0)
  103418:	42d0                	lw	a2,4(a3)
  10341a:	          	0x952b857

0010341c <Td4>:
static const u8 Td4[256] = {
  10341c:	0952                	slli	s2,s2,0x14
  10341e:	d56a                	sw	s10,168(sp)
  103420:	3630                	fld	fa2,104(a2)
  103422:	38a5                	jal	102c9a <Td2+0x7e>
  103424:	9ea340bf fbd7f381 	0xfbd7f3819ea340bf
  10342c:	e37c                	fsw	fa5,68(a4)
  10342e:	8239                	srli	a2,a2,0xe
  103430:	87ff2f9b          	0x87ff2f9b
  103434:	8e34                	0x8e34
  103436:	dec44443          	fmadd.q	fs0,fs0,fa2,fs11,rmm
  10343a:	cbe9                	beqz	a5,10350c <Td4+0xf0>
  10343c:	7b54                	flw	fa3,52(a4)
  10343e:	3294                	fld	fa3,32(a3)
  103440:	c2a6                	sw	s1,68(sp)
  103442:	4cee3d23          	0x4cee3d23
  103446:	0b95                	addi	s7,s7,5
  103448:	fa42                	fsw	fa6,52(sp)
  10344a:	2e084ec3          	fmadd.q	ft9,fa6,ft0,ft5,rmm
  10344e:	66a1                	lui	a3,0x8
  103450:	d928                	sw	a0,112(a0)
  103452:	b224                	fsd	fs1,96(a2)
  103454:	5b76                	lw	s6,124(sp)
  103456:	49a2                	lw	s3,8(sp)
  103458:	8b6d                	andi	a4,a4,27
  10345a:	25d1                	jal	103b1e <_bss_end+0x5c6>
  10345c:	f872                	fsw	ft8,48(sp)
  10345e:	64f6                	flw	fs1,92(sp)
  103460:	6886                	flw	fa7,64(sp)
  103462:	1698                	addi	a4,sp,864
  103464:	a4d4                	fsd	fa3,136(s1)
  103466:	cc5c                	sw	a5,28(s0)
  103468:	655d                	lui	a0,0x17
  10346a:	92b6                	add	t0,t0,a3
  10346c:	706c                	flw	fa1,100(s0)
  10346e:	5048                	lw	a0,36(s0)
  103470:	edfd                	bnez	a1,10356e <_bss_end+0x16>
  103472:	dab9                	beqz	a3,1033c8 <Td3+0x3ac>
  103474:	155e                	slli	a0,a0,0x37
  103476:	5746                	lw	a4,112(sp)
  103478:	849d8da7          	0x849d8da7
  10347c:	d890                	sw	a2,48(s1)
  10347e:	bc8c00ab          	0xbc8c00ab
  103482:	e4f70ad3          	0xe4f70ad3
  103486:	0558                	addi	a4,sp,644
  103488:	b3b8                	fsd	fa4,96(a5)
  10348a:	0645                	addi	a2,a2,17
  10348c:	2cd0                	fld	fa2,152(s1)
  10348e:	8f1e                	mv	t5,t2
  103490:	3fca                	fld	ft11,176(sp)
  103492:	afc1020f          	0xafc1020f
  103496:	03bd                	addi	t2,t2,15
  103498:	1301                	addi	t1,t1,-32
  10349a:	6b8a                	flw	fs7,128(sp)
  10349c:	913a                	add	sp,sp,a4
  10349e:	4111                	li	sp,4
  1034a0:	eadc674f          	fnmadd.d	fa4,fs8,fa3,ft9,unknown
  1034a4:	cecff297          	auipc	t0,0xcecff
  1034a8:	b4f0                	fsd	fa2,232(s1)
  1034aa:	73e6                	flw	ft7,120(sp)
  1034ac:	ac96                	fsd	ft5,88(sp)
  1034ae:	2274                	fld	fa3,192(a2)
  1034b0:	8535ade7          	0x8535ade7
  1034b4:	f9e2                	fsw	fs8,240(sp)
  1034b6:	751ce837          	lui	a6,0x751ce
  1034ba:	6edf f147 711a      	0x711af1476edf
  1034c0:	291d                	jal	1038f6 <_bss_end+0x39e>
  1034c2:	89c5                	andi	a1,a1,17
  1034c4:	0e62b76f          	jal	a4,12e5aa <_bss_end+0x2b052>
  1034c8:	18aa                	slli	a7,a7,0x2a
  1034ca:	1bbe                	slli	s7,s7,0x2f
  1034cc:	56fc                	lw	a5,108(a3)
  1034ce:	4b3e                	lw	s6,204(sp)
  1034d0:	d2c6                	sw	a7,100(sp)
  1034d2:	2079                	jal	103560 <_bss_end+0x8>
  1034d4:	db9a                	sw	t1,244(sp)
  1034d6:	fec0                	fsw	fs0,60(a3)
  1034d8:	cd78                	sw	a4,92(a0)
  1034da:	f45a                	fsw	fs6,40(sp)
  1034dc:	dd1f 33a8 0788      	0x78833a8dd1f
  1034e2:	12b131c7          	fmsub.d	ft3,ft2,fa1,ft2,rup
  1034e6:	5910                	lw	a2,48(a0)
  1034e8:	5fec8027          	0x5fec8027
  1034ec:	5160                	lw	s0,100(a0)
  1034ee:	a97f                	0xa97f
  1034f0:	b519                	j	1032f6 <Td3+0x2da>
  1034f2:	0d4a                	slli	s10,s10,0x12
  1034f4:	e52d                	bnez	a0,10355e <_bss_end+0x6>
  1034f6:	9f7a                	add	t5,t5,t5
  1034f8:	ef9cc993          	xori	s3,s9,-263
  1034fc:	e0a0                	fsw	fs0,64(s1)
  1034fe:	2aae4d3b          	0x2aae4d3b
  103502:	b0f5                	j	102dee <Td2+0x1d2>
  103504:	ebc8                	fsw	fa0,20(a5)
  103506:	53833cbb          	0x53833cbb
  10350a:	6199                	lui	gp,0x6
  10350c:	7e042b17          	auipc	s6,0x7e042
  103510:	77ba                	flw	fa5,172(sp)
  103512:	26d6                	fld	fa3,336(sp)
  103514:	69e1                	lui	s3,0x18
  103516:	6314                	flw	fa3,0(a4)
  103518:	2155                	jal	1039bc <_bss_end+0x464>
  10351a:	7d0c                	flw	fa1,56(a0)

0010351c <rcon>:
static const u32 rcon[] = {
  10351c:	0000                	unimp
  10351e:	0100                	addi	s0,sp,128
  103520:	0000                	unimp
  103522:	0200                	addi	s0,sp,256
  103524:	0000                	unimp
  103526:	0400                	addi	s0,sp,512
  103528:	0000                	unimp
  10352a:	0800                	addi	s0,sp,16
  10352c:	0000                	unimp
  10352e:	1000                	addi	s0,sp,32
  103530:	0000                	unimp
  103532:	2000                	fld	fs0,0(s0)
  103534:	0000                	unimp
  103536:	4000                	lw	s0,0(s0)
  103538:	0000                	unimp
  10353a:	8000                	0x8000
  10353c:	0000                	unimp
  10353e:	1b00                	addi	s0,sp,432
  103540:	0000                	unimp
  103542:	3600                	fld	fs0,40(a2)

Déassemblage de la section .bss :

00103548 <time_elapsed>:
	...

00103550 <time_increment>:
	...

Déassemblage de la section .stack :

001f8000 <_stack-0x2000>:
	...

Déassemblage de la section .debug_info :

00000000 <.debug_info>:
       0:	0000033f 00000004 	0x40000033f
       8:	0000                	unimp
       a:	0104                	addi	s1,sp,128
       c:	00000233          	add	tp,zero,zero
      10:	da0c                	sw	a1,48(a2)
      12:	0000                	unimp
      14:	9200                	0x9200
      16:	0001                	nop
      18:	8400                	0x8400
      1a:	1000                	addi	s0,sp,32
      1c:	ec00                	fsw	fs0,24(s0)
      1e:	00000003          	lb	zero,0(zero) # 0 <_min_stack-0x2000>
      22:	0000                	unimp
      24:	0200                	addi	s0,sp,256
      26:	0601                	addi	a2,a2,0
      28:	0066                	c.slli	zero,0x19
      2a:	0000                	unimp
      2c:	0202                	c.slli64	tp
      2e:	0505                	addi	a0,a0,1
      30:	0002                	c.slli64	zero
      32:	0200                	addi	s0,sp,256
      34:	0504                	addi	s1,sp,640
      36:	017c                	addi	a5,sp,140
      38:	0000                	unimp
      3a:	0802                	c.slli64	a6
      3c:	7705                	lui	a4,0xfffe1
      3e:	0001                	nop
      40:	0200                	addi	s0,sp,256
      42:	0801                	addi	a6,a6,0
      44:	0064                	addi	s1,sp,12
      46:	0000                	unimp
      48:	0202                	c.slli64	tp
      4a:	00007207          	0x7207
      4e:	0300                	addi	s0,sp,384
      50:	022a                	slli	tp,tp,0xa
      52:	0000                	unimp
      54:	3402                	fld	fs0,32(sp)
      56:	5b19                	li	s6,-26
      58:	0000                	unimp
      5a:	0200                	addi	s0,sp,256
      5c:	0704                	addi	s1,sp,896
      5e:	00c8                	addi	a0,sp,68
      60:	0000                	unimp
      62:	00004603          	lbu	a2,0(zero) # 0 <_min_stack-0x2000>
      66:	0200                	addi	s0,sp,256
      68:	00731937          	lui	s2,0x731
      6c:	0000                	unimp
      6e:	6204                	flw	fs1,0(a2)
      70:	0000                	unimp
      72:	0200                	addi	s0,sp,256
      74:	0708                	addi	a0,sp,896
      76:	000000c3          	fmadd.s	ft1,ft0,ft0,ft0,rne
      7a:	0405                	addi	s0,s0,1
      7c:	6905                	lui	s2,0x1
      7e:	746e                	flw	fs0,248(sp)
      80:	0200                	addi	s0,sp,256
      82:	0704                	addi	s1,sp,896
      84:	00cd                	addi	ra,ra,19
      86:	0000                	unimp
      88:	8506                	mv	a0,ra
      8a:	0001                	nop
      8c:	0100                	addi	s0,sp,128
      8e:	006e138f          	0x6e138f
      92:	0000                	unimp
      94:	0305                	addi	t1,t1,1
      96:	3548                	fld	fa0,168(a0)
      98:	0010                	0x10
      9a:	6806                	flw	fa6,64(sp)
      9c:	0001                	nop
      9e:	0100                	addi	s0,sp,128
      a0:	0a90                	addi	a2,sp,336
      a2:	0062                	c.slli	zero,0x18
      a4:	0000                	unimp
      a6:	0305                	addi	t1,t1,1
      a8:	3550                	fld	fa2,168(a0)
      aa:	0010                	0x10
      ac:	0002c207          	flq	ft4,0(t0) # cee024a4 <_stack_start+0xcec024a4>
      b0:	0100                	addi	s0,sp,128
      b2:	03da06bb          	0x3da06bb
      b6:	0010                	0x10
      b8:	0096                	slli	ra,ra,0x5
      ba:	0000                	unimp
      bc:	9c01                	0x9c01
      be:	0f08                	addi	a0,sp,912
      c0:	0002                	c.slli64	zero
      c2:	0100                	addi	s0,sp,128
      c4:	00620ab7          	lui	s5,0x620
      c8:	0000                	unimp
      ca:	03c6                	slli	t2,t2,0x11
      cc:	0010                	0x10
      ce:	0014                	0x14
      d0:	0000                	unimp
      d2:	9c01                	0x9c01
      d4:	8d09                	sub	a0,a0,a0
      d6:	0000                	unimp
      d8:	0100                	addi	s0,sp,128
      da:	06b1                	addi	a3,a3,12
      dc:	0396                	slli	t2,t2,0x5
      de:	0010                	0x10
      e0:	0030                	addi	a2,sp,8
      e2:	0000                	unimp
      e4:	9c01                	0x9c01
      e6:	00fa                	slli	ra,ra,0x1e
      e8:	0000                	unimp
      ea:	fc0a                	fsw	ft2,56(sp)
      ec:	0001                	nop
      ee:	0100                	addi	s0,sp,128
      f0:	1eb1                	addi	t4,t4,-20
      f2:	0062                	c.slli	zero,0x18
      f4:	0000                	unimp
      f6:	9102                	jalr	sp
      f8:	0078                	addi	a4,sp,12
      fa:	0001f10b          	0x1f10b
      fe:	0100                	addi	s0,sp,128
     100:	0aa5                	addi	s5,s5,9
     102:	0062                	c.slli	zero,0x18
     104:	0000                	unimp
     106:	034a                	slli	t1,t1,0x12
     108:	0010                	0x10
     10a:	004c                	addi	a1,sp,4
     10c:	0000                	unimp
     10e:	9c01                	0x9c01
     110:	0142                	slli	sp,sp,0x10
     112:	0000                	unimp
     114:	4c0c                	lw	a1,24(s0)
     116:	0001                	nop
     118:	0100                	addi	s0,sp,128
     11a:	0ca6                	slli	s9,s9,0x9
     11c:	0000004f          	fnmadd.s	ft0,ft0,ft0,ft0,rne
     120:	9102                	jalr	sp
     122:	0c7c                	addi	a5,sp,540
     124:	002c                	addi	a1,sp,8
     126:	0000                	unimp
     128:	a701                	j	828 <_min_stack-0x17d8>
     12a:	4f0c                	lw	a1,24(a4)
     12c:	0000                	unimp
     12e:	0200                	addi	s0,sp,256
     130:	7891                	lui	a7,0xfffe4
     132:	9c0c                	0x9c0c
     134:	0000                	unimp
     136:	0100                	addi	s0,sp,128
     138:	0cad                	addi	s9,s9,11
     13a:	0062                	c.slli	zero,0x18
     13c:	0000                	unimp
     13e:	9102                	jalr	sp
     140:	0070                	addi	a2,sp,12
     142:	5a0d                	li	s4,-29
     144:	0001                	nop
     146:	0100                	addi	s0,sp,128
     148:	033e06a3          	sb	s3,45(t3) # 1902d <_stack_len+0x1102d>
     14c:	0010                	0x10
     14e:	000c                	0xc
     150:	0000                	unimp
     152:	9c01                	0x9c01
     154:	390e                	fld	fs2,224(sp)
     156:	0000                	unimp
     158:	0100                	addi	s0,sp,128
     15a:	0698                	addi	a4,sp,832
     15c:	02f8                	addi	a4,sp,332
     15e:	0010                	0x10
     160:	0046                	c.slli	zero,0x11
     162:	0000                	unimp
     164:	9c01                	0x9c01
     166:	017a                	slli	sp,sp,0x1e
     168:	0000                	unimp
     16a:	b90a                	fsd	ft2,176(sp)
     16c:	0000                	unimp
     16e:	0100                	addi	s0,sp,128
     170:	1c98                	addi	a4,sp,624
     172:	0062                	c.slli	zero,0x18
     174:	0000                	unimp
     176:	9102                	jalr	sp
     178:	0068                	addi	a0,sp,12
     17a:	0000a70f          	0xa70f
     17e:	0100                	addi	s0,sp,128
     180:	1492                	slli	s1,s1,0x24
     182:	02bc                	addi	a5,sp,328
     184:	0010                	0x10
     186:	003c                	addi	a5,sp,8
     188:	0000                	unimp
     18a:	9c01                	0x9c01
     18c:	000001af          	0x1af
     190:	b90a                	fsd	ft2,176(sp)
     192:	0000                	unimp
     194:	0100                	addi	s0,sp,128
     196:	2f92                	fld	ft11,256(sp)
     198:	0062                	c.slli	zero,0x18
     19a:	0000                	unimp
     19c:	9102                	jalr	sp
     19e:	0c58                	addi	a4,sp,532
     1a0:	002c                	addi	a1,sp,8
     1a2:	0000                	unimp
     1a4:	9301                	srli	a4,a4,0x20
     1a6:	620c                	flw	fa1,0(a2)
     1a8:	0000                	unimp
     1aa:	0200                	addi	s0,sp,256
     1ac:	6891                	lui	a7,0x4
     1ae:	0700                	addi	s0,sp,896
     1b0:	0000000b          	0xb
     1b4:	8301                	c.srli64	a4
     1b6:	6606                	flw	fa2,64(sp)
     1b8:	1002                	c.slli	zero,0x20
     1ba:	5600                	lw	s0,40(a2)
     1bc:	0000                	unimp
     1be:	0100                	addi	s0,sp,128
     1c0:	109c                	addi	a5,sp,96
     1c2:	02b8                	addi	a4,sp,328
     1c4:	0000                	unimp
     1c6:	7d01                	lui	s10,0xfffe0
     1c8:	810e                	mv	sp,gp
     1ca:	0000                	unimp
     1cc:	5600                	lw	s0,40(a2)
     1ce:	1002                	c.slli	zero,0x20
     1d0:	1000                	addi	s0,sp,32
     1d2:	0000                	unimp
     1d4:	0100                	addi	s0,sp,128
     1d6:	eb9c                	fsw	fa5,16(a5)
     1d8:	0001                	nop
     1da:	0c00                	addi	s0,sp,528
     1dc:	000004a7          	0x4a7
     1e0:	7e01                	lui	t3,0xfffe0
     1e2:	4f0c                	lw	a1,24(a4)
     1e4:	0000                	unimp
     1e6:	0200                	addi	s0,sp,256
     1e8:	7c91                	lui	s9,0xfffe4
     1ea:	1000                	addi	s0,sp,32
     1ec:	0000                	unimp
     1ee:	0000                	unimp
     1f0:	7701                	lui	a4,0xfffe0
     1f2:	810e                	mv	sp,gp
     1f4:	0000                	unimp
     1f6:	4600                	lw	s0,8(a2)
     1f8:	1002                	c.slli	zero,0x20
     1fa:	1000                	addi	s0,sp,32
     1fc:	0000                	unimp
     1fe:	0100                	addi	s0,sp,128
     200:	159c                	addi	a5,sp,736
     202:	0002                	c.slli64	zero
     204:	0c00                	addi	s0,sp,528
     206:	000004a7          	0x4a7
     20a:	7801                	lui	a6,0xfffe0
     20c:	4f0c                	lw	a1,24(a4)
     20e:	0000                	unimp
     210:	0200                	addi	s0,sp,256
     212:	7c91                	lui	s9,0xfffe4
     214:	1000                	addi	s0,sp,32
     216:	000002af          	0x2af
     21a:	7101                	addi	sp,sp,-512
     21c:	810e                	mv	sp,gp
     21e:	0000                	unimp
     220:	3600                	fld	fs0,40(a2)
     222:	1002                	c.slli	zero,0x20
     224:	1000                	addi	s0,sp,32
     226:	0000                	unimp
     228:	0100                	addi	s0,sp,128
     22a:	3f9c                	fld	fa5,56(a5)
     22c:	0002                	c.slli64	zero
     22e:	0c00                	addi	s0,sp,528
     230:	000004a7          	0x4a7
     234:	7201                	lui	tp,0xfffe0
     236:	4f0c                	lw	a1,24(a4)
     238:	0000                	unimp
     23a:	0200                	addi	s0,sp,256
     23c:	7c91                	lui	s9,0xfffe4
     23e:	0900                	addi	s0,sp,144
     240:	001e                	c.slli	zero,0x7
     242:	0000                	unimp
     244:	6901                	0x6901
     246:	1a06                	slli	s4,s4,0x21
     248:	1002                	c.slli	zero,0x20
     24a:	1c00                	addi	s0,sp,560
     24c:	0000                	unimp
     24e:	0100                	addi	s0,sp,128
     250:	749c                	flw	fa5,40(s1)
     252:	0002                	c.slli64	zero
     254:	0a00                	addi	s0,sp,272
     256:	0000003f 7a186901 	0x7a1869010000003f
     25e:	0000                	unimp
     260:	0200                	addi	s0,sp,256
     262:	6c91                	lui	s9,0x4
     264:	580c                	lw	a1,48(s0)
     266:	0000                	unimp
     268:	0100                	addi	s0,sp,128
     26a:	0081106b          	0x81106b
     26e:	0000                	unimp
     270:	9102                	jalr	sp
     272:	007c                	addi	a5,sp,12
     274:	d711                	beqz	a4,180 <_min_stack-0x1e80>
     276:	0002                	c.slli64	zero
     278:	0100                	addi	s0,sp,128
     27a:	011e0627          	0x11e0627
     27e:	0010                	0x10
     280:	00fc                	addi	a5,sp,76
     282:	0000                	unimp
     284:	9c01                	0x9c01
     286:	4f11                	li	t5,4
     288:	0000                	unimp
     28a:	0100                	addi	s0,sp,128
     28c:	0625                	addi	a2,a2,9
     28e:	0110                	addi	a2,sp,128
     290:	0010                	0x10
     292:	000e                	c.slli	zero,0x3
     294:	0000                	unimp
     296:	9c01                	0x9c01
     298:	e40e                	fsw	ft3,8(sp)
     29a:	0002                	c.slli64	zero
     29c:	0100                	addi	s0,sp,128
     29e:	0615                	addi	a2,a2,5
     2a0:	00c6                	slli	ra,ra,0x11
     2a2:	0010                	0x10
     2a4:	004a                	c.slli	zero,0x12
     2a6:	0000                	unimp
     2a8:	9c01                	0x9c01
     2aa:	02e2                	slli	t0,t0,0x18
     2ac:	0000                	unimp
     2ae:	6812                	flw	fa6,4(sp)
     2b0:	0100                	addi	s0,sp,128
     2b2:	1615                	addi	a2,a2,-27
     2b4:	0000004f          	fnmadd.s	ft0,ft0,ft0,ft0,rne
     2b8:	9102                	jalr	sp
     2ba:	0c5c                	addi	a5,sp,532
     2bc:	0220                	addi	s0,sp,264
     2be:	0000                	unimp
     2c0:	1601                	addi	a2,a2,-32
     2c2:	00007a07          	0x7a07
     2c6:	0200                	addi	s0,sp,256
     2c8:	6891                	lui	a7,0x4
     2ca:	1000cc13          	xori	s8,ra,256
     2ce:	3c00                	fld	fs0,56(s0)
     2d0:	0000                	unimp
     2d2:	1400                	addi	s0,sp,544
     2d4:	0069                	c.nop	26
     2d6:	1901                	addi	s2,s2,-32
     2d8:	7a0c                	flw	fa1,48(a2)
     2da:	0000                	unimp
     2dc:	0200                	addi	s0,sp,256
     2de:	6c91                	lui	s9,0x4
     2e0:	0000                	unimp
     2e2:	aa15                	j	416 <_min_stack-0x1bea>
     2e4:	0002                	c.slli64	zero
     2e6:	0100                	addi	s0,sp,128
     2e8:	050d                	addi	a0,a0,3
     2ea:	007a                	c.slli	zero,0x1e
     2ec:	0000                	unimp
     2ee:	009c                	addi	a5,sp,64
     2f0:	0010                	0x10
     2f2:	002a                	c.slli	zero,0xa
     2f4:	0000                	unimp
     2f6:	9c01                	0x9c01
     2f8:	030c                	addi	a1,sp,384
     2fa:	0000                	unimp
     2fc:	7312                	flw	ft6,36(sp)
     2fe:	7274                	flw	fa3,100(a2)
     300:	0100                	addi	s0,sp,128
     302:	160d                	addi	a2,a2,-29
     304:	030c                	addi	a1,sp,384
     306:	0000                	unimp
     308:	9102                	jalr	sp
     30a:	006c                	addi	a1,sp,12
     30c:	0416                	slli	s0,s0,0x5
     30e:	0319                	addi	t1,t1,6
     310:	0000                	unimp
     312:	0102                	c.slli64	sp
     314:	6d08                	flw	fa0,24(a0)
     316:	0000                	unimp
     318:	1700                	addi	s0,sp,928
     31a:	0312                	slli	t1,t1,0x4
     31c:	0000                	unimp
     31e:	8518                	0x8518
     320:	0000                	unimp
     322:	0100                	addi	s0,sp,128
     324:	007a0507          	0x7a0507
     328:	0000                	unimp
     32a:	0084                	addi	s1,sp,64
     32c:	0010                	0x10
     32e:	0018                	0x18
     330:	0000                	unimp
     332:	9c01                	0x9c01
     334:	6312                	flw	ft6,4(sp)
     336:	0100                	addi	s0,sp,128
     338:	007a1107          	0x7a1107
     33c:	0000                	unimp
     33e:	9102                	jalr	sp
     340:	007c                	addi	a5,sp,12
     342:	c600                	sw	s0,8(a2)
     344:	0009                	c.nop	2
     346:	0400                	addi	s0,sp,512
     348:	de00                	sw	s0,56(a2)
     34a:	0001                	nop
     34c:	0400                	addi	s0,sp,512
     34e:	3301                	jal	4e <_min_stack-0x1fb2>
     350:	0002                	c.slli64	zero
     352:	0c00                	addi	s0,sp,528
     354:	04f2                	slli	s1,s1,0x1c
     356:	0000                	unimp
     358:	0192                	slli	gp,gp,0x4
     35a:	0000                	unimp
     35c:	0470                	addi	a2,sp,524
     35e:	0010                	0x10
     360:	016c                	addi	a1,sp,140
     362:	0000                	unimp
     364:	04b1                	addi	s1,s1,12
     366:	0000                	unimp
     368:	0102                	c.slli64	sp
     36a:	6606                	flw	fa2,64(sp)
     36c:	0000                	unimp
     36e:	0200                	addi	s0,sp,256
     370:	0502                	c.slli64	a0
     372:	0205                	addi	tp,tp,1
     374:	0000                	unimp
     376:	0402                	c.slli64	s0
     378:	7c05                	lui	s8,0xfffe1
     37a:	0001                	nop
     37c:	0200                	addi	s0,sp,256
     37e:	0508                	addi	a0,sp,640
     380:	00000177          	0x177
     384:	00069803          	lh	a6,0(a3) # 8000 <_stack_len>
     388:	0200                	addi	s0,sp,256
     38a:	182e                	slli	a6,a6,0x2b
     38c:	004d                	c.nop	19
     38e:	0000                	unimp
     390:	0102                	c.slli64	sp
     392:	6408                	flw	fa0,8(s0)
     394:	0000                	unimp
     396:	0200                	addi	s0,sp,256
     398:	0702                	c.slli64	a4
     39a:	0072                	c.slli	zero,0x1c
     39c:	0000                	unimp
     39e:	0402                	c.slli64	s0
     3a0:	0000c807          	flq	fa6,0(ra) # ffff5000 <_stack_start+0xffdf5000>
     3a4:	0200                	addi	s0,sp,256
     3a6:	0708                	addi	a0,sp,896
     3a8:	000000c3          	fmadd.s	ft1,ft0,ft0,ft0,rne
     3ac:	0404                	addi	s1,sp,512
     3ae:	6905                	lui	s2,0x1
     3b0:	746e                	flw	fs0,248(sp)
     3b2:	0200                	addi	s0,sp,256
     3b4:	0704                	addi	s1,sp,896
     3b6:	00cd                	addi	ra,ra,19
     3b8:	0000                	unimp
     3ba:	1002                	c.slli	zero,0x20
     3bc:	0004                	0x4
     3be:	0005                	c.nop	1
     3c0:	0500                	addi	s0,sp,640
     3c2:	04b4                	addi	a3,sp,584
     3c4:	0000                	unimp
     3c6:	17016503          	0x17016503
     3ca:	0070                	addi	a2,sp,12
     3cc:	0000                	unimp
     3ce:	00052f03          	lw	t5,0(a0) # 17000 <_stack_len+0xf000>
     3d2:	0400                	addi	s0,sp,512
     3d4:	0e2e                	slli	t3,t3,0xb
     3d6:	00000033          	add	zero,zero,zero
     3da:	00061203          	lh	tp,0(a2) # ffffb000 <_stack_start+0xffdfb000>
     3de:	0400                	addi	s0,sp,512
     3e0:	0e74                	addi	a3,sp,796
     3e2:	00000033          	add	zero,zero,zero
     3e6:	00048003          	lb	zero,0(s1) # c000 <_stack_len+0x4000>
     3ea:	0400                	addi	s0,sp,512
     3ec:	00691793          	slli	a5,s2,0x6
     3f0:	0000                	unimp
     3f2:	0406                	slli	s0,s0,0x1
     3f4:	a504                	fsd	fs1,8(a0)
     3f6:	0000d103          	lhu	sp,0(ra)
     3fa:	0700                	addi	s0,sp,896
     3fc:	04ae                	slli	s1,s1,0xb
     3fe:	0000                	unimp
     400:	a704                	fsd	fs1,8(a4)
     402:	7e0c                	flw	fa1,56(a2)
     404:	0000                	unimp
     406:	0700                	addi	s0,sp,896
     408:	0452                	slli	s0,s0,0x14
     40a:	0000                	unimp
     40c:	a804                	fsd	fs1,16(s0)
     40e:	0000d113          	srli	sp,ra,0x0
     412:	0000                	unimp
     414:	4d08                	lw	a0,24(a0)
     416:	0000                	unimp
     418:	e100                	fsw	fs0,0(a0)
     41a:	0000                	unimp
     41c:	0900                	addi	s0,sp,144
     41e:	0070                	addi	a2,sp,12
     420:	0000                	unimp
     422:	080a0003          	lb	zero,128(s4) # a10c7080 <_stack_start+0xa0ec7080>
     426:	a204                	fsd	fs1,0(a2)
     428:	0509                	addi	a0,a0,2
     42a:	0001                	nop
     42c:	0b00                	addi	s0,sp,400
     42e:	05fc                	addi	a5,sp,716
     430:	0000                	unimp
     432:	a404                	fsd	fs1,8(s0)
     434:	00006907          	0x6907
     438:	0000                	unimp
     43a:	0006040b          	0x6040b
     43e:	0400                	addi	s0,sp,512
     440:	05a9                	addi	a1,a1,10
     442:	000000af          	0xaf
     446:	0004                	0x4
     448:	00057e03          	0x57e03
     44c:	0400                	addi	s0,sp,512
     44e:	03aa                	slli	t2,t2,0xa
     450:	00e1                	addi	ra,ra,24
     452:	0000                	unimp
     454:	040c                	addi	a1,sp,512
     456:	00064e03          	lbu	t3,0(a2)
     45a:	0500                	addi	s0,sp,640
     45c:	1916                	slli	s2,s2,0x25
     45e:	0000005b          	0x5b
     462:	00054003          	lbu	zero,0(a0)
     466:	0600                	addi	s0,sp,768
     468:	0d0c                	addi	a1,sp,656
     46a:	0069                	c.nop	26
     46c:	0000                	unimp
     46e:	00041203          	lh	tp,0(s0) # fffe8000 <_stack_start+0xffde8000>
     472:	0500                	addi	s0,sp,640
     474:	011f1b23          	sh	a7,22(t5) # 9206536e <_stack_start+0x91e6536e>
     478:	0000                	unimp
     47a:	230d                	jal	99c <_min_stack-0x1664>
     47c:	0004                	0x4
     47e:	1800                	addi	s0,sp,48
     480:	3405                	jal	fffffea0 <_stack_start+0xffdffea0>
     482:	9108                	0x9108
     484:	0001                	nop
     486:	0b00                	addi	s0,sp,400
     488:	059f 0000 3605      	0x36050000059f
     48e:	00019113          	slli	sp,gp,0x0
     492:	0000                	unimp
     494:	5f0e                	lw	t5,224(sp)
     496:	3705006b          	0x3705006b
     49a:	00006907          	0x6907
     49e:	0400                	addi	s0,sp,512
     4a0:	0005e70b          	0x5e70b
     4a4:	0500                	addi	s0,sp,640
     4a6:	00690b37          	lui	s6,0x690
     4aa:	0000                	unimp
     4ac:	0b08                	addi	a0,sp,400
     4ae:	040c                	addi	a1,sp,512
     4b0:	0000                	unimp
     4b2:	3705                	jal	3d2 <_min_stack-0x1c2e>
     4b4:	6914                	flw	fa3,16(a0)
     4b6:	0000                	unimp
     4b8:	0c00                	addi	s0,sp,528
     4ba:	0006830b          	0x6830b
     4be:	0500                	addi	s0,sp,640
     4c0:	00691b37          	lui	s6,0x691
     4c4:	0000                	unimp
     4c6:	0e10                	addi	a2,sp,784
     4c8:	785f 0500 0b38      	0xb380500785f
     4ce:	00000197          	auipc	gp,0x0
     4d2:	0014                	0x14
     4d4:	0137040f          	0x137040f
     4d8:	0000                	unimp
     4da:	1308                	addi	a0,sp,416
     4dc:	0001                	nop
     4de:	a700                	fsd	fs0,8(a4)
     4e0:	0001                	nop
     4e2:	0900                	addi	s0,sp,144
     4e4:	0070                	addi	a2,sp,12
     4e6:	0000                	unimp
     4e8:	0000                	unimp
     4ea:	440d                	li	s0,3
     4ec:	0004                	0x4
     4ee:	2400                	fld	fs0,8(s0)
     4f0:	3c05                	jal	ffffff20 <_stack_start+0xffdfff20>
     4f2:	2a08                	fld	fa0,16(a2)
     4f4:	0002                	c.slli64	zero
     4f6:	0b00                	addi	s0,sp,400
     4f8:	0375                	addi	t1,t1,29
     4fa:	0000                	unimp
     4fc:	3e05                	jal	2c <_min_stack-0x1fd4>
     4fe:	6909                	lui	s2,0x2
     500:	0000                	unimp
     502:	0000                	unimp
     504:	00061a0b          	0x61a0b
     508:	0500                	addi	s0,sp,640
     50a:	0069093f 0b040000 	0xb0400000069093f
     512:	0384                	addi	s1,sp,448
     514:	0000                	unimp
     516:	4005                	c.li	zero,1
     518:	6909                	lui	s2,0x2
     51a:	0000                	unimp
     51c:	0800                	addi	s0,sp,16
     51e:	0007070b          	0x7070b
     522:	0500                	addi	s0,sp,640
     524:	0941                	addi	s2,s2,16
     526:	0069                	c.nop	26
     528:	0000                	unimp
     52a:	0b0c                	addi	a1,sp,400
     52c:	00000513          	li	a0,0
     530:	4205                	li	tp,1
     532:	6909                	lui	s2,0x2
     534:	0000                	unimp
     536:	1000                	addi	s0,sp,32
     538:	0004d70b          	0x4d70b
     53c:	0500                	addi	s0,sp,640
     53e:	00690943          	fmadd.s	fs2,fs2,ft6,ft0,rne
     542:	0000                	unimp
     544:	0b14                	addi	a3,sp,400
     546:	0688                	addi	a0,sp,832
     548:	0000                	unimp
     54a:	4405                	li	s0,1
     54c:	6909                	lui	s2,0x2
     54e:	0000                	unimp
     550:	1800                	addi	s0,sp,48
     552:	0005600b          	0x5600b
     556:	0500                	addi	s0,sp,640
     558:	0945                	addi	s2,s2,17
     55a:	0069                	c.nop	26
     55c:	0000                	unimp
     55e:	0b1c                	addi	a5,sp,400
     560:	06c9                	addi	a3,a3,18
     562:	0000                	unimp
     564:	4605                	li	a2,1
     566:	6909                	lui	s2,0x2
     568:	0000                	unimp
     56a:	2000                	fld	fs0,0(s0)
     56c:	1000                	addi	s0,sp,32
     56e:	00000393          	li	t2,0
     572:	0108                	addi	a0,sp,128
     574:	4f05                	li	t5,1
     576:	6f08                	flw	fa0,24(a4)
     578:	0002                	c.slli64	zero
     57a:	0b00                	addi	s0,sp,400
     57c:	03ff                	0x3ff
     57e:	0000                	unimp
     580:	5005                	c.li	zero,-31
     582:	6f0a                	flw	ft10,128(sp)
     584:	0002                	c.slli64	zero
     586:	0000                	unimp
     588:	0002eb0b          	0x2eb0b
     58c:	0500                	addi	s0,sp,640
     58e:	0951                	addi	s2,s2,20
     590:	0000026f          	jal	tp,590 <_min_stack-0x1a70>
     594:	1180                	addi	s0,sp,224
     596:	0640                	addi	s0,sp,772
     598:	0000                	unimp
     59a:	5305                	li	t1,-31
     59c:	130a                	slli	t1,t1,0x22
     59e:	0001                	nop
     5a0:	0000                	unimp
     5a2:	1101                	addi	sp,sp,-32
     5a4:	03b8                	addi	a4,sp,456
     5a6:	0000                	unimp
     5a8:	5605                	li	a2,-31
     5aa:	130a                	slli	t1,t1,0x22
     5ac:	0001                	nop
     5ae:	0400                	addi	s0,sp,512
     5b0:	0001                	nop
     5b2:	1108                	addi	a0,sp,160
     5b4:	0001                	nop
     5b6:	7f00                	flw	fs0,56(a4)
     5b8:	0002                	c.slli64	zero
     5ba:	0900                	addi	s0,sp,144
     5bc:	0070                	addi	a2,sp,12
     5be:	0000                	unimp
     5c0:	001f 1c10 0005      	0x51c10001f
     5c6:	9000                	0x9000
     5c8:	0501                	addi	a0,a0,0
     5ca:	0862                	slli	a6,a6,0x18
     5cc:	02c2                	slli	t0,t0,0x10
     5ce:	0000                	unimp
     5d0:	00059f0b          	0x59f0b
     5d4:	0500                	addi	s0,sp,640
     5d6:	02c21263          	bne	tp,a2,5fa <_min_stack-0x1a06>
     5da:	0000                	unimp
     5dc:	0b00                	addi	s0,sp,400
     5de:	000005b7          	lui	a1,0x0
     5e2:	6405                	lui	s0,0x1
     5e4:	6906                	flw	fs2,64(sp)
     5e6:	0000                	unimp
     5e8:	0400                	addi	s0,sp,512
     5ea:	0004070b          	0x4070b
     5ee:	0500                	addi	s0,sp,640
     5f0:	0966                	slli	s2,s2,0x19
     5f2:	02c8                	addi	a0,sp,324
     5f4:	0000                	unimp
     5f6:	0b08                	addi	a0,sp,400
     5f8:	00000393          	li	t2,0
     5fc:	6705                	lui	a4,0x1
     5fe:	2a1e                	fld	fs4,448(sp)
     600:	0002                	c.slli64	zero
     602:	8800                	0x8800
     604:	0f00                	addi	s0,sp,912
     606:	7f04                	flw	fs1,56(a4)
     608:	0002                	c.slli64	zero
     60a:	0800                	addi	s0,sp,16
     60c:	02d8                	addi	a4,sp,324
     60e:	0000                	unimp
     610:	02d8                	addi	a4,sp,324
     612:	0000                	unimp
     614:	7009                	c.lui	zero,0xfffe2
     616:	0000                	unimp
     618:	1f00                	addi	s0,sp,944
     61a:	0f00                	addi	s0,sp,912
     61c:	de04                	sw	s1,56(a2)
     61e:	0002                	c.slli64	zero
     620:	1200                	addi	s0,sp,288
     622:	6a0d                	lui	s4,0x3
     624:	0005                	c.nop	1
     626:	0800                	addi	s0,sp,16
     628:	7a05                	lui	s4,0xfffe1
     62a:	0708                	addi	a0,sp,896
     62c:	0b000003          	lb	zero,176(zero) # b0 <_min_stack-0x1f50>
     630:	00bd                	addi	ra,ra,15
     632:	0000                	unimp
     634:	7b05                	lui	s6,0xfffe1
     636:	0711                	addi	a4,a4,4
     638:	00000003          	lb	zero,0(zero) # 0 <_min_stack-0x2000>
     63c:	0002f70b          	0x2f70b
     640:	0500                	addi	s0,sp,640
     642:	067c                	addi	a5,sp,780
     644:	0069                	c.nop	26
     646:	0000                	unimp
     648:	0004                	0x4
     64a:	004d040f          	0x4d040f
     64e:	0000                	unimp
     650:	890d                	andi	a0,a0,3
     652:	0005                	c.nop	1
     654:	6800                	flw	fs0,16(s0)
     656:	ba05                	j	ffffff86 <_stack_start+0xffdfff86>
     658:	5008                	lw	a0,32(s0)
     65a:	0004                	0x4
     65c:	0e00                	addi	s0,sp,784
     65e:	705f 0500 12bb      	0x12bb0500705f
     664:	00000307          	0x307
     668:	0e00                	addi	s0,sp,784
     66a:	725f 0500 07bc      	0x7bc0500725f
     670:	0069                	c.nop	26
     672:	0000                	unimp
     674:	0e04                	addi	s1,sp,784
     676:	775f 0500 07bd      	0x7bd0500775f
     67c:	0069                	c.nop	26
     67e:	0000                	unimp
     680:	0b08                	addi	a0,sp,400
     682:	03b1                	addi	t2,t2,12
     684:	0000                	unimp
     686:	be05                	j	1b6 <_min_stack-0x1e4a>
     688:	2c09                	jal	89a <_min_stack-0x1766>
     68a:	0000                	unimp
     68c:	0c00                	addi	s0,sp,528
     68e:	00047a0b          	0x47a0b
     692:	0500                	addi	s0,sp,640
     694:	002c09bf 0e0e0000 	0xe0e0000002c09bf
     69c:	625f 0066 c005      	0xc0050066625f
     6a2:	df11                	beqz	a4,5be <_min_stack-0x1a42>
     6a4:	0002                	c.slli64	zero
     6a6:	1000                	addi	s0,sp,32
     6a8:	0003440b          	0x3440b
     6ac:	0500                	addi	s0,sp,640
     6ae:	07c1                	addi	a5,a5,16
     6b0:	0069                	c.nop	26
     6b2:	0000                	unimp
     6b4:	0b18                	addi	a4,sp,400
     6b6:	03a1                	addi	t2,t2,8
     6b8:	0000                	unimp
     6ba:	c805                	beqz	s0,6ea <_min_stack-0x1916>
     6bc:	110a                	slli	sp,sp,0x22
     6be:	0001                	nop
     6c0:	1c00                	addi	s0,sp,560
     6c2:	0001f60b          	0x1f60b
     6c6:	0500                	addi	s0,sp,640
     6c8:	1dca                	slli	s11,s11,0x32
     6ca:	05d4                	addi	a3,sp,708
     6cc:	0000                	unimp
     6ce:	0b20                	addi	s0,sp,408
     6d0:	04d0                	addi	a2,sp,580
     6d2:	0000                	unimp
     6d4:	cc05                	beqz	s0,70c <_min_stack-0x18f4>
     6d6:	fe1d                	bnez	a2,614 <_min_stack-0x19ec>
     6d8:	0005                	c.nop	1
     6da:	2400                	fld	fs0,8(s0)
     6dc:	00060c0b          	0x60c0b
     6e0:	0500                	addi	s0,sp,640
     6e2:	06220dcf          	fnmadd.q	fs11,ft4,ft2,ft0,rne
     6e6:	0000                	unimp
     6e8:	0b28                	addi	a0,sp,408
     6ea:	000006e3          	beqz	zero,ef6 <_min_stack-0x110a>
     6ee:	d005                	beqz	s0,60e <_min_stack-0x19f2>
     6f0:	3c09                	jal	102 <_min_stack-0x1efe>
     6f2:	0006                	c.slli	zero,0x1
     6f4:	2c00                	fld	fs0,24(s0)
     6f6:	5f0e                	lw	t5,224(sp)
     6f8:	6275                	lui	tp,0x1d
     6fa:	0500                	addi	s0,sp,640
     6fc:	02df11d3          	fadd.d	ft3,ft10,fa3,rtz
     700:	0000                	unimp
     702:	0e30                	addi	a2,sp,792
     704:	755f 0070 d405      	0xd4050070755f
     70a:	0712                	slli	a4,a4,0x4
     70c:	38000003          	lb	zero,896(zero) # 380 <_min_stack-0x1c80>
     710:	5f0e                	lw	t5,224(sp)
     712:	7275                	lui	tp,0xffffd
     714:	0500                	addi	s0,sp,640
     716:	07d5                	addi	a5,a5,21
     718:	0069                	c.nop	26
     71a:	0000                	unimp
     71c:	0b3c                	addi	a5,sp,408
     71e:	037e                	slli	t1,t1,0x1f
     720:	0000                	unimp
     722:	d805                	beqz	s0,652 <_min_stack-0x19ae>
     724:	4211                	li	tp,4
     726:	0006                	c.slli	zero,0x1
     728:	4000                	lw	s0,0(s0)
     72a:	0006bb0b          	0x6bb0b
     72e:	0500                	addi	s0,sp,640
     730:	11d9                	addi	gp,gp,-10
     732:	0652                	slli	a2,a2,0x14
     734:	0000                	unimp
     736:	6c5f0e43          	0x6c5f0e43
     73a:	0062                	c.slli	zero,0x18
     73c:	dc05                	beqz	s0,674 <_min_stack-0x198c>
     73e:	df11                	beqz	a4,65a <_min_stack-0x19a6>
     740:	0002                	c.slli64	zero
     742:	4400                	lw	s0,8(s0)
     744:	0003c70b          	0x3c70b
     748:	0500                	addi	s0,sp,640
     74a:	07df 0069 0000      	0x6907df
     750:	0b4c                	addi	a1,sp,404
     752:	03d8                	addi	a4,sp,452
     754:	0000                	unimp
     756:	e005                	bnez	s0,776 <_min_stack-0x188a>
     758:	8b0a                	mv	s6,sp
     75a:	0000                	unimp
     75c:	5000                	lw	s0,32(s0)
     75e:	00031b0b          	0x31b0b
     762:	0500                	addi	s0,sp,640
     764:	046e12e3          	bne	t3,t1,fa8 <_min_stack-0x1058>
     768:	0000                	unimp
     76a:	0b54                	addi	a3,sp,404
     76c:	000004bb          	0x4bb
     770:	e705                	bnez	a4,798 <_min_stack-0x1868>
     772:	2b0c                	fld	fa1,16(a4)
     774:	0001                	nop
     776:	5800                	lw	s0,48(s0)
     778:	0005910b          	0x5910b
     77c:	0500                	addi	s0,sp,640
     77e:	0ee9                	addi	t4,t4,26
     780:	0105                	addi	sp,sp,1
     782:	0000                	unimp
     784:	0b5c                	addi	a5,sp,404
     786:	04c1                	addi	s1,s1,16
     788:	0000                	unimp
     78a:	ea05                	bnez	a2,7ba <_min_stack-0x1846>
     78c:	6909                	lui	s2,0x2
     78e:	0000                	unimp
     790:	6400                	flw	fs0,8(s0)
     792:	1300                	addi	s0,sp,416
     794:	000000a3          	sb	zero,1(zero) # 1 <_min_stack-0x1fff>
     798:	046e                	slli	s0,s0,0x1b
     79a:	0000                	unimp
     79c:	6e14                	flw	fa3,24(a2)
     79e:	0004                	0x4
     7a0:	1400                	addi	s0,sp,544
     7a2:	0111                	addi	sp,sp,4
     7a4:	0000                	unimp
     7a6:	c214                	sw	a3,0(a2)
     7a8:	0005                	c.nop	1
     7aa:	1400                	addi	s0,sp,544
     7ac:	0069                	c.nop	26
     7ae:	0000                	unimp
     7b0:	0f00                	addi	s0,sp,912
     7b2:	7904                	flw	fs1,48(a0)
     7b4:	0004                	0x4
     7b6:	1500                	addi	s0,sp,672
     7b8:	046e                	slli	s0,s0,0x1b
     7ba:	0000                	unimp
     7bc:	ef16                	fsw	ft5,156(sp)
     7be:	0005                	c.nop	1
     7c0:	2800                	fld	fs0,16(s0)
     7c2:	0504                	addi	s1,sp,640
     7c4:	0265                	addi	tp,tp,25
     7c6:	c208                	sw	a0,0(a2)
     7c8:	0005                	c.nop	1
     7ca:	1700                	addi	s0,sp,928
     7cc:	0559                	addi	a0,a0,22
     7ce:	0000                	unimp
     7d0:	6705                	lui	a4,0x1
     7d2:	0702                	c.slli64	a4
     7d4:	0069                	c.nop	26
     7d6:	0000                	unimp
     7d8:	1700                	addi	s0,sp,928
     7da:	03c0                	addi	s0,sp,452
     7dc:	0000                	unimp
     7de:	6c05                	lui	s8,0x1
     7e0:	0b02                	c.slli64	s6
     7e2:	06ae                	slli	a3,a3,0xb
     7e4:	0000                	unimp
     7e6:	1704                	addi	s1,sp,928
     7e8:	046a                	slli	s0,s0,0x1a
     7ea:	0000                	unimp
     7ec:	6c05                	lui	s8,0x1
     7ee:	1402                	slli	s0,s0,0x20
     7f0:	06ae                	slli	a3,a3,0xb
     7f2:	0000                	unimp
     7f4:	1708                	addi	a0,sp,928
     7f6:	0000041b          	0x41b
     7fa:	6c05                	lui	s8,0x1
     7fc:	1e02                	slli	t3,t3,0x20
     7fe:	06ae                	slli	a3,a3,0xb
     800:	0000                	unimp
     802:	170c                	addi	a1,sp,928
     804:	05b2                	slli	a1,a1,0xc
     806:	0000                	unimp
     808:	6e05                	lui	t3,0x1
     80a:	0802                	c.slli64	a6
     80c:	0069                	c.nop	26
     80e:	0000                	unimp
     810:	1710                	addi	a2,sp,928
     812:	0310                	addi	a2,sp,384
     814:	0000                	unimp
     816:	6f05                	lui	t5,0x1
     818:	0802                	c.slli64	a6
     81a:	08ae                	slli	a7,a7,0xb
     81c:	0000                	unimp
     81e:	1714                	addi	a3,sp,928
     820:	05ce                	slli	a1,a1,0x13
     822:	0000                	unimp
     824:	7205                	lui	tp,0xfffe1
     826:	0702                	c.slli64	a4
     828:	0069                	c.nop	26
     82a:	0000                	unimp
     82c:	1730                	addi	a2,sp,936
     82e:	05bc                	addi	a5,sp,712
     830:	0000                	unimp
     832:	7305                	lui	t1,0xfffe1
     834:	1602                	slli	a2,a2,0x20
     836:	000008c3          	fmadd.s	fa7,ft0,ft0,ft0,rne
     83a:	1734                	addi	a3,sp,936
     83c:	0524                	addi	s1,sp,648
     83e:	0000                	unimp
     840:	7505                	lui	a0,0xfffe1
     842:	0702                	c.slli64	a4
     844:	0069                	c.nop	26
     846:	0000                	unimp
     848:	1738                	addi	a4,sp,936
     84a:	05c4                	addi	s1,sp,708
     84c:	0000                	unimp
     84e:	7705                	lui	a4,0xfffe1
     850:	0a02                	c.slli64	s4
     852:	08d4                	addi	a3,sp,84
     854:	0000                	unimp
     856:	173c                	addi	a5,sp,936
     858:	04a6                	slli	s1,s1,0x9
     85a:	0000                	unimp
     85c:	7a05                	lui	s4,0xfffe1
     85e:	1302                	slli	t1,t1,0x20
     860:	0191                	addi	gp,gp,4
     862:	0000                	unimp
     864:	1740                	addi	s0,sp,932
     866:	043a                	slli	s0,s0,0xe
     868:	0000                	unimp
     86a:	7b05                	lui	s6,0xfffe1
     86c:	0702                	c.slli64	a4
     86e:	0069                	c.nop	26
     870:	0000                	unimp
     872:	1744                	addi	s1,sp,932
     874:	06fd                	addi	a3,a3,31
     876:	0000                	unimp
     878:	7c05                	lui	s8,0xfffe1
     87a:	1302                	slli	t1,t1,0x20
     87c:	0191                	addi	gp,gp,4
     87e:	0000                	unimp
     880:	1748                	addi	a0,sp,932
     882:	0536                	slli	a0,a0,0xd
     884:	0000                	unimp
     886:	7d05                	lui	s10,0xfffe1
     888:	1402                	slli	s0,s0,0x20
     88a:	08da                	slli	a7,a7,0x16
     88c:	0000                	unimp
     88e:	174c                	addi	a1,sp,932
     890:	0472                	slli	s0,s0,0x1c
     892:	0000                	unimp
     894:	8005                	srli	s0,s0,0x1
     896:	0702                	c.slli64	a4
     898:	0069                	c.nop	26
     89a:	0000                	unimp
     89c:	1750                	addi	a2,sp,932
     89e:	03d0                	addi	a2,sp,452
     8a0:	0000                	unimp
     8a2:	8105                	srli	a0,a0,0x1
     8a4:	0902                	c.slli64	s2
     8a6:	05c2                	slli	a1,a1,0x10
     8a8:	0000                	unimp
     8aa:	1754                	addi	a3,sp,932
     8ac:	0552                	slli	a0,a0,0x14
     8ae:	0000                	unimp
     8b0:	a405                	j	ad0 <_min_stack-0x1530>
     8b2:	0702                	c.slli64	a4
     8b4:	0889                	addi	a7,a7,2
     8b6:	0000                	unimp
     8b8:	1858                	addi	a4,sp,52
     8ba:	051c                	addi	a5,sp,640
     8bc:	0000                	unimp
     8be:	a805                	j	8ee <_min_stack-0x1712>
     8c0:	1302                	slli	t1,t1,0x20
     8c2:	02c2                	slli	t0,t0,0x10
     8c4:	0000                	unimp
     8c6:	0148                	addi	a0,sp,132
     8c8:	9018                	0x9018
     8ca:	0004                	0x4
     8cc:	0500                	addi	s0,sp,640
     8ce:	02a9                	addi	t0,t0,10
     8d0:	7f12                	flw	ft10,36(sp)
     8d2:	0002                	c.slli64	zero
     8d4:	4c00                	lw	s0,24(s0)
     8d6:	1801                	addi	a6,a6,-32
     8d8:	06aa                	slli	a3,a3,0xa
     8da:	0000                	unimp
     8dc:	ad05                	j	f0c <_min_stack-0x10f4>
     8de:	0c02                	c.slli64	s8
     8e0:	000008eb          	0x8eb
     8e4:	02dc                	addi	a5,sp,324
     8e6:	a918                	fsd	fa4,16(a0)
     8e8:	05000003          	lb	zero,80(zero) # 50 <_min_stack-0x1fb0>
     8ec:	02b2                	slli	t0,t0,0xc
     8ee:	6f10                	flw	fa2,24(a4)
     8f0:	0006                	c.slli	zero,0x1
     8f2:	e000                	fsw	fs0,0(s0)
     8f4:	1802                	slli	a6,a6,0x20
     8f6:	038e                	slli	t2,t2,0x3
     8f8:	0000                	unimp
     8fa:	b405                	j	31a <_min_stack-0x1ce6>
     8fc:	0a02                	c.slli64	s4
     8fe:	000008f7          	0x8f7
     902:	02ec                	addi	a1,sp,332
     904:	0f00                	addi	s0,sp,912
     906:	c804                	sw	s1,16(s0)
     908:	0005                	c.nop	1
     90a:	0200                	addi	s0,sp,256
     90c:	0801                	addi	a6,a6,0
     90e:	006d                	c.nop	27
     910:	0000                	unimp
     912:	c815                	beqz	s0,946 <_min_stack-0x16ba>
     914:	0005                	c.nop	1
     916:	0f00                	addi	s0,sp,912
     918:	5004                	lw	s1,32(s0)
     91a:	0004                	0x4
     91c:	1300                	addi	s0,sp,416
     91e:	000000a3          	sb	zero,1(zero) # 1 <_min_stack-0x1fff>
     922:	05f8                	addi	a4,sp,716
     924:	0000                	unimp
     926:	6e14                	flw	fa3,24(a2)
     928:	0004                	0x4
     92a:	1400                	addi	s0,sp,544
     92c:	0111                	addi	sp,sp,4
     92e:	0000                	unimp
     930:	f814                	fsw	fa3,48(s0)
     932:	0005                	c.nop	1
     934:	1400                	addi	s0,sp,544
     936:	0069                	c.nop	26
     938:	0000                	unimp
     93a:	0f00                	addi	s0,sp,912
     93c:	cf04                	sw	s1,24(a4)
     93e:	0005                	c.nop	1
     940:	0f00                	addi	s0,sp,912
     942:	da04                	sw	s1,48(a2)
     944:	0005                	c.nop	1
     946:	1300                	addi	s0,sp,416
     948:	00000097          	auipc	ra,0x0
     94c:	0622                	slli	a2,a2,0x8
     94e:	0000                	unimp
     950:	6e14                	flw	fa3,24(a2)
     952:	0004                	0x4
     954:	1400                	addi	s0,sp,544
     956:	0111                	addi	sp,sp,4
     958:	0000                	unimp
     95a:	9714                	0x9714
     95c:	0000                	unimp
     95e:	1400                	addi	s0,sp,544
     960:	0069                	c.nop	26
     962:	0000                	unimp
     964:	0f00                	addi	s0,sp,912
     966:	0404                	addi	s1,sp,512
     968:	0006                	c.slli	zero,0x1
     96a:	1300                	addi	s0,sp,416
     96c:	0069                	c.nop	26
     96e:	0000                	unimp
     970:	063c                	addi	a5,sp,776
     972:	0000                	unimp
     974:	6e14                	flw	fa3,24(a2)
     976:	0004                	0x4
     978:	1400                	addi	s0,sp,544
     97a:	0111                	addi	sp,sp,4
     97c:	0000                	unimp
     97e:	0f00                	addi	s0,sp,912
     980:	2804                	fld	fs1,16(s0)
     982:	0006                	c.slli	zero,0x1
     984:	0800                	addi	s0,sp,16
     986:	004d                	c.nop	19
     988:	0000                	unimp
     98a:	0652                	slli	a2,a2,0x14
     98c:	0000                	unimp
     98e:	7009                	c.lui	zero,0xfffe2
     990:	0000                	unimp
     992:	0200                	addi	s0,sp,256
     994:	0800                	addi	s0,sp,16
     996:	004d                	c.nop	19
     998:	0000                	unimp
     99a:	0662                	slli	a2,a2,0x18
     99c:	0000                	unimp
     99e:	7009                	c.lui	zero,0xfffe2
     9a0:	0000                	unimp
     9a2:	0000                	unimp
     9a4:	0500                	addi	s0,sp,640
     9a6:	00000577          	0x577
     9aa:	2405                	jal	bca <_min_stack-0x1436>
     9ac:	1a01                	addi	s4,s4,-32
     9ae:	030d                	addi	t1,t1,3
     9b0:	0000                	unimp
     9b2:	9219                	srli	a2,a2,0x26
     9b4:	0006                	c.slli	zero,0x1
     9b6:	0c00                	addi	s0,sp,528
     9b8:	2805                	jal	9e8 <_min_stack-0x1618>
     9ba:	0801                	addi	a6,a6,0
     9bc:	06a8                	addi	a0,sp,840
     9be:	0000                	unimp
     9c0:	00059f17          	auipc	t5,0x59
     9c4:	0500                	addi	s0,sp,640
     9c6:	012a                	slli	sp,sp,0xa
     9c8:	a811                	j	9dc <_min_stack-0x1624>
     9ca:	0006                	c.slli	zero,0x1
     9cc:	0000                	unimp
     9ce:	00048917          	auipc	s2,0x48
     9d2:	0500                	addi	s0,sp,640
     9d4:	6907012b          	0x6907012b
     9d8:	0000                	unimp
     9da:	0400                	addi	s0,sp,512
     9dc:	00057117          	auipc	sp,0x57
     9e0:	0500                	addi	s0,sp,640
     9e2:	012c                	addi	a1,sp,136
     9e4:	0006ae0b          	0x6ae0b
     9e8:	0800                	addi	s0,sp,16
     9ea:	0f00                	addi	s0,sp,912
     9ec:	6f04                	flw	fs1,24(a4)
     9ee:	0006                	c.slli	zero,0x1
     9f0:	0f00                	addi	s0,sp,912
     9f2:	6204                	flw	fs1,0(a2)
     9f4:	0006                	c.slli	zero,0x1
     9f6:	1900                	addi	s0,sp,176
     9f8:	02fd                	addi	t0,t0,31
     9fa:	0000                	unimp
     9fc:	050e                	slli	a0,a0,0x3
     9fe:	0144                	addi	s1,sp,132
     a00:	ed08                	fsw	fa0,24(a0)
     a02:	0006                	c.slli	zero,0x1
     a04:	1700                	addi	s0,sp,928
     a06:	05f6                	slli	a1,a1,0x1d
     a08:	0000                	unimp
     a0a:	4505                	li	a0,1
     a0c:	1201                	addi	tp,tp,-32
     a0e:	06ed                	addi	a3,a3,27
     a10:	0000                	unimp
     a12:	1700                	addi	s0,sp,928
     a14:	062d                	addi	a2,a2,11
     a16:	0000                	unimp
     a18:	4605                	li	a2,1
     a1a:	1201                	addi	tp,tp,-32
     a1c:	06ed                	addi	a3,a3,27
     a1e:	0000                	unimp
     a20:	1706                	slli	a4,a4,0x21
     a22:	0649                	addi	a2,a2,18
     a24:	0000                	unimp
     a26:	4705                	li	a4,1
     a28:	1201                	addi	tp,tp,-32
     a2a:	0054                	addi	a3,sp,4
     a2c:	0000                	unimp
     a2e:	000c                	0xc
     a30:	5408                	lw	a0,40(s0)
     a32:	0000                	unimp
     a34:	fd00                	fsw	fs0,56(a0)
     a36:	0006                	c.slli	zero,0x1
     a38:	0900                	addi	s0,sp,144
     a3a:	0070                	addi	a2,sp,12
     a3c:	0000                	unimp
     a3e:	0002                	c.slli64	zero
     a40:	d01a                	sw	t1,32(sp)
     a42:	8505                	srai	a0,a0,0x1
     a44:	0702                	c.slli64	a4
     a46:	0812                	slli	a6,a6,0x4
     a48:	0000                	unimp
     a4a:	00067617          	auipc	a2,0x67
     a4e:	0500                	addi	s0,sp,640
     a50:	70180287          	0x70180287
     a54:	0000                	unimp
     a56:	0000                	unimp
     a58:	00063317          	auipc	t1,0x63
     a5c:	0500                	addi	s0,sp,640
     a5e:	0288                	addi	a0,sp,320
     a60:	c212                	sw	tp,4(sp)
     a62:	0005                	c.nop	1
     a64:	0400                	addi	s0,sp,512
     a66:	00049917          	auipc	s2,0x49
     a6a:	0500                	addi	s0,sp,640
     a6c:	0289                	addi	t0,t0,2
     a6e:	1210                	addi	a2,sp,288
     a70:	0008                	0x8
     a72:	0800                	addi	s0,sp,16
     a74:	0006d417          	auipc	s0,0x6d
     a78:	0500                	addi	s0,sp,640
     a7a:	028a                	slli	t0,t0,0x2
     a7c:	0001a717          	auipc	a4,0x1a
     a80:	2400                	fld	fs0,8(s0)
     a82:	00042b17          	auipc	s6,0x42
     a86:	0500                	addi	s0,sp,640
     a88:	690f028b          	0x690f028b
     a8c:	0000                	unimp
     a8e:	4800                	lw	s0,16(s0)
     a90:	00059a17          	auipc	s4,0x59
     a94:	0500                	addi	s0,sp,640
     a96:	028c                	addi	a1,sp,320
     a98:	622c                	flw	fa1,64(a2)
     a9a:	0000                	unimp
     a9c:	5000                	lw	s0,32(s0)
     a9e:	0006ea17          	auipc	s4,0x6e
     aa2:	0500                	addi	s0,sp,640
     aa4:	028d                	addi	t0,t0,3
     aa6:	b41a                	fsd	ft6,40(sp)
     aa8:	0006                	c.slli	zero,0x1
     aaa:	5800                	lw	s0,48(s0)
     aac:	0005a517          	auipc	a0,0x5a
     ab0:	0500                	addi	s0,sp,640
     ab2:	028e                	slli	t0,t0,0x3
     ab4:	0516                	slli	a0,a0,0x5
     ab6:	0001                	nop
     ab8:	6800                	flw	fs0,16(s0)
     aba:	0006ef17          	auipc	t5,0x6e
     abe:	0500                	addi	s0,sp,640
     ac0:	0516028f          	0x516028f
     ac4:	0001                	nop
     ac6:	7000                	flw	fs0,32(s0)
     ac8:	00036717          	auipc	a4,0x36
     acc:	0500                	addi	s0,sp,640
     ace:	0290                	addi	a2,sp,320
     ad0:	0516                	slli	a0,a0,0x5
     ad2:	0001                	nop
     ad4:	7800                	flw	fs0,48(s0)
     ad6:	0006a017          	auipc	zero,0x6a
     ada:	0500                	addi	s0,sp,640
     adc:	0291                	addi	t0,t0,4
     ade:	2210                	fld	fa2,0(a2)
     ae0:	0008                	0x8
     ae2:	8000                	0x8000
     ae4:	00033017          	auipc	zero,0x33
     ae8:	0500                	addi	s0,sp,640
     aea:	0292                	slli	t0,t0,0x4
     aec:	3210                	fld	fa2,32(a2)
     aee:	0008                	0x8
     af0:	8800                	0x8800
     af2:	00065617          	auipc	a2,0x65
     af6:	0500                	addi	s0,sp,640
     af8:	690f0293          	addi	t0,t5,1680 # 6f14a <_stack_len+0x6714a>
     afc:	0000                	unimp
     afe:	a000                	fsd	fs0,0(s0)
     b00:	0003f117          	auipc	sp,0x3f
     b04:	0500                	addi	s0,sp,640
     b06:	0294                	addi	a3,sp,320
     b08:	0516                	slli	a0,a0,0x5
     b0a:	0001                	nop
     b0c:	a400                	fsd	fs0,8(s0)
     b0e:	00035817          	auipc	a6,0x35
     b12:	0500                	addi	s0,sp,640
     b14:	0295                	addi	t0,t0,5
     b16:	0516                	slli	a0,a0,0x5
     b18:	0001                	nop
     b1a:	ac00                	fsd	fs0,24(s0)
     b1c:	0003e017          	auipc	zero,0x3e
     b20:	0500                	addi	s0,sp,640
     b22:	0296                	slli	t0,t0,0x5
     b24:	0516                	slli	a0,a0,0x5
     b26:	0001                	nop
     b28:	b400                	fsd	fs0,40(s0)
     b2a:	00032117          	auipc	sp,0x32
     b2e:	0500                	addi	s0,sp,640
     b30:	05160297          	auipc	t0,0x5160
     b34:	0001                	nop
     b36:	bc00                	fsd	fs0,56(s0)
     b38:	00045917          	auipc	s2,0x45
     b3c:	0500                	addi	s0,sp,640
     b3e:	0298                	addi	a4,sp,320
     b40:	0516                	slli	a0,a0,0x5
     b42:	0001                	nop
     b44:	c400                	sw	s0,8(s0)
     b46:	00055717          	auipc	a4,0x55
     b4a:	0500                	addi	s0,sp,640
     b4c:	0299                	addi	t0,t0,6
     b4e:	6908                	flw	fa0,16(a0)
     b50:	0000                	unimp
     b52:	cc00                	sw	s0,24(s0)
     b54:	0800                	addi	s0,sp,16
     b56:	05c8                	addi	a0,sp,708
     b58:	0000                	unimp
     b5a:	0822                	slli	a6,a6,0x8
     b5c:	0000                	unimp
     b5e:	7009                	c.lui	zero,0xfffe2
     b60:	0000                	unimp
     b62:	1900                	addi	s0,sp,176
     b64:	0800                	addi	s0,sp,16
     b66:	05c8                	addi	a0,sp,708
     b68:	0000                	unimp
     b6a:	0832                	slli	a6,a6,0xc
     b6c:	0000                	unimp
     b6e:	7009                	c.lui	zero,0xfffe2
     b70:	0000                	unimp
     b72:	0700                	addi	s0,sp,896
     b74:	0800                	addi	s0,sp,16
     b76:	05c8                	addi	a0,sp,708
     b78:	0000                	unimp
     b7a:	0842                	slli	a6,a6,0x10
     b7c:	0000                	unimp
     b7e:	7009                	c.lui	zero,0xfffe2
     b80:	0000                	unimp
     b82:	1700                	addi	s0,sp,928
     b84:	1a00                	addi	s0,sp,304
     b86:	05f0                	addi	a2,sp,716
     b88:	029e                	slli	t0,t0,0x7
     b8a:	00086907          	0x86907
     b8e:	1700                	addi	s0,sp,928
     b90:	050c                	addi	a1,sp,640
     b92:	0000                	unimp
     b94:	a105                	j	fb4 <_min_stack-0x104c>
     b96:	1b02                	slli	s6,s6,0x20
     b98:	0869                	addi	a6,a6,26
     b9a:	0000                	unimp
     b9c:	1700                	addi	s0,sp,928
     b9e:	04e9                	addi	s1,s1,26
     ba0:	0000                	unimp
     ba2:	a205                	j	cc2 <_min_stack-0x133e>
     ba4:	1802                	slli	a6,a6,0x20
     ba6:	0879                	addi	a6,a6,30
     ba8:	0000                	unimp
     baa:	0078                	addi	a4,sp,12
     bac:	0708                	addi	a0,sp,896
     bae:	79000003          	lb	zero,1936(zero) # 790 <_min_stack-0x1870>
     bb2:	0008                	0x8
     bb4:	0900                	addi	s0,sp,144
     bb6:	0070                	addi	a2,sp,12
     bb8:	0000                	unimp
     bba:	001d                	c.nop	7
     bbc:	7008                	flw	fa0,32(s0)
     bbe:	0000                	unimp
     bc0:	8900                	0x8900
     bc2:	0008                	0x8
     bc4:	0900                	addi	s0,sp,144
     bc6:	0070                	addi	a2,sp,12
     bc8:	0000                	unimp
     bca:	001d                	c.nop	7
     bcc:	8305f01b          	0x8305f01b
     bd0:	0302                	c.slli64	t1
     bd2:	08ae                	slli	a7,a7,0xb
     bd4:	0000                	unimp
     bd6:	ef1c                	fsw	fa5,24(a4)
     bd8:	0005                	c.nop	1
     bda:	0500                	addi	s0,sp,640
     bdc:	029a                	slli	t0,t0,0x6
     bde:	0006fd0b          	0x6fd0b
     be2:	1c00                	addi	s0,sp,560
     be4:	06c1                	addi	a3,a3,16
     be6:	0000                	unimp
     be8:	a305                	j	1108 <_min_stack-0xef8>
     bea:	0b02                	c.slli64	s6
     bec:	0842                	slli	a6,a6,0x10
     bee:	0000                	unimp
     bf0:	0800                	addi	s0,sp,16
     bf2:	05c8                	addi	a0,sp,708
     bf4:	0000                	unimp
     bf6:	08be                	slli	a7,a7,0xf
     bf8:	0000                	unimp
     bfa:	7009                	c.lui	zero,0xfffe2
     bfc:	0000                	unimp
     bfe:	1800                	addi	s0,sp,48
     c00:	1d00                	addi	s0,sp,688
     c02:	034d                	addi	t1,t1,19
     c04:	0000                	unimp
     c06:	08be040f          	0x8be040f
     c0a:	0000                	unimp
     c0c:	d41e                	sw	t2,40(sp)
     c0e:	0008                	0x8
     c10:	1400                	addi	s0,sp,544
     c12:	046e                	slli	s0,s0,0x1b
     c14:	0000                	unimp
     c16:	0f00                	addi	s0,sp,912
     c18:	c904                	sw	s1,16(a0)
     c1a:	0008                	0x8
     c1c:	0f00                	addi	s0,sp,912
     c1e:	9104                	0x9104
     c20:	0001                	nop
     c22:	1e00                	addi	s0,sp,816
     c24:	000008eb          	0x8eb
     c28:	6914                	flw	fa3,16(a0)
     c2a:	0000                	unimp
     c2c:	0000                	unimp
     c2e:	08f1040f          	0x8f1040f
     c32:	0000                	unimp
     c34:	08e0040f          	0x8e0040f
     c38:	0000                	unimp
     c3a:	6208                	flw	fa0,0(a2)
     c3c:	0006                	c.slli	zero,0x1
     c3e:	0700                	addi	s0,sp,896
     c40:	0009                	c.nop	2
     c42:	0900                	addi	s0,sp,144
     c44:	0070                	addi	a2,sp,12
     c46:	0000                	unimp
     c48:	0002                	c.slli64	zero
     c4a:	6a1f 0006 0500      	0x50000066a1f
     c50:	6e170333          	0x6e170333
     c54:	0004                	0x4
     c56:	1f00                	addi	s0,sp,944
     c58:	00000663          	beqz	zero,c64 <_min_stack-0x139c>
     c5c:	3405                	jal	67c <_min_stack-0x1984>
     c5e:	04741d03          	lh	s10,71(s0) # 6dabb <_stack_len+0x65abb>
     c62:	0000                	unimp
     c64:	050d                	addi	a0,a0,3
     c66:	f4000003          	lb	zero,-192(zero) # ffffff40 <_stack_start+0xffdfff40>
     c6a:	49082507          	flw	fa0,1168(a6) # 35f9e <_stack_len+0x2df9e>
     c6e:	0009                	c.nop	2
     c70:	0b00                	addi	s0,sp,400
     c72:	04c9                	addi	s1,s1,18
     c74:	0000                	unimp
     c76:	49122907          	flw	fs2,1169(tp) # fffe1491 <_stack_start+0xffde1491>
     c7a:	0009                	c.nop	2
     c7c:	0000                	unimp
     c7e:	0006b40b          	0x6b40b
     c82:	0700                	addi	s0,sp,896
     c84:	0069092b          	0x69092b
     c88:	0000                	unimp
     c8a:	00f0                	addi	a2,sp,76
     c8c:	7008                	flw	fa0,32(s0)
     c8e:	0000                	unimp
     c90:	5900                	lw	s0,48(a0)
     c92:	0009                	c.nop	2
     c94:	0900                	addi	s0,sp,144
     c96:	0070                	addi	a2,sp,12
     c98:	0000                	unimp
     c9a:	3c03003b          	0x3c03003b
     c9e:	07000003          	lb	zero,112(zero) # 70 <_min_stack-0x1f90>
     ca2:	1b2d                	addi	s6,s6,-21
     ca4:	0921                	addi	s2,s2,8
     ca6:	0000                	unimp
     ca8:	0220                	addi	s0,sp,264
     caa:	01000007          	0x1000007
     cae:	0069052b          	0x69052b
     cb2:	0000                	unimp
     cb4:	0470                	addi	a2,sp,524
     cb6:	0010                	0x10
     cb8:	016c                	addi	a1,sp,140
     cba:	0000                	unimp
     cbc:	9c01                	0x9c01
     cbe:	09bd                	addi	s3,s3,15
     cc0:	0000                	unimp
     cc2:	2321                	jal	11ca <_min_stack-0xe36>
     cc4:	0006                	c.slli	zero,0x1
     cc6:	0100                	addi	s0,sp,128
     cc8:	09bd0983          	lb	s3,155(s10) # fffe109b <_stack_start+0xffde109b>
     ccc:	0000                	unimp
     cce:	9102                	jalr	sp
     cd0:	2160                	fld	fs0,192(a0)
     cd2:	0449                	addi	s0,s0,18
     cd4:	0000                	unimp
     cd6:	8401                	c.srai64	s0
     cd8:	bd09                	j	aea <_min_stack-0x1516>
     cda:	0009                	c.nop	2
     cdc:	0200                	addi	s0,sp,256
     cde:	5091                	li	ra,-28
     ce0:	6f22                	flw	ft10,8(sp)
     ce2:	7475                	lui	s0,0xffffd
     ce4:	0100                	addi	s0,sp,128
     ce6:	0b85                	addi	s7,s7,1
     ce8:	09bd                	addi	s3,s3,15
     cea:	0000                	unimp
     cec:	9102                	jalr	sp
     cee:	2140                	fld	fs0,128(a0)
     cf0:	04e1                	addi	s1,s1,24
     cf2:	0000                	unimp
     cf4:	8601                	c.srai64	a2
     cf6:	0009590b          	0x9590b
     cfa:	0300                	addi	s0,sp,384
     cfc:	cc91                	beqz	s1,d18 <_min_stack-0x12e8>
     cfe:	007d                	c.nop	31
     d00:	00004123          	0x4123
     d04:	0900                	addi	s0,sp,144
     d06:	0070                	addi	a2,sp,12
     d08:	0000                	unimp
     d0a:	ff00000f          	0xff00000f
     d0e:	0400000b          	0x400000b
     d12:	c700                	sw	s0,8(a4)
     d14:	04000003          	lb	zero,64(zero) # 40 <_min_stack-0x1fc0>
     d18:	3301                	jal	a18 <_min_stack-0x15e8>
     d1a:	0002                	c.slli64	zero
     d1c:	0c00                	addi	s0,sp,528
     d1e:	074a                	slli	a4,a4,0x12
     d20:	0000                	unimp
     d22:	0192                	slli	gp,gp,0x4
     d24:	0000                	unimp
     d26:	05dc                	addi	a5,sp,708
     d28:	0010                	0x10
     d2a:	0d26                	slli	s10,s10,0x9
     d2c:	0000                	unimp
     d2e:	0759                	addi	a4,a4,22
     d30:	0000                	unimp
     d32:	0402                	c.slli64	s0
     d34:	0000cd07          	flq	fs10,0(ra) # 948 <_min_stack-0x16b8>
     d38:	0300                	addi	s0,sp,384
     d3a:	0504                	addi	s1,sp,640
     d3c:	6e69                	lui	t3,0x1a
     d3e:	0074                	addi	a3,sp,12
     d40:	2c04                	fld	fs1,24(s0)
     d42:	0000                	unimp
     d44:	0200                	addi	s0,sp,256
     d46:	0508                	addi	a0,sp,640
     d48:	00000177          	0x177
     d4c:	1002                	c.slli	zero,0x20
     d4e:	0004                	0x4
     d50:	0005                	c.nop	1
     d52:	0500                	addi	s0,sp,640
     d54:	04b4                	addi	a3,sp,584
     d56:	0000                	unimp
     d58:	6502                	flw	fa0,0(sp)
     d5a:	1701                	addi	a4,a4,-32
     d5c:	0025                	c.nop	9
     d5e:	0000                	unimp
     d60:	0102                	c.slli64	sp
     d62:	6606                	flw	fa2,64(sp)
     d64:	0000                	unimp
     d66:	0200                	addi	s0,sp,256
     d68:	0801                	addi	a6,a6,0
     d6a:	0064                	addi	s1,sp,12
     d6c:	0000                	unimp
     d6e:	5a04                	lw	s1,48(a2)
     d70:	0000                	unimp
     d72:	0200                	addi	s0,sp,256
     d74:	0502                	c.slli64	a0
     d76:	0205                	addi	tp,tp,1
     d78:	0000                	unimp
     d7a:	0202                	c.slli64	tp
     d7c:	00007207          	0x7207
     d80:	0200                	addi	s0,sp,256
     d82:	0504                	addi	s1,sp,640
     d84:	017c                	addi	a5,sp,140
     d86:	0000                	unimp
     d88:	0402                	c.slli64	s0
     d8a:	0000c807          	flq	fa6,0(ra)
     d8e:	0200                	addi	s0,sp,256
     d90:	0708                	addi	a0,sp,896
     d92:	000000c3          	fmadd.s	ft1,ft0,ft0,ft0,rne
     d96:	2f06                	fld	ft10,64(sp)
     d98:	0005                	c.nop	1
     d9a:	0300                	addi	s0,sp,384
     d9c:	0e2e                	slli	t3,t3,0xb
     d9e:	0074                	addi	a3,sp,12
     da0:	0000                	unimp
     da2:	1206                	slli	tp,tp,0x21
     da4:	0006                	c.slli	zero,0x1
     da6:	0300                	addi	s0,sp,384
     da8:	0e74                	addi	a3,sp,796
     daa:	0074                	addi	a3,sp,12
     dac:	0000                	unimp
     dae:	8006                	c.mv	zero,ra
     db0:	0004                	0x4
     db2:	0300                	addi	s0,sp,384
     db4:	002c1793          	slli	a5,s8,0x2
     db8:	0000                	unimp
     dba:	a5030407          	0xa5030407
     dbe:	0000cf03          	lbu	t5,0(ra)
     dc2:	0800                	addi	s0,sp,16
     dc4:	04ae                	slli	s1,s1,0xb
     dc6:	0000                	unimp
     dc8:	460ca703          	lw	a4,1120(s9) # 4460 <_min_stack+0x2460>
     dcc:	0000                	unimp
     dce:	0800                	addi	s0,sp,16
     dd0:	0452                	slli	s0,s0,0x14
     dd2:	0000                	unimp
     dd4:	cf13a803          	lw	a6,-783(t2) # cf1 <_min_stack-0x130f>
     dd8:	0000                	unimp
     dda:	0000                	unimp
     ddc:	5a09                	li	s4,-30
     dde:	0000                	unimp
     de0:	df00                	sw	s0,56(a4)
     de2:	0000                	unimp
     de4:	0a00                	addi	s0,sp,272
     de6:	0025                	c.nop	9
     de8:	0000                	unimp
     dea:	080b0003          	lb	zero,128(s6) # 42b02 <_stack_len+0x3ab02>
     dee:	0309a203          	lw	tp,48(s3) # 18030 <_stack_len+0x10030>
     df2:	0001                	nop
     df4:	0c00                	addi	s0,sp,528
     df6:	05fc                	addi	a5,sp,716
     df8:	0000                	unimp
     dfa:	2c07a403          	lw	s0,704(a5)
     dfe:	0000                	unimp
     e00:	0000                	unimp
     e02:	040c                	addi	a1,sp,512
     e04:	0006                	c.slli	zero,0x1
     e06:	0300                	addi	s0,sp,384
     e08:	05a9                	addi	a1,a1,10
     e0a:	00ad                	addi	ra,ra,11
     e0c:	0000                	unimp
     e0e:	0004                	0x4
     e10:	7e06                	flw	ft8,96(sp)
     e12:	0005                	c.nop	1
     e14:	0300                	addi	s0,sp,384
     e16:	03aa                	slli	t2,t2,0xa
     e18:	00df 0000 040d      	0x40d000000df
     e1e:	4e06                	lw	t3,64(sp)
     e20:	0006                	c.slli	zero,0x1
     e22:	0400                	addi	s0,sp,512
     e24:	1916                	slli	s2,s2,0x25
     e26:	0000007b          	0x7b
     e2a:	4006                	0x4006
     e2c:	0005                	c.nop	1
     e2e:	0500                	addi	s0,sp,640
     e30:	0d0c                	addi	a1,sp,656
     e32:	002c                	addi	a1,sp,8
     e34:	0000                	unimp
     e36:	1206                	slli	tp,tp,0x21
     e38:	0004                	0x4
     e3a:	0400                	addi	s0,sp,512
     e3c:	011d1b23          	sh	a7,22(s10)
     e40:	0000                	unimp
     e42:	230e                	fld	ft6,192(sp)
     e44:	0004                	0x4
     e46:	1800                	addi	s0,sp,48
     e48:	3404                	fld	fs1,40(s0)
     e4a:	8f08                	0x8f08
     e4c:	0001                	nop
     e4e:	0c00                	addi	s0,sp,528
     e50:	059f 0000 3604      	0x36040000059f
     e56:	00018f13          	mv	t5,gp
     e5a:	0000                	unimp
     e5c:	006b5f0f          	0x6b5f0f
     e60:	3704                	fld	fs1,40(a4)
     e62:	00002c07          	flw	fs8,0(zero) # 0 <_min_stack-0x2000>
     e66:	0400                	addi	s0,sp,512
     e68:	e70c                	fsw	fa1,8(a4)
     e6a:	0005                	c.nop	1
     e6c:	0400                	addi	s0,sp,512
     e6e:	002c0b37          	lui	s6,0x2c0
     e72:	0000                	unimp
     e74:	0c08                	addi	a0,sp,528
     e76:	040c                	addi	a1,sp,512
     e78:	0000                	unimp
     e7a:	3704                	fld	fs1,40(a4)
     e7c:	2c14                	fld	fa3,24(s0)
     e7e:	0000                	unimp
     e80:	0c00                	addi	s0,sp,528
     e82:	830c                	0x830c
     e84:	0006                	c.slli	zero,0x1
     e86:	0400                	addi	s0,sp,512
     e88:	002c1b37          	lui	s6,0x2c1
     e8c:	0000                	unimp
     e8e:	0f10                	addi	a2,sp,912
     e90:	785f 0400 0b38      	0xb380400785f
     e96:	0195                	addi	gp,gp,5
     e98:	0000                	unimp
     e9a:	0014                	0x14
     e9c:	0410                	addi	a2,sp,512
     e9e:	0135                	addi	sp,sp,13
     ea0:	0000                	unimp
     ea2:	1109                	addi	sp,sp,-30
     ea4:	0001                	nop
     ea6:	a500                	fsd	fs0,8(a0)
     ea8:	0001                	nop
     eaa:	0a00                	addi	s0,sp,272
     eac:	0025                	c.nop	9
     eae:	0000                	unimp
     eb0:	0000                	unimp
     eb2:	440e                	lw	s0,192(sp)
     eb4:	0004                	0x4
     eb6:	2400                	fld	fs0,8(s0)
     eb8:	3c04                	fld	fs1,56(s0)
     eba:	2808                	fld	fa0,16(s0)
     ebc:	0002                	c.slli64	zero
     ebe:	0c00                	addi	s0,sp,528
     ec0:	0375                	addi	t1,t1,29
     ec2:	0000                	unimp
     ec4:	3e04                	fld	fs1,56(a2)
     ec6:	2c09                	jal	10d8 <_min_stack-0xf28>
     ec8:	0000                	unimp
     eca:	0000                	unimp
     ecc:	1a0c                	addi	a1,sp,304
     ece:	0006                	c.slli	zero,0x1
     ed0:	0400                	addi	s0,sp,512
     ed2:	002c093f 0c040000 	0xc040000002c093f
     eda:	0384                	addi	s1,sp,448
     edc:	0000                	unimp
     ede:	4004                	lw	s1,0(s0)
     ee0:	2c09                	jal	10f2 <_min_stack-0xf0e>
     ee2:	0000                	unimp
     ee4:	0800                	addi	s0,sp,16
     ee6:	070c                	addi	a1,sp,896
     ee8:	04000007          	0x4000007
     eec:	0941                	addi	s2,s2,16
     eee:	002c                	addi	a1,sp,8
     ef0:	0000                	unimp
     ef2:	0c0c                	addi	a1,sp,528
     ef4:	00000513          	li	a0,0
     ef8:	4204                	lw	s1,0(a2)
     efa:	2c09                	jal	110c <_min_stack-0xef4>
     efc:	0000                	unimp
     efe:	1000                	addi	s0,sp,32
     f00:	d70c                	sw	a1,40(a4)
     f02:	0004                	0x4
     f04:	0400                	addi	s0,sp,512
     f06:	002c0943          	fmadd.s	fs2,fs8,ft2,ft0,rne
     f0a:	0000                	unimp
     f0c:	0c14                	addi	a3,sp,528
     f0e:	0688                	addi	a0,sp,832
     f10:	0000                	unimp
     f12:	4404                	lw	s1,8(s0)
     f14:	2c09                	jal	1126 <_min_stack-0xeda>
     f16:	0000                	unimp
     f18:	1800                	addi	s0,sp,48
     f1a:	600c                	flw	fa1,0(s0)
     f1c:	0005                	c.nop	1
     f1e:	0400                	addi	s0,sp,512
     f20:	0945                	addi	s2,s2,17
     f22:	002c                	addi	a1,sp,8
     f24:	0000                	unimp
     f26:	0c1c                	addi	a5,sp,528
     f28:	06c9                	addi	a3,a3,18
     f2a:	0000                	unimp
     f2c:	4604                	lw	s1,8(a2)
     f2e:	2c09                	jal	1140 <_min_stack-0xec0>
     f30:	0000                	unimp
     f32:	2000                	fld	fs0,0(s0)
     f34:	1100                	addi	s0,sp,160
     f36:	00000393          	li	t2,0
     f3a:	0108                	addi	a0,sp,128
     f3c:	4f04                	lw	s1,24(a4)
     f3e:	6d08                	flw	fa0,24(a0)
     f40:	0002                	c.slli64	zero
     f42:	0c00                	addi	s0,sp,528
     f44:	03ff                	0x3ff
     f46:	0000                	unimp
     f48:	5004                	lw	s1,32(s0)
     f4a:	6d0a                	flw	fs10,128(sp)
     f4c:	0002                	c.slli64	zero
     f4e:	0000                	unimp
     f50:	eb0c                	fsw	fa1,16(a4)
     f52:	0002                	c.slli64	zero
     f54:	0400                	addi	s0,sp,512
     f56:	0951                	addi	s2,s2,20
     f58:	026d                	addi	tp,tp,27
     f5a:	0000                	unimp
     f5c:	1280                	addi	s0,sp,352
     f5e:	0640                	addi	s0,sp,772
     f60:	0000                	unimp
     f62:	5304                	lw	s1,32(a4)
     f64:	110a                	slli	sp,sp,0x22
     f66:	0001                	nop
     f68:	0000                	unimp
     f6a:	1201                	addi	tp,tp,-32
     f6c:	03b8                	addi	a4,sp,456
     f6e:	0000                	unimp
     f70:	5604                	lw	s1,40(a2)
     f72:	110a                	slli	sp,sp,0x22
     f74:	0001                	nop
     f76:	0400                	addi	s0,sp,512
     f78:	0001                	nop
     f7a:	0f09                	addi	t5,t5,2
     f7c:	0001                	nop
     f7e:	7d00                	flw	fs0,56(a0)
     f80:	0002                	c.slli64	zero
     f82:	0a00                	addi	s0,sp,272
     f84:	0025                	c.nop	9
     f86:	0000                	unimp
     f88:	001f 1c11 0005      	0x51c11001f
     f8e:	9000                	0x9000
     f90:	0401                	addi	s0,s0,0
     f92:	0862                	slli	a6,a6,0x18
     f94:	02c0                	addi	s0,sp,324
     f96:	0000                	unimp
     f98:	9f0c                	0x9f0c
     f9a:	0005                	c.nop	1
     f9c:	0400                	addi	s0,sp,512
     f9e:	02c01263          	bne	zero,a2,fc2 <_min_stack-0x103e>
     fa2:	0000                	unimp
     fa4:	0c00                	addi	s0,sp,528
     fa6:	000005b7          	lui	a1,0x0
     faa:	6404                	flw	fs1,8(s0)
     fac:	2c06                	fld	fs8,64(sp)
     fae:	0000                	unimp
     fb0:	0400                	addi	s0,sp,512
     fb2:	070c                	addi	a1,sp,896
     fb4:	0004                	0x4
     fb6:	0400                	addi	s0,sp,512
     fb8:	0966                	slli	s2,s2,0x19
     fba:	02c6                	slli	t0,t0,0x11
     fbc:	0000                	unimp
     fbe:	0c08                	addi	a0,sp,528
     fc0:	00000393          	li	t2,0
     fc4:	6704                	flw	fs1,8(a4)
     fc6:	281e                	fld	fa6,448(sp)
     fc8:	0002                	c.slli64	zero
     fca:	8800                	0x8800
     fcc:	1000                	addi	s0,sp,32
     fce:	7d04                	flw	fs1,56(a0)
     fd0:	0002                	c.slli64	zero
     fd2:	0900                	addi	s0,sp,144
     fd4:	02d6                	slli	t0,t0,0x15
     fd6:	0000                	unimp
     fd8:	02d6                	slli	t0,t0,0x15
     fda:	0000                	unimp
     fdc:	250a                	fld	fa0,128(sp)
     fde:	0000                	unimp
     fe0:	1f00                	addi	s0,sp,944
     fe2:	1000                	addi	s0,sp,32
     fe4:	dc04                	sw	s1,56(s0)
     fe6:	0002                	c.slli64	zero
     fe8:	1300                	addi	s0,sp,416
     fea:	6a0e                	flw	fs4,192(sp)
     fec:	0005                	c.nop	1
     fee:	0800                	addi	s0,sp,16
     ff0:	7a04                	flw	fs1,48(a2)
     ff2:	0508                	addi	a0,sp,640
     ff4:	0c000003          	lb	zero,192(zero) # c0 <_min_stack-0x1f40>
     ff8:	00bd                	addi	ra,ra,15
     ffa:	0000                	unimp
     ffc:	7b04                	flw	fs1,48(a4)
     ffe:	0511                	addi	a0,a0,4
    1000:	00000003          	lb	zero,0(zero) # 0 <_min_stack-0x2000>
    1004:	f70c                	fsw	fa1,40(a4)
    1006:	0002                	c.slli64	zero
    1008:	0400                	addi	s0,sp,512
    100a:	067c                	addi	a5,sp,780
    100c:	002c                	addi	a1,sp,8
    100e:	0000                	unimp
    1010:	0004                	0x4
    1012:	0410                	addi	a2,sp,512
    1014:	005a                	c.slli	zero,0x16
    1016:	0000                	unimp
    1018:	890e                	mv	s2,gp
    101a:	0005                	c.nop	1
    101c:	6800                	flw	fs0,16(s0)
    101e:	ba04                	fsd	fs1,48(a2)
    1020:	4e08                	lw	a0,24(a2)
    1022:	0004                	0x4
    1024:	0f00                	addi	s0,sp,912
    1026:	705f 0400 12bb      	0x12bb0400705f
    102c:	0305                	addi	t1,t1,1
    102e:	0000                	unimp
    1030:	0f00                	addi	s0,sp,912
    1032:	725f 0400 07bc      	0x7bc0400725f
    1038:	002c                	addi	a1,sp,8
    103a:	0000                	unimp
    103c:	0f04                	addi	s1,sp,912
    103e:	775f 0400 07bd      	0x7bd0400775f
    1044:	002c                	addi	a1,sp,8
    1046:	0000                	unimp
    1048:	0c08                	addi	a0,sp,528
    104a:	03b1                	addi	t2,t2,12
    104c:	0000                	unimp
    104e:	be04                	fsd	fs1,56(a2)
    1050:	6609                	lui	a2,0x2
    1052:	0000                	unimp
    1054:	0c00                	addi	s0,sp,528
    1056:	7a0c                	flw	fa1,48(a2)
    1058:	0004                	0x4
    105a:	0400                	addi	s0,sp,512
    105c:	006609bf 0f0e0000 	0xf0e0000006609bf
    1064:	625f 0066 c004      	0xc0040066625f
    106a:	dd11                	beqz	a0,f86 <_min_stack-0x107a>
    106c:	0002                	c.slli64	zero
    106e:	1000                	addi	s0,sp,32
    1070:	440c                	lw	a1,8(s0)
    1072:	04000003          	lb	zero,64(zero) # 40 <_min_stack-0x1fc0>
    1076:	07c1                	addi	a5,a5,16
    1078:	002c                	addi	a1,sp,8
    107a:	0000                	unimp
    107c:	0c18                	addi	a4,sp,528
    107e:	03a1                	addi	t2,t2,8
    1080:	0000                	unimp
    1082:	c804                	sw	s1,16(s0)
    1084:	0f0a                	slli	t5,t5,0x2
    1086:	0001                	nop
    1088:	1c00                	addi	s0,sp,560
    108a:	f60c                	fsw	fa1,40(a2)
    108c:	0001                	nop
    108e:	0400                	addi	s0,sp,512
    1090:	1dca                	slli	s11,s11,0x32
    1092:	05d2                	slli	a1,a1,0x14
    1094:	0000                	unimp
    1096:	0c20                	addi	s0,sp,536
    1098:	04d0                	addi	a2,sp,580
    109a:	0000                	unimp
    109c:	cc04                	sw	s1,24(s0)
    109e:	fc1d                	bnez	s0,fdc <_min_stack-0x1024>
    10a0:	0005                	c.nop	1
    10a2:	2400                	fld	fs0,8(s0)
    10a4:	0c0c                	addi	a1,sp,528
    10a6:	0006                	c.slli	zero,0x1
    10a8:	0400                	addi	s0,sp,512
    10aa:	06200dcf          	fnmadd.q	fs11,ft0,ft2,ft0,rne
    10ae:	0000                	unimp
    10b0:	0c28                	addi	a0,sp,536
    10b2:	000006e3          	beqz	zero,18be <_min_stack-0x742>
    10b6:	d004                	sw	s1,32(s0)
    10b8:	3a09                	jal	9ca <_min_stack-0x1636>
    10ba:	0006                	c.slli	zero,0x1
    10bc:	2c00                	fld	fs0,24(s0)
    10be:	62755f0f          	0x62755f0f
    10c2:	0400                	addi	s0,sp,512
    10c4:	02dd11d3          	fadd.d	ft3,fs10,fa3,rtz
    10c8:	0000                	unimp
    10ca:	0f30                	addi	a2,sp,920
    10cc:	755f 0070 d404      	0xd4040070755f
    10d2:	0512                	slli	a0,a0,0x4
    10d4:	38000003          	lb	zero,896(zero) # 380 <_min_stack-0x1c80>
    10d8:	72755f0f          	0x72755f0f
    10dc:	0400                	addi	s0,sp,512
    10de:	07d5                	addi	a5,a5,21
    10e0:	002c                	addi	a1,sp,8
    10e2:	0000                	unimp
    10e4:	0c3c                	addi	a5,sp,536
    10e6:	037e                	slli	t1,t1,0x1f
    10e8:	0000                	unimp
    10ea:	d804                	sw	s1,48(s0)
    10ec:	4011                	c.li	zero,4
    10ee:	0006                	c.slli	zero,0x1
    10f0:	4000                	lw	s0,0(s0)
    10f2:	bb0c                	fsd	fa1,48(a4)
    10f4:	0006                	c.slli	zero,0x1
    10f6:	0400                	addi	s0,sp,512
    10f8:	11d9                	addi	gp,gp,-10
    10fa:	0650                	addi	a2,sp,772
    10fc:	0000                	unimp
    10fe:	6c5f0f43          	0x6c5f0f43
    1102:	0062                	c.slli	zero,0x18
    1104:	dc04                	sw	s1,56(s0)
    1106:	dd11                	beqz	a0,1022 <_min_stack-0xfde>
    1108:	0002                	c.slli64	zero
    110a:	4400                	lw	s0,8(s0)
    110c:	c70c                	sw	a1,8(a4)
    110e:	04000003          	lb	zero,64(zero) # 40 <_min_stack-0x1fc0>
    1112:	07df 002c 0000      	0x2c07df
    1118:	0c4c                	addi	a1,sp,532
    111a:	03d8                	addi	a4,sp,452
    111c:	0000                	unimp
    111e:	e004                	fsw	fs1,0(s0)
    1120:	890a                	mv	s2,sp
    1122:	0000                	unimp
    1124:	5000                	lw	s0,32(s0)
    1126:	1b0c                	addi	a1,sp,432
    1128:	04000003          	lb	zero,64(zero) # 40 <_min_stack-0x1fc0>
    112c:	046c12e3          	bne	s8,t1,1970 <_min_stack-0x690>
    1130:	0000                	unimp
    1132:	0c54                	addi	a3,sp,532
    1134:	000004bb          	0x4bb
    1138:	e704                	fsw	fs1,8(a4)
    113a:	290c                	fld	fa1,16(a0)
    113c:	0001                	nop
    113e:	5800                	lw	s0,48(s0)
    1140:	910c                	0x910c
    1142:	0005                	c.nop	1
    1144:	0400                	addi	s0,sp,512
    1146:	0ee9                	addi	t4,t4,26
    1148:	00000103          	lb	sp,0(zero) # 0 <_min_stack-0x2000>
    114c:	0c5c                	addi	a5,sp,532
    114e:	04c1                	addi	s1,s1,16
    1150:	0000                	unimp
    1152:	ea04                	fsw	fs1,16(a2)
    1154:	2c09                	jal	1366 <_min_stack-0xc9a>
    1156:	0000                	unimp
    1158:	6400                	flw	fs0,8(s0)
    115a:	1400                	addi	s0,sp,544
    115c:	00a1                	addi	ra,ra,8
    115e:	0000                	unimp
    1160:	046c                	addi	a1,sp,524
    1162:	0000                	unimp
    1164:	6c15                	lui	s8,0x5
    1166:	0004                	0x4
    1168:	1500                	addi	s0,sp,672
    116a:	0000010f          	0x10f
    116e:	c015                	beqz	s0,1192 <_min_stack-0xe6e>
    1170:	0005                	c.nop	1
    1172:	1500                	addi	s0,sp,672
    1174:	002c                	addi	a1,sp,8
    1176:	0000                	unimp
    1178:	1000                	addi	s0,sp,32
    117a:	7704                	flw	fs1,40(a4)
    117c:	0004                	0x4
    117e:	0400                	addi	s0,sp,512
    1180:	046c                	addi	a1,sp,524
    1182:	0000                	unimp
    1184:	ef16                	fsw	ft5,156(sp)
    1186:	0005                	c.nop	1
    1188:	2800                	fld	fs0,16(s0)
    118a:	0404                	addi	s1,sp,512
    118c:	0265                	addi	tp,tp,25
    118e:	c008                	sw	a0,0(s0)
    1190:	0005                	c.nop	1
    1192:	1700                	addi	s0,sp,928
    1194:	0559                	addi	a0,a0,22
    1196:	0000                	unimp
    1198:	6704                	flw	fs1,8(a4)
    119a:	0702                	c.slli64	a4
    119c:	002c                	addi	a1,sp,8
    119e:	0000                	unimp
    11a0:	1700                	addi	s0,sp,928
    11a2:	03c0                	addi	s0,sp,452
    11a4:	0000                	unimp
    11a6:	6c04                	flw	fs1,24(s0)
    11a8:	0b02                	c.slli64	s6
    11aa:	06ac                	addi	a1,sp,840
    11ac:	0000                	unimp
    11ae:	1704                	addi	s1,sp,928
    11b0:	046a                	slli	s0,s0,0x1a
    11b2:	0000                	unimp
    11b4:	6c04                	flw	fs1,24(s0)
    11b6:	1402                	slli	s0,s0,0x20
    11b8:	06ac                	addi	a1,sp,840
    11ba:	0000                	unimp
    11bc:	1708                	addi	a0,sp,928
    11be:	0000041b          	0x41b
    11c2:	6c04                	flw	fs1,24(s0)
    11c4:	1e02                	slli	t3,t3,0x20
    11c6:	06ac                	addi	a1,sp,840
    11c8:	0000                	unimp
    11ca:	170c                	addi	a1,sp,928
    11cc:	05b2                	slli	a1,a1,0xc
    11ce:	0000                	unimp
    11d0:	6e04                	flw	fs1,24(a2)
    11d2:	0802                	c.slli64	a6
    11d4:	002c                	addi	a1,sp,8
    11d6:	0000                	unimp
    11d8:	1710                	addi	a2,sp,928
    11da:	0310                	addi	a2,sp,384
    11dc:	0000                	unimp
    11de:	6f04                	flw	fs1,24(a4)
    11e0:	0802                	c.slli64	a6
    11e2:	08ac                	addi	a1,sp,88
    11e4:	0000                	unimp
    11e6:	1714                	addi	a3,sp,928
    11e8:	05ce                	slli	a1,a1,0x13
    11ea:	0000                	unimp
    11ec:	7204                	flw	fs1,32(a2)
    11ee:	0702                	c.slli64	a4
    11f0:	002c                	addi	a1,sp,8
    11f2:	0000                	unimp
    11f4:	1730                	addi	a2,sp,936
    11f6:	05bc                	addi	a5,sp,712
    11f8:	0000                	unimp
    11fa:	7304                	flw	fs1,32(a4)
    11fc:	1602                	slli	a2,a2,0x20
    11fe:	08c1                	addi	a7,a7,16
    1200:	0000                	unimp
    1202:	1734                	addi	a3,sp,936
    1204:	0524                	addi	s1,sp,648
    1206:	0000                	unimp
    1208:	7504                	flw	fs1,40(a0)
    120a:	0702                	c.slli64	a4
    120c:	002c                	addi	a1,sp,8
    120e:	0000                	unimp
    1210:	1738                	addi	a4,sp,936
    1212:	05c4                	addi	s1,sp,708
    1214:	0000                	unimp
    1216:	7704                	flw	fs1,40(a4)
    1218:	0a02                	c.slli64	s4
    121a:	08d2                	slli	a7,a7,0x14
    121c:	0000                	unimp
    121e:	173c                	addi	a5,sp,936
    1220:	04a6                	slli	s1,s1,0x9
    1222:	0000                	unimp
    1224:	7a04                	flw	fs1,48(a2)
    1226:	1302                	slli	t1,t1,0x20
    1228:	0000018f          	0x18f
    122c:	1740                	addi	s0,sp,932
    122e:	043a                	slli	s0,s0,0xe
    1230:	0000                	unimp
    1232:	7b04                	flw	fs1,48(a4)
    1234:	0702                	c.slli64	a4
    1236:	002c                	addi	a1,sp,8
    1238:	0000                	unimp
    123a:	1744                	addi	s1,sp,932
    123c:	06fd                	addi	a3,a3,31
    123e:	0000                	unimp
    1240:	7c04                	flw	fs1,56(s0)
    1242:	1302                	slli	t1,t1,0x20
    1244:	0000018f          	0x18f
    1248:	1748                	addi	a0,sp,932
    124a:	0536                	slli	a0,a0,0xd
    124c:	0000                	unimp
    124e:	7d04                	flw	fs1,56(a0)
    1250:	1402                	slli	s0,s0,0x20
    1252:	08d8                	addi	a4,sp,84
    1254:	0000                	unimp
    1256:	174c                	addi	a1,sp,932
    1258:	0472                	slli	s0,s0,0x1c
    125a:	0000                	unimp
    125c:	8004                	0x8004
    125e:	0702                	c.slli64	a4
    1260:	002c                	addi	a1,sp,8
    1262:	0000                	unimp
    1264:	1750                	addi	a2,sp,932
    1266:	03d0                	addi	a2,sp,452
    1268:	0000                	unimp
    126a:	8104                	0x8104
    126c:	0902                	c.slli64	s2
    126e:	05c0                	addi	s0,sp,708
    1270:	0000                	unimp
    1272:	1754                	addi	a3,sp,932
    1274:	0552                	slli	a0,a0,0x14
    1276:	0000                	unimp
    1278:	a404                	fsd	fs1,8(s0)
    127a:	0702                	c.slli64	a4
    127c:	00000887          	0x887
    1280:	1858                	addi	a4,sp,52
    1282:	051c                	addi	a5,sp,640
    1284:	0000                	unimp
    1286:	a804                	fsd	fs1,16(s0)
    1288:	1302                	slli	t1,t1,0x20
    128a:	02c0                	addi	s0,sp,324
    128c:	0000                	unimp
    128e:	0148                	addi	a0,sp,132
    1290:	9018                	0x9018
    1292:	0004                	0x4
    1294:	0400                	addi	s0,sp,512
    1296:	02a9                	addi	t0,t0,10
    1298:	7d12                	flw	fs10,36(sp)
    129a:	0002                	c.slli64	zero
    129c:	4c00                	lw	s0,24(s0)
    129e:	1801                	addi	a6,a6,-32
    12a0:	06aa                	slli	a3,a3,0xa
    12a2:	0000                	unimp
    12a4:	ad04                	fsd	fs1,24(a0)
    12a6:	0c02                	c.slli64	s8
    12a8:	08e9                	addi	a7,a7,26
    12aa:	0000                	unimp
    12ac:	02dc                	addi	a5,sp,324
    12ae:	a918                	fsd	fa4,16(a0)
    12b0:	04000003          	lb	zero,64(zero) # 40 <_min_stack-0x1fc0>
    12b4:	02b2                	slli	t0,t0,0xc
    12b6:	6d10                	flw	fa2,24(a0)
    12b8:	0006                	c.slli	zero,0x1
    12ba:	e000                	fsw	fs0,0(s0)
    12bc:	1802                	slli	a6,a6,0x20
    12be:	038e                	slli	t2,t2,0x3
    12c0:	0000                	unimp
    12c2:	b404                	fsd	fs1,40(s0)
    12c4:	0a02                	c.slli64	s4
    12c6:	08f5                	addi	a7,a7,29
    12c8:	0000                	unimp
    12ca:	02ec                	addi	a1,sp,332
    12cc:	1000                	addi	s0,sp,32
    12ce:	c604                	sw	s1,8(a2)
    12d0:	0005                	c.nop	1
    12d2:	0200                	addi	s0,sp,256
    12d4:	0801                	addi	a6,a6,0
    12d6:	006d                	c.nop	27
    12d8:	0000                	unimp
    12da:	c604                	sw	s1,8(a2)
    12dc:	0005                	c.nop	1
    12de:	1000                	addi	s0,sp,32
    12e0:	4e04                	lw	s1,24(a2)
    12e2:	0004                	0x4
    12e4:	1400                	addi	s0,sp,544
    12e6:	00a1                	addi	ra,ra,8
    12e8:	0000                	unimp
    12ea:	05f6                	slli	a1,a1,0x1d
    12ec:	0000                	unimp
    12ee:	6c15                	lui	s8,0x5
    12f0:	0004                	0x4
    12f2:	1500                	addi	s0,sp,672
    12f4:	0000010f          	0x10f
    12f8:	f615                	bnez	a2,1224 <_min_stack-0xddc>
    12fa:	0005                	c.nop	1
    12fc:	1500                	addi	s0,sp,672
    12fe:	002c                	addi	a1,sp,8
    1300:	0000                	unimp
    1302:	1000                	addi	s0,sp,32
    1304:	cd04                	sw	s1,24(a0)
    1306:	0005                	c.nop	1
    1308:	1000                	addi	s0,sp,32
    130a:	d804                	sw	s1,48(s0)
    130c:	0005                	c.nop	1
    130e:	1400                	addi	s0,sp,544
    1310:	0095                	addi	ra,ra,5
    1312:	0000                	unimp
    1314:	0620                	addi	s0,sp,776
    1316:	0000                	unimp
    1318:	6c15                	lui	s8,0x5
    131a:	0004                	0x4
    131c:	1500                	addi	s0,sp,672
    131e:	0000010f          	0x10f
    1322:	9515                	srai	a0,a0,0x25
    1324:	0000                	unimp
    1326:	1500                	addi	s0,sp,672
    1328:	002c                	addi	a1,sp,8
    132a:	0000                	unimp
    132c:	1000                	addi	s0,sp,32
    132e:	0204                	addi	s1,sp,256
    1330:	0006                	c.slli	zero,0x1
    1332:	1400                	addi	s0,sp,544
    1334:	002c                	addi	a1,sp,8
    1336:	0000                	unimp
    1338:	063a                	slli	a2,a2,0xe
    133a:	0000                	unimp
    133c:	6c15                	lui	s8,0x5
    133e:	0004                	0x4
    1340:	1500                	addi	s0,sp,672
    1342:	0000010f          	0x10f
    1346:	1000                	addi	s0,sp,32
    1348:	2604                	fld	fs1,8(a2)
    134a:	0006                	c.slli	zero,0x1
    134c:	0900                	addi	s0,sp,144
    134e:	005a                	c.slli	zero,0x16
    1350:	0000                	unimp
    1352:	0650                	addi	a2,sp,772
    1354:	0000                	unimp
    1356:	250a                	fld	fa0,128(sp)
    1358:	0000                	unimp
    135a:	0200                	addi	s0,sp,256
    135c:	0900                	addi	s0,sp,144
    135e:	005a                	c.slli	zero,0x16
    1360:	0000                	unimp
    1362:	0660                	addi	s0,sp,780
    1364:	0000                	unimp
    1366:	250a                	fld	fa0,128(sp)
    1368:	0000                	unimp
    136a:	0000                	unimp
    136c:	0500                	addi	s0,sp,640
    136e:	00000577          	0x577
    1372:	2404                	fld	fs1,8(s0)
    1374:	1a01                	addi	s4,s4,-32
    1376:	0000030b          	0x30b
    137a:	9219                	srli	a2,a2,0x26
    137c:	0006                	c.slli	zero,0x1
    137e:	0c00                	addi	s0,sp,528
    1380:	2804                	fld	fs1,16(s0)
    1382:	0801                	addi	a6,a6,0
    1384:	06a6                	slli	a3,a3,0x9
    1386:	0000                	unimp
    1388:	00059f17          	auipc	t5,0x59
    138c:	0400                	addi	s0,sp,512
    138e:	012a                	slli	sp,sp,0xa
    1390:	a611                	j	1694 <_min_stack-0x96c>
    1392:	0006                	c.slli	zero,0x1
    1394:	0000                	unimp
    1396:	00048917          	auipc	s2,0x48
    139a:	0400                	addi	s0,sp,512
    139c:	2c07012b          	0x2c07012b
    13a0:	0000                	unimp
    13a2:	0400                	addi	s0,sp,512
    13a4:	00057117          	auipc	sp,0x57
    13a8:	0400                	addi	s0,sp,512
    13aa:	012c                	addi	a1,sp,136
    13ac:	0006ac0b          	0x6ac0b
    13b0:	0800                	addi	s0,sp,16
    13b2:	1000                	addi	s0,sp,32
    13b4:	6d04                	flw	fs1,24(a0)
    13b6:	0006                	c.slli	zero,0x1
    13b8:	1000                	addi	s0,sp,32
    13ba:	6004                	flw	fs1,0(s0)
    13bc:	0006                	c.slli	zero,0x1
    13be:	1900                	addi	s0,sp,176
    13c0:	02fd                	addi	t0,t0,31
    13c2:	0000                	unimp
    13c4:	040e                	slli	s0,s0,0x3
    13c6:	0144                	addi	s1,sp,132
    13c8:	eb08                	fsw	fa0,16(a4)
    13ca:	0006                	c.slli	zero,0x1
    13cc:	1700                	addi	s0,sp,928
    13ce:	05f6                	slli	a1,a1,0x1d
    13d0:	0000                	unimp
    13d2:	4504                	lw	s1,8(a0)
    13d4:	1201                	addi	tp,tp,-32
    13d6:	000006eb          	0x6eb
    13da:	1700                	addi	s0,sp,928
    13dc:	062d                	addi	a2,a2,11
    13de:	0000                	unimp
    13e0:	4604                	lw	s1,8(a2)
    13e2:	1201                	addi	tp,tp,-32
    13e4:	000006eb          	0x6eb
    13e8:	1706                	slli	a4,a4,0x21
    13ea:	0649                	addi	a2,a2,18
    13ec:	0000                	unimp
    13ee:	4704                	lw	s1,8(a4)
    13f0:	1201                	addi	tp,tp,-32
    13f2:	006d                	c.nop	27
    13f4:	0000                	unimp
    13f6:	000c                	0xc
    13f8:	6d09                	lui	s10,0x2
    13fa:	0000                	unimp
    13fc:	fb00                	fsw	fs0,48(a4)
    13fe:	0006                	c.slli	zero,0x1
    1400:	0a00                	addi	s0,sp,272
    1402:	0025                	c.nop	9
    1404:	0000                	unimp
    1406:	0002                	c.slli64	zero
    1408:	d01a                	sw	t1,32(sp)
    140a:	8504                	0x8504
    140c:	0702                	c.slli64	a4
    140e:	0810                	addi	a2,sp,16
    1410:	0000                	unimp
    1412:	00067617          	auipc	a2,0x67
    1416:	0400                	addi	s0,sp,512
    1418:	25180287          	0x25180287
    141c:	0000                	unimp
    141e:	0000                	unimp
    1420:	00063317          	auipc	t1,0x63
    1424:	0400                	addi	s0,sp,512
    1426:	0288                	addi	a0,sp,320
    1428:	c012                	sw	tp,0(sp)
    142a:	0005                	c.nop	1
    142c:	0400                	addi	s0,sp,512
    142e:	00049917          	auipc	s2,0x49
    1432:	0400                	addi	s0,sp,512
    1434:	0289                	addi	t0,t0,2
    1436:	1010                	addi	a2,sp,32
    1438:	0008                	0x8
    143a:	0800                	addi	s0,sp,16
    143c:	0006d417          	auipc	s0,0x6d
    1440:	0400                	addi	s0,sp,512
    1442:	028a                	slli	t0,t0,0x2
    1444:	0001a517          	auipc	a0,0x1a
    1448:	2400                	fld	fs0,8(s0)
    144a:	00042b17          	auipc	s6,0x42
    144e:	0400                	addi	s0,sp,512
    1450:	2c0f028b          	0x2c0f028b
    1454:	0000                	unimp
    1456:	4800                	lw	s0,16(s0)
    1458:	00059a17          	auipc	s4,0x59
    145c:	0400                	addi	s0,sp,512
    145e:	028c                	addi	a1,sp,320
    1460:	822c                	0x822c
    1462:	0000                	unimp
    1464:	5000                	lw	s0,32(s0)
    1466:	0006ea17          	auipc	s4,0x6e
    146a:	0400                	addi	s0,sp,512
    146c:	028d                	addi	t0,t0,3
    146e:	b21a                	fsd	ft6,288(sp)
    1470:	0006                	c.slli	zero,0x1
    1472:	5800                	lw	s0,48(s0)
    1474:	0005a517          	auipc	a0,0x5a
    1478:	0400                	addi	s0,sp,512
    147a:	028e                	slli	t0,t0,0x3
    147c:	0316                	slli	t1,t1,0x5
    147e:	0001                	nop
    1480:	6800                	flw	fs0,16(s0)
    1482:	0006ef17          	auipc	t5,0x6e
    1486:	0400                	addi	s0,sp,512
    1488:	0316028f          	0x316028f
    148c:	0001                	nop
    148e:	7000                	flw	fs0,32(s0)
    1490:	00036717          	auipc	a4,0x36
    1494:	0400                	addi	s0,sp,512
    1496:	0290                	addi	a2,sp,320
    1498:	0316                	slli	t1,t1,0x5
    149a:	0001                	nop
    149c:	7800                	flw	fs0,48(s0)
    149e:	0006a017          	auipc	zero,0x6a
    14a2:	0400                	addi	s0,sp,512
    14a4:	0291                	addi	t0,t0,4
    14a6:	2010                	fld	fa2,0(s0)
    14a8:	0008                	0x8
    14aa:	8000                	0x8000
    14ac:	00033017          	auipc	zero,0x33
    14b0:	0400                	addi	s0,sp,512
    14b2:	0292                	slli	t0,t0,0x4
    14b4:	3010                	fld	fa2,32(s0)
    14b6:	0008                	0x8
    14b8:	8800                	0x8800
    14ba:	00065617          	auipc	a2,0x65
    14be:	0400                	addi	s0,sp,512
    14c0:	2c0f0293          	addi	t0,t5,704 # 6f742 <_stack_len+0x67742>
    14c4:	0000                	unimp
    14c6:	a000                	fsd	fs0,0(s0)
    14c8:	0003f117          	auipc	sp,0x3f
    14cc:	0400                	addi	s0,sp,512
    14ce:	0294                	addi	a3,sp,320
    14d0:	0316                	slli	t1,t1,0x5
    14d2:	0001                	nop
    14d4:	a400                	fsd	fs0,8(s0)
    14d6:	00035817          	auipc	a6,0x35
    14da:	0400                	addi	s0,sp,512
    14dc:	0295                	addi	t0,t0,5
    14de:	0316                	slli	t1,t1,0x5
    14e0:	0001                	nop
    14e2:	ac00                	fsd	fs0,24(s0)
    14e4:	0003e017          	auipc	zero,0x3e
    14e8:	0400                	addi	s0,sp,512
    14ea:	0296                	slli	t0,t0,0x5
    14ec:	0316                	slli	t1,t1,0x5
    14ee:	0001                	nop
    14f0:	b400                	fsd	fs0,40(s0)
    14f2:	00032117          	auipc	sp,0x32
    14f6:	0400                	addi	s0,sp,512
    14f8:	03160297          	auipc	t0,0x3160
    14fc:	0001                	nop
    14fe:	bc00                	fsd	fs0,56(s0)
    1500:	00045917          	auipc	s2,0x45
    1504:	0400                	addi	s0,sp,512
    1506:	0298                	addi	a4,sp,320
    1508:	0316                	slli	t1,t1,0x5
    150a:	0001                	nop
    150c:	c400                	sw	s0,8(s0)
    150e:	00055717          	auipc	a4,0x55
    1512:	0400                	addi	s0,sp,512
    1514:	0299                	addi	t0,t0,6
    1516:	2c08                	fld	fa0,24(s0)
    1518:	0000                	unimp
    151a:	cc00                	sw	s0,24(s0)
    151c:	0900                	addi	s0,sp,144
    151e:	05c6                	slli	a1,a1,0x11
    1520:	0000                	unimp
    1522:	0820                	addi	s0,sp,24
    1524:	0000                	unimp
    1526:	250a                	fld	fa0,128(sp)
    1528:	0000                	unimp
    152a:	1900                	addi	s0,sp,176
    152c:	0900                	addi	s0,sp,144
    152e:	05c6                	slli	a1,a1,0x11
    1530:	0000                	unimp
    1532:	0830                	addi	a2,sp,24
    1534:	0000                	unimp
    1536:	250a                	fld	fa0,128(sp)
    1538:	0000                	unimp
    153a:	0700                	addi	s0,sp,896
    153c:	0900                	addi	s0,sp,144
    153e:	05c6                	slli	a1,a1,0x11
    1540:	0000                	unimp
    1542:	0840                	addi	s0,sp,20
    1544:	0000                	unimp
    1546:	250a                	fld	fa0,128(sp)
    1548:	0000                	unimp
    154a:	1700                	addi	s0,sp,928
    154c:	1a00                	addi	s0,sp,304
    154e:	04f0                	addi	a2,sp,588
    1550:	029e                	slli	t0,t0,0x7
    1552:	00086707          	0x86707
    1556:	1700                	addi	s0,sp,928
    1558:	050c                	addi	a1,sp,640
    155a:	0000                	unimp
    155c:	a104                	fsd	fs1,0(a0)
    155e:	1b02                	slli	s6,s6,0x20
    1560:	00000867          	jalr	a6,zero # 0 <_min_stack-0x2000>
    1564:	1700                	addi	s0,sp,928
    1566:	04e9                	addi	s1,s1,26
    1568:	0000                	unimp
    156a:	a204                	fsd	fs1,0(a2)
    156c:	1802                	slli	a6,a6,0x20
    156e:	00000877          	0x877
    1572:	0078                	addi	a4,sp,12
    1574:	0509                	addi	a0,a0,2
    1576:	77000003          	lb	zero,1904(zero) # 770 <_min_stack-0x1890>
    157a:	0008                	0x8
    157c:	0a00                	addi	s0,sp,272
    157e:	0025                	c.nop	9
    1580:	0000                	unimp
    1582:	001d                	c.nop	7
    1584:	2509                	jal	1b86 <_min_stack-0x47a>
    1586:	0000                	unimp
    1588:	8700                	0x8700
    158a:	0008                	0x8
    158c:	0a00                	addi	s0,sp,272
    158e:	0025                	c.nop	9
    1590:	0000                	unimp
    1592:	001d                	c.nop	7
    1594:	8304f01b          	0x8304f01b
    1598:	0302                	c.slli64	t1
    159a:	08ac                	addi	a1,sp,88
    159c:	0000                	unimp
    159e:	ef1c                	fsw	fa5,24(a4)
    15a0:	0005                	c.nop	1
    15a2:	0400                	addi	s0,sp,512
    15a4:	029a                	slli	t0,t0,0x6
    15a6:	0006fb0b          	0x6fb0b
    15aa:	1c00                	addi	s0,sp,560
    15ac:	06c1                	addi	a3,a3,16
    15ae:	0000                	unimp
    15b0:	a304                	fsd	fs1,0(a4)
    15b2:	0b02                	c.slli64	s6
    15b4:	0840                	addi	s0,sp,20
    15b6:	0000                	unimp
    15b8:	0900                	addi	s0,sp,144
    15ba:	05c6                	slli	a1,a1,0x11
    15bc:	0000                	unimp
    15be:	08bc                	addi	a5,sp,88
    15c0:	0000                	unimp
    15c2:	250a                	fld	fa0,128(sp)
    15c4:	0000                	unimp
    15c6:	1800                	addi	s0,sp,48
    15c8:	1d00                	addi	s0,sp,688
    15ca:	034d                	addi	t1,t1,19
    15cc:	0000                	unimp
    15ce:	0410                	addi	a2,sp,512
    15d0:	08bc                	addi	a5,sp,88
    15d2:	0000                	unimp
    15d4:	d21e                	sw	t2,36(sp)
    15d6:	0008                	0x8
    15d8:	1500                	addi	s0,sp,672
    15da:	046c                	addi	a1,sp,524
    15dc:	0000                	unimp
    15de:	1000                	addi	s0,sp,32
    15e0:	c704                	sw	s1,8(a4)
    15e2:	0008                	0x8
    15e4:	1000                	addi	s0,sp,32
    15e6:	8f04                	0x8f04
    15e8:	0001                	nop
    15ea:	1e00                	addi	s0,sp,816
    15ec:	08e9                	addi	a7,a7,26
    15ee:	0000                	unimp
    15f0:	2c15                	jal	1824 <_min_stack-0x7dc>
    15f2:	0000                	unimp
    15f4:	0000                	unimp
    15f6:	0410                	addi	a2,sp,512
    15f8:	000008ef          	jal	a7,15f8 <_min_stack-0xa08>
    15fc:	0410                	addi	a2,sp,512
    15fe:	08de                	slli	a7,a7,0x17
    1600:	0000                	unimp
    1602:	6009                	c.lui	zero,0x2
    1604:	0006                	c.slli	zero,0x1
    1606:	0500                	addi	s0,sp,640
    1608:	0009                	c.nop	2
    160a:	0a00                	addi	s0,sp,272
    160c:	0025                	c.nop	9
    160e:	0000                	unimp
    1610:	0002                	c.slli64	zero
    1612:	6a1f 0006 0400      	0x40000066a1f
    1618:	6c170333          	0x6c170333
    161c:	0004                	0x4
    161e:	1f00                	addi	s0,sp,944
    1620:	00000663          	beqz	zero,162c <_min_stack-0x9d4>
    1624:	3404                	fld	fs1,40(s0)
    1626:	04721d03          	lh	s10,71(tp) # 47 <_min_stack-0x1fb9>
    162a:	0000                	unimp
    162c:	4020                	lw	s0,64(s0)
    162e:	06000007          	0x6000007
    1632:	05c00e67          	jalr	t3,92(zero) # 0 <_min_stack-0x2000>
    1636:	0000                	unimp
    1638:	050e                	slli	a0,a0,0x3
    163a:	f4000003          	lb	zero,-192(zero) # ffffff40 <_stack_start+0xffdfff40>
    163e:	53082507          	flw	fa0,1328(a6) # 36a06 <_stack_len+0x2ea06>
    1642:	0009                	c.nop	2
    1644:	0c00                	addi	s0,sp,528
    1646:	04c9                	addi	s1,s1,18
    1648:	0000                	unimp
    164a:	53122907          	flw	fs2,1329(tp) # 531 <_min_stack-0x1acf>
    164e:	0009                	c.nop	2
    1650:	0000                	unimp
    1652:	b40c                	fsd	fa1,40(s0)
    1654:	0006                	c.slli	zero,0x1
    1656:	0700                	addi	s0,sp,896
    1658:	002c092b          	0x2c092b
    165c:	0000                	unimp
    165e:	00f0                	addi	a2,sp,76
    1660:	2509                	jal	1c62 <_min_stack-0x39e>
    1662:	0000                	unimp
    1664:	6300                	flw	fs0,0(a4)
    1666:	0009                	c.nop	2
    1668:	0a00                	addi	s0,sp,272
    166a:	0025                	c.nop	9
    166c:	0000                	unimp
    166e:	3c06003b          	0x3c06003b
    1672:	07000003          	lb	zero,112(zero) # 70 <_min_stack-0x1f90>
    1676:	1b2d                	addi	s6,s6,-21
    1678:	0000092b          	0x92b
    167c:	6304                	flw	fs1,0(a4)
    167e:	0009                	c.nop	2
    1680:	2100                	fld	fs0,0(a0)
    1682:	3375                	jal	142e <_min_stack-0xbd2>
    1684:	0032                	c.slli	zero,0xc
    1686:	1e08                	addi	a0,sp,816
    1688:	2516                	fld	fa0,320(sp)
    168a:	0000                	unimp
    168c:	0400                	addi	s0,sp,512
    168e:	0974                	addi	a3,sp,156
    1690:	0000                	unimp
    1692:	7521                	lui	a0,0xfffe8
    1694:	0038                	addi	a4,sp,8
    1696:	2108                	fld	fa0,0(a0)
    1698:	00005a17          	auipc	s4,0x5
    169c:	0400                	addi	s0,sp,512
    169e:	0985                	addi	s3,s3,1
    16a0:	0000                	unimp
    16a2:	8009                	srli	s0,s0,0x2
    16a4:	0009                	c.nop	2
    16a6:	a500                	fsd	fs0,8(a0)
    16a8:	0009                	c.nop	2
    16aa:	0a00                	addi	s0,sp,272
    16ac:	0025                	c.nop	9
    16ae:	0000                	unimp
    16b0:	00ff                	0xff
    16b2:	9504                	0x9504
    16b4:	0009                	c.nop	2
    16b6:	2200                	fld	fs0,0(a2)
    16b8:	6554                	flw	fa3,12(a0)
    16ba:	0030                	addi	a2,sp,8
    16bc:	3c01                	jal	10cc <_min_stack-0xf34>
    16be:	a512                	fsd	ft4,136(sp)
    16c0:	0009                	c.nop	2
    16c2:	0500                	addi	s0,sp,640
    16c4:	10141c03          	lh	s8,257(s0) # 6e53d <_stack_len+0x6653d>
    16c8:	2200                	fld	fs0,0(a2)
    16ca:	6554                	flw	fa3,12(a0)
    16cc:	0031                	c.nop	12
    16ce:	7e01                	lui	t3,0xfffe0
    16d0:	a512                	fsd	ft4,136(sp)
    16d2:	0009                	c.nop	2
    16d4:	0500                	addi	s0,sp,640
    16d6:	10181c03          	lh	s8,257(a6)
    16da:	2200                	fld	fs0,0(a2)
    16dc:	6554                	flw	fa3,12(a0)
    16de:	0032                	c.slli	zero,0xc
    16e0:	c001                	beqz	s0,16e0 <_min_stack-0x920>
    16e2:	a512                	fsd	ft4,136(sp)
    16e4:	0009                	c.nop	2
    16e6:	0500                	addi	s0,sp,640
    16e8:	101c1c03          	lh	s8,257(s8) # 5101 <_min_stack+0x3101>
    16ec:	2300                	fld	fs0,0(a4)
    16ee:	6554                	flw	fa3,12(a0)
    16f0:	02010033          	mul	zero,sp,zero
    16f4:	1201                	addi	tp,tp,-32
    16f6:	09a5                	addi	s3,s3,9
    16f8:	0000                	unimp
    16fa:	0305                	addi	t1,t1,1
    16fc:	201c                	fld	fa5,0(s0)
    16fe:	0010                	0x10
    1700:	30645423          	0x30645423
    1704:	0100                	addi	s0,sp,128
    1706:	0145                	addi	sp,sp,17
    1708:	a512                	fsd	ft4,136(sp)
    170a:	0009                	c.nop	2
    170c:	0500                	addi	s0,sp,640
    170e:	10241c03          	lh	s8,258(s0)
    1712:	2300                	fld	fs0,0(a4)
    1714:	6454                	flw	fa3,12(s0)
    1716:	0031                	c.nop	12
    1718:	8701                	c.srai64	a4
    171a:	1201                	addi	tp,tp,-32
    171c:	09a5                	addi	s3,s3,9
    171e:	0000                	unimp
    1720:	0305                	addi	t1,t1,1
    1722:	281c                	fld	fa5,16(s0)
    1724:	0010                	0x10
    1726:	32645423          	0x32645423
    172a:	0100                	addi	s0,sp,128
    172c:	01c9                	addi	gp,gp,18
    172e:	a512                	fsd	ft4,136(sp)
    1730:	0009                	c.nop	2
    1732:	0500                	addi	s0,sp,640
    1734:	102c1c03          	lh	s8,258(s8)
    1738:	2300                	fld	fs0,0(a4)
    173a:	6454                	flw	fa3,12(s0)
    173c:	0b010033          	0xb010033
    1740:	1202                	slli	tp,tp,0x20
    1742:	09a5                	addi	s3,s3,9
    1744:	0000                	unimp
    1746:	0305                	addi	t1,t1,1
    1748:	301c                	fld	fa5,32(s0)
    174a:	0010                	0x10
    174c:	9009                	srli	s0,s0,0x22
    174e:	0009                	c.nop	2
    1750:	4f00                	lw	s0,24(a4)
    1752:	000a                	c.slli	zero,0x2
    1754:	0a00                	addi	s0,sp,272
    1756:	0025                	c.nop	9
    1758:	0000                	unimp
    175a:	00ff                	0xff
    175c:	3f04                	fld	fs1,56(a4)
    175e:	000a                	c.slli	zero,0x2
    1760:	2300                	fld	fs0,0(a4)
    1762:	6454                	flw	fa3,12(s0)
    1764:	0034                	addi	a3,sp,8
    1766:	4d01                	li	s10,0
    1768:	1102                	slli	sp,sp,0x20
    176a:	00000a4f          	fnmadd.s	fs4,ft0,ft0,ft0,rne
    176e:	0305                	addi	t1,t1,1
    1770:	341c                	fld	fa5,40(s0)
    1772:	0010                	0x10
    1774:	8009                	srli	s0,s0,0x2
    1776:	0009                	c.nop	2
    1778:	7700                	flw	fs0,40(a4)
    177a:	000a                	c.slli	zero,0x2
    177c:	0a00                	addi	s0,sp,272
    177e:	0025                	c.nop	9
    1780:	0000                	unimp
    1782:	0009                	c.nop	2
    1784:	6704                	flw	fs1,8(a4)
    1786:	000a                	c.slli	zero,0x2
    1788:	2400                	fld	fs0,8(s0)
    178a:	0716                	slli	a4,a4,0x5
    178c:	0000                	unimp
    178e:	6f01                	0x6f01
    1790:	1202                	slli	tp,tp,0x20
    1792:	00000a77          	0xa77
    1796:	0305                	addi	t1,t1,1
    1798:	351c                	fld	fa5,40(a0)
    179a:	0010                	0x10
    179c:	2025                	jal	17c4 <_min_stack-0x83c>
    179e:	01000007          	0x1000007
    17a2:	f2060313          	addi	t1,a2,-224 # 663da <_stack_len+0x5e3da>
    17a6:	1000100b          	0x1000100b
    17aa:	01000007          	0x1000007
    17ae:	6b9c                	flw	fa5,16(a5)
    17b0:	2600000b          	0x2600000b
    17b4:	6e69                	lui	t3,0x1a
    17b6:	0100                	addi	s0,sp,128
    17b8:	6b270313          	addi	t1,a4,1714 # 56bc0 <_stack_len+0x4ebc0>
    17bc:	0200000b          	0x200000b
    17c0:	4c91                	li	s9,4
    17c2:	6f26                	flw	ft10,72(sp)
    17c4:	7475                	lui	s0,0xffffd
    17c6:	0100                	addi	s0,sp,128
    17c8:	053a0313          	addi	t1,s4,83 # 66eb <_min_stack+0x46eb>
    17cc:	02000003          	lb	zero,32(zero) # 20 <_min_stack-0x1fe0>
    17d0:	4891                	li	a7,4
    17d2:	6b26                	flw	fs6,72(sp)
    17d4:	7965                	lui	s2,0xffff9
    17d6:	0100                	addi	s0,sp,128
    17d8:	0314                	addi	a3,sp,384
    17da:	7121                	addi	sp,sp,-448
    17dc:	0200000b          	0x200000b
    17e0:	4491                	li	s1,4
    17e2:	006b7223          	0x6b7223
    17e6:	1601                	addi	a2,a2,-32
    17e8:	0b771003          	lh	zero,183(a4)
    17ec:	0000                	unimp
    17ee:	9102                	jalr	sp
    17f0:	237c                	fld	fa5,192(a4)
    17f2:	01003073          	csrc	0x10,zero
    17f6:	74090317          	auipc	t1,0x74090
    17fa:	0009                	c.nop	2
    17fc:	0200                	addi	s0,sp,256
    17fe:	7891                	lui	a7,0xfffe4
    1800:	00317323          	0x317323
    1804:	1701                	addi	a4,a4,-32
    1806:	09740d03          	lb	s10,151(s0) # ffffd097 <_stack_start+0xffdfd097>
    180a:	0000                	unimp
    180c:	9102                	jalr	sp
    180e:	2374                	fld	fa3,192(a4)
    1810:	01003273          	csrrc	tp,0x10,zero
    1814:	74110317          	auipc	t1,0x74110
    1818:	0009                	c.nop	2
    181a:	0200                	addi	s0,sp,256
    181c:	7091                	lui	ra,0xfffe4
    181e:	00337323          	0x337323
    1822:	1701                	addi	a4,a4,-32
    1824:	09741503          	lh	a0,151(s0)
    1828:	0000                	unimp
    182a:	9102                	jalr	sp
    182c:	236c                	fld	fa1,192(a4)
    182e:	3074                	fld	fa3,224(s0)
    1830:	0100                	addi	s0,sp,128
    1832:	74190317          	auipc	t1,0x74190
    1836:	0009                	c.nop	2
    1838:	0200                	addi	s0,sp,256
    183a:	6491                	lui	s1,0x4
    183c:	00317423          	0x317423
    1840:	1701                	addi	a4,a4,-32
    1842:	09741d03          	lh	s10,151(s0)
    1846:	0000                	unimp
    1848:	9102                	jalr	sp
    184a:	2360                	fld	fs0,192(a4)
    184c:	3274                	fld	fa3,224(a2)
    184e:	0100                	addi	s0,sp,128
    1850:	74210317          	auipc	t1,0x74210
    1854:	0009                	c.nop	2
    1856:	0200                	addi	s0,sp,256
    1858:	5c91                	li	s9,-28
    185a:	00337423          	0x337423
    185e:	1701                	addi	a4,a4,-32
    1860:	09742503          	lw	a0,151(s0)
    1864:	0000                	unimp
    1866:	9102                	jalr	sp
    1868:	2358                	fld	fa4,128(a4)
    186a:	0072                	c.slli	zero,0x1c
    186c:	1901                	addi	s2,s2,-32
    186e:	002c0903          	lb	s2,2(s8)
    1872:	0000                	unimp
    1874:	9102                	jalr	sp
    1876:	0068                	addi	a0,sp,12
    1878:	0410                	addi	a2,sp,512
    187a:	0061                	c.nop	24
    187c:	0000                	unimp
    187e:	0410                	addi	a2,sp,512
    1880:	0000096f          	jal	s2,1880 <_min_stack-0x780>
    1884:	0410                	addi	a2,sp,512
    1886:	0980                	addi	s0,sp,208
    1888:	0000                	unimp
    188a:	00072c27          	fsw	ft0,24(a4)
    188e:	0100                	addi	s0,sp,128
    1890:	0278                	addi	a4,sp,268
    1892:	2c05                	jal	1ac2 <_min_stack-0x53e>
    1894:	0000                	unimp
    1896:	dc00                	sw	s0,56(s0)
    1898:	1005                	c.nop	-31
    189a:	1600                	addi	s0,sp,800
    189c:	0006                	c.slli	zero,0x1
    189e:	0100                	addi	s0,sp,128
    18a0:	f69c                	fsw	fa5,40(a3)
    18a2:	2800000b          	0x2800000b
    18a6:	075c                	addi	a5,sp,900
    18a8:	0000                	unimp
    18aa:	7801                	lui	a6,0xfffe0
    18ac:	2e02                	fld	ft8,0(sp)
    18ae:	00000b6b          	0xb6b
    18b2:	9102                	jalr	sp
    18b4:	286c                	fld	fa1,208(s0)
    18b6:	0000071b          	0x71b
    18ba:	7801                	lui	a6,0xfffe0
    18bc:	4102                	lw	sp,0(sp)
    18be:	00000033          	add	zero,zero,zero
    18c2:	9102                	jalr	sp
    18c4:	2668                	fld	fa0,200(a2)
    18c6:	0079656b          	0x79656b
    18ca:	7901                	lui	s2,0xfffe0
    18cc:	2202                	fld	ft4,0(sp)
    18ce:	0bf6                	slli	s7,s7,0x1d
    18d0:	0000                	unimp
    18d2:	9102                	jalr	sp
    18d4:	2364                	fld	fs1,192(a4)
    18d6:	6b72                	flw	fs6,28(sp)
    18d8:	0100                	addi	s0,sp,128
    18da:	027c                	addi	a5,sp,268
    18dc:	fc0a                	fsw	ft2,56(sp)
    18de:	0200000b          	0x200000b
    18e2:	7c91                	lui	s9,0xfffe4
    18e4:	01006923          	0x1006923
    18e8:	027d                	addi	tp,tp,31
    18ea:	2c09                	jal	1afc <_min_stack-0x504>
    18ec:	0000                	unimp
    18ee:	0200                	addi	s0,sp,256
    18f0:	7891                	lui	a7,0xfffe4
    18f2:	1124                	addi	s1,sp,168
    18f4:	01000007          	0x1000007
    18f8:	027e                	slli	tp,tp,0x1f
    18fa:	7409                	lui	s0,0xfffe2
    18fc:	0009                	c.nop	2
    18fe:	0200                	addi	s0,sp,256
    1900:	7491                	lui	s1,0xfffe4
    1902:	1000                	addi	s0,sp,32
    1904:	6304                	flw	fs1,0(a4)
    1906:	0009                	c.nop	2
    1908:	1000                	addi	s0,sp,32
    190a:	7404                	flw	fs1,40(s0)
    190c:	0009                	c.nop	2
    190e:	0000                	unimp
    1910:	000009cf          	fnmadd.s	fs3,ft0,ft0,ft0,rne
    1914:	0004                	0x4
    1916:	061a                	slli	a2,a2,0x6
    1918:	0000                	unimp
    191a:	0104                	addi	s1,sp,128
    191c:	00000233          	add	tp,zero,zero
    1920:	640c                	flw	fa1,8(s0)
    1922:	92000007          	0x92000007
    1926:	0001                	nop
    1928:	0200                	addi	s0,sp,256
    192a:	1c001013          	0x1c001013
    192e:	0000                	unimp
    1930:	a800                	fsd	fs0,16(s0)
    1932:	02000017          	auipc	zero,0x2000
    1936:	0504                	addi	s1,sp,640
    1938:	6e69                	lui	t3,0x1a
    193a:	0074                	addi	a3,sp,12
    193c:	00002503          	lw	a0,0(zero) # 0 <_min_stack-0x2000>
    1940:	0400                	addi	s0,sp,512
    1942:	0704                	addi	s1,sp,896
    1944:	00cd                	addi	ra,ra,19
    1946:	0000                	unimp
    1948:	0804                	addi	s1,sp,16
    194a:	7705                	lui	a4,0xfffe1
    194c:	0001                	nop
    194e:	0400                	addi	s0,sp,512
    1950:	0410                	addi	a2,sp,512
    1952:	0500                	addi	s0,sp,640
    1954:	0000                	unimp
    1956:	0505                	addi	a0,a0,1
    1958:	f4000003          	lb	zero,-192(zero) # ffffff40 <_stack_start+0xffdfff40>
    195c:	2502                	fld	fa0,0(sp)
    195e:	6e08                	flw	fa0,24(a2)
    1960:	0000                	unimp
    1962:	0600                	addi	s0,sp,768
    1964:	04c9                	addi	s1,s1,18
    1966:	0000                	unimp
    1968:	2902                	fld	fs2,0(sp)
    196a:	6e12                	flw	ft8,4(sp)
    196c:	0000                	unimp
    196e:	0000                	unimp
    1970:	b406                	fsd	ft1,40(sp)
    1972:	0006                	c.slli	zero,0x1
    1974:	0200                	addi	s0,sp,256
    1976:	0025092b          	0x25092b
    197a:	0000                	unimp
    197c:	00f0                	addi	a2,sp,76
    197e:	00003107          	fld	ft2,0(zero) # 0 <_min_stack-0x2000>
    1982:	7e00                	flw	fs0,56(a2)
    1984:	0000                	unimp
    1986:	0800                	addi	s0,sp,16
    1988:	0031                	c.nop	12
    198a:	0000                	unimp
    198c:	3c09003b          	0x3c09003b
    1990:	02000003          	lb	zero,32(zero) # 20 <_min_stack-0x1fe0>
    1994:	1b2d                	addi	s6,s6,-21
    1996:	0046                	c.slli	zero,0x11
    1998:	0000                	unimp
    199a:	00007e03          	0x7e03
    199e:	0400                	addi	s0,sp,512
    19a0:	0601                	addi	a2,a2,0
    19a2:	0066                	c.slli	zero,0x19
    19a4:	0000                	unimp
    19a6:	0104                	addi	s1,sp,128
    19a8:	6408                	flw	fa0,8(s0)
    19aa:	0000                	unimp
    19ac:	0300                	addi	s0,sp,384
    19ae:	0096                	slli	ra,ra,0x5
    19b0:	0000                	unimp
    19b2:	0204                	addi	s1,sp,256
    19b4:	0505                	addi	a0,a0,1
    19b6:	0002                	c.slli64	zero
    19b8:	0400                	addi	s0,sp,512
    19ba:	0702                	c.slli64	a4
    19bc:	0072                	c.slli	zero,0x1c
    19be:	0000                	unimp
    19c0:	0404                	addi	s1,sp,512
    19c2:	7c05                	lui	s8,0xfffe1
    19c4:	0001                	nop
    19c6:	0400                	addi	s0,sp,512
    19c8:	0704                	addi	s1,sp,896
    19ca:	00c8                	addi	a0,sp,68
    19cc:	0000                	unimp
    19ce:	0804                	addi	s1,sp,16
    19d0:	0000c307          	flq	ft6,0(ra) # fffe4000 <_stack_start+0xffde4000>
    19d4:	0a00                	addi	s0,sp,272
    19d6:	04b4                	addi	a3,sp,584
    19d8:	0000                	unimp
    19da:	17016503          	0x17016503
    19de:	0031                	c.nop	12
    19e0:	0000                	unimp
    19e2:	2f09                	jal	20f4 <_min_stack+0xf4>
    19e4:	0005                	c.nop	1
    19e6:	0400                	addi	s0,sp,512
    19e8:	0e2e                	slli	t3,t3,0xb
    19ea:	00b0                	addi	a2,sp,72
    19ec:	0000                	unimp
    19ee:	1209                	addi	tp,tp,-30
    19f0:	0006                	c.slli	zero,0x1
    19f2:	0400                	addi	s0,sp,512
    19f4:	0e74                	addi	a3,sp,796
    19f6:	00b0                	addi	a2,sp,72
    19f8:	0000                	unimp
    19fa:	8009                	srli	s0,s0,0x2
    19fc:	0004                	0x4
    19fe:	0400                	addi	s0,sp,512
    1a00:	00251793          	slli	a5,a0,0x2
    1a04:	0000                	unimp
    1a06:	a504040b          	0xa504040b
    1a0a:	00011803          	lh	a6,0(sp) # 334f2 <_stack_len+0x2b4f2>
    1a0e:	0c00                	addi	s0,sp,528
    1a10:	04ae                	slli	s1,s1,0xb
    1a12:	0000                	unimp
    1a14:	a704                	fsd	fs1,8(a4)
    1a16:	c50c                	sw	a1,8(a0)
    1a18:	0000                	unimp
    1a1a:	0c00                	addi	s0,sp,528
    1a1c:	0452                	slli	s0,s0,0x14
    1a1e:	0000                	unimp
    1a20:	a804                	fsd	fs1,16(s0)
    1a22:	00011813          	slli	a6,sp,0x0
    1a26:	0000                	unimp
    1a28:	00009607          	0x9607
    1a2c:	2800                	fld	fs0,16(s0)
    1a2e:	0001                	nop
    1a30:	0800                	addi	s0,sp,16
    1a32:	0031                	c.nop	12
    1a34:	0000                	unimp
    1a36:	080d0003          	lb	zero,128(s10) # 2080 <_min_stack+0x80>
    1a3a:	a204                	fsd	fs1,0(a2)
    1a3c:	4c09                	li	s8,2
    1a3e:	0001                	nop
    1a40:	0600                	addi	s0,sp,768
    1a42:	05fc                	addi	a5,sp,716
    1a44:	0000                	unimp
    1a46:	a404                	fsd	fs1,8(s0)
    1a48:	00002507          	flw	fa0,0(zero) # 0 <_min_stack-0x2000>
    1a4c:	0000                	unimp
    1a4e:	0406                	slli	s0,s0,0x1
    1a50:	0006                	c.slli	zero,0x1
    1a52:	0400                	addi	s0,sp,512
    1a54:	05a9                	addi	a1,a1,10
    1a56:	00f6                	slli	ra,ra,0x1d
    1a58:	0000                	unimp
    1a5a:	0004                	0x4
    1a5c:	7e09                	lui	t3,0xfffe2
    1a5e:	0005                	c.nop	1
    1a60:	0400                	addi	s0,sp,512
    1a62:	03aa                	slli	t2,t2,0xa
    1a64:	0128                	addi	a0,sp,136
    1a66:	0000                	unimp
    1a68:	040e                	slli	s0,s0,0x3
    1a6a:	4e09                	li	t3,2
    1a6c:	0006                	c.slli	zero,0x1
    1a6e:	0500                	addi	s0,sp,640
    1a70:	1916                	slli	s2,s2,0x25
    1a72:	000000b7          	lui	ra,0x0
    1a76:	4009                	c.li	zero,2
    1a78:	0005                	c.nop	1
    1a7a:	0600                	addi	s0,sp,768
    1a7c:	0d0c                	addi	a1,sp,656
    1a7e:	0025                	c.nop	9
    1a80:	0000                	unimp
    1a82:	1209                	addi	tp,tp,-30
    1a84:	0004                	0x4
    1a86:	0500                	addi	s0,sp,640
    1a88:	01661b23          	sh	s6,22(a2)
    1a8c:	0000                	unimp
    1a8e:	2305                	jal	1fae <_min_stack-0x52>
    1a90:	0004                	0x4
    1a92:	1800                	addi	s0,sp,48
    1a94:	3405                	jal	14b4 <_min_stack-0xb4c>
    1a96:	d808                	sw	a0,48(s0)
    1a98:	0001                	nop
    1a9a:	0600                	addi	s0,sp,768
    1a9c:	059f 0000 3605      	0x36050000059f
    1aa2:	0001d813          	srli	a6,gp,0x0
    1aa6:	0000                	unimp
    1aa8:	006b5f0f          	0x6b5f0f
    1aac:	3705                	jal	19cc <_min_stack-0x634>
    1aae:	00002507          	flw	fa0,0(zero) # 0 <_min_stack-0x2000>
    1ab2:	0400                	addi	s0,sp,512
    1ab4:	e706                	fsw	ft1,140(sp)
    1ab6:	0005                	c.nop	1
    1ab8:	0500                	addi	s0,sp,640
    1aba:	00250b37          	lui	s6,0x250
    1abe:	0000                	unimp
    1ac0:	0608                	addi	a0,sp,768
    1ac2:	040c                	addi	a1,sp,512
    1ac4:	0000                	unimp
    1ac6:	3705                	jal	19e6 <_min_stack-0x61a>
    1ac8:	2514                	fld	fa3,8(a0)
    1aca:	0000                	unimp
    1acc:	0c00                	addi	s0,sp,528
    1ace:	8306                	mv	t1,ra
    1ad0:	0006                	c.slli	zero,0x1
    1ad2:	0500                	addi	s0,sp,640
    1ad4:	00251b37          	lui	s6,0x251
    1ad8:	0000                	unimp
    1ada:	0f10                	addi	a2,sp,912
    1adc:	785f 0500 0b38      	0xb380500785f
    1ae2:	01de                	slli	gp,gp,0x17
    1ae4:	0000                	unimp
    1ae6:	0014                	0x14
    1ae8:	0410                	addi	a2,sp,512
    1aea:	017e                	slli	sp,sp,0x1f
    1aec:	0000                	unimp
    1aee:	00015a07          	0x15a07
    1af2:	ee00                	fsw	fs0,24(a2)
    1af4:	0001                	nop
    1af6:	0800                	addi	s0,sp,16
    1af8:	0031                	c.nop	12
    1afa:	0000                	unimp
    1afc:	0000                	unimp
    1afe:	4405                	li	s0,1
    1b00:	0004                	0x4
    1b02:	2400                	fld	fs0,8(s0)
    1b04:	3c05                	jal	1534 <_min_stack-0xacc>
    1b06:	7108                	flw	fa0,32(a0)
    1b08:	0002                	c.slli64	zero
    1b0a:	0600                	addi	s0,sp,768
    1b0c:	0375                	addi	t1,t1,29
    1b0e:	0000                	unimp
    1b10:	3e05                	jal	1640 <_min_stack-0x9c0>
    1b12:	2509                	jal	2114 <_min_stack+0x114>
    1b14:	0000                	unimp
    1b16:	0000                	unimp
    1b18:	1a06                	slli	s4,s4,0x21
    1b1a:	0006                	c.slli	zero,0x1
    1b1c:	0500                	addi	s0,sp,640
    1b1e:	0025093f 06040000 	0x60400000025093f
    1b26:	0384                	addi	s1,sp,448
    1b28:	0000                	unimp
    1b2a:	4005                	c.li	zero,1
    1b2c:	2509                	jal	212e <_min_stack+0x12e>
    1b2e:	0000                	unimp
    1b30:	0800                	addi	s0,sp,16
    1b32:	0706                	slli	a4,a4,0x1
    1b34:	05000007          	0x5000007
    1b38:	0941                	addi	s2,s2,16
    1b3a:	0025                	c.nop	9
    1b3c:	0000                	unimp
    1b3e:	060c                	addi	a1,sp,768
    1b40:	00000513          	li	a0,0
    1b44:	4205                	li	tp,1
    1b46:	2509                	jal	2148 <_min_stack+0x148>
    1b48:	0000                	unimp
    1b4a:	1000                	addi	s0,sp,32
    1b4c:	d706                	sw	ra,172(sp)
    1b4e:	0004                	0x4
    1b50:	0500                	addi	s0,sp,640
    1b52:	00250943          	fmadd.s	fs2,fa0,ft2,ft0,rne
    1b56:	0000                	unimp
    1b58:	0614                	addi	a3,sp,768
    1b5a:	0688                	addi	a0,sp,832
    1b5c:	0000                	unimp
    1b5e:	4405                	li	s0,1
    1b60:	2509                	jal	2162 <_min_stack+0x162>
    1b62:	0000                	unimp
    1b64:	1800                	addi	s0,sp,48
    1b66:	6006                	flw	ft0,64(sp)
    1b68:	0005                	c.nop	1
    1b6a:	0500                	addi	s0,sp,640
    1b6c:	0945                	addi	s2,s2,17
    1b6e:	0025                	c.nop	9
    1b70:	0000                	unimp
    1b72:	061c                	addi	a5,sp,768
    1b74:	06c9                	addi	a3,a3,18
    1b76:	0000                	unimp
    1b78:	4605                	li	a2,1
    1b7a:	2509                	jal	217c <_min_stack+0x17c>
    1b7c:	0000                	unimp
    1b7e:	2000                	fld	fs0,0(s0)
    1b80:	1100                	addi	s0,sp,160
    1b82:	00000393          	li	t2,0
    1b86:	0108                	addi	a0,sp,128
    1b88:	4f05                	li	t5,1
    1b8a:	b608                	fsd	fa0,40(a2)
    1b8c:	0002                	c.slli64	zero
    1b8e:	0600                	addi	s0,sp,768
    1b90:	03ff                	0x3ff
    1b92:	0000                	unimp
    1b94:	5005                	c.li	zero,-31
    1b96:	b60a                	fsd	ft2,296(sp)
    1b98:	0002                	c.slli64	zero
    1b9a:	0000                	unimp
    1b9c:	eb06                	fsw	ft1,148(sp)
    1b9e:	0002                	c.slli64	zero
    1ba0:	0500                	addi	s0,sp,640
    1ba2:	0951                	addi	s2,s2,20
    1ba4:	02b6                	slli	t0,t0,0xd
    1ba6:	0000                	unimp
    1ba8:	1280                	addi	s0,sp,352
    1baa:	0640                	addi	s0,sp,772
    1bac:	0000                	unimp
    1bae:	5305                	li	t1,-31
    1bb0:	5a0a                	lw	s4,160(sp)
    1bb2:	0001                	nop
    1bb4:	0000                	unimp
    1bb6:	1201                	addi	tp,tp,-32
    1bb8:	03b8                	addi	a4,sp,456
    1bba:	0000                	unimp
    1bbc:	5605                	li	a2,-31
    1bbe:	5a0a                	lw	s4,160(sp)
    1bc0:	0001                	nop
    1bc2:	0400                	addi	s0,sp,512
    1bc4:	0001                	nop
    1bc6:	00015807          	0x15807
    1bca:	c600                	sw	s0,8(a2)
    1bcc:	0002                	c.slli64	zero
    1bce:	0800                	addi	s0,sp,16
    1bd0:	0031                	c.nop	12
    1bd2:	0000                	unimp
    1bd4:	001f 1c11 0005      	0x51c11001f
    1bda:	9000                	0x9000
    1bdc:	0501                	addi	a0,a0,0
    1bde:	0862                	slli	a6,a6,0x18
    1be0:	0309                	addi	t1,t1,2
    1be2:	0000                	unimp
    1be4:	9f06                	add	t5,t5,ra
    1be6:	0005                	c.nop	1
    1be8:	0500                	addi	s0,sp,640
    1bea:	03091263          	bne	s2,a6,1c0e <_min_stack-0x3f2>
    1bee:	0000                	unimp
    1bf0:	0600                	addi	s0,sp,768
    1bf2:	000005b7          	lui	a1,0x0
    1bf6:	6405                	lui	s0,0x1
    1bf8:	2506                	fld	fa0,64(sp)
    1bfa:	0000                	unimp
    1bfc:	0400                	addi	s0,sp,512
    1bfe:	0706                	slli	a4,a4,0x1
    1c00:	0004                	0x4
    1c02:	0500                	addi	s0,sp,640
    1c04:	0966                	slli	s2,s2,0x19
    1c06:	0000030f          	0x30f
    1c0a:	0608                	addi	a0,sp,768
    1c0c:	00000393          	li	t2,0
    1c10:	6705                	lui	a4,0x1
    1c12:	711e                	flw	ft2,228(sp)
    1c14:	0002                	c.slli64	zero
    1c16:	8800                	0x8800
    1c18:	1000                	addi	s0,sp,32
    1c1a:	c604                	sw	s1,8(a2)
    1c1c:	0002                	c.slli64	zero
    1c1e:	0700                	addi	s0,sp,896
    1c20:	031f 0000 031f      	0x31f0000031f
    1c26:	0000                	unimp
    1c28:	3108                	fld	fa0,32(a0)
    1c2a:	0000                	unimp
    1c2c:	1f00                	addi	s0,sp,944
    1c2e:	1000                	addi	s0,sp,32
    1c30:	2504                	fld	fs1,8(a0)
    1c32:	13000003          	lb	zero,304(zero) # 130 <_min_stack-0x1ed0>
    1c36:	6a05                	lui	s4,0x1
    1c38:	0005                	c.nop	1
    1c3a:	0800                	addi	s0,sp,16
    1c3c:	7a05                	lui	s4,0xfffe1
    1c3e:	4e08                	lw	a0,24(a2)
    1c40:	06000003          	lb	zero,96(zero) # 60 <_min_stack-0x1fa0>
    1c44:	00bd                	addi	ra,ra,15
    1c46:	0000                	unimp
    1c48:	7b05                	lui	s6,0xfffe1
    1c4a:	4e11                	li	t3,4
    1c4c:	00000003          	lb	zero,0(zero) # 0 <_min_stack-0x2000>
    1c50:	f706                	fsw	ft1,172(sp)
    1c52:	0002                	c.slli64	zero
    1c54:	0500                	addi	s0,sp,640
    1c56:	067c                	addi	a5,sp,780
    1c58:	0025                	c.nop	9
    1c5a:	0000                	unimp
    1c5c:	0004                	0x4
    1c5e:	0410                	addi	a2,sp,512
    1c60:	0096                	slli	ra,ra,0x5
    1c62:	0000                	unimp
    1c64:	8905                	andi	a0,a0,1
    1c66:	0005                	c.nop	1
    1c68:	6800                	flw	fs0,16(s0)
    1c6a:	ba05                	j	159a <_min_stack-0xa66>
    1c6c:	9708                	0x9708
    1c6e:	0004                	0x4
    1c70:	0f00                	addi	s0,sp,912
    1c72:	705f 0500 12bb      	0x12bb0500705f
    1c78:	034e                	slli	t1,t1,0x13
    1c7a:	0000                	unimp
    1c7c:	0f00                	addi	s0,sp,912
    1c7e:	725f 0500 07bc      	0x7bc0500725f
    1c84:	0025                	c.nop	9
    1c86:	0000                	unimp
    1c88:	0f04                	addi	s1,sp,912
    1c8a:	775f 0500 07bd      	0x7bd0500775f
    1c90:	0025                	c.nop	9
    1c92:	0000                	unimp
    1c94:	0608                	addi	a0,sp,768
    1c96:	03b1                	addi	t2,t2,12
    1c98:	0000                	unimp
    1c9a:	be05                	j	17ca <_min_stack-0x836>
    1c9c:	a209                	j	1d9e <_min_stack-0x262>
    1c9e:	0000                	unimp
    1ca0:	0c00                	addi	s0,sp,528
    1ca2:	7a06                	flw	fs4,96(sp)
    1ca4:	0004                	0x4
    1ca6:	0500                	addi	s0,sp,640
    1ca8:	00a209bf 0f0e0000 	0xf0e000000a209bf
    1cb0:	625f 0066 c005      	0xc0050066625f
    1cb6:	2611                	jal	1fba <_min_stack-0x46>
    1cb8:	10000003          	lb	zero,256(zero) # 100 <_min_stack-0x1f00>
    1cbc:	4406                	lw	s0,64(sp)
    1cbe:	05000003          	lb	zero,80(zero) # 50 <_min_stack-0x1fb0>
    1cc2:	07c1                	addi	a5,a5,16
    1cc4:	0025                	c.nop	9
    1cc6:	0000                	unimp
    1cc8:	0618                	addi	a4,sp,768
    1cca:	03a1                	addi	t2,t2,8
    1ccc:	0000                	unimp
    1cce:	c805                	beqz	s0,1cfe <_min_stack-0x302>
    1cd0:	580a                	lw	a6,160(sp)
    1cd2:	0001                	nop
    1cd4:	1c00                	addi	s0,sp,560
    1cd6:	f606                	fsw	ft1,44(sp)
    1cd8:	0001                	nop
    1cda:	0500                	addi	s0,sp,640
    1cdc:	1dca                	slli	s11,s11,0x32
    1cde:	0000061b          	0x61b
    1ce2:	0620                	addi	s0,sp,776
    1ce4:	04d0                	addi	a2,sp,580
    1ce6:	0000                	unimp
    1ce8:	cc05                	beqz	s0,1d20 <_min_stack-0x2e0>
    1cea:	451d                	li	a0,7
    1cec:	0006                	c.slli	zero,0x1
    1cee:	2400                	fld	fs0,8(s0)
    1cf0:	0c06                	slli	s8,s8,0x1
    1cf2:	0006                	c.slli	zero,0x1
    1cf4:	0500                	addi	s0,sp,640
    1cf6:	06690dcf          	fnmadd.q	fs11,fs2,ft6,ft0,rne
    1cfa:	0000                	unimp
    1cfc:	0628                	addi	a0,sp,776
    1cfe:	000006e3          	beqz	zero,250a <_min_stack+0x50a>
    1d02:	d005                	beqz	s0,1c22 <_min_stack-0x3de>
    1d04:	8309                	srli	a4,a4,0x2
    1d06:	0006                	c.slli	zero,0x1
    1d08:	2c00                	fld	fs0,24(s0)
    1d0a:	62755f0f          	0x62755f0f
    1d0e:	0500                	addi	s0,sp,640
    1d10:	032611d3          	fadd.d	ft3,fa2,fs2,rtz
    1d14:	0000                	unimp
    1d16:	0f30                	addi	a2,sp,920
    1d18:	755f 0070 d405      	0xd4050070755f
    1d1e:	4e12                	lw	t3,4(sp)
    1d20:	38000003          	lb	zero,896(zero) # 380 <_min_stack-0x1c80>
    1d24:	72755f0f          	0x72755f0f
    1d28:	0500                	addi	s0,sp,640
    1d2a:	07d5                	addi	a5,a5,21
    1d2c:	0025                	c.nop	9
    1d2e:	0000                	unimp
    1d30:	063c                	addi	a5,sp,776
    1d32:	037e                	slli	t1,t1,0x1f
    1d34:	0000                	unimp
    1d36:	d805                	beqz	s0,1c66 <_min_stack-0x39a>
    1d38:	8911                	andi	a0,a0,4
    1d3a:	0006                	c.slli	zero,0x1
    1d3c:	4000                	lw	s0,0(s0)
    1d3e:	bb06                	fsd	ft1,432(sp)
    1d40:	0006                	c.slli	zero,0x1
    1d42:	0500                	addi	s0,sp,640
    1d44:	11d9                	addi	gp,gp,-10
    1d46:	0699                	addi	a3,a3,6
    1d48:	0000                	unimp
    1d4a:	6c5f0f43          	0x6c5f0f43
    1d4e:	0062                	c.slli	zero,0x18
    1d50:	dc05                	beqz	s0,1c88 <_min_stack-0x378>
    1d52:	2611                	jal	2056 <_min_stack+0x56>
    1d54:	44000003          	lb	zero,1088(zero) # 440 <_min_stack-0x1bc0>
    1d58:	c706                	sw	ra,140(sp)
    1d5a:	05000003          	lb	zero,80(zero) # 50 <_min_stack-0x1fb0>
    1d5e:	07df 0025 0000      	0x2507df
    1d64:	064c                	addi	a1,sp,772
    1d66:	03d8                	addi	a4,sp,452
    1d68:	0000                	unimp
    1d6a:	e005                	bnez	s0,1d8a <_min_stack-0x276>
    1d6c:	d20a                	sw	sp,36(sp)
    1d6e:	0000                	unimp
    1d70:	5000                	lw	s0,32(s0)
    1d72:	1b06                	slli	s6,s6,0x21
    1d74:	05000003          	lb	zero,80(zero) # 50 <_min_stack-0x1fb0>
    1d78:	04b512e3          	bne	a0,a1,25bc <_min_stack+0x5bc>
    1d7c:	0000                	unimp
    1d7e:	0654                	addi	a3,sp,772
    1d80:	000004bb          	0x4bb
    1d84:	e705                	bnez	a4,1dac <_min_stack-0x254>
    1d86:	720c                	flw	fa1,32(a2)
    1d88:	0001                	nop
    1d8a:	5800                	lw	s0,48(s0)
    1d8c:	9106                	add	sp,sp,ra
    1d8e:	0005                	c.nop	1
    1d90:	0500                	addi	s0,sp,640
    1d92:	0ee9                	addi	t4,t4,26
    1d94:	014c                	addi	a1,sp,132
    1d96:	0000                	unimp
    1d98:	065c                	addi	a5,sp,772
    1d9a:	04c1                	addi	s1,s1,16
    1d9c:	0000                	unimp
    1d9e:	ea05                	bnez	a2,1dce <_min_stack-0x232>
    1da0:	2509                	jal	23a2 <_min_stack+0x3a2>
    1da2:	0000                	unimp
    1da4:	6400                	flw	fs0,8(s0)
    1da6:	1400                	addi	s0,sp,544
    1da8:	00ea                	slli	ra,ra,0x1a
    1daa:	0000                	unimp
    1dac:	04b5                	addi	s1,s1,13
    1dae:	0000                	unimp
    1db0:	b515                	j	1bd4 <_min_stack-0x42c>
    1db2:	0004                	0x4
    1db4:	1500                	addi	s0,sp,672
    1db6:	0158                	addi	a4,sp,132
    1db8:	0000                	unimp
    1dba:	0915                	addi	s2,s2,5
    1dbc:	0006                	c.slli	zero,0x1
    1dbe:	1500                	addi	s0,sp,672
    1dc0:	0025                	c.nop	9
    1dc2:	0000                	unimp
    1dc4:	1000                	addi	s0,sp,32
    1dc6:	c004                	sw	s1,0(s0)
    1dc8:	0004                	0x4
    1dca:	0300                	addi	s0,sp,384
    1dcc:	04b5                	addi	s1,s1,13
    1dce:	0000                	unimp
    1dd0:	ef16                	fsw	ft5,156(sp)
    1dd2:	0005                	c.nop	1
    1dd4:	2800                	fld	fs0,16(s0)
    1dd6:	0504                	addi	s1,sp,640
    1dd8:	0265                	addi	tp,tp,25
    1dda:	0908                	addi	a0,sp,144
    1ddc:	0006                	c.slli	zero,0x1
    1dde:	1700                	addi	s0,sp,928
    1de0:	0559                	addi	a0,a0,22
    1de2:	0000                	unimp
    1de4:	6705                	lui	a4,0x1
    1de6:	0702                	c.slli64	a4
    1de8:	0025                	c.nop	9
    1dea:	0000                	unimp
    1dec:	1700                	addi	s0,sp,928
    1dee:	03c0                	addi	s0,sp,452
    1df0:	0000                	unimp
    1df2:	6c05                	lui	s8,0x1
    1df4:	0b02                	c.slli64	s6
    1df6:	06f5                	addi	a3,a3,29
    1df8:	0000                	unimp
    1dfa:	1704                	addi	s1,sp,928
    1dfc:	046a                	slli	s0,s0,0x1a
    1dfe:	0000                	unimp
    1e00:	6c05                	lui	s8,0x1
    1e02:	1402                	slli	s0,s0,0x20
    1e04:	06f5                	addi	a3,a3,29
    1e06:	0000                	unimp
    1e08:	1708                	addi	a0,sp,928
    1e0a:	0000041b          	0x41b
    1e0e:	6c05                	lui	s8,0x1
    1e10:	1e02                	slli	t3,t3,0x20
    1e12:	06f5                	addi	a3,a3,29
    1e14:	0000                	unimp
    1e16:	170c                	addi	a1,sp,928
    1e18:	05b2                	slli	a1,a1,0xc
    1e1a:	0000                	unimp
    1e1c:	6e05                	lui	t3,0x1
    1e1e:	0802                	c.slli64	a6
    1e20:	0025                	c.nop	9
    1e22:	0000                	unimp
    1e24:	1710                	addi	a2,sp,928
    1e26:	0310                	addi	a2,sp,384
    1e28:	0000                	unimp
    1e2a:	6f05                	lui	t5,0x1
    1e2c:	0802                	c.slli64	a6
    1e2e:	08f5                	addi	a7,a7,29
    1e30:	0000                	unimp
    1e32:	1714                	addi	a3,sp,928
    1e34:	05ce                	slli	a1,a1,0x13
    1e36:	0000                	unimp
    1e38:	7205                	lui	tp,0xfffe1
    1e3a:	0702                	c.slli64	a4
    1e3c:	0025                	c.nop	9
    1e3e:	0000                	unimp
    1e40:	1730                	addi	a2,sp,936
    1e42:	05bc                	addi	a5,sp,712
    1e44:	0000                	unimp
    1e46:	7305                	lui	t1,0xfffe1
    1e48:	1602                	slli	a2,a2,0x20
    1e4a:	090a                	slli	s2,s2,0x2
    1e4c:	0000                	unimp
    1e4e:	1734                	addi	a3,sp,936
    1e50:	0524                	addi	s1,sp,648
    1e52:	0000                	unimp
    1e54:	7505                	lui	a0,0xfffe1
    1e56:	0702                	c.slli64	a4
    1e58:	0025                	c.nop	9
    1e5a:	0000                	unimp
    1e5c:	1738                	addi	a4,sp,936
    1e5e:	05c4                	addi	s1,sp,708
    1e60:	0000                	unimp
    1e62:	7705                	lui	a4,0xfffe1
    1e64:	0a02                	c.slli64	s4
    1e66:	0000091b          	0x91b
    1e6a:	173c                	addi	a5,sp,936
    1e6c:	04a6                	slli	s1,s1,0x9
    1e6e:	0000                	unimp
    1e70:	7a05                	lui	s4,0xfffe1
    1e72:	1302                	slli	t1,t1,0x20
    1e74:	01d8                	addi	a4,sp,196
    1e76:	0000                	unimp
    1e78:	1740                	addi	s0,sp,932
    1e7a:	043a                	slli	s0,s0,0xe
    1e7c:	0000                	unimp
    1e7e:	7b05                	lui	s6,0xfffe1
    1e80:	0702                	c.slli64	a4
    1e82:	0025                	c.nop	9
    1e84:	0000                	unimp
    1e86:	1744                	addi	s1,sp,932
    1e88:	06fd                	addi	a3,a3,31
    1e8a:	0000                	unimp
    1e8c:	7c05                	lui	s8,0xfffe1
    1e8e:	1302                	slli	t1,t1,0x20
    1e90:	01d8                	addi	a4,sp,196
    1e92:	0000                	unimp
    1e94:	1748                	addi	a0,sp,932
    1e96:	0536                	slli	a0,a0,0xd
    1e98:	0000                	unimp
    1e9a:	7d05                	lui	s10,0xfffe1
    1e9c:	1402                	slli	s0,s0,0x20
    1e9e:	0921                	addi	s2,s2,8
    1ea0:	0000                	unimp
    1ea2:	174c                	addi	a1,sp,932
    1ea4:	0472                	slli	s0,s0,0x1c
    1ea6:	0000                	unimp
    1ea8:	8005                	srli	s0,s0,0x1
    1eaa:	0702                	c.slli64	a4
    1eac:	0025                	c.nop	9
    1eae:	0000                	unimp
    1eb0:	1750                	addi	a2,sp,932
    1eb2:	03d0                	addi	a2,sp,452
    1eb4:	0000                	unimp
    1eb6:	8105                	srli	a0,a0,0x1
    1eb8:	0902                	c.slli64	s2
    1eba:	0609                	addi	a2,a2,2
    1ebc:	0000                	unimp
    1ebe:	1754                	addi	a3,sp,932
    1ec0:	0552                	slli	a0,a0,0x14
    1ec2:	0000                	unimp
    1ec4:	a405                	j	20e4 <_min_stack+0xe4>
    1ec6:	0702                	c.slli64	a4
    1ec8:	08d0                	addi	a2,sp,84
    1eca:	0000                	unimp
    1ecc:	1858                	addi	a4,sp,52
    1ece:	051c                	addi	a5,sp,640
    1ed0:	0000                	unimp
    1ed2:	a805                	j	1f02 <_min_stack-0xfe>
    1ed4:	1302                	slli	t1,t1,0x20
    1ed6:	0309                	addi	t1,t1,2
    1ed8:	0000                	unimp
    1eda:	0148                	addi	a0,sp,132
    1edc:	9018                	0x9018
    1ede:	0004                	0x4
    1ee0:	0500                	addi	s0,sp,640
    1ee2:	02a9                	addi	t0,t0,10
    1ee4:	c612                	sw	tp,12(sp)
    1ee6:	0002                	c.slli64	zero
    1ee8:	4c00                	lw	s0,24(s0)
    1eea:	1801                	addi	a6,a6,-32
    1eec:	06aa                	slli	a3,a3,0xa
    1eee:	0000                	unimp
    1ef0:	ad05                	j	2520 <_min_stack+0x520>
    1ef2:	0c02                	c.slli64	s8
    1ef4:	0932                	slli	s2,s2,0xc
    1ef6:	0000                	unimp
    1ef8:	02dc                	addi	a5,sp,324
    1efa:	a918                	fsd	fa4,16(a0)
    1efc:	05000003          	lb	zero,80(zero) # 50 <_min_stack-0x1fb0>
    1f00:	02b2                	slli	t0,t0,0xc
    1f02:	b610                	fsd	fa2,40(a2)
    1f04:	0006                	c.slli	zero,0x1
    1f06:	e000                	fsw	fs0,0(s0)
    1f08:	1802                	slli	a6,a6,0x20
    1f0a:	038e                	slli	t2,t2,0x3
    1f0c:	0000                	unimp
    1f0e:	b405                	j	192e <_min_stack-0x6d2>
    1f10:	0a02                	c.slli64	s4
    1f12:	093e                	slli	s2,s2,0xf
    1f14:	0000                	unimp
    1f16:	02ec                	addi	a1,sp,332
    1f18:	1000                	addi	s0,sp,32
    1f1a:	0f04                	addi	s1,sp,912
    1f1c:	0006                	c.slli	zero,0x1
    1f1e:	0400                	addi	s0,sp,512
    1f20:	0801                	addi	a6,a6,0
    1f22:	006d                	c.nop	27
    1f24:	0000                	unimp
    1f26:	00060f03          	lb	t5,0(a2)
    1f2a:	1000                	addi	s0,sp,32
    1f2c:	9704                	0x9704
    1f2e:	0004                	0x4
    1f30:	1400                	addi	s0,sp,544
    1f32:	00ea                	slli	ra,ra,0x1a
    1f34:	0000                	unimp
    1f36:	0000063f 0004b515 	0x4b5150000063f
    1f3e:	1500                	addi	s0,sp,672
    1f40:	0158                	addi	a4,sp,132
    1f42:	0000                	unimp
    1f44:	3f15                	jal	1e78 <_min_stack-0x188>
    1f46:	0006                	c.slli	zero,0x1
    1f48:	1500                	addi	s0,sp,672
    1f4a:	0025                	c.nop	9
    1f4c:	0000                	unimp
    1f4e:	1000                	addi	s0,sp,32
    1f50:	1604                	addi	s1,sp,800
    1f52:	0006                	c.slli	zero,0x1
    1f54:	1000                	addi	s0,sp,32
    1f56:	2104                	fld	fs1,0(a0)
    1f58:	0006                	c.slli	zero,0x1
    1f5a:	1400                	addi	s0,sp,544
    1f5c:	00de                	slli	ra,ra,0x17
    1f5e:	0000                	unimp
    1f60:	0669                	addi	a2,a2,26
    1f62:	0000                	unimp
    1f64:	b515                	j	1d88 <_min_stack-0x278>
    1f66:	0004                	0x4
    1f68:	1500                	addi	s0,sp,672
    1f6a:	0158                	addi	a4,sp,132
    1f6c:	0000                	unimp
    1f6e:	de15                	beqz	a2,1eaa <_min_stack-0x156>
    1f70:	0000                	unimp
    1f72:	1500                	addi	s0,sp,672
    1f74:	0025                	c.nop	9
    1f76:	0000                	unimp
    1f78:	1000                	addi	s0,sp,32
    1f7a:	4b04                	lw	s1,16(a4)
    1f7c:	0006                	c.slli	zero,0x1
    1f7e:	1400                	addi	s0,sp,544
    1f80:	0025                	c.nop	9
    1f82:	0000                	unimp
    1f84:	00000683          	lb	a3,0(zero) # 0 <_min_stack-0x2000>
    1f88:	b515                	j	1dac <_min_stack-0x254>
    1f8a:	0004                	0x4
    1f8c:	1500                	addi	s0,sp,672
    1f8e:	0158                	addi	a4,sp,132
    1f90:	0000                	unimp
    1f92:	1000                	addi	s0,sp,32
    1f94:	6f04                	flw	fs1,24(a4)
    1f96:	0006                	c.slli	zero,0x1
    1f98:	0700                	addi	s0,sp,896
    1f9a:	0096                	slli	ra,ra,0x5
    1f9c:	0000                	unimp
    1f9e:	0699                	addi	a3,a3,6
    1fa0:	0000                	unimp
    1fa2:	3108                	fld	fa0,32(a0)
    1fa4:	0000                	unimp
    1fa6:	0200                	addi	s0,sp,256
    1fa8:	0700                	addi	s0,sp,896
    1faa:	0096                	slli	ra,ra,0x5
    1fac:	0000                	unimp
    1fae:	06a9                	addi	a3,a3,10
    1fb0:	0000                	unimp
    1fb2:	3108                	fld	fa0,32(a0)
    1fb4:	0000                	unimp
    1fb6:	0000                	unimp
    1fb8:	0a00                	addi	s0,sp,272
    1fba:	00000577          	0x577
    1fbe:	2405                	jal	21de <_min_stack+0x1de>
    1fc0:	1a01                	addi	s4,s4,-32
    1fc2:	0354                	addi	a3,sp,388
    1fc4:	0000                	unimp
    1fc6:	9219                	srli	a2,a2,0x26
    1fc8:	0006                	c.slli	zero,0x1
    1fca:	0c00                	addi	s0,sp,528
    1fcc:	2805                	jal	1ffc <_min_stack-0x4>
    1fce:	0801                	addi	a6,a6,0
    1fd0:	000006ef          	jal	a3,1fd0 <_min_stack-0x30>
    1fd4:	00059f17          	auipc	t5,0x59
    1fd8:	0500                	addi	s0,sp,640
    1fda:	012a                	slli	sp,sp,0xa
    1fdc:	ef11                	bnez	a4,1ff8 <_min_stack-0x8>
    1fde:	0006                	c.slli	zero,0x1
    1fe0:	0000                	unimp
    1fe2:	00048917          	auipc	s2,0x48
    1fe6:	0500                	addi	s0,sp,640
    1fe8:	2507012b          	0x2507012b
    1fec:	0000                	unimp
    1fee:	0400                	addi	s0,sp,512
    1ff0:	00057117          	auipc	sp,0x57
    1ff4:	0500                	addi	s0,sp,640
    1ff6:	012c                	addi	a1,sp,136
    1ff8:	0006f50b          	0x6f50b
    1ffc:	0800                	addi	s0,sp,16
    1ffe:	1000                	addi	s0,sp,32
    2000:	b604                	fsd	fs1,40(a2)
    2002:	0006                	c.slli	zero,0x1
    2004:	1000                	addi	s0,sp,32
    2006:	a904                	fsd	fs1,16(a0)
    2008:	0006                	c.slli	zero,0x1
    200a:	1900                	addi	s0,sp,176
    200c:	02fd                	addi	t0,t0,31
    200e:	0000                	unimp
    2010:	050e                	slli	a0,a0,0x3
    2012:	0144                	addi	s1,sp,132
    2014:	3408                	fld	fa0,40(s0)
    2016:	17000007          	0x17000007
    201a:	05f6                	slli	a1,a1,0x1d
    201c:	0000                	unimp
    201e:	4505                	li	a0,1
    2020:	1201                	addi	tp,tp,-32
    2022:	0734                	addi	a3,sp,904
    2024:	0000                	unimp
    2026:	1700                	addi	s0,sp,928
    2028:	062d                	addi	a2,a2,11
    202a:	0000                	unimp
    202c:	4605                	li	a2,1
    202e:	1201                	addi	tp,tp,-32
    2030:	0734                	addi	a3,sp,904
    2032:	0000                	unimp
    2034:	1706                	slli	a4,a4,0x21
    2036:	0649                	addi	a2,a2,18
    2038:	0000                	unimp
    203a:	4705                	li	a4,1
    203c:	1201                	addi	tp,tp,-32
    203e:	00a9                	addi	ra,ra,10
    2040:	0000                	unimp
    2042:	000c                	0xc
    2044:	0000a907          	flw	fs2,0(ra) # 0 <_min_stack-0x2000>
    2048:	4400                	lw	s0,8(s0)
    204a:	08000007          	0x8000007
    204e:	0031                	c.nop	12
    2050:	0000                	unimp
    2052:	0002                	c.slli64	zero
    2054:	d01a                	sw	t1,32(sp)
    2056:	8505                	srai	a0,a0,0x1
    2058:	0702                	c.slli64	a4
    205a:	0859                	addi	a6,a6,22
    205c:	0000                	unimp
    205e:	00067617          	auipc	a2,0x67
    2062:	0500                	addi	s0,sp,640
    2064:	31180287          	0x31180287
    2068:	0000                	unimp
    206a:	0000                	unimp
    206c:	00063317          	auipc	t1,0x63
    2070:	0500                	addi	s0,sp,640
    2072:	0288                	addi	a0,sp,320
    2074:	0912                	slli	s2,s2,0x4
    2076:	0006                	c.slli	zero,0x1
    2078:	0400                	addi	s0,sp,512
    207a:	00049917          	auipc	s2,0x49
    207e:	0500                	addi	s0,sp,640
    2080:	0289                	addi	t0,t0,2
    2082:	5910                	lw	a2,48(a0)
    2084:	0008                	0x8
    2086:	0800                	addi	s0,sp,16
    2088:	0006d417          	auipc	s0,0x6d
    208c:	0500                	addi	s0,sp,640
    208e:	028a                	slli	t0,t0,0x2
    2090:	0001ee17          	auipc	t3,0x1e
    2094:	2400                	fld	fs0,8(s0)
    2096:	00042b17          	auipc	s6,0x42
    209a:	0500                	addi	s0,sp,640
    209c:	250f028b          	0x250f028b
    20a0:	0000                	unimp
    20a2:	4800                	lw	s0,16(s0)
    20a4:	00059a17          	auipc	s4,0x59
    20a8:	0500                	addi	s0,sp,640
    20aa:	028c                	addi	a1,sp,320
    20ac:	be2c                	fsd	fa1,120(a2)
    20ae:	0000                	unimp
    20b0:	5000                	lw	s0,32(s0)
    20b2:	0006ea17          	auipc	s4,0x6e
    20b6:	0500                	addi	s0,sp,640
    20b8:	028d                	addi	t0,t0,3
    20ba:	fb1a                	fsw	ft6,180(sp)
    20bc:	0006                	c.slli	zero,0x1
    20be:	5800                	lw	s0,48(s0)
    20c0:	0005a517          	auipc	a0,0x5a
    20c4:	0500                	addi	s0,sp,640
    20c6:	028e                	slli	t0,t0,0x3
    20c8:	4c16                	lw	s8,68(sp)
    20ca:	0001                	nop
    20cc:	6800                	flw	fs0,16(s0)
    20ce:	0006ef17          	auipc	t5,0x6e
    20d2:	0500                	addi	s0,sp,640
    20d4:	4c16028f          	0x4c16028f
    20d8:	0001                	nop
    20da:	7000                	flw	fs0,32(s0)
    20dc:	00036717          	auipc	a4,0x36
    20e0:	0500                	addi	s0,sp,640
    20e2:	0290                	addi	a2,sp,320
    20e4:	4c16                	lw	s8,68(sp)
    20e6:	0001                	nop
    20e8:	7800                	flw	fs0,48(s0)
    20ea:	0006a017          	auipc	zero,0x6a
    20ee:	0500                	addi	s0,sp,640
    20f0:	0291                	addi	t0,t0,4
    20f2:	6910                	flw	fa2,16(a0)
    20f4:	0008                	0x8
    20f6:	8000                	0x8000
    20f8:	00033017          	auipc	zero,0x33
    20fc:	0500                	addi	s0,sp,640
    20fe:	0292                	slli	t0,t0,0x4
    2100:	7910                	flw	fa2,48(a0)
    2102:	0008                	0x8
    2104:	8800                	0x8800
    2106:	00065617          	auipc	a2,0x65
    210a:	0500                	addi	s0,sp,640
    210c:	250f0293          	addi	t0,t5,592 # 7031e <_stack_len+0x6831e>
    2110:	0000                	unimp
    2112:	a000                	fsd	fs0,0(s0)
    2114:	0003f117          	auipc	sp,0x3f
    2118:	0500                	addi	s0,sp,640
    211a:	0294                	addi	a3,sp,320
    211c:	4c16                	lw	s8,68(sp)
    211e:	0001                	nop
    2120:	a400                	fsd	fs0,8(s0)
    2122:	00035817          	auipc	a6,0x35
    2126:	0500                	addi	s0,sp,640
    2128:	0295                	addi	t0,t0,5
    212a:	4c16                	lw	s8,68(sp)
    212c:	0001                	nop
    212e:	ac00                	fsd	fs0,24(s0)
    2130:	0003e017          	auipc	zero,0x3e
    2134:	0500                	addi	s0,sp,640
    2136:	0296                	slli	t0,t0,0x5
    2138:	4c16                	lw	s8,68(sp)
    213a:	0001                	nop
    213c:	b400                	fsd	fs0,40(s0)
    213e:	00032117          	auipc	sp,0x32
    2142:	0500                	addi	s0,sp,640
    2144:	4c160297          	auipc	t0,0x4c160
    2148:	0001                	nop
    214a:	bc00                	fsd	fs0,56(s0)
    214c:	00045917          	auipc	s2,0x45
    2150:	0500                	addi	s0,sp,640
    2152:	0298                	addi	a4,sp,320
    2154:	4c16                	lw	s8,68(sp)
    2156:	0001                	nop
    2158:	c400                	sw	s0,8(s0)
    215a:	00055717          	auipc	a4,0x55
    215e:	0500                	addi	s0,sp,640
    2160:	0299                	addi	t0,t0,6
    2162:	2508                	fld	fa0,8(a0)
    2164:	0000                	unimp
    2166:	cc00                	sw	s0,24(s0)
    2168:	0700                	addi	s0,sp,896
    216a:	0000060f          	0x60f
    216e:	0869                	addi	a6,a6,26
    2170:	0000                	unimp
    2172:	3108                	fld	fa0,32(a0)
    2174:	0000                	unimp
    2176:	1900                	addi	s0,sp,176
    2178:	0700                	addi	s0,sp,896
    217a:	0000060f          	0x60f
    217e:	0879                	addi	a6,a6,30
    2180:	0000                	unimp
    2182:	3108                	fld	fa0,32(a0)
    2184:	0000                	unimp
    2186:	0700                	addi	s0,sp,896
    2188:	0700                	addi	s0,sp,896
    218a:	0000060f          	0x60f
    218e:	0889                	addi	a7,a7,2
    2190:	0000                	unimp
    2192:	3108                	fld	fa0,32(a0)
    2194:	0000                	unimp
    2196:	1700                	addi	s0,sp,928
    2198:	1a00                	addi	s0,sp,304
    219a:	05f0                	addi	a2,sp,716
    219c:	029e                	slli	t0,t0,0x7
    219e:	0008b007          	fld	ft0,0(a7) # fffe4000 <_stack_start+0xffde4000>
    21a2:	1700                	addi	s0,sp,928
    21a4:	050c                	addi	a1,sp,640
    21a6:	0000                	unimp
    21a8:	a105                	j	25c8 <_min_stack+0x5c8>
    21aa:	1b02                	slli	s6,s6,0x20
    21ac:	08b0                	addi	a2,sp,88
    21ae:	0000                	unimp
    21b0:	1700                	addi	s0,sp,928
    21b2:	04e9                	addi	s1,s1,26
    21b4:	0000                	unimp
    21b6:	a205                	j	22d6 <_min_stack+0x2d6>
    21b8:	1802                	slli	a6,a6,0x20
    21ba:	08c0                	addi	s0,sp,84
    21bc:	0000                	unimp
    21be:	0078                	addi	a4,sp,12
    21c0:	00034e07          	flq	ft8,0(t1) # 6506c <_stack_len+0x5d06c>
    21c4:	c000                	sw	s0,0(s0)
    21c6:	0008                	0x8
    21c8:	0800                	addi	s0,sp,16
    21ca:	0031                	c.nop	12
    21cc:	0000                	unimp
    21ce:	001d                	c.nop	7
    21d0:	00003107          	fld	ft2,0(zero) # 0 <_min_stack-0x2000>
    21d4:	d000                	sw	s0,32(s0)
    21d6:	0008                	0x8
    21d8:	0800                	addi	s0,sp,16
    21da:	0031                	c.nop	12
    21dc:	0000                	unimp
    21de:	001d                	c.nop	7
    21e0:	8305f01b          	0x8305f01b
    21e4:	0302                	c.slli64	t1
    21e6:	08f5                	addi	a7,a7,29
    21e8:	0000                	unimp
    21ea:	ef1c                	fsw	fa5,24(a4)
    21ec:	0005                	c.nop	1
    21ee:	0500                	addi	s0,sp,640
    21f0:	029a                	slli	t0,t0,0x6
    21f2:	0007440b          	0x7440b
    21f6:	1c00                	addi	s0,sp,560
    21f8:	06c1                	addi	a3,a3,16
    21fa:	0000                	unimp
    21fc:	a305                	j	271c <_min_stack+0x71c>
    21fe:	0b02                	c.slli64	s6
    2200:	0889                	addi	a7,a7,2
    2202:	0000                	unimp
    2204:	0700                	addi	s0,sp,896
    2206:	0000060f          	0x60f
    220a:	0905                	addi	s2,s2,1
    220c:	0000                	unimp
    220e:	3108                	fld	fa0,32(a0)
    2210:	0000                	unimp
    2212:	1800                	addi	s0,sp,48
    2214:	1d00                	addi	s0,sp,688
    2216:	034d                	addi	t1,t1,19
    2218:	0000                	unimp
    221a:	0410                	addi	a2,sp,512
    221c:	0905                	addi	s2,s2,1
    221e:	0000                	unimp
    2220:	1b1e                	slli	s6,s6,0x27
    2222:	0009                	c.nop	2
    2224:	1500                	addi	s0,sp,672
    2226:	04b5                	addi	s1,s1,13
    2228:	0000                	unimp
    222a:	1000                	addi	s0,sp,32
    222c:	1004                	addi	s1,sp,32
    222e:	0009                	c.nop	2
    2230:	1000                	addi	s0,sp,32
    2232:	d804                	sw	s1,48(s0)
    2234:	0001                	nop
    2236:	1e00                	addi	s0,sp,816
    2238:	0932                	slli	s2,s2,0xc
    223a:	0000                	unimp
    223c:	2515                	jal	2860 <_min_stack+0x860>
    223e:	0000                	unimp
    2240:	0000                	unimp
    2242:	0410                	addi	a2,sp,512
    2244:	0938                	addi	a4,sp,152
    2246:	0000                	unimp
    2248:	0410                	addi	a2,sp,512
    224a:	00000927          	0x927
    224e:	0006a907          	flw	fs2,0(a3)
    2252:	4e00                	lw	s0,24(a2)
    2254:	0009                	c.nop	2
    2256:	0800                	addi	s0,sp,16
    2258:	0031                	c.nop	12
    225a:	0000                	unimp
    225c:	0002                	c.slli64	zero
    225e:	6a1f 0006 0500      	0x50000066a1f
    2264:	b5170333          	0xb5170333
    2268:	0004                	0x4
    226a:	1f00                	addi	s0,sp,944
    226c:	00000663          	beqz	zero,2278 <_min_stack+0x278>
    2270:	3405                	jal	1c90 <_min_stack-0x370>
    2272:	04bb1d03          	lh	s10,75(s6) # 440e1 <_stack_len+0x3c0e1>
    2276:	0000                	unimp
    2278:	4020                	lw	s0,64(s0)
    227a:	07000007          	0x7000007
    227e:	06090e67          	jalr	t3,96(s2) # 471ac <_stack_len+0x3f1ac>
    2282:	0000                	unimp
    2284:	7a21                	lui	s4,0xfffe8
    2286:	01000007          	0x1000007
    228a:	1302060f          	0x1302060f
    228e:	0010                	0x10
    2290:	001c                	0x1c
    2292:	0000                	unimp
    2294:	9c01                	0x9c01
    2296:	09c6                	slli	s3,s3,0x11
    2298:	0000                	unimp
    229a:	6922                	flw	fs2,8(sp)
    229c:	006e                	c.slli	zero,0x1b
    229e:	0f01                	addi	t5,t5,0
    22a0:	0009c62b          	0x9c62b
    22a4:	0200                	addi	s0,sp,256
    22a6:	6c91                	lui	s9,0x4
    22a8:	6f22                	flw	ft10,8(sp)
    22aa:	7475                	lui	s0,0xffffd
    22ac:	0100                	addi	s0,sp,128
    22ae:	034e3e0f          	0x34e3e0f
    22b2:	0000                	unimp
    22b4:	9102                	jalr	sp
    22b6:	2268                	fld	fa0,192(a2)
    22b8:	0079656b          	0x79656b
    22bc:	1001                	c.nop	-32
    22be:	cc25                	beqz	s0,2336 <_min_stack+0x336>
    22c0:	0009                	c.nop	2
    22c2:	0200                	addi	s0,sp,256
    22c4:	6491                	lui	s1,0x4
    22c6:	6522                	flw	fa0,8(sp)
    22c8:	636e                	flw	ft6,216(sp)
    22ca:	0100                	addi	s0,sp,128
    22cc:	3410                	fld	fa2,40(s0)
    22ce:	002c                	addi	a1,sp,8
    22d0:	0000                	unimp
    22d2:	9102                	jalr	sp
    22d4:	0060                	addi	s0,sp,12
    22d6:	0410                	addi	a2,sp,512
    22d8:	009d                	addi	ra,ra,7
    22da:	0000                	unimp
    22dc:	0410                	addi	a2,sp,512
    22de:	008a                	slli	ra,ra,0x2
    22e0:	0000                	unimp
    22e2:	1e00                	addi	s0,sp,816
    22e4:	0000                	unimp
    22e6:	0200                	addi	s0,sp,256
    22e8:	fc00                	fsw	fs0,56(s0)
    22ea:	04000007          	0x4000007
    22ee:	0601                	addi	a2,a2,0
    22f0:	001a                	c.slli	zero,0x6
    22f2:	0000                	unimp
    22f4:	0000                	unimp
    22f6:	8a00                	0x8a00
    22f8:	92000007          	0x92000007
    22fc:	0001                	nop
    22fe:	ec00                	fsw	fs0,24(s0)
    2300:	01000007          	0x1000007
    2304:	80              	Adresse 0x0000000000002304 hors limites.


Déassemblage de la section .debug_abbrev :

00000000 <.debug_abbrev>:
   0:	1101                	addi	sp,sp,-32
   2:	2501                	jal	602 <_min_stack-0x19fe>
   4:	130e                	slli	t1,t1,0x23
   6:	1b0e030b          	0x1b0e030b
   a:	110e                	slli	sp,sp,0x23
   c:	1201                	addi	tp,tp,-32
   e:	1006                	c.slli	zero,0x21
  10:	02000017          	auipc	zero,0x2000
  14:	0024                	addi	s1,sp,8
  16:	0b3e0b0b          	0xb3e0b0b
  1a:	00000e03          	lb	t3,0(zero) # 0 <_min_stack-0x2000>
  1e:	03001603          	lh	a2,48(zero) # 30 <_min_stack-0x1fd0>
  22:	3a0e                	fld	fs4,224(sp)
  24:	390b3b0b          	0x390b3b0b
  28:	0013490b          	0x13490b
  2c:	0400                	addi	s0,sp,512
  2e:	0035                	c.nop	13
  30:	1349                	addi	t1,t1,-14
  32:	0000                	unimp
  34:	2405                	jal	254 <_min_stack-0x1dac>
  36:	0b00                	addi	s0,sp,400
  38:	030b3e0b          	0x30b3e0b
  3c:	0008                	0x8
  3e:	0600                	addi	s0,sp,768
  40:	0034                	addi	a3,sp,8
  42:	0b3a0e03          	lb	t3,179(s4) # fffe80b3 <_stack_start+0xffde80b3>
  46:	0b390b3b          	0xb390b3b
  4a:	1349                	addi	t1,t1,-14
  4c:	1802193f 2e070000 	0x2e0700001802193f
  54:	3f00                	fld	fs0,56(a4)
  56:	0319                	addi	t1,t1,6
  58:	3a0e                	fld	fs4,224(sp)
  5a:	390b3b0b          	0x390b3b0b
  5e:	1119270b          	0x1119270b
  62:	1201                	addi	tp,tp,-32
  64:	4006                	0x4006
  66:	9618                	0x9618
  68:	1942                	slli	s2,s2,0x30
  6a:	0000                	unimp
  6c:	2e08                	fld	fa0,24(a2)
  6e:	3f00                	fld	fs0,56(a4)
  70:	0319                	addi	t1,t1,6
  72:	3a0e                	fld	fs4,224(sp)
  74:	390b3b0b          	0x390b3b0b
  78:	4919270b          	0x4919270b
  7c:	12011113          	0x12011113
  80:	4006                	0x4006
  82:	9718                	0x9718
  84:	1942                	slli	s2,s2,0x30
  86:	0000                	unimp
  88:	2e09                	jal	39a <_min_stack-0x1c66>
  8a:	3f01                	jal	ffffff9a <_stack_start+0xffdfff9a>
  8c:	0319                	addi	t1,t1,6
  8e:	3a0e                	fld	fs4,224(sp)
  90:	390b3b0b          	0x390b3b0b
  94:	1119270b          	0x1119270b
  98:	1201                	addi	tp,tp,-32
  9a:	4006                	0x4006
  9c:	9718                	0x9718
  9e:	1942                	slli	s2,s2,0x30
  a0:	1301                	addi	t1,t1,-32
  a2:	0000                	unimp
  a4:	050a                	slli	a0,a0,0x2
  a6:	0300                	addi	s0,sp,384
  a8:	3a0e                	fld	fs4,224(sp)
  aa:	390b3b0b          	0x390b3b0b
  ae:	0213490b          	0x213490b
  b2:	0018                	0x18
  b4:	0b00                	addi	s0,sp,400
  b6:	012e                	slli	sp,sp,0xb
  b8:	0e03193f 0b3b0b3a 	0xb3b0b3a0e03193f
  c0:	0b39                	addi	s6,s6,14
  c2:	13491927          	0x13491927
  c6:	0111                	addi	sp,sp,4
  c8:	0612                	slli	a2,a2,0x4
  ca:	1840                	addi	s0,sp,52
  cc:	01194297          	auipc	t0,0x1194
  d0:	0c000013          	li	zero,192
  d4:	0034                	addi	a3,sp,8
  d6:	0b3a0e03          	lb	t3,179(s4)
  da:	0b390b3b          	0xb390b3b
  de:	1349                	addi	t1,t1,-14
  e0:	1802                	slli	a6,a6,0x20
  e2:	0000                	unimp
  e4:	2e0d                	jal	416 <_min_stack-0x1bea>
  e6:	3f00                	fld	fs0,56(a4)
  e8:	0319                	addi	t1,t1,6
  ea:	3a0e                	fld	fs4,224(sp)
  ec:	390b3b0b          	0x390b3b0b
  f0:	1119270b          	0x1119270b
  f4:	1201                	addi	tp,tp,-32
  f6:	4006                	0x4006
  f8:	9718                	0x9718
  fa:	1942                	slli	s2,s2,0x30
  fc:	0000                	unimp
  fe:	2e0e                	fld	ft8,192(sp)
 100:	3f01                	jal	10 <_min_stack-0x1ff0>
 102:	0319                	addi	t1,t1,6
 104:	3a0e                	fld	fs4,224(sp)
 106:	390b3b0b          	0x390b3b0b
 10a:	1119270b          	0x1119270b
 10e:	1201                	addi	tp,tp,-32
 110:	4006                	0x4006
 112:	9618                	0x9618
 114:	1942                	slli	s2,s2,0x30
 116:	1301                	addi	t1,t1,-32
 118:	0000                	unimp
 11a:	03012e0f          	0x3012e0f
 11e:	3a0e                	fld	fs4,224(sp)
 120:	390b3b0b          	0x390b3b0b
 124:	1119270b          	0x1119270b
 128:	1201                	addi	tp,tp,-32
 12a:	4006                	0x4006
 12c:	9618                	0x9618
 12e:	1942                	slli	s2,s2,0x30
 130:	1301                	addi	t1,t1,-32
 132:	0000                	unimp
 134:	2e10                	fld	fa2,24(a2)
 136:	3f01                	jal	46 <_min_stack-0x1fba>
 138:	0319                	addi	t1,t1,6
 13a:	3a0e                	fld	fs4,224(sp)
 13c:	390b3b0b          	0x390b3b0b
 140:	1113490b          	0x1113490b
 144:	1201                	addi	tp,tp,-32
 146:	4006                	0x4006
 148:	9718                	0x9718
 14a:	1942                	slli	s2,s2,0x30
 14c:	1301                	addi	t1,t1,-32
 14e:	0000                	unimp
 150:	2e11                	jal	464 <_min_stack-0x1b9c>
 152:	3f00                	fld	fs0,56(a4)
 154:	0319                	addi	t1,t1,6
 156:	3a0e                	fld	fs4,224(sp)
 158:	390b3b0b          	0x390b3b0b
 15c:	1201110b          	0x1201110b
 160:	4006                	0x4006
 162:	9718                	0x9718
 164:	1942                	slli	s2,s2,0x30
 166:	0000                	unimp
 168:	0512                	slli	a0,a0,0x4
 16a:	0300                	addi	s0,sp,384
 16c:	3a08                	fld	fa0,48(a2)
 16e:	390b3b0b          	0x390b3b0b
 172:	0213490b          	0x213490b
 176:	0018                	0x18
 178:	1300                	addi	s0,sp,416
 17a:	0111010b          	0x111010b
 17e:	0612                	slli	a2,a2,0x4
 180:	0000                	unimp
 182:	3414                	fld	fa3,40(s0)
 184:	0300                	addi	s0,sp,384
 186:	3a08                	fld	fa0,48(a2)
 188:	390b3b0b          	0x390b3b0b
 18c:	0213490b          	0x213490b
 190:	0018                	0x18
 192:	1500                	addi	s0,sp,672
 194:	012e                	slli	sp,sp,0xb
 196:	0e03193f 0b3b0b3a 	0xb3b0b3a0e03193f
 19e:	0b39                	addi	s6,s6,14
 1a0:	13491927          	0x13491927
 1a4:	0111                	addi	sp,sp,4
 1a6:	0612                	slli	a2,a2,0x4
 1a8:	1840                	addi	s0,sp,52
 1aa:	4296                	lw	t0,68(sp)
 1ac:	0119                	addi	sp,sp,6
 1ae:	16000013          	li	zero,352
 1b2:	0b0b000f          	0xb0b000f
 1b6:	1349                	addi	t1,t1,-14
 1b8:	0000                	unimp
 1ba:	49002617          	auipc	a2,0x49002
 1be:	18000013          	li	zero,384
 1c2:	012e                	slli	sp,sp,0xb
 1c4:	0e03193f 0b3b0b3a 	0xb3b0b3a0e03193f
 1cc:	0b39                	addi	s6,s6,14
 1ce:	13491927          	0x13491927
 1d2:	0111                	addi	sp,sp,4
 1d4:	0612                	slli	a2,a2,0x4
 1d6:	1840                	addi	s0,sp,52
 1d8:	00194297          	auipc	t0,0x194
 1dc:	0000                	unimp
 1de:	1101                	addi	sp,sp,-32
 1e0:	2501                	jal	7e0 <_min_stack-0x1820>
 1e2:	130e                	slli	t1,t1,0x23
 1e4:	1b0e030b          	0x1b0e030b
 1e8:	110e                	slli	sp,sp,0x23
 1ea:	1201                	addi	tp,tp,-32
 1ec:	1006                	c.slli	zero,0x21
 1ee:	02000017          	auipc	zero,0x2000
 1f2:	0024                	addi	s1,sp,8
 1f4:	0b3e0b0b          	0xb3e0b0b
 1f8:	00000e03          	lb	t3,0(zero) # 0 <_min_stack-0x2000>
 1fc:	03001603          	lh	a2,48(zero) # 30 <_min_stack-0x1fd0>
 200:	3a0e                	fld	fs4,224(sp)
 202:	390b3b0b          	0x390b3b0b
 206:	0013490b          	0x13490b
 20a:	0400                	addi	s0,sp,512
 20c:	0024                	addi	s1,sp,8
 20e:	0b3e0b0b          	0xb3e0b0b
 212:	00000803          	lb	a6,0(zero) # 0 <_min_stack-0x2000>
 216:	1605                	addi	a2,a2,-31
 218:	0300                	addi	s0,sp,384
 21a:	3a0e                	fld	fs4,224(sp)
 21c:	39053b0b          	0x39053b0b
 220:	0013490b          	0x13490b
 224:	0600                	addi	s0,sp,768
 226:	0b0b0117          	auipc	sp,0xb0b0
 22a:	0b3a                	slli	s6,s6,0xe
 22c:	0b390b3b          	0xb390b3b
 230:	1301                	addi	t1,t1,-32
 232:	0000                	unimp
 234:	03000d07          	0x3000d07
 238:	3a0e                	fld	fs4,224(sp)
 23a:	390b3b0b          	0x390b3b0b
 23e:	0013490b          	0x13490b
 242:	0800                	addi	s0,sp,16
 244:	0101                	addi	sp,sp,0
 246:	1349                	addi	t1,t1,-14
 248:	1301                	addi	t1,t1,-32
 24a:	0000                	unimp
 24c:	2109                	jal	64e <_min_stack-0x19b2>
 24e:	4900                	lw	s0,16(a0)
 250:	000b2f13          	slti	t5,s6,0
 254:	0a00                	addi	s0,sp,272
 256:	0b0b0113          	addi	sp,s6,176
 25a:	0b3a                	slli	s6,s6,0xe
 25c:	0b390b3b          	0xb390b3b
 260:	1301                	addi	t1,t1,-32
 262:	0000                	unimp
 264:	03000d0b          	0x3000d0b
 268:	3a0e                	fld	fs4,224(sp)
 26a:	390b3b0b          	0x390b3b0b
 26e:	3813490b          	0x3813490b
 272:	0c00000b          	0xc00000b
 276:	0b0b000f          	0xb0b000f
 27a:	0000                	unimp
 27c:	130d                	addi	t1,t1,-29
 27e:	0301                	addi	t1,t1,0
 280:	0b0e                	slli	s6,s6,0x3
 282:	3b0b3a0b          	0x3b0b3a0b
 286:	010b390b          	0x10b390b
 28a:	0e000013          	li	zero,224
 28e:	000d                	c.nop	3
 290:	0b3a0803          	lb	a6,179(s4)
 294:	0b390b3b          	0xb390b3b
 298:	1349                	addi	t1,t1,-14
 29a:	0b38                	addi	a4,sp,408
 29c:	0000                	unimp
 29e:	0b000f0f          	0xb000f0f
 2a2:	0013490b          	0x13490b
 2a6:	1000                	addi	s0,sp,32
 2a8:	0e030113          	addi	sp,t1,224
 2ac:	0b3a050b          	0xb3a050b
 2b0:	0b390b3b          	0xb390b3b
 2b4:	1301                	addi	t1,t1,-32
 2b6:	0000                	unimp
 2b8:	0d11                	addi	s10,s10,4
 2ba:	0300                	addi	s0,sp,384
 2bc:	3a0e                	fld	fs4,224(sp)
 2be:	390b3b0b          	0x390b3b0b
 2c2:	3813490b          	0x3813490b
 2c6:	0005                	c.nop	1
 2c8:	1200                	addi	s0,sp,288
 2ca:	0015                	c.nop	5
 2cc:	00001927          	0x1927
 2d0:	27011513          	0x27011513
 2d4:	4919                	li	s2,6
 2d6:	00130113          	addi	sp,t1,1
 2da:	1400                	addi	s0,sp,544
 2dc:	0005                	c.nop	1
 2de:	1349                	addi	t1,t1,-14
 2e0:	0000                	unimp
 2e2:	2615                	jal	606 <_min_stack-0x19fa>
 2e4:	4900                	lw	s0,16(a0)
 2e6:	16000013          	li	zero,352
 2ea:	0e030113          	addi	sp,t1,224
 2ee:	0b3a050b          	0xb3a050b
 2f2:	0b39053b          	0xb39053b
 2f6:	1301                	addi	t1,t1,-32
 2f8:	0000                	unimp
 2fa:	03000d17          	auipc	s10,0x3000
 2fe:	3a0e                	fld	fs4,224(sp)
 300:	39053b0b          	0x39053b0b
 304:	3813490b          	0x3813490b
 308:	1800000b          	0x1800000b
 30c:	000d                	c.nop	3
 30e:	0b3a0e03          	lb	t3,179(s4)
 312:	0b39053b          	0xb39053b
 316:	1349                	addi	t1,t1,-14
 318:	0538                	addi	a4,sp,648
 31a:	0000                	unimp
 31c:	1319                	addi	t1,t1,-26
 31e:	0301                	addi	t1,t1,0
 320:	0b0e                	slli	s6,s6,0x3
 322:	3b0b3a0b          	0x3b0b3a0b
 326:	3905                	jal	ffffff56 <_stack_start+0xffdfff56>
 328:	0013010b          	0x13010b
 32c:	1a00                	addi	s0,sp,304
 32e:	0b0b0113          	addi	sp,s6,176
 332:	0b3a                	slli	s6,s6,0xe
 334:	0b39053b          	0xb39053b
 338:	1301                	addi	t1,t1,-32
 33a:	0000                	unimp
 33c:	0b01171b          	0xb01171b
 340:	3b0b3a0b          	0x3b0b3a0b
 344:	3905                	jal	ffffff74 <_stack_start+0xffdfff74>
 346:	0013010b          	0x13010b
 34a:	1c00                	addi	s0,sp,560
 34c:	000d                	c.nop	3
 34e:	0b3a0e03          	lb	t3,179(s4)
 352:	0b39053b          	0xb39053b
 356:	1349                	addi	t1,t1,-14
 358:	0000                	unimp
 35a:	131d                	addi	t1,t1,-25
 35c:	0300                	addi	s0,sp,384
 35e:	3c0e                	fld	fs8,224(sp)
 360:	0019                	c.nop	6
 362:	1e00                	addi	s0,sp,816
 364:	0115                	addi	sp,sp,5
 366:	13011927          	0x13011927
 36a:	0000                	unimp
 36c:	341f 0300 3a0e      	0x3a0e0300341f
 372:	39053b0b          	0x39053b0b
 376:	3f13490b          	0x3f13490b
 37a:	3c19                	jal	fffffd90 <_stack_start+0xffdffd90>
 37c:	0019                	c.nop	6
 37e:	2000                	fld	fs0,0(s0)
 380:	012e                	slli	sp,sp,0xb
 382:	0e03193f 0b3b0b3a 	0xb3b0b3a0e03193f
 38a:	0b39                	addi	s6,s6,14
 38c:	13491927          	0x13491927
 390:	0111                	addi	sp,sp,4
 392:	0612                	slli	a2,a2,0x4
 394:	1840                	addi	s0,sp,52
 396:	4296                	lw	t0,68(sp)
 398:	0119                	addi	sp,sp,6
 39a:	21000013          	li	zero,528
 39e:	0034                	addi	a3,sp,8
 3a0:	0b3a0e03          	lb	t3,179(s4)
 3a4:	0b390b3b          	0xb390b3b
 3a8:	1349                	addi	t1,t1,-14
 3aa:	1802                	slli	a6,a6,0x20
 3ac:	0000                	unimp
 3ae:	3422                	fld	fs0,40(sp)
 3b0:	0300                	addi	s0,sp,384
 3b2:	3a08                	fld	fa0,48(a2)
 3b4:	390b3b0b          	0x390b3b0b
 3b8:	0213490b          	0x213490b
 3bc:	0018                	0x18
 3be:	2300                	fld	fs0,0(a4)
 3c0:	0101                	addi	sp,sp,0
 3c2:	1349                	addi	t1,t1,-14
 3c4:	0000                	unimp
 3c6:	0100                	addi	s0,sp,128
 3c8:	0111                	addi	sp,sp,4
 3ca:	0e25                	addi	t3,t3,9
 3cc:	0e030b13          	addi	s6,t1,224
 3d0:	01110e1b          	0x1110e1b
 3d4:	0612                	slli	a2,a2,0x4
 3d6:	1710                	addi	a2,sp,928
 3d8:	0000                	unimp
 3da:	2402                	fld	fs0,0(sp)
 3dc:	0b00                	addi	s0,sp,400
 3de:	030b3e0b          	0x30b3e0b
 3e2:	000e                	c.slli	zero,0x3
 3e4:	0300                	addi	s0,sp,384
 3e6:	0024                	addi	s1,sp,8
 3e8:	0b3e0b0b          	0xb3e0b0b
 3ec:	00000803          	lb	a6,0(zero) # 0 <_min_stack-0x2000>
 3f0:	2604                	fld	fs1,8(a2)
 3f2:	4900                	lw	s0,16(a0)
 3f4:	05000013          	li	zero,80
 3f8:	0016                	c.slli	zero,0x5
 3fa:	0b3a0e03          	lb	t3,179(s4)
 3fe:	0b39053b          	0xb39053b
 402:	1349                	addi	t1,t1,-14
 404:	0000                	unimp
 406:	1606                	slli	a2,a2,0x21
 408:	0300                	addi	s0,sp,384
 40a:	3a0e                	fld	fs4,224(sp)
 40c:	390b3b0b          	0x390b3b0b
 410:	0013490b          	0x13490b
 414:	0700                	addi	s0,sp,896
 416:	0b0b0117          	auipc	sp,0xb0b0
 41a:	0b3a                	slli	s6,s6,0xe
 41c:	0b390b3b          	0xb390b3b
 420:	1301                	addi	t1,t1,-32
 422:	0000                	unimp
 424:	0d08                	addi	a0,sp,656
 426:	0300                	addi	s0,sp,384
 428:	3a0e                	fld	fs4,224(sp)
 42a:	390b3b0b          	0x390b3b0b
 42e:	0013490b          	0x13490b
 432:	0900                	addi	s0,sp,144
 434:	0101                	addi	sp,sp,0
 436:	1349                	addi	t1,t1,-14
 438:	1301                	addi	t1,t1,-32
 43a:	0000                	unimp
 43c:	210a                	fld	ft2,128(sp)
 43e:	4900                	lw	s0,16(a0)
 440:	000b2f13          	slti	t5,s6,0
 444:	0b00                	addi	s0,sp,400
 446:	0b0b0113          	addi	sp,s6,176
 44a:	0b3a                	slli	s6,s6,0xe
 44c:	0b390b3b          	0xb390b3b
 450:	1301                	addi	t1,t1,-32
 452:	0000                	unimp
 454:	0d0c                	addi	a1,sp,656
 456:	0300                	addi	s0,sp,384
 458:	3a0e                	fld	fs4,224(sp)
 45a:	390b3b0b          	0x390b3b0b
 45e:	3813490b          	0x3813490b
 462:	0d00000b          	0xd00000b
 466:	0b0b000f          	0xb0b000f
 46a:	0000                	unimp
 46c:	130e                	slli	t1,t1,0x23
 46e:	0301                	addi	t1,t1,0
 470:	0b0e                	slli	s6,s6,0x3
 472:	3b0b3a0b          	0x3b0b3a0b
 476:	010b390b          	0x10b390b
 47a:	0f000013          	li	zero,240
 47e:	000d                	c.nop	3
 480:	0b3a0803          	lb	a6,179(s4)
 484:	0b390b3b          	0xb390b3b
 488:	1349                	addi	t1,t1,-14
 48a:	0b38                	addi	a4,sp,408
 48c:	0000                	unimp
 48e:	0f10                	addi	a2,sp,912
 490:	0b00                	addi	s0,sp,400
 492:	0013490b          	0x13490b
 496:	1100                	addi	s0,sp,160
 498:	0e030113          	addi	sp,t1,224
 49c:	0b3a050b          	0xb3a050b
 4a0:	0b390b3b          	0xb390b3b
 4a4:	1301                	addi	t1,t1,-32
 4a6:	0000                	unimp
 4a8:	0d12                	slli	s10,s10,0x4
 4aa:	0300                	addi	s0,sp,384
 4ac:	3a0e                	fld	fs4,224(sp)
 4ae:	390b3b0b          	0x390b3b0b
 4b2:	3813490b          	0x3813490b
 4b6:	0005                	c.nop	1
 4b8:	1300                	addi	s0,sp,416
 4ba:	0015                	c.nop	5
 4bc:	00001927          	0x1927
 4c0:	1514                	addi	a3,sp,672
 4c2:	2701                	jal	bc2 <_min_stack-0x143e>
 4c4:	4919                	li	s2,6
 4c6:	00130113          	addi	sp,t1,1
 4ca:	1500                	addi	s0,sp,672
 4cc:	0005                	c.nop	1
 4ce:	1349                	addi	t1,t1,-14
 4d0:	0000                	unimp
 4d2:	1316                	slli	t1,t1,0x25
 4d4:	0301                	addi	t1,t1,0
 4d6:	0b0e                	slli	s6,s6,0x3
 4d8:	3a05                	jal	fffffe08 <_stack_start+0xffdffe08>
 4da:	39053b0b          	0x39053b0b
 4de:	0013010b          	0x13010b
 4e2:	1700                	addi	s0,sp,928
 4e4:	000d                	c.nop	3
 4e6:	0b3a0e03          	lb	t3,179(s4)
 4ea:	0b39053b          	0xb39053b
 4ee:	1349                	addi	t1,t1,-14
 4f0:	0b38                	addi	a4,sp,408
 4f2:	0000                	unimp
 4f4:	0d18                	addi	a4,sp,656
 4f6:	0300                	addi	s0,sp,384
 4f8:	3a0e                	fld	fs4,224(sp)
 4fa:	39053b0b          	0x39053b0b
 4fe:	3813490b          	0x3813490b
 502:	0005                	c.nop	1
 504:	1900                	addi	s0,sp,176
 506:	0e030113          	addi	sp,t1,224
 50a:	0b3a0b0b          	0xb3a0b0b
 50e:	0b39053b          	0xb39053b
 512:	1301                	addi	t1,t1,-32
 514:	0000                	unimp
 516:	131a                	slli	t1,t1,0x26
 518:	0b01                	addi	s6,s6,0
 51a:	3b0b3a0b          	0x3b0b3a0b
 51e:	3905                	jal	14e <_min_stack-0x1eb2>
 520:	0013010b          	0x13010b
 524:	1b00                	addi	s0,sp,432
 526:	0b0b0117          	auipc	sp,0xb0b0
 52a:	0b3a                	slli	s6,s6,0xe
 52c:	0b39053b          	0xb39053b
 530:	1301                	addi	t1,t1,-32
 532:	0000                	unimp
 534:	0d1c                	addi	a5,sp,656
 536:	0300                	addi	s0,sp,384
 538:	3a0e                	fld	fs4,224(sp)
 53a:	39053b0b          	0x39053b0b
 53e:	0013490b          	0x13490b
 542:	1d00                	addi	s0,sp,688
 544:	0e030013          	addi	zero,t1,224
 548:	193c                	addi	a5,sp,184
 54a:	0000                	unimp
 54c:	151e                	slli	a0,a0,0x27
 54e:	2701                	jal	c4e <_min_stack-0x13b2>
 550:	0119                	addi	sp,sp,6
 552:	1f000013          	li	zero,496
 556:	0034                	addi	a3,sp,8
 558:	0b3a0e03          	lb	t3,179(s4)
 55c:	0b39053b          	0xb39053b
 560:	1349                	addi	t1,t1,-14
 562:	193c193f 34200000 	0x34200000193c193f
 56a:	0300                	addi	s0,sp,384
 56c:	3a0e                	fld	fs4,224(sp)
 56e:	390b3b0b          	0x390b3b0b
 572:	3f13490b          	0x3f13490b
 576:	3c19                	jal	ffffff8c <_stack_start+0xffdfff8c>
 578:	0019                	c.nop	6
 57a:	2100                	fld	fs0,0(a0)
 57c:	0016                	c.slli	zero,0x5
 57e:	0b3a0803          	lb	a6,179(s4)
 582:	0b390b3b          	0xb390b3b
 586:	1349                	addi	t1,t1,-14
 588:	0000                	unimp
 58a:	3422                	fld	fs0,40(sp)
 58c:	0300                	addi	s0,sp,384
 58e:	3a08                	fld	fa0,48(a2)
 590:	390b3b0b          	0x390b3b0b
 594:	0213490b          	0x213490b
 598:	0018                	0x18
 59a:	2300                	fld	fs0,0(a4)
 59c:	0034                	addi	a3,sp,8
 59e:	0b3a0803          	lb	a6,179(s4)
 5a2:	0b39053b          	0xb39053b
 5a6:	1349                	addi	t1,t1,-14
 5a8:	1802                	slli	a6,a6,0x20
 5aa:	0000                	unimp
 5ac:	3424                	fld	fs1,104(s0)
 5ae:	0300                	addi	s0,sp,384
 5b0:	3a0e                	fld	fs4,224(sp)
 5b2:	39053b0b          	0x39053b0b
 5b6:	0213490b          	0x213490b
 5ba:	0018                	0x18
 5bc:	2500                	fld	fs0,8(a0)
 5be:	012e                	slli	sp,sp,0xb
 5c0:	0e03193f 053b0b3a 	0x53b0b3a0e03193f
 5c8:	0b39                	addi	s6,s6,14
 5ca:	01111927          	0x1111927
 5ce:	0612                	slli	a2,a2,0x4
 5d0:	1840                	addi	s0,sp,52
 5d2:	01194297          	auipc	t0,0x1194
 5d6:	26000013          	li	zero,608
 5da:	0005                	c.nop	1
 5dc:	0b3a0803          	lb	a6,179(s4)
 5e0:	0b39053b          	0xb39053b
 5e4:	1349                	addi	t1,t1,-14
 5e6:	1802                	slli	a6,a6,0x20
 5e8:	0000                	unimp
 5ea:	3f012e27          	fsw	fa6,1020(sp) # b0b0922 <_stack_start+0xaeb0922>
 5ee:	0319                	addi	t1,t1,6
 5f0:	3a0e                	fld	fs4,224(sp)
 5f2:	39053b0b          	0x39053b0b
 5f6:	4919270b          	0x4919270b
 5fa:	12011113          	0x12011113
 5fe:	4006                	0x4006
 600:	9718                	0x9718
 602:	1942                	slli	s2,s2,0x30
 604:	1301                	addi	t1,t1,-32
 606:	0000                	unimp
 608:	0528                	addi	a0,sp,648
 60a:	0300                	addi	s0,sp,384
 60c:	3a0e                	fld	fs4,224(sp)
 60e:	39053b0b          	0x39053b0b
 612:	0213490b          	0x213490b
 616:	0018                	0x18
 618:	0000                	unimp
 61a:	1101                	addi	sp,sp,-32
 61c:	2501                	jal	c1c <_min_stack-0x13e4>
 61e:	130e                	slli	t1,t1,0x23
 620:	1b0e030b          	0x1b0e030b
 624:	110e                	slli	sp,sp,0x23
 626:	1201                	addi	tp,tp,-32
 628:	1006                	c.slli	zero,0x21
 62a:	02000017          	auipc	zero,0x2000
 62e:	0024                	addi	s1,sp,8
 630:	0b3e0b0b          	0xb3e0b0b
 634:	00000803          	lb	a6,0(zero) # 0 <_min_stack-0x2000>
 638:	49002603          	lw	a2,1168(zero) # 490 <_min_stack-0x1b70>
 63c:	04000013          	li	zero,64
 640:	0024                	addi	s1,sp,8
 642:	0b3e0b0b          	0xb3e0b0b
 646:	00000e03          	lb	t3,0(zero) # 0 <_min_stack-0x2000>
 64a:	1305                	addi	t1,t1,-31
 64c:	0301                	addi	t1,t1,0
 64e:	0b0e                	slli	s6,s6,0x3
 650:	3b0b3a0b          	0x3b0b3a0b
 654:	010b390b          	0x10b390b
 658:	06000013          	li	zero,96
 65c:	000d                	c.nop	3
 65e:	0b3a0e03          	lb	t3,179(s4)
 662:	0b390b3b          	0xb390b3b
 666:	1349                	addi	t1,t1,-14
 668:	0b38                	addi	a4,sp,408
 66a:	0000                	unimp
 66c:	49010107          	0x49010107
 670:	00130113          	addi	sp,t1,1
 674:	0800                	addi	s0,sp,16
 676:	0021                	c.nop	8
 678:	1349                	addi	t1,t1,-14
 67a:	00000b2f          	0xb2f
 67e:	1609                	addi	a2,a2,-30
 680:	0300                	addi	s0,sp,384
 682:	3a0e                	fld	fs4,224(sp)
 684:	390b3b0b          	0x390b3b0b
 688:	0013490b          	0x13490b
 68c:	0a00                	addi	s0,sp,272
 68e:	0016                	c.slli	zero,0x5
 690:	0b3a0e03          	lb	t3,179(s4)
 694:	0b39053b          	0xb39053b
 698:	1349                	addi	t1,t1,-14
 69a:	0000                	unimp
 69c:	0b01170b          	0xb01170b
 6a0:	3b0b3a0b          	0x3b0b3a0b
 6a4:	010b390b          	0x10b390b
 6a8:	0c000013          	li	zero,192
 6ac:	000d                	c.nop	3
 6ae:	0b3a0e03          	lb	t3,179(s4)
 6b2:	0b390b3b          	0xb390b3b
 6b6:	1349                	addi	t1,t1,-14
 6b8:	0000                	unimp
 6ba:	130d                	addi	t1,t1,-29
 6bc:	0b01                	addi	s6,s6,0
 6be:	3b0b3a0b          	0x3b0b3a0b
 6c2:	010b390b          	0x10b390b
 6c6:	0e000013          	li	zero,224
 6ca:	0b0b000f          	0xb0b000f
 6ce:	0000                	unimp
 6d0:	03000d0f          	0x3000d0f
 6d4:	3a08                	fld	fa0,48(a2)
 6d6:	390b3b0b          	0x390b3b0b
 6da:	3813490b          	0x3813490b
 6de:	1000000b          	0x1000000b
 6e2:	0b0b000f          	0xb0b000f
 6e6:	1349                	addi	t1,t1,-14
 6e8:	0000                	unimp
 6ea:	1311                	addi	t1,t1,-28
 6ec:	0301                	addi	t1,t1,0
 6ee:	0b0e                	slli	s6,s6,0x3
 6f0:	3a05                	jal	20 <_min_stack-0x1fe0>
 6f2:	390b3b0b          	0x390b3b0b
 6f6:	0013010b          	0x13010b
 6fa:	1200                	addi	s0,sp,288
 6fc:	000d                	c.nop	3
 6fe:	0b3a0e03          	lb	t3,179(s4)
 702:	0b390b3b          	0xb390b3b
 706:	1349                	addi	t1,t1,-14
 708:	0538                	addi	a4,sp,648
 70a:	0000                	unimp
 70c:	27001513          	0x27001513
 710:	0019                	c.nop	6
 712:	1400                	addi	s0,sp,544
 714:	0115                	addi	sp,sp,5
 716:	13491927          	0x13491927
 71a:	1301                	addi	t1,t1,-32
 71c:	0000                	unimp
 71e:	0515                	addi	a0,a0,5
 720:	4900                	lw	s0,16(a0)
 722:	16000013          	li	zero,352
 726:	0e030113          	addi	sp,t1,224
 72a:	0b3a050b          	0xb3a050b
 72e:	0b39053b          	0xb39053b
 732:	1301                	addi	t1,t1,-32
 734:	0000                	unimp
 736:	03000d17          	auipc	s10,0x3000
 73a:	3a0e                	fld	fs4,224(sp)
 73c:	39053b0b          	0x39053b0b
 740:	3813490b          	0x3813490b
 744:	1800000b          	0x1800000b
 748:	000d                	c.nop	3
 74a:	0b3a0e03          	lb	t3,179(s4)
 74e:	0b39053b          	0xb39053b
 752:	1349                	addi	t1,t1,-14
 754:	0538                	addi	a4,sp,648
 756:	0000                	unimp
 758:	1319                	addi	t1,t1,-26
 75a:	0301                	addi	t1,t1,0
 75c:	0b0e                	slli	s6,s6,0x3
 75e:	3b0b3a0b          	0x3b0b3a0b
 762:	3905                	jal	392 <_min_stack-0x1c6e>
 764:	0013010b          	0x13010b
 768:	1a00                	addi	s0,sp,304
 76a:	0b0b0113          	addi	sp,s6,176
 76e:	0b3a                	slli	s6,s6,0xe
 770:	0b39053b          	0xb39053b
 774:	1301                	addi	t1,t1,-32
 776:	0000                	unimp
 778:	0b01171b          	0xb01171b
 77c:	3b0b3a0b          	0x3b0b3a0b
 780:	3905                	jal	3b0 <_min_stack-0x1c50>
 782:	0013010b          	0x13010b
 786:	1c00                	addi	s0,sp,560
 788:	000d                	c.nop	3
 78a:	0b3a0e03          	lb	t3,179(s4)
 78e:	0b39053b          	0xb39053b
 792:	1349                	addi	t1,t1,-14
 794:	0000                	unimp
 796:	131d                	addi	t1,t1,-25
 798:	0300                	addi	s0,sp,384
 79a:	3c0e                	fld	fs8,224(sp)
 79c:	0019                	c.nop	6
 79e:	1e00                	addi	s0,sp,816
 7a0:	0115                	addi	sp,sp,5
 7a2:	13011927          	0x13011927
 7a6:	0000                	unimp
 7a8:	341f 0300 3a0e      	0x3a0e0300341f
 7ae:	39053b0b          	0x39053b0b
 7b2:	3f13490b          	0x3f13490b
 7b6:	3c19                	jal	1cc <_min_stack-0x1e34>
 7b8:	0019                	c.nop	6
 7ba:	2000                	fld	fs0,0(s0)
 7bc:	0034                	addi	a3,sp,8
 7be:	0b3a0e03          	lb	t3,179(s4)
 7c2:	0b390b3b          	0xb390b3b
 7c6:	1349                	addi	t1,t1,-14
 7c8:	193c193f 2e210000 	0x2e210000193c193f
 7d0:	3f01                	jal	6e0 <_min_stack-0x1920>
 7d2:	0319                	addi	t1,t1,6
 7d4:	3a0e                	fld	fs4,224(sp)
 7d6:	390b3b0b          	0x390b3b0b
 7da:	1119270b          	0x1119270b
 7de:	1201                	addi	tp,tp,-32
 7e0:	4006                	0x4006
 7e2:	9618                	0x9618
 7e4:	1942                	slli	s2,s2,0x30
 7e6:	1301                	addi	t1,t1,-32
 7e8:	0000                	unimp
 7ea:	0522                	slli	a0,a0,0x8
 7ec:	0300                	addi	s0,sp,384
 7ee:	3a08                	fld	fa0,48(a2)
 7f0:	390b3b0b          	0x390b3b0b
 7f4:	0213490b          	0x213490b
 7f8:	0018                	0x18
 7fa:	0000                	unimp
 7fc:	1101                	addi	sp,sp,-32
 7fe:	1000                	addi	s0,sp,32
 800:	5506                	lw	a0,96(sp)
 802:	0306                	slli	t1,t1,0x1
 804:	1b0e                	slli	s6,s6,0x23
 806:	250e                	fld	fa0,192(sp)
 808:	130e                	slli	t1,t1,0x23
 80a:	0005                	c.nop	1
	...

Déassemblage de la section .debug_aranges :

00000000 <.debug_aranges>:
   0:	001c                	0x1c
   2:	0000                	unimp
   4:	0002                	c.slli64	zero
   6:	0000                	unimp
   8:	0000                	unimp
   a:	0004                	0x4
   c:	0000                	unimp
   e:	0000                	unimp
  10:	0084                	addi	s1,sp,64
  12:	0010                	0x10
  14:	03ec                	addi	a1,sp,460
	...
  1e:	0000                	unimp
  20:	001c                	0x1c
  22:	0000                	unimp
  24:	0002                	c.slli64	zero
  26:	00000343          	fmadd.s	ft6,ft0,ft0,ft0,rne
  2a:	0004                	0x4
  2c:	0000                	unimp
  2e:	0000                	unimp
  30:	0470                	addi	a2,sp,524
  32:	0010                	0x10
  34:	016c                	addi	a1,sp,140
	...
  3e:	0000                	unimp
  40:	001c                	0x1c
  42:	0000                	unimp
  44:	0002                	c.slli64	zero
  46:	0d0d                	addi	s10,s10,3
  48:	0000                	unimp
  4a:	0004                	0x4
  4c:	0000                	unimp
  4e:	0000                	unimp
  50:	05dc                	addi	a5,sp,708
  52:	0010                	0x10
  54:	0d26                	slli	s10,s10,0x9
	...
  5e:	0000                	unimp
  60:	001c                	0x1c
  62:	0000                	unimp
  64:	0002                	c.slli64	zero
  66:	1910                	addi	a2,sp,176
  68:	0000                	unimp
  6a:	0004                	0x4
  6c:	0000                	unimp
  6e:	0000                	unimp
  70:	1302                	slli	t1,t1,0x20
  72:	0010                	0x10
  74:	001c                	0x1c
	...
  7e:	0000                	unimp
  80:	0024                	addi	s1,sp,8
  82:	0000                	unimp
  84:	0002                	c.slli64	zero
  86:	000022e3          	0x22e3
  8a:	0004                	0x4
  8c:	0000                	unimp
  8e:	0000                	unimp
  90:	131e                	slli	t1,t1,0x27
  92:	0010                	0x10
  94:	008e                	slli	ra,ra,0x3
  96:	0000                	unimp
  98:	0000                	unimp
  9a:	0010                	0x10
  9c:	0084                	addi	s1,sp,64
	...

Déassemblage de la section .debug_line :

00000000 <.debug_line>:
       0:	04ad                	addi	s1,s1,11
       2:	0000                	unimp
       4:	012f0003          	lb	zero,18(t5)
       8:	0000                	unimp
       a:	0101                	addi	sp,sp,0
       c:	000d0efb          	0xd0efb
      10:	0101                	addi	sp,sp,0
      12:	0101                	addi	sp,sp,0
      14:	0000                	unimp
      16:	0100                	addi	s0,sp,128
      18:	0000                	unimp
      1a:	2f01                	jal	72a <_min_stack-0x18d6>
      1c:	6f68                	flw	fa0,92(a4)
      1e:	656d                	lui	a0,0x1b
      20:	746e612f          	0x746e612f
      24:	6f68                	flw	fa0,92(a4)
      26:	796e                	flw	fs2,248(sp)
      28:	616c502f          	0x616c502f
      2c:	646e                	flw	fs0,216(sp)
      2e:	7465                	lui	s0,0xffff9
      30:	6172                	flw	ft2,28(sp)
      32:	6176                	flw	ft2,92(sp)
      34:	6c69                	lui	s8,0x1a
      36:	2d31302f          	0x2d31302f
      3a:	6952                	flw	fs2,20(sp)
      3c:	5f566373          	csrrsi	t1,0x5f5,12
      40:	4249                	li	tp,18
      42:	5845                	li	a6,-15
      44:	6562692f          	0x6562692f
      48:	5f78                	lw	a4,124(a4)
      4a:	38303133          	0x38303133
      4e:	3032                	fld	ft0,296(sp)
      50:	3032                	fld	ft0,296(sp)
      52:	665f 6e69 6c61      	0x6c616e69665f
      58:	2f65                	jal	810 <_min_stack-0x17f0>
      5a:	706d6f43          	fmadd.s	ft10,fs10,ft6,fa4,unknown
      5e:	6c69                	lui	s8,0x1a
      60:	7461                	lui	s0,0xffff8
      62:	6f69                	lui	t5,0x1a
      64:	5f6e                	lw	t5,248(sp)
      66:	7865                	lui	a6,0xffff9
      68:	6d61                	lui	s10,0x18
      6a:	6c70                	flw	fa2,92(s0)
      6c:	7365                	lui	t1,0xffff9
      6e:	6d6f632f          	0x6d6f632f
      72:	6f6d                	lui	t5,0x1b
      74:	006e                	c.slli	zero,0x1b
      76:	6d6f682f          	0x6d6f682f
      7a:	2f65                	jal	832 <_min_stack-0x17ce>
      7c:	6e61                	lui	t3,0x18
      7e:	6874                	flw	fa3,84(s0)
      80:	2f796e6f          	jal	t3,96b76 <_stack_len+0x8eb76>
      84:	6c50                	flw	fa2,28(s0)
      86:	6e61                	lui	t3,0x18
      88:	6564                	flw	fs1,76(a0)
      8a:	7274                	flw	fa3,100(a2)
      8c:	7661                	lui	a2,0xffff8
      8e:	6961                	lui	s2,0x18
      90:	2f6c                	fld	fa1,216(a4)
      92:	3030                	fld	fa2,96(s0)
      94:	522d                	li	tp,-21
      96:	7369                	lui	t1,0xffffa
      98:	545f5663          	bge	t5,t0,5e4 <_min_stack-0x1a1c>
      9c:	636c6f6f          	jal	t5,c66d2 <_stack_len+0xbe6d2>
      a0:	6168                	flw	fa0,68(a0)
      a2:	6e69                	lui	t3,0x1a
      a4:	7369722f          	0x7369722f
      a8:	34367663          	bgeu	a2,gp,3f4 <_min_stack-0x1c0c>
      ac:	752d                	lui	a0,0xfffeb
      ae:	6b6e                	flw	fs6,216(sp)
      b0:	6f6e                	flw	ft10,216(sp)
      b2:	652d6e77          	0x652d6e77
      b6:	666c                	flw	fa1,76(a2)
      b8:	672d                	lui	a4,0xb
      ba:	382d6363          	bltu	s10,sp,440 <_min_stack-0x1bc0>
      be:	332e                	fld	ft6,232(sp)
      c0:	302e                	fld	ft0,232(sp)
      c2:	322d                	jal	fffff9ec <_stack_start+0xffdff9ec>
      c4:	3230                	fld	fa2,96(a2)
      c6:	2e30                	fld	fa2,88(a2)
      c8:	3430                	fld	fa2,104(s0)
      ca:	302e                	fld	ft0,232(sp)
      cc:	782d                	lui	a6,0xfffeb
      ce:	3638                	fld	fa4,104(a2)
      d0:	365f 2d34 696c      	0x696c2d34365f
      d6:	756e                	flw	fa0,248(sp)
      d8:	2d78                	fld	fa4,216(a0)
      da:	6275                	lui	tp,0x1d
      dc:	6e75                	lui	t3,0x1d
      de:	7574                	flw	fa3,108(a0)
      e0:	3431                	jal	fffffaec <_stack_start+0xffdffaec>
      e2:	62696c2f          	0x62696c2f
      e6:	6363672f          	0x6363672f
      ea:	7369722f          	0x7369722f
      ee:	34367663          	bgeu	a2,gp,43a <_min_stack-0x1bc6>
      f2:	752d                	lui	a0,0xfffeb
      f4:	6b6e                	flw	fs6,216(sp)
      f6:	6f6e                	flw	ft10,216(sp)
      f8:	652d6e77          	0x652d6e77
      fc:	666c                	flw	fa1,76(a2)
      fe:	332e382f          	0x332e382f
     102:	302e                	fld	ft0,232(sp)
     104:	636e692f          	0x636e692f
     108:	756c                	flw	fa1,108(a0)
     10a:	6564                	flw	fs1,76(a0)
     10c:	0000                	unimp
     10e:	706d6973          	csrrsi	s2,0x706,26
     112:	656c                	flw	fa1,76(a0)
     114:	735f 7379 6574      	0x65747379735f
     11a:	5f6d                	li	t5,-5
     11c:	6d6d6f63          	bltu	s10,s6,7fa <_min_stack-0x1806>
     120:	632e6e6f          	jal	t3,e6752 <_stack_len+0xde752>
     124:	0100                	addi	s0,sp,128
     126:	0000                	unimp
     128:	69647473          	csrrci	s0,0x696,8
     12c:	746e                	flw	fs0,248(sp)
     12e:	672d                	lui	a4,0xb
     130:	682e6363          	bltu	t3,sp,7b6 <_min_stack-0x184a>
     134:	0200                	addi	s0,sp,256
     136:	0000                	unimp
     138:	0500                	addi	s0,sp,640
     13a:	0014                	0x14
     13c:	0205                	addi	tp,tp,1
     13e:	0084                	addi	s1,sp,64
     140:	0010                	0x10
     142:	0518                	addi	a4,sp,640
     144:	09010303          	lb	t1,144(sp)
     148:	0004                	0x4
     14a:	0501                	addi	a0,a0,0
     14c:	030a                	slli	t1,t1,0x2
     14e:	0902                	c.slli64	s2
     150:	000c                	0xc
     152:	0501                	addi	a0,a0,0
     154:	0301                	addi	t1,t1,0
     156:	0901                	addi	s2,s2,0
     158:	0002                	c.slli64	zero
     15a:	0501                	addi	a0,a0,0
     15c:	0902031b          	0x902031b
     160:	0006                	c.slli	zero,0x1
     162:	0501                	addi	a0,a0,0
     164:	0309                	addi	t1,t1,2
     166:	0901                	addi	s2,s2,0
     168:	0006                	c.slli	zero,0x1
     16a:	0501                	addi	a0,a0,0
     16c:	0311                	addi	t1,t1,4
     16e:	0901                	addi	s2,s2,0
     170:	0002                	c.slli64	zero
     172:	0501                	addi	a0,a0,0
     174:	030d                	addi	t1,t1,3
     176:	0900                	addi	s0,sp,144
     178:	0008                	0x8
     17a:	0501                	addi	a0,a0,0
     17c:	0305                	addi	t1,t1,1
     17e:	0900                	addi	s0,sp,144
     180:	0004                	0x4
     182:	0501                	addi	a0,a0,0
     184:	030a                	slli	t1,t1,0x2
     186:	097f                	0x97f
     188:	0004                	0x4
     18a:	0501                	addi	a0,a0,0
     18c:	0309                	addi	t1,t1,2
     18e:	0900                	addi	s0,sp,144
     190:	0006                	c.slli	zero,0x1
     192:	0501                	addi	a0,a0,0
     194:	030a                	slli	t1,t1,0x2
     196:	0904                	addi	s1,sp,144
     198:	0002                	c.slli64	zero
     19a:	0501                	addi	a0,a0,0
     19c:	0301                	addi	t1,t1,0
     19e:	0901                	addi	s2,s2,0
     1a0:	0002                	c.slli64	zero
     1a2:	0501                	addi	a0,a0,0
     1a4:	0319                	addi	t1,t1,6
     1a6:	0902                	c.slli64	s2
     1a8:	0008                	0x8
     1aa:	0501                	addi	a0,a0,0
     1ac:	030c                	addi	a1,sp,384
     1ae:	0904                	addi	s1,sp,144
     1b0:	0006                	c.slli	zero,0x1
     1b2:	0501                	addi	a0,a0,0
     1b4:	09000303          	lb	t1,144(zero) # 90 <_min_stack-0x1f70>
     1b8:	0002                	c.slli64	zero
     1ba:	0501                	addi	a0,a0,0
     1bc:	09010313          	addi	t1,sp,144
     1c0:	0002                	c.slli64	zero
     1c2:	0501                	addi	a0,a0,0
     1c4:	0900030f          	0x900030f
     1c8:	0004                	0x4
     1ca:	0501                	addi	a0,a0,0
     1cc:	0308                	addi	a0,sp,384
     1ce:	0902                	c.slli64	s2
     1d0:	0002                	c.slli64	zero
     1d2:	0501                	addi	a0,a0,0
     1d4:	09010307          	0x9010307
     1d8:	0008                	0x8
     1da:	0301                	addi	t1,t1,0
     1dc:	0902                	c.slli64	s2
     1de:	000c                	0xc
     1e0:	0001                	nop
     1e2:	0402                	c.slli64	s0
     1e4:	0302                	c.slli64	t1
     1e6:	0902                	c.slli64	s2
     1e8:	000a                	c.slli	zero,0x2
     1ea:	0501                	addi	a0,a0,0
     1ec:	0402001b          	0x402001b
     1f0:	0302                	c.slli64	t1
     1f2:	0978                	addi	a4,sp,156
     1f4:	0006                	c.slli	zero,0x1
     1f6:	0501                	addi	a0,a0,0
     1f8:	04020003          	lb	zero,64(tp) # 1d040 <_stack_len+0x15040>
     1fc:	0301                	addi	t1,t1,0
     1fe:	0900                	addi	s0,sp,144
     200:	0006                	c.slli	zero,0x1
     202:	0501                	addi	a0,a0,0
     204:	0301                	addi	t1,t1,0
     206:	090a                	slli	s2,s2,0x2
     208:	0008                	0x8
     20a:	0501                	addi	a0,a0,0
     20c:	0311                	addi	t1,t1,4
     20e:	0902                	c.slli64	s2
     210:	0008                	0x8
     212:	0501                	addi	a0,a0,0
     214:	09000313          	li	t1,144
     218:	0000                	unimp
     21a:	0501                	addi	a0,a0,0
     21c:	0301                	addi	t1,t1,0
     21e:	0900                	addi	s0,sp,144
     220:	000a                	c.slli	zero,0x2
     222:	0501                	addi	a0,a0,0
     224:	0315                	addi	t1,t1,5
     226:	0902                	c.slli64	s2
     228:	0004                	0x4
     22a:	0501                	addi	a0,a0,0
     22c:	09010303          	lb	t1,144(sp)
     230:	0000                	unimp
     232:	0501                	addi	a0,a0,0
     234:	0301                	addi	t1,t1,0
     236:	00f8093f 03200501 	0x320050100f8093f
     23e:	0902                	c.slli64	s2
     240:	0004                	0x4
     242:	0501                	addi	a0,a0,0
     244:	0902032b          	0x902032b
     248:	0004                	0x4
     24a:	0001                	nop
     24c:	0402                	c.slli64	s0
     24e:	0601                	addi	a2,a2,0
     250:	04090003          	lb	zero,64(s2) # 18040 <_stack_len+0x10040>
     254:	0100                	addi	s0,sp,128
     256:	0200                	addi	s0,sp,256
     258:	0204                	addi	s1,sp,256
     25a:	04090003          	lb	zero,64(s2)
     25e:	0100                	addi	s0,sp,128
     260:	1005                	c.nop	-31
     262:	0200                	addi	s0,sp,256
     264:	0404                	addi	s1,sp,512
     266:	0306                	slli	t1,t1,0x1
     268:	0900                	addi	s0,sp,144
     26a:	0002                	c.slli64	zero
     26c:	0501                	addi	a0,a0,0
     26e:	04020003          	lb	zero,64(tp) # 40 <_min_stack-0x1fc0>
     272:	0304                	addi	s1,sp,384
     274:	00020903          	lb	s2,0(tp) # 0 <_min_stack-0x2000>
     278:	0501                	addi	a0,a0,0
     27a:	0001                	nop
     27c:	0402                	c.slli64	s0
     27e:	0304                	addi	s1,sp,384
     280:	0901                	addi	s2,s2,0
     282:	0006                	c.slli	zero,0x1
     284:	0501                	addi	a0,a0,0
     286:	0319                	addi	t1,t1,6
     288:	0902                	c.slli64	s2
     28a:	0006                	c.slli	zero,0x1
     28c:	0501                	addi	a0,a0,0
     28e:	09020303          	lb	t1,144(tp) # 90 <_min_stack-0x1f70>
     292:	0002                	c.slli64	zero
     294:	0501                	addi	a0,a0,0
     296:	030a                	slli	t1,t1,0x2
     298:	0901                	addi	s2,s2,0
     29a:	0006                	c.slli	zero,0x1
     29c:	0501                	addi	a0,a0,0
     29e:	0301                	addi	t1,t1,0
     2a0:	0901                	addi	s2,s2,0
     2a2:	0002                	c.slli64	zero
     2a4:	0501                	addi	a0,a0,0
     2a6:	0902031b          	0x902031b
     2aa:	0006                	c.slli	zero,0x1
     2ac:	0501                	addi	a0,a0,0
     2ae:	09020303          	lb	t1,144(tp) # 90 <_min_stack-0x1f70>
     2b2:	0002                	c.slli64	zero
     2b4:	0501                	addi	a0,a0,0
     2b6:	030a                	slli	t1,t1,0x2
     2b8:	0901                	addi	s2,s2,0
     2ba:	0006                	c.slli	zero,0x1
     2bc:	0501                	addi	a0,a0,0
     2be:	0301                	addi	t1,t1,0
     2c0:	0901                	addi	s2,s2,0
     2c2:	0002                	c.slli64	zero
     2c4:	0501                	addi	a0,a0,0
     2c6:	031a                	slli	t1,t1,0x6
     2c8:	0902                	c.slli64	s2
     2ca:	0006                	c.slli	zero,0x1
     2cc:	0501                	addi	a0,a0,0
     2ce:	09020303          	lb	t1,144(tp) # 90 <_min_stack-0x1f70>
     2d2:	0002                	c.slli64	zero
     2d4:	0501                	addi	a0,a0,0
     2d6:	030a                	slli	t1,t1,0x2
     2d8:	0901                	addi	s2,s2,0
     2da:	0006                	c.slli	zero,0x1
     2dc:	0501                	addi	a0,a0,0
     2de:	0301                	addi	t1,t1,0
     2e0:	0901                	addi	s2,s2,0
     2e2:	0002                	c.slli64	zero
     2e4:	0501                	addi	a0,a0,0
     2e6:	031f 0902 0006      	0x60902031f
     2ec:	0501                	addi	a0,a0,0
     2ee:	09010303          	lb	t1,144(sp)
     2f2:	0004                	0x4
     2f4:	0301                	addi	t1,t1,0
     2f6:	0901                	addi	s2,s2,0
     2f8:	000a                	c.slli	zero,0x2
     2fa:	0301                	addi	t1,t1,0
     2fc:	0901                	addi	s2,s2,0
     2fe:	000a                	c.slli	zero,0x2
     300:	0501                	addi	a0,a0,0
     302:	0320                	addi	s0,sp,392
     304:	0900                	addi	s0,sp,144
     306:	000a                	c.slli	zero,0x2
     308:	0501                	addi	a0,a0,0
     30a:	0319                	addi	t1,t1,6
     30c:	0900                	addi	s0,sp,144
     30e:	0004                	0x4
     310:	0501                	addi	a0,a0,0
     312:	09010303          	lb	t1,144(sp)
     316:	0004                	0x4
     318:	0501                	addi	a0,a0,0
     31a:	0322                	slli	t1,t1,0x8
     31c:	0900                	addi	s0,sp,144
     31e:	000a                	c.slli	zero,0x2
     320:	0501                	addi	a0,a0,0
     322:	0900031b          	0x900031b
     326:	0004                	0x4
     328:	0501                	addi	a0,a0,0
     32a:	09010303          	lb	t1,144(sp)
     32e:	0004                	0x4
     330:	0501                	addi	a0,a0,0
     332:	0322                	slli	t1,t1,0x8
     334:	0900                	addi	s0,sp,144
     336:	000a                	c.slli	zero,0x2
     338:	0501                	addi	a0,a0,0
     33a:	0900031b          	0x900031b
     33e:	0004                	0x4
     340:	0501                	addi	a0,a0,0
     342:	09010303          	lb	t1,144(sp)
     346:	0004                	0x4
     348:	0301                	addi	t1,t1,0
     34a:	0901                	addi	s2,s2,0
     34c:	0004                	0x4
     34e:	0501                	addi	a0,a0,0
     350:	0008                	0x8
     352:	0402                	c.slli64	s0
     354:	0301                	addi	t1,t1,0
     356:	0902                	c.slli64	s2
     358:	0002                	c.slli64	zero
     35a:	0501                	addi	a0,a0,0
     35c:	033a                	slli	t1,t1,0xe
     35e:	0906                	slli	s2,s2,0x1
     360:	0002                	c.slli64	zero
     362:	0501                	addi	a0,a0,0
     364:	0901031b          	0x901031b
     368:	0008                	0x8
     36a:	0501                	addi	a0,a0,0
     36c:	0310                	addi	a2,sp,384
     36e:	0901                	addi	s2,s2,0
     370:	0006                	c.slli	zero,0x1
     372:	0501                	addi	a0,a0,0
     374:	09010303          	lb	t1,144(sp)
     378:	0020                	addi	s0,sp,8
     37a:	0501                	addi	a0,a0,0
     37c:	0301                	addi	t1,t1,0
     37e:	0901                	addi	s2,s2,0
     380:	0006                	c.slli	zero,0x1
     382:	0501                	addi	a0,a0,0
     384:	09020327          	0x9020327
     388:	0008                	0x8
     38a:	0501                	addi	a0,a0,0
     38c:	0310                	addi	a2,sp,384
     38e:	0901                	addi	s2,s2,0
     390:	0008                	0x8
     392:	0501                	addi	a0,a0,0
     394:	0312                	slli	t1,t1,0x4
     396:	0901                	addi	s2,s2,0
     398:	0010                	0x10
     39a:	0501                	addi	a0,a0,0
     39c:	09020303          	lb	t1,144(tp) # 90 <_min_stack-0x1f70>
     3a0:	0012                	c.slli	zero,0x4
     3a2:	0301                	addi	t1,t1,0
     3a4:	0902                	c.slli64	s2
     3a6:	0006                	c.slli	zero,0x1
     3a8:	0301                	addi	t1,t1,0
     3aa:	0902                	c.slli64	s2
     3ac:	0008                	0x8
     3ae:	0501                	addi	a0,a0,0
     3b0:	0301                	addi	t1,t1,0
     3b2:	0901                	addi	s2,s2,0
     3b4:	0006                	c.slli	zero,0x1
     3b6:	0501                	addi	a0,a0,0
     3b8:	031a                	slli	t1,t1,0x6
     3ba:	0902                	c.slli64	s2
     3bc:	0008                	0x8
     3be:	0501                	addi	a0,a0,0
     3c0:	031c                	addi	a5,sp,384
     3c2:	0900                	addi	s0,sp,144
     3c4:	0000                	unimp
     3c6:	0501                	addi	a0,a0,0
     3c8:	0301                	addi	t1,t1,0
     3ca:	0900                	addi	s0,sp,144
     3cc:	0008                	0x8
     3ce:	0501                	addi	a0,a0,0
     3d0:	0902031b          	0x902031b
     3d4:	0004                	0x4
     3d6:	0501                	addi	a0,a0,0
     3d8:	0015                	c.nop	5
     3da:	0402                	c.slli64	s0
     3dc:	0301                	addi	t1,t1,0
     3de:	0905                	addi	s2,s2,1
     3e0:	0002                	c.slli64	zero
     3e2:	0501                	addi	a0,a0,0
     3e4:	04020013          	addi	zero,tp,64 # 40 <_min_stack-0x1fc0>
     3e8:	0301                	addi	t1,t1,0
     3ea:	0900                	addi	s0,sp,144
     3ec:	0006                	c.slli	zero,0x1
     3ee:	0501                	addi	a0,a0,0
     3f0:	0014                	0x14
     3f2:	0402                	c.slli64	s0
     3f4:	0301                	addi	t1,t1,0
     3f6:	0901                	addi	s2,s2,0
     3f8:	0004                	0x4
     3fa:	0501                	addi	a0,a0,0
     3fc:	0012                	c.slli	zero,0x4
     3fe:	0402                	c.slli64	s0
     400:	0301                	addi	t1,t1,0
     402:	0900                	addi	s0,sp,144
     404:	0004                	0x4
     406:	0501                	addi	a0,a0,0
     408:	001d                	c.nop	7
     40a:	0402                	c.slli64	s0
     40c:	0301                	addi	t1,t1,0
     40e:	0901                	addi	s2,s2,0
     410:	0004                	0x4
     412:	0501                	addi	a0,a0,0
     414:	04020003          	lb	zero,64(tp) # 40 <_min_stack-0x1fc0>
     418:	0301                	addi	t1,t1,0
     41a:	0900                	addi	s0,sp,144
     41c:	0008                	0x8
     41e:	0501                	addi	a0,a0,0
     420:	031a                	slli	t1,t1,0x6
     422:	0901                	addi	s2,s2,0
     424:	0006                	c.slli	zero,0x1
     426:	0501                	addi	a0,a0,0
     428:	0332                	slli	t1,t1,0xc
     42a:	0900                	addi	s0,sp,144
     42c:	0006                	c.slli	zero,0x1
     42e:	0501                	addi	a0,a0,0
     430:	0339                	addi	t1,t1,14
     432:	0900                	addi	s0,sp,144
     434:	0006                	c.slli	zero,0x1
     436:	0501                	addi	a0,a0,0
     438:	030c                	addi	a1,sp,384
     43a:	0900                	addi	s0,sp,144
     43c:	0006                	c.slli	zero,0x1
     43e:	0501                	addi	a0,a0,0
     440:	030a                	slli	t1,t1,0x2
     442:	0901                	addi	s2,s2,0
     444:	000c                	0xc
     446:	0501                	addi	a0,a0,0
     448:	0301                	addi	t1,t1,0
     44a:	0901                	addi	s2,s2,0
     44c:	0004                	0x4
     44e:	0501                	addi	a0,a0,0
     450:	0328                	addi	a0,sp,392
     452:	0902                	c.slli64	s2
     454:	0008                	0x8
     456:	0501                	addi	a0,a0,0
     458:	09010303          	lb	t1,144(sp)
     45c:	0006                	c.slli	zero,0x1
     45e:	0301                	addi	t1,t1,0
     460:	0901                	addi	s2,s2,0
     462:	000a                	c.slli	zero,0x2
     464:	0301                	addi	t1,t1,0
     466:	0901                	addi	s2,s2,0
     468:	0010                	0x10
     46a:	0501                	addi	a0,a0,0
     46c:	0301                	addi	t1,t1,0
     46e:	0901                	addi	s2,s2,0
     470:	000a                	c.slli	zero,0x2
     472:	0501                	addi	a0,a0,0
     474:	0321                	addi	t1,t1,8
     476:	0902                	c.slli64	s2
     478:	0006                	c.slli	zero,0x1
     47a:	0501                	addi	a0,a0,0
     47c:	032a                	slli	t1,t1,0xa
     47e:	0900                	addi	s0,sp,144
     480:	0000                	unimp
     482:	0501                	addi	a0,a0,0
     484:	0301                	addi	t1,t1,0
     486:	0900                	addi	s0,sp,144
     488:	000e                	c.slli	zero,0x3
     48a:	0501                	addi	a0,a0,0
     48c:	0321                	addi	t1,t1,8
     48e:	0904                	addi	s1,sp,144
     490:	0006                	c.slli	zero,0x1
     492:	0501                	addi	a0,a0,0
     494:	09010303          	lb	t1,144(sp)
     498:	0022                	c.slli	zero,0x8
     49a:	0501                	addi	a0,a0,0
     49c:	0901030f          	0x901030f
     4a0:	0014                	0x14
     4a2:	0501                	addi	a0,a0,0
     4a4:	0301                	addi	t1,t1,0
     4a6:	0901                	addi	s2,s2,0
     4a8:	0038                	addi	a4,sp,8
     4aa:	0901                	addi	s2,s2,0
     4ac:	0028                	addi	a0,sp,8
     4ae:	0100                	addi	s0,sp,128
     4b0:	a401                	j	6b0 <_min_stack-0x1950>
     4b2:	0002                	c.slli64	zero
     4b4:	0300                	addi	s0,sp,384
     4b6:	a500                	fsd	fs0,8(a0)
     4b8:	0001                	nop
     4ba:	0100                	addi	s0,sp,128
     4bc:	fb01                	bnez	a4,3cc <_min_stack-0x1c34>
     4be:	0d0e                	slli	s10,s10,0x3
     4c0:	0100                	addi	s0,sp,128
     4c2:	0101                	addi	sp,sp,0
     4c4:	0001                	nop
     4c6:	0000                	unimp
     4c8:	0001                	nop
     4ca:	0100                	addi	s0,sp,128
     4cc:	69665f43          	fmadd.s	ft10,fa2,fs6,fa3,unknown
     4d0:	656c                	flw	fa1,76(a0)
     4d2:	682f0073          	0x682f0073
     4d6:	2f656d6f          	jal	s10,567cc <_stack_len+0x4e7cc>
     4da:	6e61                	lui	t3,0x18
     4dc:	6874                	flw	fa3,84(s0)
     4de:	2f796e6f          	jal	t3,96fd4 <_stack_len+0x8efd4>
     4e2:	6c50                	flw	fa2,28(s0)
     4e4:	6e61                	lui	t3,0x18
     4e6:	6564                	flw	fs1,76(a0)
     4e8:	7274                	flw	fa3,100(a2)
     4ea:	7661                	lui	a2,0xffff8
     4ec:	6961                	lui	s2,0x18
     4ee:	2f6c                	fld	fa1,216(a4)
     4f0:	3030                	fld	fa2,96(s0)
     4f2:	522d                	li	tp,-21
     4f4:	7369                	lui	t1,0xffffa
     4f6:	545f5663          	bge	t5,t0,a42 <_min_stack-0x15be>
     4fa:	636c6f6f          	jal	t5,c6b30 <_stack_len+0xbeb30>
     4fe:	6168                	flw	fa0,68(a0)
     500:	6e69                	lui	t3,0x1a
     502:	7369722f          	0x7369722f
     506:	34367663          	bgeu	a2,gp,852 <_min_stack-0x17ae>
     50a:	752d                	lui	a0,0xfffeb
     50c:	6b6e                	flw	fs6,216(sp)
     50e:	6f6e                	flw	ft10,216(sp)
     510:	652d6e77          	0x652d6e77
     514:	666c                	flw	fa1,76(a2)
     516:	672d                	lui	a4,0xb
     518:	382d6363          	bltu	s10,sp,89e <_min_stack-0x1762>
     51c:	332e                	fld	ft6,232(sp)
     51e:	302e                	fld	ft0,232(sp)
     520:	322d                	jal	fffffe4a <_stack_start+0xffdffe4a>
     522:	3230                	fld	fa2,96(a2)
     524:	2e30                	fld	fa2,88(a2)
     526:	3430                	fld	fa2,104(s0)
     528:	302e                	fld	ft0,232(sp)
     52a:	782d                	lui	a6,0xfffeb
     52c:	3638                	fld	fa4,104(a2)
     52e:	365f 2d34 696c      	0x696c2d34365f
     534:	756e                	flw	fa0,248(sp)
     536:	2d78                	fld	fa4,216(a0)
     538:	6275                	lui	tp,0x1d
     53a:	6e75                	lui	t3,0x1d
     53c:	7574                	flw	fa3,108(a0)
     53e:	3431                	jal	ffffff4a <_stack_start+0xffdfff4a>
     540:	62696c2f          	0x62696c2f
     544:	6363672f          	0x6363672f
     548:	7369722f          	0x7369722f
     54c:	34367663          	bgeu	a2,gp,898 <_min_stack-0x1768>
     550:	752d                	lui	a0,0xfffeb
     552:	6b6e                	flw	fs6,216(sp)
     554:	6f6e                	flw	ft10,216(sp)
     556:	652d6e77          	0x652d6e77
     55a:	666c                	flw	fa1,76(a2)
     55c:	332e382f          	0x332e382f
     560:	302e                	fld	ft0,232(sp)
     562:	636e692f          	0x636e692f
     566:	756c                	flw	fa1,108(a0)
     568:	6564                	flw	fs1,76(a0)
     56a:	2f00                	fld	fs0,24(a4)
     56c:	6f68                	flw	fa0,92(a4)
     56e:	656d                	lui	a0,0x1b
     570:	746e612f          	0x746e612f
     574:	6f68                	flw	fa0,92(a4)
     576:	796e                	flw	fs2,248(sp)
     578:	616c502f          	0x616c502f
     57c:	646e                	flw	fs0,216(sp)
     57e:	7465                	lui	s0,0xffff9
     580:	6172                	flw	ft2,28(sp)
     582:	6176                	flw	ft2,92(sp)
     584:	6c69                	lui	s8,0x1a
     586:	2d30302f          	0x2d30302f
     58a:	6952                	flw	fs2,20(sp)
     58c:	5f566373          	csrrsi	t1,0x5f5,12
     590:	6f54                	flw	fa3,28(a4)
     592:	68636c6f          	jal	s8,36c18 <_stack_len+0x2ec18>
     596:	6961                	lui	s2,0x18
     598:	2f6e                	fld	ft10,216(sp)
     59a:	6972                	flw	fs2,28(sp)
     59c:	36766373          	csrrsi	t1,0x367,12
     5a0:	2d34                	fld	fa3,88(a0)
     5a2:	6e75                	lui	t3,0x1d
     5a4:	776f6e6b          	0x776f6e6b
     5a8:	2d6e                	fld	fs10,216(sp)
     5aa:	6c65                	lui	s8,0x19
     5ac:	2d66                	fld	fs10,88(sp)
     5ae:	2d636367          	0x2d636367
     5b2:	2e38                	fld	fa4,88(a2)
     5b4:	2d302e33          	0x2d302e33
     5b8:	3032                	fld	ft0,296(sp)
     5ba:	3032                	fld	ft0,296(sp)
     5bc:	302e                	fld	ft0,232(sp)
     5be:	2e34                	fld	fa3,88(a2)
     5c0:	2d30                	fld	fa2,88(a0)
     5c2:	3878                	fld	fa4,240(s0)
     5c4:	5f36                	lw	t5,108(sp)
     5c6:	3436                	fld	fs0,360(sp)
     5c8:	6c2d                	lui	s8,0xb
     5ca:	6e69                	lui	t3,0x1a
     5cc:	7875                	lui	a6,0xffffd
     5ce:	752d                	lui	a0,0xfffeb
     5d0:	7562                	flw	fa0,56(sp)
     5d2:	746e                	flw	fs0,248(sp)
     5d4:	3175                	jal	280 <_min_stack-0x1d80>
     5d6:	2f34                	fld	fa3,88(a4)
     5d8:	6972                	flw	fs2,28(sp)
     5da:	36766373          	csrrsi	t1,0x367,12
     5de:	2d34                	fld	fa3,88(a0)
     5e0:	6e75                	lui	t3,0x1d
     5e2:	776f6e6b          	0x776f6e6b
     5e6:	2d6e                	fld	fs10,216(sp)
     5e8:	6c65                	lui	s8,0x19
     5ea:	2f66                	fld	ft10,88(sp)
     5ec:	6e69                	lui	t3,0x1a
     5ee:	64756c63          	bltu	a0,t2,c46 <_min_stack-0x13ba>
     5f2:	2f65                	jal	daa <_min_stack-0x1256>
     5f4:	00737973          	csrrci	s2,0x7,6
     5f8:	69665f43          	fmadd.s	ft10,fa2,fs6,fa3,unknown
     5fc:	656c                	flw	fa1,76(a0)
     5fe:	2e2e2f73          	csrrs	t5,0x2e2,t3
     602:	665f482f          	0x665f482f
     606:	6c69                	lui	s8,0x1a
     608:	7365                	lui	t1,0xffff9
     60a:	0000                	unimp
     60c:	6561                	lui	a0,0x18
     60e:	00632e73          	csrrs	t3,0x6,t1
     612:	0001                	nop
     614:	7300                	flw	fs0,32(a4)
     616:	6474                	flw	fa3,76(s0)
     618:	6e69                	lui	t3,0x1a
     61a:	2d74                	fld	fa3,216(a0)
     61c:	2e636367          	0x2e636367
     620:	0068                	addi	a0,sp,12
     622:	0002                	c.slli64	zero
     624:	7300                	flw	fs0,32(a4)
     626:	6474                	flw	fa3,76(s0)
     628:	6564                	flw	fs1,76(a0)
     62a:	2e66                	fld	ft8,88(sp)
     62c:	0068                	addi	a0,sp,12
     62e:	0002                	c.slli64	zero
     630:	5f00                	lw	s0,56(a4)
     632:	7974                	flw	fa3,116(a0)
     634:	6570                	flw	fa2,76(a0)
     636:	00682e73          	csrrs	t3,0x6,a6
     63a:	72000003          	lb	zero,1824(zero) # 720 <_min_stack-0x18e0>
     63e:	6565                	lui	a0,0x19
     640:	746e                	flw	fs0,248(sp)
     642:	682e                	flw	fa6,200(sp)
     644:	0300                	addi	s0,sp,384
     646:	0000                	unimp
     648:	6f6c                	flw	fa1,92(a4)
     64a:	682e6b63          	bltu	t3,sp,ce0 <_min_stack-0x1320>
     64e:	0300                	addi	s0,sp,384
     650:	0000                	unimp
     652:	6561                	lui	a0,0x18
     654:	73735f73          	csrrwi	t5,0x737,6
     658:	2e6c                	fld	fa1,216(a2)
     65a:	0068                	addi	a0,sp,12
     65c:	0004                	0x4
     65e:	0000                	unimp
     660:	1005                	c.nop	-31
     662:	0500                	addi	s0,sp,640
     664:	7002                	flw	ft0,32(sp)
     666:	1004                	addi	s1,sp,32
     668:	0300                	addi	s0,sp,384
     66a:	012a                	slli	sp,sp,0xa
     66c:	0505                	addi	a0,a0,1
     66e:	0900d503          	lhu	a0,144(ra)
     672:	0006                	c.slli	zero,0x1
     674:	0501                	addi	a0,a0,0
     676:	0309                	addi	t1,t1,2
     678:	00040903          	lb	s2,0(s0) # ffff9000 <_stack_start+0xffdf9000>
     67c:	0301                	addi	t1,t1,0
     67e:	0901                	addi	s2,s2,0
     680:	0020                	addi	s0,sp,8
     682:	0501                	addi	a0,a0,0
     684:	0901030b          	0x901030b
     688:	0020                	addi	s0,sp,8
     68a:	0501                	addi	a0,a0,0
     68c:	09020303          	lb	t1,144(tp) # 1d090 <_stack_len+0x15090>
     690:	0040                	addi	s0,sp,4
     692:	0301                	addi	t1,t1,0
     694:	0901                	addi	s2,s2,0
     696:	000e                	c.slli	zero,0x3
     698:	0501                	addi	a0,a0,0
     69a:	0305                	addi	t1,t1,1
     69c:	0902                	c.slli64	s2
     69e:	0010                	0x10
     6a0:	0301                	addi	t1,t1,0
     6a2:	0906                	slli	s2,s2,0x1
     6a4:	0010                	0x10
     6a6:	0301                	addi	t1,t1,0
     6a8:	0904                	addi	s1,sp,144
     6aa:	0004                	0x4
     6ac:	0501                	addi	a0,a0,0
     6ae:	09030313          	addi	t1,t1,144 # ffff9090 <_stack_start+0xffdf9090>
     6b2:	0004                	0x4
     6b4:	0501                	addi	a0,a0,0
     6b6:	0314                	addi	a3,sp,384
     6b8:	0901                	addi	s2,s2,0
     6ba:	0008                	0x8
     6bc:	0501                	addi	a0,a0,0
     6be:	0315                	addi	t1,t1,5
     6c0:	0901                	addi	s2,s2,0
     6c2:	0008                	0x8
     6c4:	0501                	addi	a0,a0,0
     6c6:	0316                	slli	t1,t1,0x5
     6c8:	0901                	addi	s2,s2,0
     6ca:	0008                	0x8
     6cc:	0501                	addi	a0,a0,0
     6ce:	09010317          	auipc	t1,0x9010
     6d2:	0008                	0x8
     6d4:	0501                	addi	a0,a0,0
     6d6:	0314                	addi	a3,sp,384
     6d8:	0901                	addi	s2,s2,0
     6da:	0006                	c.slli	zero,0x1
     6dc:	0501                	addi	a0,a0,0
     6de:	0315                	addi	t1,t1,5
     6e0:	0901                	addi	s2,s2,0
     6e2:	0006                	c.slli	zero,0x1
     6e4:	0501                	addi	a0,a0,0
     6e6:	0316                	slli	t1,t1,0x5
     6e8:	0901                	addi	s2,s2,0
     6ea:	0008                	0x8
     6ec:	0501                	addi	a0,a0,0
     6ee:	09010317          	auipc	t1,0x9010
     6f2:	0008                	0x8
     6f4:	0501                	addi	a0,a0,0
     6f6:	0314                	addi	a3,sp,384
     6f8:	0901                	addi	s2,s2,0
     6fa:	0008                	0x8
     6fc:	0501                	addi	a0,a0,0
     6fe:	0316                	slli	t1,t1,0x5
     700:	0901                	addi	s2,s2,0
     702:	0008                	0x8
     704:	0501                	addi	a0,a0,0
     706:	09010317          	auipc	t1,0x9010
     70a:	0008                	0x8
     70c:	0501                	addi	a0,a0,0
     70e:	0316                	slli	t1,t1,0x5
     710:	0901                	addi	s2,s2,0
     712:	0008                	0x8
     714:	0501                	addi	a0,a0,0
     716:	0315                	addi	t1,t1,5
     718:	0901                	addi	s2,s2,0
     71a:	0008                	0x8
     71c:	0501                	addi	a0,a0,0
     71e:	0316                	slli	t1,t1,0x5
     720:	0901                	addi	s2,s2,0
     722:	0008                	0x8
     724:	0501                	addi	a0,a0,0
     726:	09010317          	auipc	t1,0x9010
     72a:	0008                	0x8
     72c:	0501                	addi	a0,a0,0
     72e:	09010303          	lb	t1,144(sp)
     732:	0008                	0x8
     734:	0501                	addi	a0,a0,0
     736:	0305                	addi	t1,t1,1
     738:	0902                	c.slli64	s2
     73a:	0010                	0x10
     73c:	0301                	addi	t1,t1,0
     73e:	0906                	slli	s2,s2,0x1
     740:	0010                	0x10
     742:	0501                	addi	a0,a0,0
     744:	0309                	addi	t1,t1,2
     746:	0909                	addi	s2,s2,2
     748:	0004                	0x4
     74a:	0501                	addi	a0,a0,0
     74c:	0301                	addi	t1,t1,0
     74e:	0901                	addi	s2,s2,0
     750:	0002                	c.slli64	zero
     752:	0901                	addi	s2,s2,0
     754:	000a                	c.slli	zero,0x2
     756:	0100                	addi	s0,sp,128
     758:	4b01                	li	s6,0
     75a:	0010                	0x10
     75c:	0300                	addi	s0,sp,384
     75e:	4100                	lw	s0,0(a0)
     760:	0002                	c.slli64	zero
     762:	0100                	addi	s0,sp,128
     764:	fb01                	bnez	a4,674 <_min_stack-0x198c>
     766:	0d0e                	slli	s10,s10,0x3
     768:	0100                	addi	s0,sp,128
     76a:	0101                	addi	sp,sp,0
     76c:	0001                	nop
     76e:	0000                	unimp
     770:	0001                	nop
     772:	0100                	addi	s0,sp,128
     774:	69665f43          	fmadd.s	ft10,fa2,fs6,fa3,unknown
     778:	656c                	flw	fa1,76(a0)
     77a:	682f0073          	0x682f0073
     77e:	2f656d6f          	jal	s10,56a74 <_stack_len+0x4ea74>
     782:	6e61                	lui	t3,0x18
     784:	6874                	flw	fa3,84(s0)
     786:	2f796e6f          	jal	t3,9727c <_stack_len+0x8f27c>
     78a:	6c50                	flw	fa2,28(s0)
     78c:	6e61                	lui	t3,0x18
     78e:	6564                	flw	fs1,76(a0)
     790:	7274                	flw	fa3,100(a2)
     792:	7661                	lui	a2,0xffff8
     794:	6961                	lui	s2,0x18
     796:	2f6c                	fld	fa1,216(a4)
     798:	3030                	fld	fa2,96(s0)
     79a:	522d                	li	tp,-21
     79c:	7369                	lui	t1,0xffffa
     79e:	545f5663          	bge	t5,t0,cea <_min_stack-0x1316>
     7a2:	636c6f6f          	jal	t5,c6dd8 <_stack_len+0xbedd8>
     7a6:	6168                	flw	fa0,68(a0)
     7a8:	6e69                	lui	t3,0x1a
     7aa:	7369722f          	0x7369722f
     7ae:	34367663          	bgeu	a2,gp,afa <_min_stack-0x1506>
     7b2:	752d                	lui	a0,0xfffeb
     7b4:	6b6e                	flw	fs6,216(sp)
     7b6:	6f6e                	flw	ft10,216(sp)
     7b8:	652d6e77          	0x652d6e77
     7bc:	666c                	flw	fa1,76(a2)
     7be:	672d                	lui	a4,0xb
     7c0:	382d6363          	bltu	s10,sp,b46 <_min_stack-0x14ba>
     7c4:	332e                	fld	ft6,232(sp)
     7c6:	302e                	fld	ft0,232(sp)
     7c8:	322d                	jal	f2 <_min_stack-0x1f0e>
     7ca:	3230                	fld	fa2,96(a2)
     7cc:	2e30                	fld	fa2,88(a2)
     7ce:	3430                	fld	fa2,104(s0)
     7d0:	302e                	fld	ft0,232(sp)
     7d2:	782d                	lui	a6,0xfffeb
     7d4:	3638                	fld	fa4,104(a2)
     7d6:	365f 2d34 696c      	0x696c2d34365f
     7dc:	756e                	flw	fa0,248(sp)
     7de:	2d78                	fld	fa4,216(a0)
     7e0:	6275                	lui	tp,0x1d
     7e2:	6e75                	lui	t3,0x1d
     7e4:	7574                	flw	fa3,108(a0)
     7e6:	3431                	jal	1f2 <_min_stack-0x1e0e>
     7e8:	62696c2f          	0x62696c2f
     7ec:	6363672f          	0x6363672f
     7f0:	7369722f          	0x7369722f
     7f4:	34367663          	bgeu	a2,gp,b40 <_min_stack-0x14c0>
     7f8:	752d                	lui	a0,0xfffeb
     7fa:	6b6e                	flw	fs6,216(sp)
     7fc:	6f6e                	flw	ft10,216(sp)
     7fe:	652d6e77          	0x652d6e77
     802:	666c                	flw	fa1,76(a2)
     804:	332e382f          	0x332e382f
     808:	302e                	fld	ft0,232(sp)
     80a:	636e692f          	0x636e692f
     80e:	756c                	flw	fa1,108(a0)
     810:	6564                	flw	fs1,76(a0)
     812:	2f00                	fld	fs0,24(a4)
     814:	6f68                	flw	fa0,92(a4)
     816:	656d                	lui	a0,0x1b
     818:	746e612f          	0x746e612f
     81c:	6f68                	flw	fa0,92(a4)
     81e:	796e                	flw	fs2,248(sp)
     820:	616c502f          	0x616c502f
     824:	646e                	flw	fs0,216(sp)
     826:	7465                	lui	s0,0xffff9
     828:	6172                	flw	ft2,28(sp)
     82a:	6176                	flw	ft2,92(sp)
     82c:	6c69                	lui	s8,0x1a
     82e:	2d30302f          	0x2d30302f
     832:	6952                	flw	fs2,20(sp)
     834:	5f566373          	csrrsi	t1,0x5f5,12
     838:	6f54                	flw	fa3,28(a4)
     83a:	68636c6f          	jal	s8,36ec0 <_stack_len+0x2eec0>
     83e:	6961                	lui	s2,0x18
     840:	2f6e                	fld	ft10,216(sp)
     842:	6972                	flw	fs2,28(sp)
     844:	36766373          	csrrsi	t1,0x367,12
     848:	2d34                	fld	fa3,88(a0)
     84a:	6e75                	lui	t3,0x1d
     84c:	776f6e6b          	0x776f6e6b
     850:	2d6e                	fld	fs10,216(sp)
     852:	6c65                	lui	s8,0x19
     854:	2d66                	fld	fs10,88(sp)
     856:	2d636367          	0x2d636367
     85a:	2e38                	fld	fa4,88(a2)
     85c:	2d302e33          	0x2d302e33
     860:	3032                	fld	ft0,296(sp)
     862:	3032                	fld	ft0,296(sp)
     864:	302e                	fld	ft0,232(sp)
     866:	2e34                	fld	fa3,88(a2)
     868:	2d30                	fld	fa2,88(a0)
     86a:	3878                	fld	fa4,240(s0)
     86c:	5f36                	lw	t5,108(sp)
     86e:	3436                	fld	fs0,360(sp)
     870:	6c2d                	lui	s8,0xb
     872:	6e69                	lui	t3,0x1a
     874:	7875                	lui	a6,0xffffd
     876:	752d                	lui	a0,0xfffeb
     878:	7562                	flw	fa0,56(sp)
     87a:	746e                	flw	fs0,248(sp)
     87c:	3175                	jal	528 <_min_stack-0x1ad8>
     87e:	2f34                	fld	fa3,88(a4)
     880:	6972                	flw	fs2,28(sp)
     882:	36766373          	csrrsi	t1,0x367,12
     886:	2d34                	fld	fa3,88(a0)
     888:	6e75                	lui	t3,0x1d
     88a:	776f6e6b          	0x776f6e6b
     88e:	2d6e                	fld	fs10,216(sp)
     890:	6c65                	lui	s8,0x19
     892:	2f66                	fld	ft10,88(sp)
     894:	6e69                	lui	t3,0x1a
     896:	64756c63          	bltu	a0,t2,eee <_min_stack-0x1112>
     89a:	2f65                	jal	1052 <_min_stack-0xfae>
     89c:	00737973          	csrrci	s2,0x7,6
     8a0:	6d6f682f          	0x6d6f682f
     8a4:	2f65                	jal	105c <_min_stack-0xfa4>
     8a6:	6e61                	lui	t3,0x18
     8a8:	6874                	flw	fa3,84(s0)
     8aa:	2f796e6f          	jal	t3,973a0 <_stack_len+0x8f3a0>
     8ae:	6c50                	flw	fa2,28(s0)
     8b0:	6e61                	lui	t3,0x18
     8b2:	6564                	flw	fs1,76(a0)
     8b4:	7274                	flw	fa3,100(a2)
     8b6:	7661                	lui	a2,0xffff8
     8b8:	6961                	lui	s2,0x18
     8ba:	2f6c                	fld	fa1,216(a4)
     8bc:	3030                	fld	fa2,96(s0)
     8be:	522d                	li	tp,-21
     8c0:	7369                	lui	t1,0xffffa
     8c2:	545f5663          	bge	t5,t0,e0e <_min_stack-0x11f2>
     8c6:	636c6f6f          	jal	t5,c6efc <_stack_len+0xbeefc>
     8ca:	6168                	flw	fa0,68(a0)
     8cc:	6e69                	lui	t3,0x1a
     8ce:	7369722f          	0x7369722f
     8d2:	34367663          	bgeu	a2,gp,c1e <_min_stack-0x13e2>
     8d6:	752d                	lui	a0,0xfffeb
     8d8:	6b6e                	flw	fs6,216(sp)
     8da:	6f6e                	flw	ft10,216(sp)
     8dc:	652d6e77          	0x652d6e77
     8e0:	666c                	flw	fa1,76(a2)
     8e2:	672d                	lui	a4,0xb
     8e4:	382d6363          	bltu	s10,sp,c6a <_min_stack-0x1396>
     8e8:	332e                	fld	ft6,232(sp)
     8ea:	302e                	fld	ft0,232(sp)
     8ec:	322d                	jal	216 <_min_stack-0x1dea>
     8ee:	3230                	fld	fa2,96(a2)
     8f0:	2e30                	fld	fa2,88(a2)
     8f2:	3430                	fld	fa2,104(s0)
     8f4:	302e                	fld	ft0,232(sp)
     8f6:	782d                	lui	a6,0xfffeb
     8f8:	3638                	fld	fa4,104(a2)
     8fa:	365f 2d34 696c      	0x696c2d34365f
     900:	756e                	flw	fa0,248(sp)
     902:	2d78                	fld	fa4,216(a0)
     904:	6275                	lui	tp,0x1d
     906:	6e75                	lui	t3,0x1d
     908:	7574                	flw	fa3,108(a0)
     90a:	3431                	jal	316 <_min_stack-0x1cea>
     90c:	7369722f          	0x7369722f
     910:	34367663          	bgeu	a2,gp,c5c <_min_stack-0x13a4>
     914:	752d                	lui	a0,0xfffeb
     916:	6b6e                	flw	fs6,216(sp)
     918:	6f6e                	flw	ft10,216(sp)
     91a:	652d6e77          	0x652d6e77
     91e:	666c                	flw	fa1,76(a2)
     920:	636e692f          	0x636e692f
     924:	756c                	flw	fa1,108(a0)
     926:	6564                	flw	fs1,76(a0)
     928:	4300                	lw	s0,0(a4)
     92a:	665f 6c69 7365      	0x73656c69665f
     930:	2f2e2e2f          	0x2f2e2e2f
     934:	5f48                	lw	a0,60(a4)
     936:	6966                	flw	fs2,88(sp)
     938:	656c                	flw	fa1,76(a0)
     93a:	61000073          	0x61000073
     93e:	7365                	lui	t1,0xffff9
     940:	735f 6c73 632e      	0x632e6c73735f
     946:	0100                	addi	s0,sp,128
     948:	0000                	unimp
     94a:	64647473          	csrrci	s0,0x646,8
     94e:	6665                	lui	a2,0x19
     950:	682e                	flw	fa6,200(sp)
     952:	0200                	addi	s0,sp,256
     954:	0000                	unimp
     956:	745f 7079 7365      	0x73657079745f
     95c:	682e                	flw	fa6,200(sp)
     95e:	0300                	addi	s0,sp,384
     960:	0000                	unimp
     962:	6572                	flw	fa0,28(sp)
     964:	6e65                	lui	t3,0x19
     966:	2e74                	fld	fa3,216(a2)
     968:	0068                	addi	a0,sp,12
     96a:	6c000003          	lb	zero,1728(zero) # 6c0 <_min_stack-0x1940>
     96e:	2e6b636f          	jal	t1,b6c54 <_stack_len+0xaec54>
     972:	0068                	addi	a0,sp,12
     974:	73000003          	lb	zero,1840(zero) # 730 <_min_stack-0x18d0>
     978:	6474                	flw	fa3,76(s0)
     97a:	696c                	flw	fa1,84(a0)
     97c:	2e62                	fld	ft8,24(sp)
     97e:	0068                	addi	a0,sp,12
     980:	0004                	0x4
     982:	6100                	flw	fs0,0(a0)
     984:	7365                	lui	t1,0xffff9
     986:	735f 6c73 682e      	0x682e6c73735f
     98c:	0500                	addi	s0,sp,640
     98e:	0000                	unimp
     990:	6561                	lui	a0,0x18
     992:	6f6c5f73          	csrrwi	t5,0x6f6,24
     996:	5f6c6163          	bltu	s8,s6,f78 <_min_stack-0x1088>
     99a:	2e6c7373          	csrrci	t1,0x2e6,24
     99e:	0068                	addi	a0,sp,12
     9a0:	0005                	c.nop	1
     9a2:	0000                	unimp
     9a4:	0105                	addi	sp,sp,1
     9a6:	0500                	addi	s0,sp,640
     9a8:	dc02                	sw	zero,56(sp)
     9aa:	1005                	c.nop	-31
     9ac:	0300                	addi	s0,sp,384
     9ae:	04f9                	addi	s1,s1,30
     9b0:	0501                	addi	a0,a0,0
     9b2:	0309                	addi	t1,t1,2
     9b4:	00080903          	lb	s2,0(a6) # fffeb000 <_stack_start+0xffdeb000>
     9b8:	0501                	addi	a0,a0,0
     9ba:	0308                	addi	a0,sp,384
     9bc:	00020903          	lb	s2,0(tp) # 1d000 <_stack_len+0x15000>
     9c0:	0501                	addi	a0,a0,0
     9c2:	0012                	c.slli	zero,0x4
     9c4:	0402                	c.slli64	s0
     9c6:	0301                	addi	t1,t1,0
     9c8:	0900                	addi	s0,sp,144
     9ca:	0004                	0x4
     9cc:	0501                	addi	a0,a0,0
     9ce:	0310                	addi	a2,sp,384
     9d0:	0901                	addi	s2,s2,0
     9d2:	0004                	0x4
     9d4:	0501                	addi	a0,a0,0
     9d6:	0308                	addi	a0,sp,384
     9d8:	0901                	addi	s2,s2,0
     9da:	0004                	0x4
     9dc:	0501                	addi	a0,a0,0
     9de:	0015                	c.nop	5
     9e0:	0402                	c.slli64	s0
     9e2:	0301                	addi	t1,t1,0
     9e4:	0900                	addi	s0,sp,144
     9e6:	000a                	c.slli	zero,0x2
     9e8:	0501                	addi	a0,a0,0
     9ea:	0024                	addi	s1,sp,8
     9ec:	0402                	c.slli64	s0
     9ee:	0302                	c.slli64	t1
     9f0:	0900                	addi	s0,sp,144
     9f2:	000a                	c.slli	zero,0x2
     9f4:	0501                	addi	a0,a0,0
     9f6:	0310                	addi	a2,sp,384
     9f8:	0901                	addi	s2,s2,0
     9fa:	000a                	c.slli	zero,0x2
     9fc:	0501                	addi	a0,a0,0
     9fe:	0308                	addi	a0,sp,384
     a00:	0902                	c.slli64	s2
     a02:	0004                	0x4
     a04:	0301                	addi	t1,t1,0
     a06:	0902                	c.slli64	s2
     a08:	0004                	0x4
     a0a:	0501                	addi	a0,a0,0
     a0c:	0315                	addi	t1,t1,5
     a0e:	0901                	addi	s2,s2,0
     a10:	000a                	c.slli	zero,0x2
     a12:	0501                	addi	a0,a0,0
     a14:	030d                	addi	t1,t1,3
     a16:	0901                	addi	s2,s2,0
     a18:	000a                	c.slli	zero,0x2
     a1a:	0501                	addi	a0,a0,0
     a1c:	0315                	addi	t1,t1,5
     a1e:	0901                	addi	s2,s2,0
     a20:	000a                	c.slli	zero,0x2
     a22:	0301                	addi	t1,t1,0
     a24:	0902                	c.slli64	s2
     a26:	000a                	c.slli	zero,0x2
     a28:	0501                	addi	a0,a0,0
     a2a:	030d                	addi	t1,t1,3
     a2c:	0902                	c.slli64	s2
     a2e:	0008                	0x8
     a30:	0501                	addi	a0,a0,0
     a32:	0900030b          	0x900030b
     a36:	002c                	addi	a1,sp,8
     a38:	0501                	addi	a0,a0,0
     a3a:	030d                	addi	t1,t1,3
     a3c:	0901                	addi	s2,s2,0
     a3e:	0004                	0x4
     a40:	0501                	addi	a0,a0,0
     a42:	09000307          	0x9000307
     a46:	002e                	c.slli	zero,0xb
     a48:	0501                	addi	a0,a0,0
     a4a:	030d                	addi	t1,t1,3
     a4c:	0900                	addi	s0,sp,144
     a4e:	0004                	0x4
     a50:	0501                	addi	a0,a0,0
     a52:	0900030b          	0x900030b
     a56:	0002                	c.slli64	zero
     a58:	0501                	addi	a0,a0,0
     a5a:	030d                	addi	t1,t1,3
     a5c:	0901                	addi	s2,s2,0
     a5e:	0002                	c.slli64	zero
     a60:	0501                	addi	a0,a0,0
     a62:	09000307          	0x9000307
     a66:	002e                	c.slli	zero,0xb
     a68:	0501                	addi	a0,a0,0
     a6a:	030d                	addi	t1,t1,3
     a6c:	0900                	addi	s0,sp,144
     a6e:	0004                	0x4
     a70:	0501                	addi	a0,a0,0
     a72:	0900030b          	0x900030b
     a76:	0002                	c.slli64	zero
     a78:	0501                	addi	a0,a0,0
     a7a:	030d                	addi	t1,t1,3
     a7c:	0901                	addi	s2,s2,0
     a7e:	0002                	c.slli64	zero
     a80:	0501                	addi	a0,a0,0
     a82:	09000307          	0x9000307
     a86:	002e                	c.slli	zero,0xb
     a88:	0501                	addi	a0,a0,0
     a8a:	030d                	addi	t1,t1,3
     a8c:	0900                	addi	s0,sp,144
     a8e:	0004                	0x4
     a90:	0501                	addi	a0,a0,0
     a92:	0900030b          	0x900030b
     a96:	0002                	c.slli64	zero
     a98:	0501                	addi	a0,a0,0
     a9a:	0308                	addi	a0,sp,384
     a9c:	0901                	addi	s2,s2,0
     a9e:	0002                	c.slli64	zero
     aa0:	0501                	addi	a0,a0,0
     aa2:	09020313          	addi	t1,tp,144 # 90 <_min_stack-0x1f70>
     aa6:	000a                	c.slli	zero,0x2
     aa8:	0501                	addi	a0,a0,0
     aaa:	09010317          	auipc	t1,0x9010
     aae:	0006                	c.slli	zero,0x1
     ab0:	0501                	addi	a0,a0,0
     ab2:	031c                	addi	a5,sp,384
     ab4:	0901                	addi	s2,s2,0
     ab6:	0004                	0x4
     ab8:	0501                	addi	a0,a0,0
     aba:	09000323          	sb	a6,134(zero) # 86 <_min_stack-0x1f7a>
     abe:	0004                	0x4
     ac0:	0501                	addi	a0,a0,0
     ac2:	0315                	addi	t1,t1,5
     ac4:	0900                	addi	s0,sp,144
     ac6:	0004                	0x4
     ac8:	0501                	addi	a0,a0,0
     aca:	0900032b          	0x900032b
     ace:	000e                	c.slli	zero,0x3
     ad0:	0501                	addi	a0,a0,0
     ad2:	097f031b          	0x97f031b
     ad6:	0006                	c.slli	zero,0x1
     ad8:	0501                	addi	a0,a0,0
     ada:	031c                	addi	a5,sp,384
     adc:	0902                	c.slli64	s2
     ade:	0002                	c.slli64	zero
     ae0:	0501                	addi	a0,a0,0
     ae2:	09000323          	sb	a6,134(zero) # 86 <_min_stack-0x1f7a>
     ae6:	0004                	0x4
     ae8:	0501                	addi	a0,a0,0
     aea:	0315                	addi	t1,t1,5
     aec:	0900                	addi	s0,sp,144
     aee:	0004                	0x4
     af0:	0501                	addi	a0,a0,0
     af2:	0900032b          	0x900032b
     af6:	000e                	c.slli	zero,0x3
     af8:	0501                	addi	a0,a0,0
     afa:	0339                	addi	t1,t1,14
     afc:	097f                	0x97f
     afe:	0006                	c.slli	zero,0x1
     b00:	0501                	addi	a0,a0,0
     b02:	09020323          	sb	a6,134(tp) # 86 <_min_stack-0x1f7a>
     b06:	0002                	c.slli64	zero
     b08:	0501                	addi	a0,a0,0
     b0a:	0315                	addi	t1,t1,5
     b0c:	0900                	addi	s0,sp,144
     b0e:	0006                	c.slli	zero,0x1
     b10:	0501                	addi	a0,a0,0
     b12:	0900032b          	0x900032b
     b16:	000e                	c.slli	zero,0x3
     b18:	0501                	addi	a0,a0,0
     b1a:	0339                	addi	t1,t1,14
     b1c:	097f                	0x97f
     b1e:	0008                	0x8
     b20:	0501                	addi	a0,a0,0
     b22:	031c                	addi	a5,sp,384
     b24:	0902                	c.slli64	s2
     b26:	0002                	c.slli64	zero
     b28:	0501                	addi	a0,a0,0
     b2a:	0315                	addi	t1,t1,5
     b2c:	0900                	addi	s0,sp,144
     b2e:	0004                	0x4
     b30:	0501                	addi	a0,a0,0
     b32:	0900032b          	0x900032b
     b36:	000e                	c.slli	zero,0x3
     b38:	0501                	addi	a0,a0,0
     b3a:	0339                	addi	t1,t1,14
     b3c:	097f                	0x97f
     b3e:	0004                	0x4
     b40:	0501                	addi	a0,a0,0
     b42:	0315                	addi	t1,t1,5
     b44:	0902                	c.slli64	s2
     b46:	0004                	0x4
     b48:	0501                	addi	a0,a0,0
     b4a:	097b030f          	0x97b030f
     b4e:	0010                	0x10
     b50:	0501                	addi	a0,a0,0
     b52:	0339                	addi	t1,t1,14
     b54:	0904                	addi	s1,sp,144
     b56:	0004                	0x4
     b58:	0501                	addi	a0,a0,0
     b5a:	097c0313          	addi	t1,s8,151 # 19097 <_stack_len+0x11097>
     b5e:	0002                	c.slli64	zero
     b60:	0501                	addi	a0,a0,0
     b62:	09060317          	auipc	t1,0x9060
     b66:	0002                	c.slli64	zero
     b68:	0501                	addi	a0,a0,0
     b6a:	031f 0900 0006      	0x60900031f
     b70:	0501                	addi	a0,a0,0
     b72:	0900030f          	0x900030f
     b76:	0006                	c.slli	zero,0x1
     b78:	0501                	addi	a0,a0,0
     b7a:	0900031b          	0x900031b
     b7e:	0004                	0x4
     b80:	0501                	addi	a0,a0,0
     b82:	09000313          	li	t1,144
     b86:	0002                	c.slli64	zero
     b88:	0501                	addi	a0,a0,0
     b8a:	09010317          	auipc	t1,0x9010
     b8e:	0002                	c.slli64	zero
     b90:	0501                	addi	a0,a0,0
     b92:	031f 0900 0006      	0x60900031f
     b98:	0501                	addi	a0,a0,0
     b9a:	0900030f          	0x900030f
     b9e:	0006                	c.slli	zero,0x1
     ba0:	0501                	addi	a0,a0,0
     ba2:	0900031b          	0x900031b
     ba6:	0004                	0x4
     ba8:	0501                	addi	a0,a0,0
     baa:	09000313          	li	t1,144
     bae:	0002                	c.slli64	zero
     bb0:	0501                	addi	a0,a0,0
     bb2:	09010317          	auipc	t1,0x9010
     bb6:	0002                	c.slli64	zero
     bb8:	0501                	addi	a0,a0,0
     bba:	031f 0900 0006      	0x60900031f
     bc0:	0501                	addi	a0,a0,0
     bc2:	0900030f          	0x900030f
     bc6:	0006                	c.slli	zero,0x1
     bc8:	0501                	addi	a0,a0,0
     bca:	0900031b          	0x900031b
     bce:	0004                	0x4
     bd0:	0501                	addi	a0,a0,0
     bd2:	09000313          	li	t1,144
     bd6:	0002                	c.slli64	zero
     bd8:	0501                	addi	a0,a0,0
     bda:	0310                	addi	a2,sp,384
     bdc:	0901                	addi	s2,s2,0
     bde:	0002                	c.slli64	zero
     be0:	0501                	addi	a0,a0,0
     be2:	0318                	addi	a4,sp,384
     be4:	0901                	addi	s2,s2,0
     be6:	000e                	c.slli	zero,0x3
     be8:	0501                	addi	a0,a0,0
     bea:	0310                	addi	a2,sp,384
     bec:	0902                	c.slli64	s2
     bee:	0004                	0x4
     bf0:	0501                	addi	a0,a0,0
     bf2:	09730313          	addi	t1,t1,151 # 9010c49 <_stack_start+0x8e10c49>
     bf6:	0006                	c.slli	zero,0x1
     bf8:	0501                	addi	a0,a0,0
     bfa:	030d                	addi	t1,t1,3
     bfc:	0910                	addi	a2,sp,144
     bfe:	0002                	c.slli64	zero
     c00:	0501                	addi	a0,a0,0
     c02:	09000307          	0x9000307
     c06:	002e                	c.slli	zero,0xb
     c08:	0501                	addi	a0,a0,0
     c0a:	030d                	addi	t1,t1,3
     c0c:	0900                	addi	s0,sp,144
     c0e:	0004                	0x4
     c10:	0501                	addi	a0,a0,0
     c12:	0900030b          	0x900030b
     c16:	0002                	c.slli64	zero
     c18:	0501                	addi	a0,a0,0
     c1a:	030d                	addi	t1,t1,3
     c1c:	0901                	addi	s2,s2,0
     c1e:	0002                	c.slli64	zero
     c20:	0501                	addi	a0,a0,0
     c22:	09000307          	0x9000307
     c26:	002e                	c.slli	zero,0xb
     c28:	0501                	addi	a0,a0,0
     c2a:	030d                	addi	t1,t1,3
     c2c:	0900                	addi	s0,sp,144
     c2e:	0004                	0x4
     c30:	0501                	addi	a0,a0,0
     c32:	0900030b          	0x900030b
     c36:	0002                	c.slli64	zero
     c38:	0501                	addi	a0,a0,0
     c3a:	0308                	addi	a0,sp,384
     c3c:	0901                	addi	s2,s2,0
     c3e:	0002                	c.slli64	zero
     c40:	0501                	addi	a0,a0,0
     c42:	0312                	slli	t1,t1,0x4
     c44:	0902                	c.slli64	s2
     c46:	000a                	c.slli	zero,0x2
     c48:	0501                	addi	a0,a0,0
     c4a:	0318                	addi	a4,sp,384
     c4c:	0901                	addi	s2,s2,0
     c4e:	0006                	c.slli	zero,0x1
     c50:	0501                	addi	a0,a0,0
     c52:	031c                	addi	a5,sp,384
     c54:	0901                	addi	s2,s2,0
     c56:	0004                	0x4
     c58:	0501                	addi	a0,a0,0
     c5a:	09000323          	sb	a6,134(zero) # 86 <_min_stack-0x1f7a>
     c5e:	0004                	0x4
     c60:	0501                	addi	a0,a0,0
     c62:	0315                	addi	t1,t1,5
     c64:	0900                	addi	s0,sp,144
     c66:	0004                	0x4
     c68:	0501                	addi	a0,a0,0
     c6a:	0900032b          	0x900032b
     c6e:	000e                	c.slli	zero,0x3
     c70:	0501                	addi	a0,a0,0
     c72:	031d                	addi	t1,t1,7
     c74:	097f                	0x97f
     c76:	0006                	c.slli	zero,0x1
     c78:	0501                	addi	a0,a0,0
     c7a:	031c                	addi	a5,sp,384
     c7c:	0902                	c.slli64	s2
     c7e:	0002                	c.slli64	zero
     c80:	0501                	addi	a0,a0,0
     c82:	09000323          	sb	a6,134(zero) # 86 <_min_stack-0x1f7a>
     c86:	0004                	0x4
     c88:	0501                	addi	a0,a0,0
     c8a:	0315                	addi	t1,t1,5
     c8c:	0900                	addi	s0,sp,144
     c8e:	0004                	0x4
     c90:	0501                	addi	a0,a0,0
     c92:	0900032b          	0x900032b
     c96:	000e                	c.slli	zero,0x3
     c98:	0501                	addi	a0,a0,0
     c9a:	0339                	addi	t1,t1,14
     c9c:	097f                	0x97f
     c9e:	0006                	c.slli	zero,0x1
     ca0:	0501                	addi	a0,a0,0
     ca2:	09020323          	sb	a6,134(tp) # 86 <_min_stack-0x1f7a>
     ca6:	0002                	c.slli64	zero
     ca8:	0501                	addi	a0,a0,0
     caa:	0315                	addi	t1,t1,5
     cac:	0900                	addi	s0,sp,144
     cae:	0006                	c.slli	zero,0x1
     cb0:	0501                	addi	a0,a0,0
     cb2:	0900032b          	0x900032b
     cb6:	000e                	c.slli	zero,0x3
     cb8:	0501                	addi	a0,a0,0
     cba:	0339                	addi	t1,t1,14
     cbc:	097f                	0x97f
     cbe:	0008                	0x8
     cc0:	0501                	addi	a0,a0,0
     cc2:	031c                	addi	a5,sp,384
     cc4:	0902                	c.slli64	s2
     cc6:	0002                	c.slli64	zero
     cc8:	0501                	addi	a0,a0,0
     cca:	0315                	addi	t1,t1,5
     ccc:	0900                	addi	s0,sp,144
     cce:	0004                	0x4
     cd0:	0501                	addi	a0,a0,0
     cd2:	0900032b          	0x900032b
     cd6:	000e                	c.slli	zero,0x3
     cd8:	0501                	addi	a0,a0,0
     cda:	0339                	addi	t1,t1,14
     cdc:	097f                	0x97f
     cde:	0004                	0x4
     ce0:	0501                	addi	a0,a0,0
     ce2:	0315                	addi	t1,t1,5
     ce4:	0902                	c.slli64	s2
     ce6:	0004                	0x4
     ce8:	0501                	addi	a0,a0,0
     cea:	097b030f          	0x97b030f
     cee:	0010                	0x10
     cf0:	0501                	addi	a0,a0,0
     cf2:	0339                	addi	t1,t1,14
     cf4:	0904                	addi	s1,sp,144
     cf6:	0004                	0x4
     cf8:	0501                	addi	a0,a0,0
     cfa:	0314                	addi	a3,sp,384
     cfc:	097c                	addi	a5,sp,156
     cfe:	0002                	c.slli64	zero
     d00:	0501                	addi	a0,a0,0
     d02:	0318                	addi	a4,sp,384
     d04:	0906                	slli	s2,s2,0x1
     d06:	0002                	c.slli64	zero
     d08:	0501                	addi	a0,a0,0
     d0a:	0321                	addi	t1,t1,8
     d0c:	0900                	addi	s0,sp,144
     d0e:	0006                	c.slli	zero,0x1
     d10:	0501                	addi	a0,a0,0
     d12:	0900030f          	0x900030f
     d16:	0006                	c.slli	zero,0x1
     d18:	0501                	addi	a0,a0,0
     d1a:	031d                	addi	t1,t1,7
     d1c:	0900                	addi	s0,sp,144
     d1e:	0004                	0x4
     d20:	0501                	addi	a0,a0,0
     d22:	0314                	addi	a3,sp,384
     d24:	0900                	addi	s0,sp,144
     d26:	0002                	c.slli64	zero
     d28:	0501                	addi	a0,a0,0
     d2a:	0318                	addi	a4,sp,384
     d2c:	0901                	addi	s2,s2,0
     d2e:	0002                	c.slli64	zero
     d30:	0501                	addi	a0,a0,0
     d32:	0321                	addi	t1,t1,8
     d34:	0900                	addi	s0,sp,144
     d36:	0006                	c.slli	zero,0x1
     d38:	0501                	addi	a0,a0,0
     d3a:	0900030f          	0x900030f
     d3e:	0006                	c.slli	zero,0x1
     d40:	0501                	addi	a0,a0,0
     d42:	031d                	addi	t1,t1,7
     d44:	0900                	addi	s0,sp,144
     d46:	0006                	c.slli	zero,0x1
     d48:	0501                	addi	a0,a0,0
     d4a:	0314                	addi	a3,sp,384
     d4c:	0900                	addi	s0,sp,144
     d4e:	0002                	c.slli64	zero
     d50:	0501                	addi	a0,a0,0
     d52:	0318                	addi	a4,sp,384
     d54:	0901                	addi	s2,s2,0
     d56:	0002                	c.slli64	zero
     d58:	0501                	addi	a0,a0,0
     d5a:	0321                	addi	t1,t1,8
     d5c:	0900                	addi	s0,sp,144
     d5e:	0006                	c.slli	zero,0x1
     d60:	0501                	addi	a0,a0,0
     d62:	0900030f          	0x900030f
     d66:	0008                	0x8
     d68:	0501                	addi	a0,a0,0
     d6a:	031d                	addi	t1,t1,7
     d6c:	0900                	addi	s0,sp,144
     d6e:	0006                	c.slli	zero,0x1
     d70:	0501                	addi	a0,a0,0
     d72:	0314                	addi	a3,sp,384
     d74:	0900                	addi	s0,sp,144
     d76:	0002                	c.slli64	zero
     d78:	0501                	addi	a0,a0,0
     d7a:	0310                	addi	a2,sp,384
     d7c:	0901                	addi	s2,s2,0
     d7e:	0002                	c.slli64	zero
     d80:	0501                	addi	a0,a0,0
     d82:	0318                	addi	a4,sp,384
     d84:	0901                	addi	s2,s2,0
     d86:	000e                	c.slli	zero,0x3
     d88:	0301                	addi	t1,t1,0
     d8a:	0902                	c.slli64	s2
     d8c:	0004                	0x4
     d8e:	0501                	addi	a0,a0,0
     d90:	0321                	addi	t1,t1,8
     d92:	0900                	addi	s0,sp,144
     d94:	0006                	c.slli	zero,0x1
     d96:	0501                	addi	a0,a0,0
     d98:	0900030f          	0x900030f
     d9c:	0008                	0x8
     d9e:	0501                	addi	a0,a0,0
     da0:	031d                	addi	t1,t1,7
     da2:	0900                	addi	s0,sp,144
     da4:	0006                	c.slli	zero,0x1
     da6:	0501                	addi	a0,a0,0
     da8:	0314                	addi	a3,sp,384
     daa:	0900                	addi	s0,sp,144
     dac:	0002                	c.slli64	zero
     dae:	0501                	addi	a0,a0,0
     db0:	0318                	addi	a4,sp,384
     db2:	0901                	addi	s2,s2,0
     db4:	0002                	c.slli64	zero
     db6:	0501                	addi	a0,a0,0
     db8:	0321                	addi	t1,t1,8
     dba:	0900                	addi	s0,sp,144
     dbc:	0006                	c.slli	zero,0x1
     dbe:	0501                	addi	a0,a0,0
     dc0:	0900030f          	0x900030f
     dc4:	0008                	0x8
     dc6:	0501                	addi	a0,a0,0
     dc8:	031d                	addi	t1,t1,7
     dca:	0900                	addi	s0,sp,144
     dcc:	0006                	c.slli	zero,0x1
     dce:	0501                	addi	a0,a0,0
     dd0:	0314                	addi	a3,sp,384
     dd2:	0900                	addi	s0,sp,144
     dd4:	0002                	c.slli64	zero
     dd6:	0501                	addi	a0,a0,0
     dd8:	0310                	addi	a2,sp,384
     dda:	0901                	addi	s2,s2,0
     ddc:	0002                	c.slli64	zero
     dde:	0501                	addi	a0,a0,0
     de0:	0312                	slli	t1,t1,0x4
     de2:	0971                	addi	s2,s2,28
     de4:	0006                	c.slli	zero,0x1
     de6:	0501                	addi	a0,a0,0
     de8:	030d                	addi	t1,t1,3
     dea:	0912                	slli	s2,s2,0x4
     dec:	0002                	c.slli64	zero
     dee:	0501                	addi	a0,a0,0
     df0:	09000307          	0x9000307
     df4:	002e                	c.slli	zero,0xb
     df6:	0501                	addi	a0,a0,0
     df8:	030d                	addi	t1,t1,3
     dfa:	0900                	addi	s0,sp,144
     dfc:	0004                	0x4
     dfe:	0501                	addi	a0,a0,0
     e00:	0900030b          	0x900030b
     e04:	0002                	c.slli64	zero
     e06:	0501                	addi	a0,a0,0
     e08:	030d                	addi	t1,t1,3
     e0a:	0901                	addi	s2,s2,0
     e0c:	0002                	c.slli64	zero
     e0e:	0501                	addi	a0,a0,0
     e10:	09000307          	0x9000307
     e14:	002e                	c.slli	zero,0xb
     e16:	0501                	addi	a0,a0,0
     e18:	030d                	addi	t1,t1,3
     e1a:	0900                	addi	s0,sp,144
     e1c:	0004                	0x4
     e1e:	0501                	addi	a0,a0,0
     e20:	0900030b          	0x900030b
     e24:	0002                	c.slli64	zero
     e26:	0501                	addi	a0,a0,0
     e28:	0308                	addi	a0,sp,384
     e2a:	0901                	addi	s2,s2,0
     e2c:	0002                	c.slli64	zero
     e2e:	0501                	addi	a0,a0,0
     e30:	0312                	slli	t1,t1,0x4
     e32:	0902                	c.slli64	s2
     e34:	000a                	c.slli	zero,0x2
     e36:	0501                	addi	a0,a0,0
     e38:	0318                	addi	a4,sp,384
     e3a:	0901                	addi	s2,s2,0
     e3c:	0006                	c.slli	zero,0x1
     e3e:	0501                	addi	a0,a0,0
     e40:	031c                	addi	a5,sp,384
     e42:	0901                	addi	s2,s2,0
     e44:	0004                	0x4
     e46:	0501                	addi	a0,a0,0
     e48:	09000323          	sb	a6,134(zero) # 86 <_min_stack-0x1f7a>
     e4c:	0004                	0x4
     e4e:	0501                	addi	a0,a0,0
     e50:	0315                	addi	t1,t1,5
     e52:	0900                	addi	s0,sp,144
     e54:	0004                	0x4
     e56:	0501                	addi	a0,a0,0
     e58:	0900032b          	0x900032b
     e5c:	000e                	c.slli	zero,0x3
     e5e:	0501                	addi	a0,a0,0
     e60:	031d                	addi	t1,t1,7
     e62:	097f                	0x97f
     e64:	0006                	c.slli	zero,0x1
     e66:	0501                	addi	a0,a0,0
     e68:	031c                	addi	a5,sp,384
     e6a:	0902                	c.slli64	s2
     e6c:	0002                	c.slli64	zero
     e6e:	0501                	addi	a0,a0,0
     e70:	09000323          	sb	a6,134(zero) # 86 <_min_stack-0x1f7a>
     e74:	0004                	0x4
     e76:	0501                	addi	a0,a0,0
     e78:	0315                	addi	t1,t1,5
     e7a:	0900                	addi	s0,sp,144
     e7c:	0004                	0x4
     e7e:	0501                	addi	a0,a0,0
     e80:	0900032b          	0x900032b
     e84:	000e                	c.slli	zero,0x3
     e86:	0501                	addi	a0,a0,0
     e88:	0339                	addi	t1,t1,14
     e8a:	097f                	0x97f
     e8c:	0006                	c.slli	zero,0x1
     e8e:	0501                	addi	a0,a0,0
     e90:	09020323          	sb	a6,134(tp) # 86 <_min_stack-0x1f7a>
     e94:	0002                	c.slli64	zero
     e96:	0501                	addi	a0,a0,0
     e98:	0315                	addi	t1,t1,5
     e9a:	0900                	addi	s0,sp,144
     e9c:	0006                	c.slli	zero,0x1
     e9e:	0501                	addi	a0,a0,0
     ea0:	0900032b          	0x900032b
     ea4:	000e                	c.slli	zero,0x3
     ea6:	0501                	addi	a0,a0,0
     ea8:	0339                	addi	t1,t1,14
     eaa:	097f                	0x97f
     eac:	0008                	0x8
     eae:	0501                	addi	a0,a0,0
     eb0:	031c                	addi	a5,sp,384
     eb2:	0902                	c.slli64	s2
     eb4:	0002                	c.slli64	zero
     eb6:	0501                	addi	a0,a0,0
     eb8:	0315                	addi	t1,t1,5
     eba:	0900                	addi	s0,sp,144
     ebc:	0004                	0x4
     ebe:	0501                	addi	a0,a0,0
     ec0:	0900032b          	0x900032b
     ec4:	000e                	c.slli	zero,0x3
     ec6:	0501                	addi	a0,a0,0
     ec8:	0339                	addi	t1,t1,14
     eca:	097f                	0x97f
     ecc:	0004                	0x4
     ece:	0501                	addi	a0,a0,0
     ed0:	0315                	addi	t1,t1,5
     ed2:	0902                	c.slli64	s2
     ed4:	0004                	0x4
     ed6:	0501                	addi	a0,a0,0
     ed8:	097b030f          	0x97b030f
     edc:	0010                	0x10
     ede:	0501                	addi	a0,a0,0
     ee0:	0339                	addi	t1,t1,14
     ee2:	0904                	addi	s1,sp,144
     ee4:	0006                	c.slli	zero,0x1
     ee6:	0501                	addi	a0,a0,0
     ee8:	0314                	addi	a3,sp,384
     eea:	097c                	addi	a5,sp,156
     eec:	0002                	c.slli64	zero
     eee:	0501                	addi	a0,a0,0
     ef0:	0318                	addi	a4,sp,384
     ef2:	0906                	slli	s2,s2,0x1
     ef4:	0002                	c.slli64	zero
     ef6:	0501                	addi	a0,a0,0
     ef8:	0321                	addi	t1,t1,8
     efa:	0900                	addi	s0,sp,144
     efc:	0006                	c.slli	zero,0x1
     efe:	0501                	addi	a0,a0,0
     f00:	0900030f          	0x900030f
     f04:	0008                	0x8
     f06:	0501                	addi	a0,a0,0
     f08:	031d                	addi	t1,t1,7
     f0a:	0900                	addi	s0,sp,144
     f0c:	0006                	c.slli	zero,0x1
     f0e:	0501                	addi	a0,a0,0
     f10:	0314                	addi	a3,sp,384
     f12:	0900                	addi	s0,sp,144
     f14:	0002                	c.slli64	zero
     f16:	0501                	addi	a0,a0,0
     f18:	0318                	addi	a4,sp,384
     f1a:	0901                	addi	s2,s2,0
     f1c:	0002                	c.slli64	zero
     f1e:	0501                	addi	a0,a0,0
     f20:	0321                	addi	t1,t1,8
     f22:	0900                	addi	s0,sp,144
     f24:	0006                	c.slli	zero,0x1
     f26:	0501                	addi	a0,a0,0
     f28:	0900030f          	0x900030f
     f2c:	0008                	0x8
     f2e:	0501                	addi	a0,a0,0
     f30:	031d                	addi	t1,t1,7
     f32:	0900                	addi	s0,sp,144
     f34:	0006                	c.slli	zero,0x1
     f36:	0501                	addi	a0,a0,0
     f38:	0314                	addi	a3,sp,384
     f3a:	0900                	addi	s0,sp,144
     f3c:	0002                	c.slli64	zero
     f3e:	0501                	addi	a0,a0,0
     f40:	0318                	addi	a4,sp,384
     f42:	0901                	addi	s2,s2,0
     f44:	0002                	c.slli64	zero
     f46:	0501                	addi	a0,a0,0
     f48:	0321                	addi	t1,t1,8
     f4a:	0900                	addi	s0,sp,144
     f4c:	0006                	c.slli	zero,0x1
     f4e:	0501                	addi	a0,a0,0
     f50:	0900030f          	0x900030f
     f54:	0008                	0x8
     f56:	0501                	addi	a0,a0,0
     f58:	031d                	addi	t1,t1,7
     f5a:	0900                	addi	s0,sp,144
     f5c:	0006                	c.slli	zero,0x1
     f5e:	0501                	addi	a0,a0,0
     f60:	0314                	addi	a3,sp,384
     f62:	0900                	addi	s0,sp,144
     f64:	0002                	c.slli64	zero
     f66:	0501                	addi	a0,a0,0
     f68:	0310                	addi	a2,sp,384
     f6a:	0901                	addi	s2,s2,0
     f6c:	0002                	c.slli64	zero
     f6e:	0501                	addi	a0,a0,0
     f70:	0318                	addi	a4,sp,384
     f72:	0901                	addi	s2,s2,0
     f74:	000e                	c.slli	zero,0x3
     f76:	0501                	addi	a0,a0,0
     f78:	0312                	slli	t1,t1,0x4
     f7a:	0902                	c.slli64	s2
     f7c:	0004                	0x4
     f7e:	0501                	addi	a0,a0,0
     f80:	0318                	addi	a4,sp,384
     f82:	0901                	addi	s2,s2,0
     f84:	0006                	c.slli	zero,0x1
     f86:	0501                	addi	a0,a0,0
     f88:	031c                	addi	a5,sp,384
     f8a:	0901                	addi	s2,s2,0
     f8c:	0006                	c.slli	zero,0x1
     f8e:	0501                	addi	a0,a0,0
     f90:	0315                	addi	t1,t1,5
     f92:	0900                	addi	s0,sp,144
     f94:	0004                	0x4
     f96:	0501                	addi	a0,a0,0
     f98:	0900032b          	0x900032b
     f9c:	000e                	c.slli	zero,0x3
     f9e:	0501                	addi	a0,a0,0
     fa0:	031d                	addi	t1,t1,7
     fa2:	097f                	0x97f
     fa4:	0006                	c.slli	zero,0x1
     fa6:	0501                	addi	a0,a0,0
     fa8:	031c                	addi	a5,sp,384
     faa:	0902                	c.slli64	s2
     fac:	0002                	c.slli64	zero
     fae:	0501                	addi	a0,a0,0
     fb0:	09000323          	sb	a6,134(zero) # 86 <_min_stack-0x1f7a>
     fb4:	0004                	0x4
     fb6:	0501                	addi	a0,a0,0
     fb8:	0315                	addi	t1,t1,5
     fba:	0900                	addi	s0,sp,144
     fbc:	0004                	0x4
     fbe:	0501                	addi	a0,a0,0
     fc0:	0900032b          	0x900032b
     fc4:	000e                	c.slli	zero,0x3
     fc6:	0501                	addi	a0,a0,0
     fc8:	0339                	addi	t1,t1,14
     fca:	097f                	0x97f
     fcc:	0006                	c.slli	zero,0x1
     fce:	0501                	addi	a0,a0,0
     fd0:	031c                	addi	a5,sp,384
     fd2:	0902                	c.slli64	s2
     fd4:	0002                	c.slli64	zero
     fd6:	0501                	addi	a0,a0,0
     fd8:	09000323          	sb	a6,134(zero) # 86 <_min_stack-0x1f7a>
     fdc:	0004                	0x4
     fde:	0501                	addi	a0,a0,0
     fe0:	0315                	addi	t1,t1,5
     fe2:	0900                	addi	s0,sp,144
     fe4:	0004                	0x4
     fe6:	0501                	addi	a0,a0,0
     fe8:	0900032b          	0x900032b
     fec:	000e                	c.slli	zero,0x3
     fee:	0501                	addi	a0,a0,0
     ff0:	0339                	addi	t1,t1,14
     ff2:	097f                	0x97f
     ff4:	0008                	0x8
     ff6:	0501                	addi	a0,a0,0
     ff8:	09020323          	sb	a6,134(tp) # 86 <_min_stack-0x1f7a>
     ffc:	0004                	0x4
     ffe:	0501                	addi	a0,a0,0
    1000:	0315                	addi	t1,t1,5
    1002:	0900                	addi	s0,sp,144
    1004:	0006                	c.slli	zero,0x1
    1006:	0501                	addi	a0,a0,0
    1008:	0900032b          	0x900032b
    100c:	000e                	c.slli	zero,0x3
    100e:	0501                	addi	a0,a0,0
    1010:	097c030f          	0x97c030f
    1014:	0004                	0x4
    1016:	0501                	addi	a0,a0,0
    1018:	0339                	addi	t1,t1,14
    101a:	00060903          	lb	s2,0(a2) # 19000 <_stack_len+0x11000>
    101e:	0501                	addi	a0,a0,0
    1020:	0314                	addi	a3,sp,384
    1022:	097d                	addi	s2,s2,31
    1024:	0002                	c.slli64	zero
    1026:	0501                	addi	a0,a0,0
    1028:	0318                	addi	a4,sp,384
    102a:	0905                	addi	s2,s2,1
    102c:	0002                	c.slli64	zero
    102e:	0501                	addi	a0,a0,0
    1030:	0321                	addi	t1,t1,8
    1032:	0900                	addi	s0,sp,144
    1034:	0006                	c.slli	zero,0x1
    1036:	0501                	addi	a0,a0,0
    1038:	0900030f          	0x900030f
    103c:	0008                	0x8
    103e:	0501                	addi	a0,a0,0
    1040:	031d                	addi	t1,t1,7
    1042:	0900                	addi	s0,sp,144
    1044:	0006                	c.slli	zero,0x1
    1046:	0501                	addi	a0,a0,0
    1048:	0314                	addi	a3,sp,384
    104a:	0900                	addi	s0,sp,144
    104c:	0002                	c.slli64	zero
    104e:	0501                	addi	a0,a0,0
    1050:	0318                	addi	a4,sp,384
    1052:	0901                	addi	s2,s2,0
    1054:	0002                	c.slli64	zero
    1056:	0501                	addi	a0,a0,0
    1058:	0321                	addi	t1,t1,8
    105a:	0900                	addi	s0,sp,144
    105c:	0006                	c.slli	zero,0x1
    105e:	0501                	addi	a0,a0,0
    1060:	0900030f          	0x900030f
    1064:	0008                	0x8
    1066:	0501                	addi	a0,a0,0
    1068:	031d                	addi	t1,t1,7
    106a:	0900                	addi	s0,sp,144
    106c:	0006                	c.slli	zero,0x1
    106e:	0501                	addi	a0,a0,0
    1070:	0314                	addi	a3,sp,384
    1072:	0900                	addi	s0,sp,144
    1074:	0002                	c.slli64	zero
    1076:	0501                	addi	a0,a0,0
    1078:	0318                	addi	a4,sp,384
    107a:	0901                	addi	s2,s2,0
    107c:	0002                	c.slli64	zero
    107e:	0501                	addi	a0,a0,0
    1080:	0321                	addi	t1,t1,8
    1082:	0900                	addi	s0,sp,144
    1084:	0006                	c.slli	zero,0x1
    1086:	0501                	addi	a0,a0,0
    1088:	0900030f          	0x900030f
    108c:	0008                	0x8
    108e:	0501                	addi	a0,a0,0
    1090:	031d                	addi	t1,t1,7
    1092:	0900                	addi	s0,sp,144
    1094:	0006                	c.slli	zero,0x1
    1096:	0501                	addi	a0,a0,0
    1098:	0314                	addi	a3,sp,384
    109a:	0900                	addi	s0,sp,144
    109c:	0002                	c.slli64	zero
    109e:	0501                	addi	a0,a0,0
    10a0:	0310                	addi	a2,sp,384
    10a2:	0902                	c.slli64	s2
    10a4:	0002                	c.slli64	zero
    10a6:	0501                	addi	a0,a0,0
    10a8:	0312                	slli	t1,t1,0x4
    10aa:	0969                	addi	s2,s2,26
    10ac:	0008                	0x8
    10ae:	0501                	addi	a0,a0,0
    10b0:	030c                	addi	a1,sp,384
    10b2:	091a                	slli	s2,s2,0x6
    10b4:	0002                	c.slli64	zero
    10b6:	0501                	addi	a0,a0,0
    10b8:	0301                	addi	t1,t1,0
    10ba:	0901                	addi	s2,s2,0
    10bc:	0002                	c.slli64	zero
    10be:	0501                	addi	a0,a0,0
    10c0:	0326                	slli	t1,t1,0x9
    10c2:	0006093b          	0x6093b
    10c6:	0501                	addi	a0,a0,0
    10c8:	0308                	addi	a0,sp,384
    10ca:	0909                	addi	s2,s2,2
    10cc:	0008                	0x8
    10ce:	0501                	addi	a0,a0,0
    10d0:	030a                	slli	t1,t1,0x2
    10d2:	0906                	slli	s2,s2,0x1
    10d4:	0004                	0x4
    10d6:	0501                	addi	a0,a0,0
    10d8:	031e                	slli	t1,t1,0x7
    10da:	0900                	addi	s0,sp,144
    10dc:	002c                	addi	a1,sp,8
    10de:	0501                	addi	a0,a0,0
    10e0:	0308                	addi	a0,sp,384
    10e2:	0900                	addi	s0,sp,144
    10e4:	0004                	0x4
    10e6:	0501                	addi	a0,a0,0
    10e8:	030a                	slli	t1,t1,0x2
    10ea:	0901                	addi	s2,s2,0
    10ec:	0004                	0x4
    10ee:	0501                	addi	a0,a0,0
    10f0:	031e                	slli	t1,t1,0x7
    10f2:	0900                	addi	s0,sp,144
    10f4:	002e                	c.slli	zero,0xb
    10f6:	0501                	addi	a0,a0,0
    10f8:	0308                	addi	a0,sp,384
    10fa:	0900                	addi	s0,sp,144
    10fc:	0006                	c.slli	zero,0x1
    10fe:	0501                	addi	a0,a0,0
    1100:	030a                	slli	t1,t1,0x2
    1102:	0901                	addi	s2,s2,0
    1104:	0004                	0x4
    1106:	0501                	addi	a0,a0,0
    1108:	031e                	slli	t1,t1,0x7
    110a:	0900                	addi	s0,sp,144
    110c:	002e                	c.slli	zero,0xb
    110e:	0501                	addi	a0,a0,0
    1110:	0308                	addi	a0,sp,384
    1112:	0900                	addi	s0,sp,144
    1114:	0006                	c.slli	zero,0x1
    1116:	0501                	addi	a0,a0,0
    1118:	030a                	slli	t1,t1,0x2
    111a:	0901                	addi	s2,s2,0
    111c:	0004                	0x4
    111e:	0501                	addi	a0,a0,0
    1120:	031e                	slli	t1,t1,0x7
    1122:	0900                	addi	s0,sp,144
    1124:	002e                	c.slli	zero,0xb
    1126:	0501                	addi	a0,a0,0
    1128:	0308                	addi	a0,sp,384
    112a:	0900                	addi	s0,sp,144
    112c:	0006                	c.slli	zero,0x1
    112e:	0501                	addi	a0,a0,0
    1130:	030c                	addi	a1,sp,384
    1132:	00cc                	addi	a1,sp,68
    1134:	0409                	addi	s0,s0,2
    1136:	0100                	addi	s0,sp,128
    1138:	0705                	addi	a4,a4,1
    113a:	06090003          	lb	zero,96(s2) # 18060 <_stack_len+0x10060>
    113e:	0100                	addi	s0,sp,128
    1140:	1505                	addi	a0,a0,-31
    1142:	04090303          	lb	t1,64(s2)
    1146:	0100                	addi	s0,sp,128
    1148:	1005                	c.nop	-31
    114a:	04090003          	lb	zero,64(s2)
    114e:	0100                	addi	s0,sp,128
    1150:	1505                	addi	a0,a0,-31
    1152:	0e090103          	lb	sp,224(s2)
    1156:	0100                	addi	s0,sp,128
    1158:	1c05                	addi	s8,s8,-31
    115a:	04090003          	lb	zero,64(s2)
    115e:	0100                	addi	s0,sp,128
    1160:	1005                	c.nop	-31
    1162:	04090003          	lb	zero,64(s2)
    1166:	0100                	addi	s0,sp,128
    1168:	2405                	jal	1388 <_min_stack-0xc78>
    116a:	0e097f03          	0xe097f03
    116e:	0100                	addi	s0,sp,128
    1170:	1505                	addi	a0,a0,-31
    1172:	02090203          	lb	tp,32(s2)
    1176:	0100                	addi	s0,sp,128
    1178:	1c05                	addi	s8,s8,-31
    117a:	04090003          	lb	zero,64(s2)
    117e:	0100                	addi	s0,sp,128
    1180:	1005                	c.nop	-31
    1182:	04090003          	lb	zero,64(s2)
    1186:	0100                	addi	s0,sp,128
    1188:	2405                	jal	13a8 <_min_stack-0xc58>
    118a:	0e097f03          	0xe097f03
    118e:	0100                	addi	s0,sp,128
    1190:	1c05                	addi	s8,s8,-31
    1192:	02090203          	lb	tp,32(s2)
    1196:	0100                	addi	s0,sp,128
    1198:	1005                	c.nop	-31
    119a:	06090003          	lb	zero,96(s2)
    119e:	0100                	addi	s0,sp,128
    11a0:	2405                	jal	13c0 <_min_stack-0xc40>
    11a2:	0e097f03          	0xe097f03
    11a6:	0100                	addi	s0,sp,128
    11a8:	0f05                	addi	t5,t5,1
    11aa:	02090203          	lb	tp,32(s2)
    11ae:	0100                	addi	s0,sp,128
    11b0:	0c05                	addi	s8,s8,1
    11b2:	06097b03          	0x6097b03
    11b6:	0100                	addi	s0,sp,128
    11b8:	1505                	addi	a0,a0,-31
    11ba:	04090703          	lb	a4,64(s2)
    11be:	0100                	addi	s0,sp,128
    11c0:	1005                	c.nop	-31
    11c2:	04090003          	lb	zero,64(s2)
    11c6:	0100                	addi	s0,sp,128
    11c8:	1505                	addi	a0,a0,-31
    11ca:	0e090103          	lb	sp,224(s2)
    11ce:	0100                	addi	s0,sp,128
    11d0:	1c05                	addi	s8,s8,-31
    11d2:	04090003          	lb	zero,64(s2)
    11d6:	0100                	addi	s0,sp,128
    11d8:	1005                	c.nop	-31
    11da:	04090003          	lb	zero,64(s2)
    11de:	0100                	addi	s0,sp,128
    11e0:	2405                	jal	1400 <_min_stack-0xc00>
    11e2:	0e097f03          	0xe097f03
    11e6:	0100                	addi	s0,sp,128
    11e8:	1505                	addi	a0,a0,-31
    11ea:	02090203          	lb	tp,32(s2)
    11ee:	0100                	addi	s0,sp,128
    11f0:	1c05                	addi	s8,s8,-31
    11f2:	04090003          	lb	zero,64(s2)
    11f6:	0100                	addi	s0,sp,128
    11f8:	1005                	c.nop	-31
    11fa:	04090003          	lb	zero,64(s2)
    11fe:	0100                	addi	s0,sp,128
    1200:	2405                	jal	1420 <_min_stack-0xbe0>
    1202:	0e097f03          	0xe097f03
    1206:	0100                	addi	s0,sp,128
    1208:	1c05                	addi	s8,s8,-31
    120a:	02090203          	lb	tp,32(s2)
    120e:	0100                	addi	s0,sp,128
    1210:	1005                	c.nop	-31
    1212:	06090003          	lb	zero,96(s2)
    1216:	0100                	addi	s0,sp,128
    1218:	2405                	jal	1438 <_min_stack-0xbc8>
    121a:	0e097f03          	0xe097f03
    121e:	0100                	addi	s0,sp,128
    1220:	0f05                	addi	t5,t5,1
    1222:	02090203          	lb	tp,32(s2)
    1226:	0100                	addi	s0,sp,128
    1228:	0c05                	addi	s8,s8,1
    122a:	06097b03          	0x6097b03
    122e:	0100                	addi	s0,sp,128
    1230:	1505                	addi	a0,a0,-31
    1232:	04090703          	lb	a4,64(s2)
    1236:	0100                	addi	s0,sp,128
    1238:	1005                	c.nop	-31
    123a:	04090003          	lb	zero,64(s2)
    123e:	0100                	addi	s0,sp,128
    1240:	1505                	addi	a0,a0,-31
    1242:	0e090103          	lb	sp,224(s2)
    1246:	0100                	addi	s0,sp,128
    1248:	1c05                	addi	s8,s8,-31
    124a:	04090003          	lb	zero,64(s2)
    124e:	0100                	addi	s0,sp,128
    1250:	1005                	c.nop	-31
    1252:	04090003          	lb	zero,64(s2)
    1256:	0100                	addi	s0,sp,128
    1258:	2405                	jal	1478 <_min_stack-0xb88>
    125a:	0e097f03          	0xe097f03
    125e:	0100                	addi	s0,sp,128
    1260:	1505                	addi	a0,a0,-31
    1262:	02090203          	lb	tp,32(s2)
    1266:	0100                	addi	s0,sp,128
    1268:	1c05                	addi	s8,s8,-31
    126a:	04090003          	lb	zero,64(s2)
    126e:	0100                	addi	s0,sp,128
    1270:	1005                	c.nop	-31
    1272:	04090003          	lb	zero,64(s2)
    1276:	0100                	addi	s0,sp,128
    1278:	2405                	jal	1498 <_min_stack-0xb68>
    127a:	0e097f03          	0xe097f03
    127e:	0100                	addi	s0,sp,128
    1280:	1c05                	addi	s8,s8,-31
    1282:	02090203          	lb	tp,32(s2)
    1286:	0100                	addi	s0,sp,128
    1288:	1005                	c.nop	-31
    128a:	06090003          	lb	zero,96(s2)
    128e:	0100                	addi	s0,sp,128
    1290:	2405                	jal	14b0 <_min_stack-0xb50>
    1292:	0e097f03          	0xe097f03
    1296:	0100                	addi	s0,sp,128
    1298:	0f05                	addi	t5,t5,1
    129a:	02090203          	lb	tp,32(s2)
    129e:	0100                	addi	s0,sp,128
    12a0:	0c05                	addi	s8,s8,1
    12a2:	06097b03          	0x6097b03
    12a6:	0100                	addi	s0,sp,128
    12a8:	1505                	addi	a0,a0,-31
    12aa:	04090703          	lb	a4,64(s2)
    12ae:	0100                	addi	s0,sp,128
    12b0:	1005                	c.nop	-31
    12b2:	04090003          	lb	zero,64(s2)
    12b6:	0100                	addi	s0,sp,128
    12b8:	1505                	addi	a0,a0,-31
    12ba:	0e090103          	lb	sp,224(s2)
    12be:	0100                	addi	s0,sp,128
    12c0:	1c05                	addi	s8,s8,-31
    12c2:	04090003          	lb	zero,64(s2)
    12c6:	0100                	addi	s0,sp,128
    12c8:	1005                	c.nop	-31
    12ca:	04090003          	lb	zero,64(s2)
    12ce:	0100                	addi	s0,sp,128
    12d0:	2405                	jal	14f0 <_min_stack-0xb10>
    12d2:	0e097f03          	0xe097f03
    12d6:	0100                	addi	s0,sp,128
    12d8:	1505                	addi	a0,a0,-31
    12da:	02090203          	lb	tp,32(s2)
    12de:	0100                	addi	s0,sp,128
    12e0:	1c05                	addi	s8,s8,-31
    12e2:	04090003          	lb	zero,64(s2)
    12e6:	0100                	addi	s0,sp,128
    12e8:	1005                	c.nop	-31
    12ea:	04090003          	lb	zero,64(s2)
    12ee:	0100                	addi	s0,sp,128
    12f0:	2405                	jal	1510 <_min_stack-0xaf0>
    12f2:	0e097f03          	0xe097f03
    12f6:	0100                	addi	s0,sp,128
    12f8:	1c05                	addi	s8,s8,-31
    12fa:	02090203          	lb	tp,32(s2)
    12fe:	0100                	addi	s0,sp,128
    1300:	1005                	c.nop	-31
    1302:	06090003          	lb	zero,96(s2)
    1306:	0100                	addi	s0,sp,128
    1308:	2405                	jal	1528 <_min_stack-0xad8>
    130a:	0e097f03          	0xe097f03
    130e:	0100                	addi	s0,sp,128
    1310:	0f05                	addi	t5,t5,1
    1312:	02090203          	lb	tp,32(s2)
    1316:	0100                	addi	s0,sp,128
    1318:	0c05                	addi	s8,s8,1
    131a:	06097b03          	0x6097b03
    131e:	0100                	addi	s0,sp,128
    1320:	04090703          	lb	a4,64(s2)
    1324:	0100                	addi	s0,sp,128
    1326:	08090103          	lb	sp,128(s2)
    132a:	0100                	addi	s0,sp,128
    132c:	1505                	addi	a0,a0,-31
    132e:	0c090503          	lb	a0,192(s2)
    1332:	0100                	addi	s0,sp,128
    1334:	1005                	c.nop	-31
    1336:	04090003          	lb	zero,64(s2)
    133a:	0100                	addi	s0,sp,128
    133c:	1505                	addi	a0,a0,-31
    133e:	0e090103          	lb	sp,224(s2)
    1342:	0100                	addi	s0,sp,128
    1344:	1c05                	addi	s8,s8,-31
    1346:	04090003          	lb	zero,64(s2)
    134a:	0100                	addi	s0,sp,128
    134c:	1005                	c.nop	-31
    134e:	04090003          	lb	zero,64(s2)
    1352:	0100                	addi	s0,sp,128
    1354:	2405                	jal	1574 <_min_stack-0xa8c>
    1356:	0e097f03          	0xe097f03
    135a:	0100                	addi	s0,sp,128
    135c:	1505                	addi	a0,a0,-31
    135e:	02090203          	lb	tp,32(s2)
    1362:	0100                	addi	s0,sp,128
    1364:	1c05                	addi	s8,s8,-31
    1366:	04090003          	lb	zero,64(s2)
    136a:	0100                	addi	s0,sp,128
    136c:	1005                	c.nop	-31
    136e:	04090003          	lb	zero,64(s2)
    1372:	0100                	addi	s0,sp,128
    1374:	2405                	jal	1594 <_min_stack-0xa6c>
    1376:	0e097f03          	0xe097f03
    137a:	0100                	addi	s0,sp,128
    137c:	1c05                	addi	s8,s8,-31
    137e:	02090203          	lb	tp,32(s2)
    1382:	0100                	addi	s0,sp,128
    1384:	1005                	c.nop	-31
    1386:	06090003          	lb	zero,96(s2)
    138a:	0100                	addi	s0,sp,128
    138c:	2405                	jal	15ac <_min_stack-0xa54>
    138e:	0e097f03          	0xe097f03
    1392:	0100                	addi	s0,sp,128
    1394:	0f05                	addi	t5,t5,1
    1396:	02090203          	lb	tp,32(s2)
    139a:	0100                	addi	s0,sp,128
    139c:	0c05                	addi	s8,s8,1
    139e:	04097b03          	0x4097b03
    13a2:	0100                	addi	s0,sp,128
    13a4:	1505                	addi	a0,a0,-31
    13a6:	04090703          	lb	a4,64(s2)
    13aa:	0100                	addi	s0,sp,128
    13ac:	1005                	c.nop	-31
    13ae:	04090003          	lb	zero,64(s2)
    13b2:	0100                	addi	s0,sp,128
    13b4:	1505                	addi	a0,a0,-31
    13b6:	0e090103          	lb	sp,224(s2)
    13ba:	0100                	addi	s0,sp,128
    13bc:	1c05                	addi	s8,s8,-31
    13be:	04090003          	lb	zero,64(s2)
    13c2:	0100                	addi	s0,sp,128
    13c4:	1005                	c.nop	-31
    13c6:	04090003          	lb	zero,64(s2)
    13ca:	0100                	addi	s0,sp,128
    13cc:	2405                	jal	15ec <_min_stack-0xa14>
    13ce:	0e097f03          	0xe097f03
    13d2:	0100                	addi	s0,sp,128
    13d4:	1505                	addi	a0,a0,-31
    13d6:	02090203          	lb	tp,32(s2)
    13da:	0100                	addi	s0,sp,128
    13dc:	1c05                	addi	s8,s8,-31
    13de:	04090003          	lb	zero,64(s2)
    13e2:	0100                	addi	s0,sp,128
    13e4:	1005                	c.nop	-31
    13e6:	04090003          	lb	zero,64(s2)
    13ea:	0100                	addi	s0,sp,128
    13ec:	2405                	jal	160c <_min_stack-0x9f4>
    13ee:	0e097f03          	0xe097f03
    13f2:	0100                	addi	s0,sp,128
    13f4:	1c05                	addi	s8,s8,-31
    13f6:	02090203          	lb	tp,32(s2)
    13fa:	0100                	addi	s0,sp,128
    13fc:	1005                	c.nop	-31
    13fe:	06090003          	lb	zero,96(s2)
    1402:	0100                	addi	s0,sp,128
    1404:	2405                	jal	1624 <_min_stack-0x9dc>
    1406:	0e097f03          	0xe097f03
    140a:	0100                	addi	s0,sp,128
    140c:	0f05                	addi	t5,t5,1
    140e:	02090203          	lb	tp,32(s2)
    1412:	0100                	addi	s0,sp,128
    1414:	0c05                	addi	s8,s8,1
    1416:	06097b03          	0x6097b03
    141a:	0100                	addi	s0,sp,128
    141c:	1505                	addi	a0,a0,-31
    141e:	04090703          	lb	a4,64(s2)
    1422:	0100                	addi	s0,sp,128
    1424:	1005                	c.nop	-31
    1426:	04090003          	lb	zero,64(s2)
    142a:	0100                	addi	s0,sp,128
    142c:	1505                	addi	a0,a0,-31
    142e:	0e090103          	lb	sp,224(s2)
    1432:	0100                	addi	s0,sp,128
    1434:	1c05                	addi	s8,s8,-31
    1436:	04090003          	lb	zero,64(s2)
    143a:	0100                	addi	s0,sp,128
    143c:	1005                	c.nop	-31
    143e:	04090003          	lb	zero,64(s2)
    1442:	0100                	addi	s0,sp,128
    1444:	2405                	jal	1664 <_min_stack-0x99c>
    1446:	0e097f03          	0xe097f03
    144a:	0100                	addi	s0,sp,128
    144c:	1505                	addi	a0,a0,-31
    144e:	02090203          	lb	tp,32(s2)
    1452:	0100                	addi	s0,sp,128
    1454:	1c05                	addi	s8,s8,-31
    1456:	04090003          	lb	zero,64(s2)
    145a:	0100                	addi	s0,sp,128
    145c:	1005                	c.nop	-31
    145e:	04090003          	lb	zero,64(s2)
    1462:	0100                	addi	s0,sp,128
    1464:	2405                	jal	1684 <_min_stack-0x97c>
    1466:	0e097f03          	0xe097f03
    146a:	0100                	addi	s0,sp,128
    146c:	1c05                	addi	s8,s8,-31
    146e:	02090203          	lb	tp,32(s2)
    1472:	0100                	addi	s0,sp,128
    1474:	1005                	c.nop	-31
    1476:	06090003          	lb	zero,96(s2)
    147a:	0100                	addi	s0,sp,128
    147c:	2405                	jal	169c <_min_stack-0x964>
    147e:	0e097f03          	0xe097f03
    1482:	0100                	addi	s0,sp,128
    1484:	0f05                	addi	t5,t5,1
    1486:	02090203          	lb	tp,32(s2)
    148a:	0100                	addi	s0,sp,128
    148c:	0c05                	addi	s8,s8,1
    148e:	06097b03          	0x6097b03
    1492:	0100                	addi	s0,sp,128
    1494:	1505                	addi	a0,a0,-31
    1496:	04090703          	lb	a4,64(s2)
    149a:	0100                	addi	s0,sp,128
    149c:	1005                	c.nop	-31
    149e:	04090003          	lb	zero,64(s2)
    14a2:	0100                	addi	s0,sp,128
    14a4:	1505                	addi	a0,a0,-31
    14a6:	0e090103          	lb	sp,224(s2)
    14aa:	0100                	addi	s0,sp,128
    14ac:	1c05                	addi	s8,s8,-31
    14ae:	04090003          	lb	zero,64(s2)
    14b2:	0100                	addi	s0,sp,128
    14b4:	1005                	c.nop	-31
    14b6:	04090003          	lb	zero,64(s2)
    14ba:	0100                	addi	s0,sp,128
    14bc:	2405                	jal	16dc <_min_stack-0x924>
    14be:	0e097f03          	0xe097f03
    14c2:	0100                	addi	s0,sp,128
    14c4:	1505                	addi	a0,a0,-31
    14c6:	02090203          	lb	tp,32(s2)
    14ca:	0100                	addi	s0,sp,128
    14cc:	1c05                	addi	s8,s8,-31
    14ce:	04090003          	lb	zero,64(s2)
    14d2:	0100                	addi	s0,sp,128
    14d4:	1005                	c.nop	-31
    14d6:	04090003          	lb	zero,64(s2)
    14da:	0100                	addi	s0,sp,128
    14dc:	2405                	jal	16fc <_min_stack-0x904>
    14de:	0e097f03          	0xe097f03
    14e2:	0100                	addi	s0,sp,128
    14e4:	1c05                	addi	s8,s8,-31
    14e6:	02090203          	lb	tp,32(s2)
    14ea:	0100                	addi	s0,sp,128
    14ec:	1005                	c.nop	-31
    14ee:	06090003          	lb	zero,96(s2)
    14f2:	0100                	addi	s0,sp,128
    14f4:	2405                	jal	1714 <_min_stack-0x8ec>
    14f6:	0e097f03          	0xe097f03
    14fa:	0100                	addi	s0,sp,128
    14fc:	0f05                	addi	t5,t5,1
    14fe:	02090203          	lb	tp,32(s2)
    1502:	0100                	addi	s0,sp,128
    1504:	0c05                	addi	s8,s8,1
    1506:	06097b03          	0x6097b03
    150a:	0100                	addi	s0,sp,128
    150c:	04095003          	lhu	zero,64(s2)
    1510:	0100                	addi	s0,sp,128
    1512:	0d05                	addi	s10,s10,1
    1514:	02091b03          	lh	s6,32(s2)
    1518:	0100                	addi	s0,sp,128
    151a:	1205                	addi	tp,tp,-31
    151c:	02092203          	lw	tp,32(s2)
    1520:	0100                	addi	s0,sp,128
    1522:	0d05                	addi	s10,s10,1
    1524:	04090003          	lb	zero,64(s2)
    1528:	0100                	addi	s0,sp,128
    152a:	2105                	jal	194a <_min_stack-0x6b6>
    152c:	0e090003          	lb	zero,224(s2)
    1530:	0100                	addi	s0,sp,128
    1532:	1205                	addi	tp,tp,-31
    1534:	06090103          	lb	sp,96(s2)
    1538:	0100                	addi	s0,sp,128
    153a:	1905                	addi	s2,s2,-31
    153c:	04090003          	lb	zero,64(s2)
    1540:	0100                	addi	s0,sp,128
    1542:	0d05                	addi	s10,s10,1
    1544:	04090003          	lb	zero,64(s2)
    1548:	0100                	addi	s0,sp,128
    154a:	2105                	jal	196a <_min_stack-0x696>
    154c:	0e090003          	lb	zero,224(s2)
    1550:	0100                	addi	s0,sp,128
    1552:	2f05                	jal	1c82 <_min_stack-0x37e>
    1554:	06097f03          	0x6097f03
    1558:	0100                	addi	s0,sp,128
    155a:	1205                	addi	tp,tp,-31
    155c:	02090203          	lb	tp,32(s2)
    1560:	0100                	addi	s0,sp,128
    1562:	1905                	addi	s2,s2,-31
    1564:	04090003          	lb	zero,64(s2)
    1568:	0100                	addi	s0,sp,128
    156a:	0d05                	addi	s10,s10,1
    156c:	04090003          	lb	zero,64(s2)
    1570:	0100                	addi	s0,sp,128
    1572:	2105                	jal	1992 <_min_stack-0x66e>
    1574:	0e090003          	lb	zero,224(s2)
    1578:	0100                	addi	s0,sp,128
    157a:	2f05                	jal	1caa <_min_stack-0x356>
    157c:	08097f03          	0x8097f03
    1580:	0100                	addi	s0,sp,128
    1582:	1905                	addi	s2,s2,-31
    1584:	02090203          	lb	tp,32(s2)
    1588:	0100                	addi	s0,sp,128
    158a:	0d05                	addi	s10,s10,1
    158c:	06090003          	lb	zero,96(s2)
    1590:	0100                	addi	s0,sp,128
    1592:	2105                	jal	19b2 <_min_stack-0x64e>
    1594:	0e090003          	lb	zero,224(s2)
    1598:	0100                	addi	s0,sp,128
    159a:	2f05                	jal	1cca <_min_stack-0x336>
    159c:	04097f03          	0x4097f03
    15a0:	0100                	addi	s0,sp,128
    15a2:	0b05                	addi	s6,s6,1
    15a4:	02090203          	lb	tp,32(s2)
    15a8:	0100                	addi	s0,sp,128
    15aa:	0805                	addi	a6,a6,1
    15ac:	04097b03          	0x4097b03
    15b0:	0100                	addi	s0,sp,128
    15b2:	0505                	addi	a0,a0,1
    15b4:	04090603          	lb	a2,64(s2)
    15b8:	0100                	addi	s0,sp,128
    15ba:	1205                	addi	tp,tp,-31
    15bc:	40090203          	lb	tp,1024(s2)
    15c0:	0100                	addi	s0,sp,128
    15c2:	0d05                	addi	s10,s10,1
    15c4:	04090003          	lb	zero,64(s2)
    15c8:	0100                	addi	s0,sp,128
    15ca:	2105                	jal	19ea <_min_stack-0x616>
    15cc:	0e090003          	lb	zero,224(s2)
    15d0:	0100                	addi	s0,sp,128
    15d2:	1205                	addi	tp,tp,-31
    15d4:	06090103          	lb	sp,96(s2)
    15d8:	0100                	addi	s0,sp,128
    15da:	1905                	addi	s2,s2,-31
    15dc:	04090003          	lb	zero,64(s2)
    15e0:	0100                	addi	s0,sp,128
    15e2:	0d05                	addi	s10,s10,1
    15e4:	04090003          	lb	zero,64(s2)
    15e8:	0100                	addi	s0,sp,128
    15ea:	2105                	jal	1a0a <_min_stack-0x5f6>
    15ec:	0e090003          	lb	zero,224(s2)
    15f0:	0100                	addi	s0,sp,128
    15f2:	2f05                	jal	1d22 <_min_stack-0x2de>
    15f4:	06097f03          	0x6097f03
    15f8:	0100                	addi	s0,sp,128
    15fa:	1205                	addi	tp,tp,-31
    15fc:	02090203          	lb	tp,32(s2)
    1600:	0100                	addi	s0,sp,128
    1602:	1905                	addi	s2,s2,-31
    1604:	04090003          	lb	zero,64(s2)
    1608:	0100                	addi	s0,sp,128
    160a:	0d05                	addi	s10,s10,1
    160c:	04090003          	lb	zero,64(s2)
    1610:	0100                	addi	s0,sp,128
    1612:	2105                	jal	1a32 <_min_stack-0x5ce>
    1614:	0e090003          	lb	zero,224(s2)
    1618:	0100                	addi	s0,sp,128
    161a:	2f05                	jal	1d4a <_min_stack-0x2b6>
    161c:	08097f03          	0x8097f03
    1620:	0100                	addi	s0,sp,128
    1622:	1905                	addi	s2,s2,-31
    1624:	02090203          	lb	tp,32(s2)
    1628:	0100                	addi	s0,sp,128
    162a:	0d05                	addi	s10,s10,1
    162c:	06090003          	lb	zero,96(s2)
    1630:	0100                	addi	s0,sp,128
    1632:	2105                	jal	1a52 <_min_stack-0x5ae>
    1634:	0e090003          	lb	zero,224(s2)
    1638:	0100                	addi	s0,sp,128
    163a:	2f05                	jal	1d6a <_min_stack-0x296>
    163c:	04097f03          	0x4097f03
    1640:	0100                	addi	s0,sp,128
    1642:	0b05                	addi	s6,s6,1
    1644:	02090203          	lb	tp,32(s2)
    1648:	0100                	addi	s0,sp,128
    164a:	0805                	addi	a6,a6,1
    164c:	06097b03          	0x6097b03
    1650:	0100                	addi	s0,sp,128
    1652:	0505                	addi	a0,a0,1
    1654:	04090603          	lb	a2,64(s2)
    1658:	0100                	addi	s0,sp,128
    165a:	1205                	addi	tp,tp,-31
    165c:	44090203          	lb	tp,1088(s2)
    1660:	0100                	addi	s0,sp,128
    1662:	0d05                	addi	s10,s10,1
    1664:	04090003          	lb	zero,64(s2)
    1668:	0100                	addi	s0,sp,128
    166a:	2105                	jal	1a8a <_min_stack-0x576>
    166c:	0e090003          	lb	zero,224(s2)
    1670:	0100                	addi	s0,sp,128
    1672:	1205                	addi	tp,tp,-31
    1674:	06090103          	lb	sp,96(s2)
    1678:	0100                	addi	s0,sp,128
    167a:	1905                	addi	s2,s2,-31
    167c:	04090003          	lb	zero,64(s2)
    1680:	0100                	addi	s0,sp,128
    1682:	0d05                	addi	s10,s10,1
    1684:	04090003          	lb	zero,64(s2)
    1688:	0100                	addi	s0,sp,128
    168a:	2105                	jal	1aaa <_min_stack-0x556>
    168c:	0e090003          	lb	zero,224(s2)
    1690:	0100                	addi	s0,sp,128
    1692:	2f05                	jal	1dc2 <_min_stack-0x23e>
    1694:	06097f03          	0x6097f03
    1698:	0100                	addi	s0,sp,128
    169a:	1205                	addi	tp,tp,-31
    169c:	02090203          	lb	tp,32(s2)
    16a0:	0100                	addi	s0,sp,128
    16a2:	1905                	addi	s2,s2,-31
    16a4:	04090003          	lb	zero,64(s2)
    16a8:	0100                	addi	s0,sp,128
    16aa:	0d05                	addi	s10,s10,1
    16ac:	04090003          	lb	zero,64(s2)
    16b0:	0100                	addi	s0,sp,128
    16b2:	2105                	jal	1ad2 <_min_stack-0x52e>
    16b4:	0e090003          	lb	zero,224(s2)
    16b8:	0100                	addi	s0,sp,128
    16ba:	2f05                	jal	1dea <_min_stack-0x216>
    16bc:	08097f03          	0x8097f03
    16c0:	0100                	addi	s0,sp,128
    16c2:	1905                	addi	s2,s2,-31
    16c4:	02090203          	lb	tp,32(s2)
    16c8:	0100                	addi	s0,sp,128
    16ca:	0d05                	addi	s10,s10,1
    16cc:	06090003          	lb	zero,96(s2)
    16d0:	0100                	addi	s0,sp,128
    16d2:	2105                	jal	1af2 <_min_stack-0x50e>
    16d4:	0e090003          	lb	zero,224(s2)
    16d8:	0100                	addi	s0,sp,128
    16da:	2f05                	jal	1e0a <_min_stack-0x1f6>
    16dc:	04097f03          	0x4097f03
    16e0:	0100                	addi	s0,sp,128
    16e2:	0b05                	addi	s6,s6,1
    16e4:	02090203          	lb	tp,32(s2)
    16e8:	0100                	addi	s0,sp,128
    16ea:	0805                	addi	a6,a6,1
    16ec:	06097b03          	0x6097b03
    16f0:	0100                	addi	s0,sp,128
    16f2:	0505                	addi	a0,a0,1
    16f4:	04090603          	lb	a2,64(s2)
    16f8:	0100                	addi	s0,sp,128
    16fa:	1205                	addi	tp,tp,-31
    16fc:	44090203          	lb	tp,1088(s2)
    1700:	0100                	addi	s0,sp,128
    1702:	0d05                	addi	s10,s10,1
    1704:	04090003          	lb	zero,64(s2)
    1708:	0100                	addi	s0,sp,128
    170a:	2105                	jal	1b2a <_min_stack-0x4d6>
    170c:	0e090003          	lb	zero,224(s2)
    1710:	0100                	addi	s0,sp,128
    1712:	1205                	addi	tp,tp,-31
    1714:	06090103          	lb	sp,96(s2)
    1718:	0100                	addi	s0,sp,128
    171a:	1905                	addi	s2,s2,-31
    171c:	04090003          	lb	zero,64(s2)
    1720:	0100                	addi	s0,sp,128
    1722:	0d05                	addi	s10,s10,1
    1724:	04090003          	lb	zero,64(s2)
    1728:	0100                	addi	s0,sp,128
    172a:	2105                	jal	1b4a <_min_stack-0x4b6>
    172c:	0e090003          	lb	zero,224(s2)
    1730:	0100                	addi	s0,sp,128
    1732:	2f05                	jal	1e62 <_min_stack-0x19e>
    1734:	06097f03          	0x6097f03
    1738:	0100                	addi	s0,sp,128
    173a:	1205                	addi	tp,tp,-31
    173c:	02090203          	lb	tp,32(s2)
    1740:	0100                	addi	s0,sp,128
    1742:	1905                	addi	s2,s2,-31
    1744:	04090003          	lb	zero,64(s2)
    1748:	0100                	addi	s0,sp,128
    174a:	0d05                	addi	s10,s10,1
    174c:	04090003          	lb	zero,64(s2)
    1750:	0100                	addi	s0,sp,128
    1752:	2105                	jal	1b72 <_min_stack-0x48e>
    1754:	0e090003          	lb	zero,224(s2)
    1758:	0100                	addi	s0,sp,128
    175a:	2f05                	jal	1e8a <_min_stack-0x176>
    175c:	08097f03          	0x8097f03
    1760:	0100                	addi	s0,sp,128
    1762:	1905                	addi	s2,s2,-31
    1764:	02090203          	lb	tp,32(s2)
    1768:	0100                	addi	s0,sp,128
    176a:	0d05                	addi	s10,s10,1
    176c:	06090003          	lb	zero,96(s2)
    1770:	0100                	addi	s0,sp,128
    1772:	2105                	jal	1b92 <_min_stack-0x46e>
    1774:	0e090003          	lb	zero,224(s2)
    1778:	0100                	addi	s0,sp,128
    177a:	2f05                	jal	1eaa <_min_stack-0x156>
    177c:	04097f03          	0x4097f03
    1780:	0100                	addi	s0,sp,128
    1782:	0b05                	addi	s6,s6,1
    1784:	02090203          	lb	tp,32(s2)
    1788:	0100                	addi	s0,sp,128
    178a:	0805                	addi	a6,a6,1
    178c:	06097b03          	0x6097b03
    1790:	0100                	addi	s0,sp,128
    1792:	0505                	addi	a0,a0,1
    1794:	04090603          	lb	a2,64(s2)
    1798:	0100                	addi	s0,sp,128
    179a:	0105                	addi	sp,sp,1
    179c:	44090103          	lb	sp,1088(s2)
    17a0:	0100                	addi	s0,sp,128
    17a2:	0609                	addi	a2,a2,2
    17a4:	0000                	unimp
    17a6:	0101                	addi	sp,sp,0
    17a8:	025a                	slli	tp,tp,0x16
    17aa:	0000                	unimp
    17ac:	02320003          	lb	zero,35(tp) # 23 <_min_stack-0x1fdd>
    17b0:	0000                	unimp
    17b2:	0101                	addi	sp,sp,0
    17b4:	000d0efb          	0xd0efb
    17b8:	0101                	addi	sp,sp,0
    17ba:	0101                	addi	sp,sp,0
    17bc:	0000                	unimp
    17be:	0100                	addi	s0,sp,128
    17c0:	0000                	unimp
    17c2:	4301                	li	t1,0
    17c4:	665f 6c69 7365      	0x73656c69665f
    17ca:	4300                	lw	s0,0(a4)
    17cc:	665f 6c69 7365      	0x73656c69665f
    17d2:	2f2e2e2f          	0x2f2e2e2f
    17d6:	5f48                	lw	a0,60(a4)
    17d8:	6966                	flw	fs2,88(sp)
    17da:	656c                	flw	fa1,76(a0)
    17dc:	682f0073          	0x682f0073
    17e0:	2f656d6f          	jal	s10,57ad6 <_stack_len+0x4fad6>
    17e4:	6e61                	lui	t3,0x18
    17e6:	6874                	flw	fa3,84(s0)
    17e8:	2f796e6f          	jal	t3,982de <_stack_len+0x902de>
    17ec:	6c50                	flw	fa2,28(s0)
    17ee:	6e61                	lui	t3,0x18
    17f0:	6564                	flw	fs1,76(a0)
    17f2:	7274                	flw	fa3,100(a2)
    17f4:	7661                	lui	a2,0xffff8
    17f6:	6961                	lui	s2,0x18
    17f8:	2f6c                	fld	fa1,216(a4)
    17fa:	3030                	fld	fa2,96(s0)
    17fc:	522d                	li	tp,-21
    17fe:	7369                	lui	t1,0xffffa
    1800:	545f5663          	bge	t5,t0,1d4c <_min_stack-0x2b4>
    1804:	636c6f6f          	jal	t5,c7e3a <_stack_len+0xbfe3a>
    1808:	6168                	flw	fa0,68(a0)
    180a:	6e69                	lui	t3,0x1a
    180c:	7369722f          	0x7369722f
    1810:	34367663          	bgeu	a2,gp,1b5c <_min_stack-0x4a4>
    1814:	752d                	lui	a0,0xfffeb
    1816:	6b6e                	flw	fs6,216(sp)
    1818:	6f6e                	flw	ft10,216(sp)
    181a:	652d6e77          	0x652d6e77
    181e:	666c                	flw	fa1,76(a2)
    1820:	672d                	lui	a4,0xb
    1822:	382d6363          	bltu	s10,sp,1ba8 <_min_stack-0x458>
    1826:	332e                	fld	ft6,232(sp)
    1828:	302e                	fld	ft0,232(sp)
    182a:	322d                	jal	1154 <_min_stack-0xeac>
    182c:	3230                	fld	fa2,96(a2)
    182e:	2e30                	fld	fa2,88(a2)
    1830:	3430                	fld	fa2,104(s0)
    1832:	302e                	fld	ft0,232(sp)
    1834:	782d                	lui	a6,0xfffeb
    1836:	3638                	fld	fa4,104(a2)
    1838:	365f 2d34 696c      	0x696c2d34365f
    183e:	756e                	flw	fa0,248(sp)
    1840:	2d78                	fld	fa4,216(a0)
    1842:	6275                	lui	tp,0x1d
    1844:	6e75                	lui	t3,0x1d
    1846:	7574                	flw	fa3,108(a0)
    1848:	3431                	jal	1254 <_min_stack-0xdac>
    184a:	62696c2f          	0x62696c2f
    184e:	6363672f          	0x6363672f
    1852:	7369722f          	0x7369722f
    1856:	34367663          	bgeu	a2,gp,1ba2 <_min_stack-0x45e>
    185a:	752d                	lui	a0,0xfffeb
    185c:	6b6e                	flw	fs6,216(sp)
    185e:	6f6e                	flw	ft10,216(sp)
    1860:	652d6e77          	0x652d6e77
    1864:	666c                	flw	fa1,76(a2)
    1866:	332e382f          	0x332e382f
    186a:	302e                	fld	ft0,232(sp)
    186c:	636e692f          	0x636e692f
    1870:	756c                	flw	fa1,108(a0)
    1872:	6564                	flw	fs1,76(a0)
    1874:	2f00                	fld	fs0,24(a4)
    1876:	6f68                	flw	fa0,92(a4)
    1878:	656d                	lui	a0,0x1b
    187a:	746e612f          	0x746e612f
    187e:	6f68                	flw	fa0,92(a4)
    1880:	796e                	flw	fs2,248(sp)
    1882:	616c502f          	0x616c502f
    1886:	646e                	flw	fs0,216(sp)
    1888:	7465                	lui	s0,0xffff9
    188a:	6172                	flw	ft2,28(sp)
    188c:	6176                	flw	ft2,92(sp)
    188e:	6c69                	lui	s8,0x1a
    1890:	2d30302f          	0x2d30302f
    1894:	6952                	flw	fs2,20(sp)
    1896:	5f566373          	csrrsi	t1,0x5f5,12
    189a:	6f54                	flw	fa3,28(a4)
    189c:	68636c6f          	jal	s8,37f22 <_stack_len+0x2ff22>
    18a0:	6961                	lui	s2,0x18
    18a2:	2f6e                	fld	ft10,216(sp)
    18a4:	6972                	flw	fs2,28(sp)
    18a6:	36766373          	csrrsi	t1,0x367,12
    18aa:	2d34                	fld	fa3,88(a0)
    18ac:	6e75                	lui	t3,0x1d
    18ae:	776f6e6b          	0x776f6e6b
    18b2:	2d6e                	fld	fs10,216(sp)
    18b4:	6c65                	lui	s8,0x19
    18b6:	2d66                	fld	fs10,88(sp)
    18b8:	2d636367          	0x2d636367
    18bc:	2e38                	fld	fa4,88(a2)
    18be:	2d302e33          	0x2d302e33
    18c2:	3032                	fld	ft0,296(sp)
    18c4:	3032                	fld	ft0,296(sp)
    18c6:	302e                	fld	ft0,232(sp)
    18c8:	2e34                	fld	fa3,88(a2)
    18ca:	2d30                	fld	fa2,88(a0)
    18cc:	3878                	fld	fa4,240(s0)
    18ce:	5f36                	lw	t5,108(sp)
    18d0:	3436                	fld	fs0,360(sp)
    18d2:	6c2d                	lui	s8,0xb
    18d4:	6e69                	lui	t3,0x1a
    18d6:	7875                	lui	a6,0xffffd
    18d8:	752d                	lui	a0,0xfffeb
    18da:	7562                	flw	fa0,56(sp)
    18dc:	746e                	flw	fs0,248(sp)
    18de:	3175                	jal	158a <_min_stack-0xa76>
    18e0:	2f34                	fld	fa3,88(a4)
    18e2:	6972                	flw	fs2,28(sp)
    18e4:	36766373          	csrrsi	t1,0x367,12
    18e8:	2d34                	fld	fa3,88(a0)
    18ea:	6e75                	lui	t3,0x1d
    18ec:	776f6e6b          	0x776f6e6b
    18f0:	2d6e                	fld	fs10,216(sp)
    18f2:	6c65                	lui	s8,0x19
    18f4:	2f66                	fld	ft10,88(sp)
    18f6:	6e69                	lui	t3,0x1a
    18f8:	64756c63          	bltu	a0,t2,1f50 <_min_stack-0xb0>
    18fc:	2f65                	jal	20b4 <_min_stack+0xb4>
    18fe:	00737973          	csrrci	s2,0x7,6
    1902:	6d6f682f          	0x6d6f682f
    1906:	2f65                	jal	20be <_min_stack+0xbe>
    1908:	6e61                	lui	t3,0x18
    190a:	6874                	flw	fa3,84(s0)
    190c:	2f796e6f          	jal	t3,98402 <_stack_len+0x90402>
    1910:	6c50                	flw	fa2,28(s0)
    1912:	6e61                	lui	t3,0x18
    1914:	6564                	flw	fs1,76(a0)
    1916:	7274                	flw	fa3,100(a2)
    1918:	7661                	lui	a2,0xffff8
    191a:	6961                	lui	s2,0x18
    191c:	2f6c                	fld	fa1,216(a4)
    191e:	3030                	fld	fa2,96(s0)
    1920:	522d                	li	tp,-21
    1922:	7369                	lui	t1,0xffffa
    1924:	545f5663          	bge	t5,t0,1e70 <_min_stack-0x190>
    1928:	636c6f6f          	jal	t5,c7f5e <_stack_len+0xbff5e>
    192c:	6168                	flw	fa0,68(a0)
    192e:	6e69                	lui	t3,0x1a
    1930:	7369722f          	0x7369722f
    1934:	34367663          	bgeu	a2,gp,1c80 <_min_stack-0x380>
    1938:	752d                	lui	a0,0xfffeb
    193a:	6b6e                	flw	fs6,216(sp)
    193c:	6f6e                	flw	ft10,216(sp)
    193e:	652d6e77          	0x652d6e77
    1942:	666c                	flw	fa1,76(a2)
    1944:	672d                	lui	a4,0xb
    1946:	382d6363          	bltu	s10,sp,1ccc <_min_stack-0x334>
    194a:	332e                	fld	ft6,232(sp)
    194c:	302e                	fld	ft0,232(sp)
    194e:	322d                	jal	1278 <_min_stack-0xd88>
    1950:	3230                	fld	fa2,96(a2)
    1952:	2e30                	fld	fa2,88(a2)
    1954:	3430                	fld	fa2,104(s0)
    1956:	302e                	fld	ft0,232(sp)
    1958:	782d                	lui	a6,0xfffeb
    195a:	3638                	fld	fa4,104(a2)
    195c:	365f 2d34 696c      	0x696c2d34365f
    1962:	756e                	flw	fa0,248(sp)
    1964:	2d78                	fld	fa4,216(a0)
    1966:	6275                	lui	tp,0x1d
    1968:	6e75                	lui	t3,0x1d
    196a:	7574                	flw	fa3,108(a0)
    196c:	3431                	jal	1378 <_min_stack-0xc88>
    196e:	7369722f          	0x7369722f
    1972:	34367663          	bgeu	a2,gp,1cbe <_min_stack-0x342>
    1976:	752d                	lui	a0,0xfffeb
    1978:	6b6e                	flw	fs6,216(sp)
    197a:	6f6e                	flw	ft10,216(sp)
    197c:	652d6e77          	0x652d6e77
    1980:	666c                	flw	fa1,76(a2)
    1982:	636e692f          	0x636e692f
    1986:	756c                	flw	fa1,108(a0)
    1988:	6564                	flw	fs1,76(a0)
    198a:	0000                	unimp
    198c:	6561                	lui	a0,0x18
    198e:	63655f73          	csrrwi	t5,0x636,10
    1992:	5f62                	lw	t5,56(sp)
    1994:	2e6c7373          	csrrci	t1,0x2e6,24
    1998:	00010063          	beqz	sp,1998 <_min_stack-0x668>
    199c:	6100                	flw	fs0,0(a0)
    199e:	7365                	lui	t1,0xffff9
    19a0:	735f 6c73 682e      	0x682e6c73735f
    19a6:	0200                	addi	s0,sp,256
    19a8:	0000                	unimp
    19aa:	64647473          	csrrci	s0,0x646,8
    19ae:	6665                	lui	a2,0x19
    19b0:	682e                	flw	fa6,200(sp)
    19b2:	0300                	addi	s0,sp,384
    19b4:	0000                	unimp
    19b6:	745f 7079 7365      	0x73657079745f
    19bc:	682e                	flw	fa6,200(sp)
    19be:	0400                	addi	s0,sp,512
    19c0:	0000                	unimp
    19c2:	6572                	flw	fa0,28(sp)
    19c4:	6e65                	lui	t3,0x19
    19c6:	2e74                	fld	fa3,216(a2)
    19c8:	0068                	addi	a0,sp,12
    19ca:	0004                	0x4
    19cc:	6c00                	flw	fs0,24(s0)
    19ce:	2e6b636f          	jal	t1,b7cb4 <_stack_len+0xafcb4>
    19d2:	0068                	addi	a0,sp,12
    19d4:	0004                	0x4
    19d6:	7300                	flw	fs0,32(a4)
    19d8:	6474                	flw	fa3,76(s0)
    19da:	696c                	flw	fa1,84(a0)
    19dc:	2e62                	fld	ft8,24(sp)
    19de:	0068                	addi	a0,sp,12
    19e0:	0005                	c.nop	1
    19e2:	0000                	unimp
    19e4:	0105                	addi	sp,sp,1
    19e6:	0500                	addi	s0,sp,640
    19e8:	0202                	c.slli64	tp
    19ea:	03001013          	slli	zero,zero,0x30
    19ee:	0110                	addi	a2,sp,128
    19f0:	0905                	addi	s2,s2,1
    19f2:	0c090603          	lb	a2,192(s2) # 180c0 <_stack_len+0x100c0>
    19f6:	0100                	addi	s0,sp,128
    19f8:	0105                	addi	sp,sp,1
    19fa:	08090303          	lb	t1,128(s2)
    19fe:	0100                	addi	s0,sp,128
    1a00:	0809                	addi	a6,a6,2
    1a02:	0000                	unimp
    1a04:	0101                	addi	sp,sp,0
    1a06:	000001cb          	fnmsub.s	ft3,ft0,ft0,ft0,rne
    1a0a:	00780003          	lb	zero,7(a6) # fffeb007 <_stack_start+0xffdeb007>
    1a0e:	0000                	unimp
    1a10:	0101                	addi	sp,sp,0
    1a12:	000d0efb          	0xd0efb
    1a16:	0101                	addi	sp,sp,0
    1a18:	0101                	addi	sp,sp,0
    1a1a:	0000                	unimp
    1a1c:	0100                	addi	s0,sp,128
    1a1e:	0000                	unimp
    1a20:	2f01                	jal	2130 <_min_stack+0x130>
    1a22:	6f68                	flw	fa0,92(a4)
    1a24:	656d                	lui	a0,0x1b
    1a26:	746e612f          	0x746e612f
    1a2a:	6f68                	flw	fa0,92(a4)
    1a2c:	796e                	flw	fs2,248(sp)
    1a2e:	616c502f          	0x616c502f
    1a32:	646e                	flw	fs0,216(sp)
    1a34:	7465                	lui	s0,0xffff9
    1a36:	6172                	flw	ft2,28(sp)
    1a38:	6176                	flw	ft2,92(sp)
    1a3a:	6c69                	lui	s8,0x1a
    1a3c:	2d31302f          	0x2d31302f
    1a40:	6952                	flw	fs2,20(sp)
    1a42:	5f566373          	csrrsi	t1,0x5f5,12
    1a46:	4249                	li	tp,18
    1a48:	5845                	li	a6,-15
    1a4a:	6562692f          	0x6562692f
    1a4e:	5f78                	lw	a4,124(a4)
    1a50:	38303133          	0x38303133
    1a54:	3032                	fld	ft0,296(sp)
    1a56:	3032                	fld	ft0,296(sp)
    1a58:	665f 6e69 6c61      	0x6c616e69665f
    1a5e:	2f65                	jal	2216 <_min_stack+0x216>
    1a60:	706d6f43          	fmadd.s	ft10,fs10,ft6,fa4,unknown
    1a64:	6c69                	lui	s8,0x1a
    1a66:	7461                	lui	s0,0xffff8
    1a68:	6f69                	lui	t5,0x1a
    1a6a:	5f6e                	lw	t5,248(sp)
    1a6c:	7865                	lui	a6,0xffff9
    1a6e:	6d61                	lui	s10,0x18
    1a70:	6c70                	flw	fa2,92(s0)
    1a72:	7365                	lui	t1,0xffff9
    1a74:	6d6f632f          	0x6d6f632f
    1a78:	6f6d                	lui	t5,0x1b
    1a7a:	006e                	c.slli	zero,0x1b
    1a7c:	6300                	flw	fs0,0(a4)
    1a7e:	7472                	flw	fs0,60(sp)
    1a80:	2e30                	fld	fa2,88(a2)
    1a82:	00010053          	fadd.s	ft0,ft2,ft0,rne
    1a86:	0000                	unimp
    1a88:	0500                	addi	s0,sp,640
    1a8a:	1e02                	slli	t3,t3,0x20
    1a8c:	03001013          	slli	zero,zero,0x30
    1a90:	0109                	addi	sp,sp,2
    1a92:	04090303          	lb	t1,64(s2)
    1a96:	0100                	addi	s0,sp,128
    1a98:	04090403          	lb	s0,64(s2)
    1a9c:	0100                	addi	s0,sp,128
    1a9e:	04090103          	lb	sp,64(s2)
    1aa2:	0100                	addi	s0,sp,128
    1aa4:	02090103          	lb	sp,32(s2)
    1aa8:	0100                	addi	s0,sp,128
    1aaa:	02090103          	lb	sp,32(s2)
    1aae:	0100                	addi	s0,sp,128
    1ab0:	02090103          	lb	sp,32(s2)
    1ab4:	0100                	addi	s0,sp,128
    1ab6:	02090103          	lb	sp,32(s2)
    1aba:	0100                	addi	s0,sp,128
    1abc:	02090103          	lb	sp,32(s2)
    1ac0:	0100                	addi	s0,sp,128
    1ac2:	02090103          	lb	sp,32(s2)
    1ac6:	0100                	addi	s0,sp,128
    1ac8:	02090103          	lb	sp,32(s2)
    1acc:	0100                	addi	s0,sp,128
    1ace:	02090103          	lb	sp,32(s2)
    1ad2:	0100                	addi	s0,sp,128
    1ad4:	02090103          	lb	sp,32(s2)
    1ad8:	0100                	addi	s0,sp,128
    1ada:	02090103          	lb	sp,32(s2)
    1ade:	0100                	addi	s0,sp,128
    1ae0:	02090103          	lb	sp,32(s2)
    1ae4:	0100                	addi	s0,sp,128
    1ae6:	02090103          	lb	sp,32(s2)
    1aea:	0100                	addi	s0,sp,128
    1aec:	02090103          	lb	sp,32(s2)
    1af0:	0100                	addi	s0,sp,128
    1af2:	02090103          	lb	sp,32(s2)
    1af6:	0100                	addi	s0,sp,128
    1af8:	02090103          	lb	sp,32(s2)
    1afc:	0100                	addi	s0,sp,128
    1afe:	02090103          	lb	sp,32(s2)
    1b02:	0100                	addi	s0,sp,128
    1b04:	02090103          	lb	sp,32(s2)
    1b08:	0100                	addi	s0,sp,128
    1b0a:	02090103          	lb	sp,32(s2)
    1b0e:	0100                	addi	s0,sp,128
    1b10:	02090103          	lb	sp,32(s2)
    1b14:	0100                	addi	s0,sp,128
    1b16:	02090103          	lb	sp,32(s2)
    1b1a:	0100                	addi	s0,sp,128
    1b1c:	02090103          	lb	sp,32(s2)
    1b20:	0100                	addi	s0,sp,128
    1b22:	02090103          	lb	sp,32(s2)
    1b26:	0100                	addi	s0,sp,128
    1b28:	02090103          	lb	sp,32(s2)
    1b2c:	0100                	addi	s0,sp,128
    1b2e:	02090103          	lb	sp,32(s2)
    1b32:	0100                	addi	s0,sp,128
    1b34:	02090103          	lb	sp,32(s2)
    1b38:	0100                	addi	s0,sp,128
    1b3a:	02090103          	lb	sp,32(s2)
    1b3e:	0100                	addi	s0,sp,128
    1b40:	02090103          	lb	sp,32(s2)
    1b44:	0100                	addi	s0,sp,128
    1b46:	02090103          	lb	sp,32(s2)
    1b4a:	0100                	addi	s0,sp,128
    1b4c:	02090103          	lb	sp,32(s2)
    1b50:	0100                	addi	s0,sp,128
    1b52:	02090303          	lb	t1,32(s2)
    1b56:	0100                	addi	s0,sp,128
    1b58:	08090603          	lb	a2,128(s2)
    1b5c:	0100                	addi	s0,sp,128
    1b5e:	08090103          	lb	sp,128(s2)
    1b62:	0100                	addi	s0,sp,128
    1b64:	08090203          	lb	tp,128(s2)
    1b68:	0100                	addi	s0,sp,128
    1b6a:	04090303          	lb	t1,64(s2)
    1b6e:	0100                	addi	s0,sp,128
    1b70:	04090103          	lb	sp,64(s2)
    1b74:	0100                	addi	s0,sp,128
    1b76:	02090103          	lb	sp,32(s2)
    1b7a:	0100                	addi	s0,sp,128
    1b7c:	04090603          	lb	a2,64(s2)
    1b80:	0100                	addi	s0,sp,128
    1b82:	04090103          	lb	sp,64(s2)
    1b86:	0100                	addi	s0,sp,128
    1b88:	04090103          	lb	sp,64(s2)
    1b8c:	0100                	addi	s0,sp,128
    1b8e:	04090303          	lb	t1,64(s2)
    1b92:	0100                	addi	s0,sp,128
    1b94:	08090103          	lb	sp,128(s2)
    1b98:	0100                	addi	s0,sp,128
    1b9a:	02090103          	lb	sp,32(s2)
    1b9e:	0100                	addi	s0,sp,128
    1ba0:	04090403          	lb	s0,64(s2)
    1ba4:	0100                	addi	s0,sp,128
    1ba6:	04090103          	lb	sp,64(s2)
    1baa:	0100                	addi	s0,sp,128
    1bac:	0209                	addi	tp,tp,2
    1bae:	0000                	unimp
    1bb0:	0101                	addi	sp,sp,0
    1bb2:	0500                	addi	s0,sp,640
    1bb4:	0002                	c.slli64	zero
    1bb6:	1000                	addi	s0,sp,32
    1bb8:	0300                	addi	s0,sp,384
    1bba:	00dd                	addi	ra,ra,23
    1bbc:	0301                	addi	t1,t1,0
    1bbe:	0901                	addi	s2,s2,0
    1bc0:	001c                	0x1c
    1bc2:	0301                	addi	t1,t1,0
    1bc4:	00040903          	lb	s2,0(s0) # ffff8000 <_stack_start+0xffdf8000>
    1bc8:	0301                	addi	t1,t1,0
    1bca:	0904                	addi	s1,sp,144
    1bcc:	0060                	addi	s0,sp,12
    1bce:	0901                	addi	s2,s2,0
    1bd0:	0004                	0x4
    1bd2:	0100                	addi	s0,sp,128
    1bd4:	01              	Adresse 0x0000000000001bd4 hors limites.


Déassemblage de la section .debug_str :

00000000 <.debug_str>:
   0:	5f746567          	0x5f746567
   4:	636d                	lui	t1,0x1b
   6:	7561                	lui	a0,0xffff8
   8:	73006573          	csrrsi	a0,0x730,0
   c:	6d69                	lui	s10,0x1a
   e:	6c70                	flw	fa2,92(s0)
  10:	5f65                	li	t5,-7
  12:	7865                	lui	a6,0xffff9
  14:	61685f63          	bge	a6,s6,632 <_min_stack-0x19ce>
  18:	646e                	flw	fs0,216(sp)
  1a:	656c                	flw	fa1,76(a0)
  1c:	0072                	c.slli	zero,0x1c
  1e:	6370                	flw	fa2,68(a4)
  20:	746e756f          	jal	a0,e7766 <_stack_len+0xdf766>
  24:	655f 616e 6c62      	0x6c62616e655f
  2a:	0065                	c.nop	25
  2c:	72727563          	bgeu	tp,t2,756 <_min_stack-0x18aa>
  30:	6e65                	lui	t3,0x19
  32:	5f74                	lw	a3,124(a4)
  34:	6974                	flw	fa3,84(a0)
  36:	656d                	lui	a0,0x1b
  38:	7400                	flw	fs0,40(s0)
  3a:	6d69                	lui	s10,0x1a
  3c:	7265                	lui	tp,0xffff9
  3e:	655f 616e 6c62      	0x6c62616e655f
  44:	0065                	c.nop	25
  46:	6975                	lui	s2,0x1d
  48:	746e                	flw	fs0,248(sp)
  4a:	3436                	fld	fs0,360(sp)
  4c:	745f 7300 6d69      	0x6d697300745f
  52:	685f 6c61 0074      	0x746c61685f
  58:	6e69                	lui	t3,0x1a
  5a:	6968                	flw	fa0,84(a0)
  5c:	6962                	flw	fs2,24(sp)
  5e:	5f74                	lw	a3,124(a4)
  60:	6176                	flw	ft2,92(sp)
  62:	006c                	addi	a1,sp,12
  64:	6e75                	lui	t3,0x1d
  66:	6e676973          	csrrsi	s2,0x6e6,14
  6a:	6465                	lui	s0,0x19
  6c:	6320                	flw	fs0,64(a4)
  6e:	6168                	flw	fa0,68(a0)
  70:	0072                	c.slli	zero,0x1c
  72:	726f6873          	csrrsi	a6,0x726,30
  76:	2074                	fld	fa3,192(s0)
  78:	6e75                	lui	t3,0x1d
  7a:	6e676973          	csrrsi	s2,0x6e6,14
  7e:	6465                	lui	s0,0x19
  80:	6920                	flw	fs0,80(a0)
  82:	746e                	flw	fs0,248(sp)
  84:	7000                	flw	fs0,32(s0)
  86:	7475                	lui	s0,0xffffd
  88:	72616863          	bltu	sp,t1,7b8 <_min_stack-0x1848>
  8c:	7400                	flw	fs0,40(s0)
  8e:	6d69                	lui	s10,0x1a
  90:	6365                	lui	t1,0x19
  92:	706d                	c.lui	zero,0xffffb
  94:	755f 6470 7461      	0x74616470755f
  9a:	0065                	c.nop	25
  9c:	6966                	flw	fs2,88(sp)
  9e:	616e                	flw	ft2,216(sp)
  a0:	5f6c                	lw	a1,124(a4)
  a2:	6974                	flw	fa3,84(a0)
  a4:	656d                	lui	a0,0x1b
  a6:	6900                	flw	fs0,16(a0)
  a8:	636e                	flw	ft6,216(sp)
  aa:	6572                	flw	fa0,28(sp)
  ac:	656d                	lui	a0,0x1b
  ae:	746e                	flw	fs0,248(sp)
  b0:	745f 6d69 6365      	0x63656d69745f
  b6:	706d                	c.lui	zero,0xffffb
  b8:	7400                	flw	fs0,40(s0)
  ba:	6d69                	lui	s10,0x1a
  bc:	5f65                	li	t5,-7
  be:	6162                	flw	ft2,24(sp)
  c0:	6c006573          	csrrsi	a0,0x6c0,0
  c4:	20676e6f          	jal	t3,762ca <_stack_len+0x6e2ca>
  c8:	6f6c                	flw	fa1,92(a4)
  ca:	676e                	flw	fa4,216(sp)
  cc:	7520                	flw	fs0,104(a0)
  ce:	736e                	flw	ft6,248(sp)
  d0:	6769                	lui	a4,0x1a
  d2:	656e                	flw	fa0,216(sp)
  d4:	2064                	fld	fs1,192(s0)
  d6:	6e69                	lui	t3,0x1a
  d8:	0074                	addi	a3,sp,12
  da:	6d6f682f          	0x6d6f682f
  de:	2f65                	jal	896 <_min_stack-0x176a>
  e0:	6e61                	lui	t3,0x18
  e2:	6874                	flw	fa3,84(s0)
  e4:	2f796e6f          	jal	t3,96bda <_stack_len+0x8ebda>
  e8:	6c50                	flw	fa2,28(s0)
  ea:	6e61                	lui	t3,0x18
  ec:	6564                	flw	fs1,76(a0)
  ee:	7274                	flw	fa3,100(a2)
  f0:	7661                	lui	a2,0xffff8
  f2:	6961                	lui	s2,0x18
  f4:	2f6c                	fld	fa1,216(a4)
  f6:	3130                	fld	fa2,96(a0)
  f8:	522d                	li	tp,-21
  fa:	7369                	lui	t1,0xffffa
  fc:	495f5663          	bge	t5,s5,588 <_min_stack-0x1a78>
 100:	4542                	lw	a0,16(sp)
 102:	2f58                	fld	fa4,152(a4)
 104:	6269                	lui	tp,0x1a
 106:	7865                	lui	a6,0xffff9
 108:	335f 3031 3238      	0x32383031335f
 10e:	3230                	fld	fa2,96(a2)
 110:	5f30                	lw	a2,120(a4)
 112:	6966                	flw	fs2,88(sp)
 114:	616e                	flw	ft2,216(sp)
 116:	656c                	flw	fa1,76(a0)
 118:	6d6f432f          	0x6d6f432f
 11c:	6970                	flw	fa2,84(a0)
 11e:	616c                	flw	fa1,68(a0)
 120:	6974                	flw	fa3,84(a0)
 122:	655f6e6f          	jal	t3,f6f76 <_stack_len+0xeef76>
 126:	6178                	flw	fa4,68(a0)
 128:	706d                	c.lui	zero,0xffffb
 12a:	656c                	flw	fa1,76(a0)
 12c:	6f632f73          	csrrs	t5,0x6f6,t1
 130:	6d6d                	lui	s10,0x1b
 132:	732f6e6f          	jal	t3,f6864 <_stack_len+0xee864>
 136:	6d69                	lui	s10,0x1a
 138:	6c70                	flw	fa2,92(s0)
 13a:	5f65                	li	t5,-7
 13c:	74737973          	csrrci	s2,0x747,6
 140:	6d65                	lui	s10,0x19
 142:	635f 6d6f 6f6d      	0x6f6d6d6f635f
 148:	2e6e                	fld	ft8,216(sp)
 14a:	75630063          	beq	t1,s6,88a <_min_stack-0x1776>
 14e:	7272                	flw	ft4,60(sp)
 150:	6e65                	lui	t3,0x19
 152:	5f74                	lw	a3,124(a4)
 154:	6974                	flw	fa3,84(a0)
 156:	656d                	lui	a0,0x1b
 158:	0068                	addi	a0,sp,12
 15a:	6974                	flw	fa3,84(a0)
 15c:	656d                	lui	a0,0x1b
 15e:	5f72                	lw	t5,60(sp)
 160:	6964                	flw	fs1,84(a0)
 162:	6c626173          	csrrsi	sp,0x6c6,4
 166:	0065                	c.nop	25
 168:	6974                	flw	fa3,84(a0)
 16a:	656d                	lui	a0,0x1b
 16c:	695f 636e 6572      	0x6572636e695f
 172:	656d                	lui	a0,0x1b
 174:	746e                	flw	fs0,248(sp)
 176:	6c00                	flw	fs0,24(s0)
 178:	20676e6f          	jal	t3,7637e <_stack_len+0x6e37e>
 17c:	6f6c                	flw	fa1,92(a4)
 17e:	676e                	flw	fa4,216(sp)
 180:	6920                	flw	fs0,80(a0)
 182:	746e                	flw	fs0,248(sp)
 184:	7400                	flw	fs0,40(s0)
 186:	6d69                	lui	s10,0x1a
 188:	5f65                	li	t5,-7
 18a:	6c65                	lui	s8,0x19
 18c:	7061                	c.lui	zero,0xffff8
 18e:	00646573          	csrrsi	a0,0x6,8
 192:	6d6f682f          	0x6d6f682f
 196:	2f65                	jal	94e <_min_stack-0x16b2>
 198:	6e61                	lui	t3,0x18
 19a:	6874                	flw	fa3,84(s0)
 19c:	2f796e6f          	jal	t3,96c92 <_stack_len+0x8ec92>
 1a0:	6c50                	flw	fa2,28(s0)
 1a2:	6e61                	lui	t3,0x18
 1a4:	6564                	flw	fs1,76(a0)
 1a6:	7274                	flw	fa3,100(a2)
 1a8:	7661                	lui	a2,0xffff8
 1aa:	6961                	lui	s2,0x18
 1ac:	2f6c                	fld	fa1,216(a4)
 1ae:	3130                	fld	fa2,96(a0)
 1b0:	522d                	li	tp,-21
 1b2:	7369                	lui	t1,0xffffa
 1b4:	495f5663          	bge	t5,s5,640 <_min_stack-0x19c0>
 1b8:	4542                	lw	a0,16(sp)
 1ba:	2f58                	fld	fa4,152(a4)
 1bc:	6269                	lui	tp,0x1a
 1be:	7865                	lui	a6,0xffff9
 1c0:	335f 3031 3238      	0x32383031335f
 1c6:	3230                	fld	fa2,96(a2)
 1c8:	5f30                	lw	a2,120(a4)
 1ca:	6966                	flw	fs2,88(sp)
 1cc:	616e                	flw	ft2,216(sp)
 1ce:	656c                	flw	fa1,76(a0)
 1d0:	6d6f432f          	0x6d6f432f
 1d4:	6970                	flw	fa2,84(a0)
 1d6:	616c                	flw	fa1,68(a0)
 1d8:	6974                	flw	fa3,84(a0)
 1da:	655f6e6f          	jal	t3,f702e <_stack_len+0xef02e>
 1de:	6178                	flw	fa4,68(a0)
 1e0:	706d                	c.lui	zero,0xffffb
 1e2:	656c                	flw	fa1,76(a0)
 1e4:	45412f73          	csrrs	t5,0x454,sp
 1e8:	6f435f53          	0x6f435f53
 1ec:	6564                	flw	fs1,76(a0)
 1ee:	435f 7400 6d69      	0x6d697400435f
 1f4:	7265                	lui	tp,0xffff9
 1f6:	725f 6165 0064      	0x646165725f
 1fc:	656e                	flw	fa0,216(sp)
 1fe:	69745f77          	0x69745f77
 202:	656d                	lui	a0,0x1b
 204:	7300                	flw	fs0,32(a4)
 206:	6f68                	flw	fa0,92(a4)
 208:	7472                	flw	fs0,60(sp)
 20a:	6920                	flw	fs0,80(a0)
 20c:	746e                	flw	fs0,248(sp)
 20e:	6700                	flw	fs0,8(a4)
 210:	7465                	lui	s0,0xffff9
 212:	655f 616c 7370      	0x7370616c655f
 218:	6465                	lui	s0,0x19
 21a:	745f 6d69 0065      	0x656d69745f
 220:	5f727563          	bgeu	tp,s7,80a <_min_stack-0x17f6>
 224:	6964                	flw	fs1,84(a0)
 226:	00746967          	0x746967
 22a:	6975                	lui	s2,0x1d
 22c:	746e                	flw	fs0,248(sp)
 22e:	745f3233          	0x745f3233
 232:	4700                	lw	s0,8(a4)
 234:	554e                	lw	a0,240(sp)
 236:	4320                	lw	s0,64(a4)
 238:	3731                	jal	144 <_min_stack-0x1ebc>
 23a:	3820                	fld	fs0,112(s0)
 23c:	332e                	fld	ft6,232(sp)
 23e:	302e                	fld	ft0,232(sp)
 240:	2d20                	fld	fs0,88(a0)
 242:	616d                	addi	sp,sp,240
 244:	6372                	flw	ft6,28(sp)
 246:	3d68                	fld	fa0,248(a0)
 248:	7672                	flw	fa2,60(sp)
 24a:	63693233          	0x63693233
 24e:	2d20                	fld	fs0,88(a0)
 250:	616d                	addi	sp,sp,240
 252:	6962                	flw	fs2,24(sp)
 254:	693d                	lui	s2,0xf
 256:	706c                	flw	fa1,100(s0)
 258:	2d203233          	0x2d203233
 25c:	636d                	lui	t1,0x1b
 25e:	6f6d                	lui	t5,0x1b
 260:	6564                	flw	fs1,76(a0)
 262:	3d6c                	fld	fa1,248(a0)
 264:	656d                	lui	a0,0x1b
 266:	6164                	flw	fs1,68(a0)
 268:	796e                	flw	fs2,248(sp)
 26a:	2d20                	fld	fs0,88(a0)
 26c:	4f2d2067          	0x4f2d2067
 270:	2030                	fld	fa2,64(s0)
 272:	662d                	lui	a2,0xb
 274:	6976                	flw	fs2,92(sp)
 276:	69626973          	csrrsi	s2,0x696,4
 27a:	696c                	flw	fa1,84(a0)
 27c:	7974                	flw	fa3,116(a0)
 27e:	683d                	lui	a6,0xf
 280:	6469                	lui	s0,0x1a
 282:	6564                	flw	fs1,76(a0)
 284:	206e                	fld	ft0,216(sp)
 286:	662d                	lui	a2,0xb
 288:	7266                	flw	ft4,120(sp)
 28a:	6565                	lui	a0,0x19
 28c:	6e617473          	csrrci	s0,0x6e6,2
 290:	6964                	flw	fs1,84(a0)
 292:	676e                	flw	fa4,216(sp)
 294:	2d20                	fld	fs0,88(a0)
 296:	6f66                	flw	ft10,88(sp)
 298:	696d                	lui	s2,0x1b
 29a:	2d74                	fld	fa3,216(a0)
 29c:	7266                	flw	ft4,120(sp)
 29e:	6d61                	lui	s10,0x18
 2a0:	2d65                	jal	958 <_min_stack-0x16a8>
 2a2:	6f70                	flw	fa2,92(a4)
 2a4:	6e69                	lui	t3,0x1a
 2a6:	6574                	flw	fa3,76(a0)
 2a8:	0072                	c.slli	zero,0x1c
 2aa:	7570                	flw	fa2,108(a0)
 2ac:	7374                	flw	fa3,100(a4)
 2ae:	6700                	flw	fs0,8(a4)
 2b0:	7465                	lui	s0,0xffff9
 2b2:	6d5f 7065 0063      	0x6370656d5f
 2b8:	5f746567          	0x5f746567
 2bc:	746d                	lui	s0,0xffffb
 2be:	6176                	flw	ft2,92(sp)
 2c0:	006c                	addi	a1,sp,12
 2c2:	706d6973          	csrrsi	s2,0x706,26
 2c6:	656c                	flw	fa1,76(a0)
 2c8:	745f 6d69 7265      	0x72656d69745f
 2ce:	685f 6e61 6c64      	0x6c646e61685f
 2d4:	7265                	lui	tp,0xffff9
 2d6:	7000                	flw	fs0,32(s0)
 2d8:	6e756f63          	bltu	a0,t2,9d6 <_min_stack-0x162a>
 2dc:	5f74                	lw	a3,124(a4)
 2de:	6572                	flw	fa0,28(sp)
 2e0:	00746573          	csrrsi	a0,0x7,8
 2e4:	7570                	flw	fa2,108(a0)
 2e6:	6874                	flw	fa3,84(s0)
 2e8:	7865                	lui	a6,0xffff9
 2ea:	5f00                	lw	s0,56(a4)
 2ec:	7364                	flw	fs1,100(a4)
 2ee:	61685f6f          	jal	t5,85904 <_stack_len+0x7d904>
 2f2:	646e                	flw	fs0,216(sp)
 2f4:	656c                	flw	fa1,76(a0)
 2f6:	5f00                	lw	s0,56(a4)
 2f8:	657a6973          	csrrsi	s2,0x657,20
 2fc:	5f00                	lw	s0,56(a4)
 2fe:	6172                	flw	ft2,28(sp)
 300:	646e                	flw	fs0,216(sp)
 302:	3834                	fld	fa3,112(s0)
 304:	6100                	flw	fs0,0(a0)
 306:	7365                	lui	t1,0xffff9
 308:	6b5f 7965 735f      	0x735f79656b5f
 30e:	0074                	addi	a3,sp,12
 310:	655f 656d 6772      	0x6772656d655f
 316:	6e65                	lui	t3,0x19
 318:	5f007963          	bgeu	zero,a6,90a <_min_stack-0x16f6>
 31c:	6164                	flw	fs1,68(a0)
 31e:	6174                	flw	fa3,68(a0)
 320:	5f00                	lw	s0,56(a4)
 322:	74726377          	0x74726377
 326:	5f626d6f          	jal	s10,2691c <_stack_len+0x1e91c>
 32a:	74617473          	csrrci	s0,0x746,2
 32e:	0065                	c.nop	25
 330:	735f 6769 616e      	0x616e6769735f
 336:	5f6c                	lw	a1,124(a4)
 338:	7562                	flw	fa0,56(sp)
 33a:	0066                	c.slli	zero,0x19
 33c:	4541                	li	a0,16
 33e:	454b5f53          	0x454b5f53
 342:	0059                	c.nop	22
 344:	6c5f 6662 6973      	0x697366626c5f
 34a:	657a                	flw	fa0,156(sp)
 34c:	5f00                	lw	s0,56(a4)
 34e:	6c5f 636f 6c61      	0x6c61636f6c5f
 354:	5f65                	li	t5,-7
 356:	0074                	addi	a3,sp,12
 358:	6d5f 7262 6f74      	0x6f7472626d5f
 35e:	735f6377          	0x735f6377
 362:	6174                	flw	fa3,68(a0)
 364:	6574                	flw	fa3,76(a0)
 366:	5f00                	lw	s0,56(a4)
 368:	6f746377          	0x6f746377
 36c:	626d                	lui	tp,0x1b
 36e:	735f 6174 6574      	0x65746174735f
 374:	5f00                	lw	s0,56(a4)
 376:	745f 5f6d 6573      	0x65735f6d745f
 37c:	755f0063          	beq	t5,s5,abc <_min_stack-0x1544>
 380:	7562                	flw	fa0,56(sp)
 382:	0066                	c.slli	zero,0x19
 384:	5f5f 6d74 685f      	0x685f6d745f5f
 38a:	0072756f          	jal	a0,27b90 <_stack_len+0x1fb90>
 38e:	5f5f 6673 5f00      	0x5f0066735f5f
 394:	655f6e6f          	jal	t3,f71e8 <_stack_len+0xef1e8>
 398:	6978                	flw	fa4,84(a0)
 39a:	5f74                	lw	a3,124(a4)
 39c:	7261                	lui	tp,0xffff8
 39e:	5f007367          	0x5f007367
 3a2:	6b6f6f63          	bltu	t5,s6,a60 <_min_stack-0x15a0>
 3a6:	6569                	lui	a0,0x1a
 3a8:	5f00                	lw	s0,56(a4)
 3aa:	735f 6c67 6575      	0x65756c67735f
 3b0:	5f00                	lw	s0,56(a4)
 3b2:	6c66                	flw	fs8,88(sp)
 3b4:	6761                	lui	a4,0x18
 3b6:	695f0073          	0x695f0073
 3ba:	78635f73          	csrrwi	t5,0x786,6
 3be:	0061                	c.nop	24
 3c0:	735f 6474 6e69      	0x6e696474735f
 3c6:	5f00                	lw	s0,56(a4)
 3c8:	6c62                	flw	fs8,24(sp)
 3ca:	7a69736b          	0x7a69736b
 3ce:	0065                	c.nop	25
 3d0:	635f 7476 7562      	0x75627476635f
 3d6:	0066                	c.slli	zero,0x19
 3d8:	6f5f 6666 6573      	0x657366666f5f
 3de:	0074                	addi	a3,sp,12
 3e0:	6d5f 7362 7472      	0x747273626d5f
 3e6:	7363776f          	jal	a4,37b1c <_stack_len+0x2fb1c>
 3ea:	735f 6174 6574      	0x65746174735f
 3f0:	5f00                	lw	s0,56(a4)
 3f2:	626d                	lui	tp,0x1b
 3f4:	6c72                	flw	fs8,28(sp)
 3f6:	6e65                	lui	t3,0x19
 3f8:	735f 6174 6574      	0x65746174735f
 3fe:	5f00                	lw	s0,56(a4)
 400:	6e66                	flw	ft8,88(sp)
 402:	7261                	lui	tp,0xffff8
 404:	5f007367          	0x5f007367
 408:	6e66                	flw	ft8,88(sp)
 40a:	735f0073          	0x735f0073
 40e:	6769                	lui	a4,0x1a
 410:	006e                	c.slli	zero,0x1b
 412:	665f 6f6c 6b63      	0x6b636f6c665f
 418:	745f 5f00 7473      	0x74735f00745f
 41e:	6564                	flw	fs1,76(a0)
 420:	7272                	flw	ft4,60(sp)
 422:	5f00                	lw	s0,56(a4)
 424:	6942                	flw	fs2,16(sp)
 426:	746e6967          	0x746e6967
 42a:	5f00                	lw	s0,56(a4)
 42c:	6d6d6167          	0x6d6d6167
 430:	5f61                	li	t5,-8
 432:	6e676973          	csrrsi	s2,0x6e6,14
 436:	006d6167          	0x6d6167
 43a:	725f 7365 6c75      	0x6c757365725f
 440:	5f74                	lw	a3,124(a4)
 442:	5f5f006b          	0x5f5f006b
 446:	6d74                	flw	fa3,92(a0)
 448:	6b00                	flw	fs0,16(a4)
 44a:	7965                	lui	s2,0xffff9
 44c:	745f 6e69 0079      	0x796e69745f
 452:	5f5f 6377 6268      	0x626863775f5f
 458:	5f00                	lw	s0,56(a4)
 45a:	72736377          	0x72736377
 45e:	6f74                	flw	fa3,92(a4)
 460:	626d                	lui	tp,0x1b
 462:	74735f73          	csrrwi	t5,0x747,6
 466:	7461                	lui	s0,0xffff8
 468:	0065                	c.nop	25
 46a:	735f 6474 756f      	0x756f6474735f
 470:	0074                	addi	a3,sp,12
 472:	635f 7476 656c      	0x656c7476635f
 478:	006e                	c.slli	zero,0x1b
 47a:	665f 6c69 0065      	0x656c69665f
 480:	735f 6973 657a      	0x657a6973735f
 486:	745f 5f00 696e      	0x696e5f00745f
 48c:	0073626f          	jal	tp,36c92 <_stack_len+0x2ec92>
 490:	615f 6574 6978      	0x69786574615f
 496:	3074                	fld	fa3,224(s0)
 498:	5f00                	lw	s0,56(a4)
 49a:	7361                	lui	t1,0xffff8
 49c:	6d697463          	bgeu	s2,s6,b64 <_min_stack-0x149c>
 4a0:	5f65                	li	t5,-7
 4a2:	7562                	flw	fa0,56(sp)
 4a4:	0066                	c.slli	zero,0x19
 4a6:	725f 7365 6c75      	0x6c757365725f
 4ac:	0074                	addi	a3,sp,12
 4ae:	5f5f 6377 0068      	0x6863775f5f
 4b4:	746e6977          	0x746e6977
 4b8:	745f 5f00 6f6c      	0x6f6c5f00745f
 4be:	5f006b63          	bltu	zero,a6,ab4 <_min_stack-0x154c>
 4c2:	6c66                	flw	fs8,88(sp)
 4c4:	6761                	lui	a4,0x18
 4c6:	72003273          	csrrc	tp,0x720,zero
 4ca:	5f64                	lw	s1,124(a4)
 4cc:	0079656b          	0x79656b
 4d0:	775f 6972 6574      	0x65746972775f
 4d6:	5f00                	lw	s0,56(a4)
 4d8:	745f 5f6d 6579      	0x65795f6d745f
 4de:	7261                	lui	tp,0xffff8
 4e0:	6b00                	flw	fs0,16(a4)
 4e2:	7965                	lui	s2,0xffff9
 4e4:	735f 6c73 5f00      	0x5f006c73735f
 4ea:	6d6e                	flw	fs10,216(sp)
 4ec:	6c61                	lui	s8,0x18
 4ee:	6f6c                	flw	fa1,92(a4)
 4f0:	5f430063          	beq	t1,s4,ad0 <_min_stack-0x1530>
 4f4:	6966                	flw	fs2,88(sp)
 4f6:	656c                	flw	fa1,76(a0)
 4f8:	65612f73          	csrrs	t5,0x656,sp
 4fc:	00632e73          	csrrs	t3,0x6,t1
 500:	6f6c                	flw	fa1,92(a4)
 502:	676e                	flw	fa4,216(sp)
 504:	6420                	flw	fs0,72(s0)
 506:	6c62756f          	jal	a0,27bcc <_stack_len+0x1fbcc>
 50a:	0065                	c.nop	25
 50c:	6e5f 7865 6674      	0x667478656e5f
 512:	5f00                	lw	s0,56(a4)
 514:	745f 5f6d 6f6d      	0x6f6d5f6d745f
 51a:	006e                	c.slli	zero,0x1b
 51c:	615f 6574 6978      	0x69786574615f
 522:	0074                	addi	a3,sp,12
 524:	5f5f 6473 6469      	0x646964735f5f
 52a:	6e69                	lui	t3,0x1a
 52c:	7469                	lui	s0,0xffffa
 52e:	5f00                	lw	s0,56(a4)
 530:	5f66666f          	jal	a2,66b26 <_stack_len+0x5eb26>
 534:	0074                	addi	a3,sp,12
 536:	665f 6572 6c65      	0x6c656572665f
 53c:	7369                	lui	t1,0xffffa
 53e:	0074                	addi	a3,sp,12
 540:	4c5f 434f 5f4b      	0x5f4b434f4c5f
 546:	4552                	lw	a0,20(sp)
 548:	53525543          	fmadd.d	fa0,ft4,fs5,fa0,unknown
 54c:	5649                	li	a2,-14
 54e:	5f45                	li	t5,-15
 550:	0054                	addi	a3,sp,4
 552:	6e5f 7765 5f00      	0x5f0077656e5f
 558:	5f68                	lw	a0,124(a4)
 55a:	7265                	lui	tp,0xffff9
 55c:	6e72                	flw	ft8,28(sp)
 55e:	5f5f006f          	j	f1352 <_stack_len+0xe9352>
 562:	6d74                	flw	fa3,92(a0)
 564:	795f 6164 0079      	0x796164795f
 56a:	5f5f 6273 6675      	0x667562735f5f
 570:	5f00                	lw	s0,56(a4)
 572:	6f69                	lui	t5,0x1a
 574:	7362                	flw	ft6,56(sp)
 576:	5f00                	lw	s0,56(a4)
 578:	465f 4c49 0045      	0x454c49465f
 57e:	6d5f 7362 6174      	0x617473626d5f
 584:	6574                	flw	fa3,76(a0)
 586:	745f 5f00 735f      	0x735f5f00745f
 58c:	4946                	lw	s2,80(sp)
 58e:	454c                	lw	a1,12(a0)
 590:	5f00                	lw	s0,56(a4)
 592:	626d                	lui	tp,0x1b
 594:	74617473          	csrrci	s0,0x746,2
 598:	0065                	c.nop	25
 59a:	725f 6e61 5f64      	0x5f646e61725f
 5a0:	656e                	flw	fa0,216(sp)
 5a2:	7478                	flw	fa4,108(s0)
 5a4:	5f00                	lw	s0,56(a4)
 5a6:	626d                	lui	tp,0x1b
 5a8:	656c                	flw	fa1,76(a0)
 5aa:	5f6e                	lw	t5,248(sp)
 5ac:	74617473          	csrrci	s0,0x746,2
 5b0:	0065                	c.nop	25
 5b2:	695f 636e 5f00      	0x5f00636e695f
 5b8:	6e69                	lui	t3,0x1a
 5ba:	0064                	addi	s1,sp,12
 5bc:	6c5f 636f 6c61      	0x6c61636f6c5f
 5c2:	0065                	c.nop	25
 5c4:	5f5f 6c63 6165      	0x61656c635f5f
 5ca:	756e                	flw	fa0,248(sp)
 5cc:	0070                	addi	a2,sp,12
 5ce:	755f 736e 6570      	0x6570736e755f
 5d4:	69666963          	bltu	a2,s6,c66 <_min_stack-0x139a>
 5d8:	6465                	lui	s0,0x19
 5da:	6c5f 636f 6c61      	0x6c61636f6c5f
 5e0:	5f65                	li	t5,-7
 5e2:	6e69                	lui	t3,0x1a
 5e4:	6f66                	flw	ft10,88(sp)
 5e6:	5f00                	lw	s0,56(a4)
 5e8:	616d                	addi	sp,sp,240
 5ea:	7778                	flw	fa4,108(a4)
 5ec:	7364                	flw	fs1,100(a4)
 5ee:	5f00                	lw	s0,56(a4)
 5f0:	6572                	flw	fa0,28(sp)
 5f2:	6e65                	lui	t3,0x19
 5f4:	0074                	addi	a3,sp,12
 5f6:	735f 6565 0064      	0x646565735f
 5fc:	5f5f 6f63 6e75      	0x6e756f635f5f
 602:	0074                	addi	a3,sp,12
 604:	5f5f 6176 756c      	0x756c61765f5f
 60a:	0065                	c.nop	25
 60c:	735f 6565 006b      	0x6b6565735f
 612:	665f 6f70 5f73      	0x5f736f70665f
 618:	0074                	addi	a3,sp,12
 61a:	5f5f 6d74 6d5f      	0x6d5f6d745f5f
 620:	6e69                	lui	t3,0x1a
 622:	6400                	flw	fs0,8(s0)
 624:	7461                	lui	s0,0xffff8
 626:	5f61                	li	t5,-8
 628:	6974                	flw	fa3,84(a0)
 62a:	796e                	flw	fs2,248(sp)
 62c:	5f00                	lw	s0,56(a4)
 62e:	756d                	lui	a0,0xffffb
 630:	746c                	flw	fa1,108(s0)
 632:	5f00                	lw	s0,56(a4)
 634:	74727473          	csrrci	s0,0x747,4
 638:	6c5f6b6f          	jal	s6,f74fc <_stack_len+0xef4fc>
 63c:	7361                	lui	t1,0xffff8
 63e:	0074                	addi	a3,sp,12
 640:	665f 746e 7079      	0x7079746e665f
 646:	7365                	lui	t1,0xffff9
 648:	5f00                	lw	s0,56(a4)
 64a:	6461                	lui	s0,0x18
 64c:	0064                	addi	s1,sp,12
 64e:	5f5f 4c55 6e6f      	0x6e6f4c555f5f
 654:	675f0067          	jr	1653(t5) # 1a675 <_stack_len+0x12675>
 658:	7465                	lui	s0,0xffff9
 65a:	6164                	flw	fs1,68(a0)
 65c:	6574                	flw	fa3,76(a0)
 65e:	655f 7272 5f00      	0x5f007272655f
 664:	626f6c67          	0x626f6c67
 668:	6c61                	lui	s8,0x18
 66a:	695f 706d 7275      	0x7275706d695f
 670:	5f65                	li	t5,-7
 672:	7470                	flw	fa2,108(s0)
 674:	0072                	c.slli	zero,0x1c
 676:	755f 756e 6573      	0x6573756e755f
 67c:	5f64                	lw	s1,124(a4)
 67e:	6172                	flw	ft2,28(sp)
 680:	646e                	flw	fs0,216(sp)
 682:	5f00                	lw	s0,56(a4)
 684:	00736477          	0x736477
 688:	5f5f 6d74 775f      	0x775f6d745f5f
 68e:	6164                	flw	fs1,68(a0)
 690:	0079                	c.nop	30
 692:	675f 756c 0065      	0x65756c675f
 698:	6975                	lui	s2,0x1d
 69a:	746e                	flw	fs0,248(sp)
 69c:	5f38                	lw	a4,120(a4)
 69e:	0074                	addi	a3,sp,12
 6a0:	6c5f 3436 5f61      	0x5f6134366c5f
 6a6:	7562                	flw	fa0,56(sp)
 6a8:	0066                	c.slli	zero,0x19
 6aa:	735f 6769 665f      	0x665f6769735f
 6b0:	6e75                	lui	t3,0x1d
 6b2:	6f720063          	beq	tp,s7,d92 <_min_stack-0x126e>
 6b6:	6e75                	lui	t3,0x1d
 6b8:	7364                	flw	fs1,100(a4)
 6ba:	5f00                	lw	s0,56(a4)
 6bc:	626e                	flw	ft4,216(sp)
 6be:	6675                	lui	a2,0x1d
 6c0:	5f00                	lw	s0,56(a4)
 6c2:	6e75                	lui	t3,0x1d
 6c4:	7375                	lui	t1,0xffffd
 6c6:	6465                	lui	s0,0x19
 6c8:	5f00                	lw	s0,56(a4)
 6ca:	745f 5f6d 7369      	0x73695f6d745f
 6d0:	7364                	flw	fs1,100(a4)
 6d2:	0074                	addi	a3,sp,12
 6d4:	6c5f 636f 6c61      	0x6c61636f6c5f
 6da:	6974                	flw	fa3,84(a0)
 6dc:	656d                	lui	a0,0x1b
 6de:	625f 6675 5f00      	0x5f006675625f
 6e4:	736f6c63          	bltu	t5,s6,e1c <_min_stack-0x11e4>
 6e8:	0065                	c.nop	25
 6ea:	725f 3834 5f00      	0x5f003834725f
 6f0:	626d                	lui	tp,0x1b
 6f2:	6f74                	flw	fa3,92(a4)
 6f4:	735f6377          	0x735f6377
 6f8:	6174                	flw	fa3,68(a0)
 6fa:	6574                	flw	fa3,76(a0)
 6fc:	5f00                	lw	s0,56(a4)
 6fe:	3570                	fld	fa2,232(a0)
 700:	616d0073          	0x616d0073
 704:	6e69                	lui	t3,0x1a
 706:	5f00                	lw	s0,56(a4)
 708:	745f 5f6d 646d      	0x646d5f6d745f
 70e:	7961                	lui	s2,0xffff8
 710:	7400                	flw	fs0,40(s0)
 712:	6d65                	lui	s10,0x19
 714:	0070                	addi	a2,sp,12
 716:	6372                	flw	ft6,28(sp)
 718:	62006e6f          	jal	t3,6d38 <_min_stack+0x4d38>
 71c:	7469                	lui	s0,0xffffa
 71e:	45410073          	0x45410073
 722:	6e655f53          	0x6e655f53
 726:	70797263          	bgeu	s2,t2,e2a <_min_stack-0x11d6>
 72a:	0074                	addi	a3,sp,12
 72c:	4541                	li	a0,16
 72e:	65735f53          	0x65735f53
 732:	5f74                	lw	a3,124(a4)
 734:	6e65                	lui	t3,0x19
 736:	70797263          	bgeu	s2,t2,e3a <_min_stack-0x11c6>
 73a:	5f74                	lw	a3,124(a4)
 73c:	0079656b          	0x79656b
 740:	6f627573          	csrrci	a0,0x6f6,4
 744:	7470                	flw	fa2,108(s0)
 746:	7261                	lui	tp,0xffff8
 748:	5f430067          	jr	1524(t1) # ffffd5f4 <_stack_start+0xffdfd5f4>
 74c:	6966                	flw	fs2,88(sp)
 74e:	656c                	flw	fa1,76(a0)
 750:	65612f73          	csrrs	t5,0x656,sp
 754:	73735f73          	csrrwi	t5,0x737,6
 758:	2e6c                	fld	fa1,216(a2)
 75a:	73750063          	beq	a0,s7,e7a <_min_stack-0x1186>
 75e:	7265                	lui	tp,0xffff9
 760:	0079654b          	fnmsub.s	fa0,fs2,ft7,ft0,unknown
 764:	69665f43          	fmadd.s	ft10,fa2,fs6,fa3,unknown
 768:	656c                	flw	fa1,76(a0)
 76a:	65612f73          	csrrs	t5,0x656,sp
 76e:	63655f73          	csrrwi	t5,0x636,10
 772:	5f62                	lw	t5,56(sp)
 774:	2e6c7373          	csrrci	t1,0x2e6,24
 778:	45410063          	beq	sp,s4,bb8 <_min_stack-0x1448>
 77c:	63655f53          	0x63655f53
 780:	5f62                	lw	t5,56(sp)
 782:	6e65                	lui	t3,0x19
 784:	70797263          	bgeu	s2,t2,e88 <_min_stack-0x1178>
 788:	0074                	addi	a3,sp,12
 78a:	6d6f682f          	0x6d6f682f
 78e:	2f65                	jal	f46 <_min_stack-0x10ba>
 790:	6e61                	lui	t3,0x18
 792:	6874                	flw	fa3,84(s0)
 794:	2f796e6f          	jal	t3,9728a <_stack_len+0x8f28a>
 798:	6c50                	flw	fa2,28(s0)
 79a:	6e61                	lui	t3,0x18
 79c:	6564                	flw	fs1,76(a0)
 79e:	7274                	flw	fa3,100(a2)
 7a0:	7661                	lui	a2,0xffff8
 7a2:	6961                	lui	s2,0x18
 7a4:	2f6c                	fld	fa1,216(a4)
 7a6:	3130                	fld	fa2,96(a0)
 7a8:	522d                	li	tp,-21
 7aa:	7369                	lui	t1,0xffffa
 7ac:	495f5663          	bge	t5,s5,c38 <_min_stack-0x13c8>
 7b0:	4542                	lw	a0,16(sp)
 7b2:	2f58                	fld	fa4,152(a4)
 7b4:	6269                	lui	tp,0x1a
 7b6:	7865                	lui	a6,0xffff9
 7b8:	335f 3031 3238      	0x32383031335f
 7be:	3230                	fld	fa2,96(a2)
 7c0:	5f30                	lw	a2,120(a4)
 7c2:	6966                	flw	fs2,88(sp)
 7c4:	616e                	flw	ft2,216(sp)
 7c6:	656c                	flw	fa1,76(a0)
 7c8:	6d6f432f          	0x6d6f432f
 7cc:	6970                	flw	fa2,84(a0)
 7ce:	616c                	flw	fa1,68(a0)
 7d0:	6974                	flw	fa3,84(a0)
 7d2:	655f6e6f          	jal	t3,f7626 <_stack_len+0xef626>
 7d6:	6178                	flw	fa4,68(a0)
 7d8:	706d                	c.lui	zero,0xffffb
 7da:	656c                	flw	fa1,76(a0)
 7dc:	6f632f73          	csrrs	t5,0x6f6,t1
 7e0:	6d6d                	lui	s10,0x1b
 7e2:	632f6e6f          	jal	t3,f6e14 <_stack_len+0xeee14>
 7e6:	7472                	flw	fs0,60(sp)
 7e8:	2e30                	fld	fa2,88(a2)
 7ea:	4e470053          	0x4e470053
 7ee:	2055                	jal	892 <_min_stack-0x176e>
 7f0:	5341                	li	t1,-16
 7f2:	3220                	fld	fs0,96(a2)
 7f4:	332e                	fld	ft6,232(sp)
 7f6:	0032                	c.slli	zero,0xc

Déassemblage de la section .comment :

00000000 <.comment>:
   0:	3a434347          	fmsub.d	ft6,ft6,ft4,ft7,rmm
   4:	2820                	fld	fs0,80(s0)
   6:	69466953          	0x69466953
   a:	6576                	flw	fa0,92(sp)
   c:	4720                	lw	s0,72(a4)
   e:	38204343          	fmadd.s	ft6,ft0,ft2,ft7,rmm
  12:	332e                	fld	ft6,232(sp)
  14:	302e                	fld	ft0,232(sp)
  16:	322d                	jal	fffff940 <_stack_start+0xffdff940>
  18:	3230                	fld	fa2,96(a2)
  1a:	2e30                	fld	fa2,88(a2)
  1c:	3430                	fld	fa2,104(s0)
  1e:	302e                	fld	ft0,232(sp)
  20:	2029                	jal	2a <_min_stack-0x1fd6>
  22:	2e38                	fld	fa4,88(a2)
  24:	00302e33          	sgtz	t3,gp

Déassemblage de la section .riscv.attributes :

00000000 <.riscv.attributes>:
   0:	2041                	jal	80 <_min_stack-0x1f80>
   2:	0000                	unimp
   4:	7200                	flw	fs0,32(a2)
   6:	7369                	lui	t1,0xffffa
   8:	01007663          	bgeu	zero,a6,14 <_min_stack-0x1fec>
   c:	0016                	c.slli	zero,0x5
   e:	0000                	unimp
  10:	1004                	addi	s1,sp,32
  12:	7205                	lui	tp,0xfffe1
  14:	3376                	fld	ft6,376(sp)
  16:	6932                	flw	fs2,12(sp)
  18:	7032                	flw	ft0,44(sp)
  1a:	5f30                	lw	a2,120(a4)
  1c:	30703263          	0x30703263
	...

Déassemblage de la section .debug_frame :

00000000 <.debug_frame>:
   0:	000c                	0xc
   2:	0000                	unimp
   4:	ffff                	0xffff
   6:	ffff                	0xffff
   8:	0001                	nop
   a:	7c01                	lui	s8,0xfffe0
   c:	0d01                	addi	s10,s10,0
   e:	0002                	c.slli64	zero
  10:	0014                	0x14
  12:	0000                	unimp
  14:	0000                	unimp
  16:	0000                	unimp
  18:	0084                	addi	s1,sp,64
  1a:	0010                	0x10
  1c:	0018                	0x18
  1e:	0000                	unimp
  20:	0e42                	slli	t3,t3,0x10
  22:	5410                	lw	a2,40(s0)
  24:	000e                	c.slli	zero,0x3
  26:	0000                	unimp
  28:	0018                	0x18
  2a:	0000                	unimp
  2c:	0000                	unimp
  2e:	0000                	unimp
  30:	009c                	addi	a5,sp,64
  32:	0010                	0x10
  34:	002a                	c.slli	zero,0xa
  36:	0000                	unimp
  38:	0e42                	slli	t3,t3,0x10
  3a:	4220                	lw	s0,64(a2)
  3c:	0181                	addi	gp,gp,0
  3e:	c162                	sw	s8,128(sp)
  40:	0e42                	slli	t3,t3,0x10
  42:	0000                	unimp
  44:	0018                	0x18
  46:	0000                	unimp
  48:	0000                	unimp
  4a:	0000                	unimp
  4c:	00c6                	slli	ra,ra,0x11
  4e:	0010                	0x10
  50:	004a                	c.slli	zero,0x12
  52:	0000                	unimp
  54:	0e42                	slli	t3,t3,0x10
  56:	4230                	lw	a2,64(a2)
  58:	0181                	addi	gp,gp,0
  5a:	4202                	lw	tp,0(sp)
  5c:	42c1                	li	t0,16
  5e:	000e                	c.slli	zero,0x3
  60:	000c                	0xc
  62:	0000                	unimp
  64:	0000                	unimp
  66:	0000                	unimp
  68:	0110                	addi	a2,sp,128
  6a:	0010                	0x10
  6c:	000e                	c.slli	zero,0x3
  6e:	0000                	unimp
  70:	000c                	0xc
  72:	0000                	unimp
  74:	0000                	unimp
  76:	0000                	unimp
  78:	011e                	slli	sp,sp,0x7
  7a:	0010                	0x10
  7c:	00fc                	addi	a5,sp,76
  7e:	0000                	unimp
  80:	0014                	0x14
  82:	0000                	unimp
  84:	0000                	unimp
  86:	0000                	unimp
  88:	021a                	slli	tp,tp,0x6
  8a:	0010                	0x10
  8c:	001c                	0x1c
  8e:	0000                	unimp
  90:	0e42                	slli	t3,t3,0x10
  92:	5820                	lw	s0,112(s0)
  94:	000e                	c.slli	zero,0x3
  96:	0000                	unimp
  98:	0014                	0x14
  9a:	0000                	unimp
  9c:	0000                	unimp
  9e:	0000                	unimp
  a0:	0236                	slli	tp,tp,0xd
  a2:	0010                	0x10
  a4:	0010                	0x10
  a6:	0000                	unimp
  a8:	0e42                	slli	t3,t3,0x10
  aa:	4c10                	lw	a2,24(s0)
  ac:	000e                	c.slli	zero,0x3
  ae:	0000                	unimp
  b0:	0014                	0x14
  b2:	0000                	unimp
  b4:	0000                	unimp
  b6:	0000                	unimp
  b8:	0246                	slli	tp,tp,0x11
  ba:	0010                	0x10
  bc:	0010                	0x10
  be:	0000                	unimp
  c0:	0e42                	slli	t3,t3,0x10
  c2:	4c10                	lw	a2,24(s0)
  c4:	000e                	c.slli	zero,0x3
  c6:	0000                	unimp
  c8:	0014                	0x14
  ca:	0000                	unimp
  cc:	0000                	unimp
  ce:	0000                	unimp
  d0:	0256                	slli	tp,tp,0x15
  d2:	0010                	0x10
  d4:	0010                	0x10
  d6:	0000                	unimp
  d8:	0e42                	slli	t3,t3,0x10
  da:	4c10                	lw	a2,24(s0)
  dc:	000e                	c.slli	zero,0x3
  de:	0000                	unimp
  e0:	0014                	0x14
  e2:	0000                	unimp
  e4:	0000                	unimp
  e6:	0000                	unimp
  e8:	0266                	slli	tp,tp,0x19
  ea:	0010                	0x10
  ec:	0056                	c.slli	zero,0x15
  ee:	0000                	unimp
  f0:	0e42                	slli	t3,t3,0x10
  f2:	4210                	lw	a2,0(a2)
  f4:	0181                	addi	gp,gp,0
  f6:	0000                	unimp
  f8:	0018                	0x18
  fa:	0000                	unimp
  fc:	0000                	unimp
  fe:	0000                	unimp
 100:	02bc                	addi	a5,sp,328
 102:	0010                	0x10
 104:	003c                	addi	a5,sp,8
 106:	0000                	unimp
 108:	0e42                	slli	t3,t3,0x10
 10a:	4230                	lw	a2,64(a2)
 10c:	0181                	addi	gp,gp,0
 10e:	3402                	fld	fs0,32(sp)
 110:	42c1                	li	t0,16
 112:	000e                	c.slli	zero,0x3
 114:	0018                	0x18
 116:	0000                	unimp
 118:	0000                	unimp
 11a:	0000                	unimp
 11c:	02f8                	addi	a4,sp,332
 11e:	0010                	0x10
 120:	0046                	c.slli	zero,0x11
 122:	0000                	unimp
 124:	0e42                	slli	t3,t3,0x10
 126:	4220                	lw	s0,64(a2)
 128:	0181                	addi	gp,gp,0
 12a:	3e02                	fld	ft8,32(sp)
 12c:	42c1                	li	t0,16
 12e:	000e                	c.slli	zero,0x3
 130:	000c                	0xc
 132:	0000                	unimp
 134:	0000                	unimp
 136:	0000                	unimp
 138:	033e                	slli	t1,t1,0xf
 13a:	0010                	0x10
 13c:	000c                	0xc
 13e:	0000                	unimp
 140:	0014                	0x14
 142:	0000                	unimp
 144:	0000                	unimp
 146:	0000                	unimp
 148:	034a                	slli	t1,t1,0x12
 14a:	0010                	0x10
 14c:	004c                	addi	a1,sp,4
 14e:	0000                	unimp
 150:	0e42                	slli	t3,t3,0x10
 152:	0210                	addi	a2,sp,256
 154:	0e48                	addi	a0,sp,788
 156:	0000                	unimp
 158:	0014                	0x14
 15a:	0000                	unimp
 15c:	0000                	unimp
 15e:	0000                	unimp
 160:	0396                	slli	t2,t2,0x5
 162:	0010                	0x10
 164:	0030                	addi	a2,sp,8
 166:	0000                	unimp
 168:	0e42                	slli	t3,t3,0x10
 16a:	6c10                	flw	fa2,24(s0)
 16c:	000e                	c.slli	zero,0x3
 16e:	0000                	unimp
 170:	000c                	0xc
 172:	0000                	unimp
 174:	0000                	unimp
 176:	0000                	unimp
 178:	03c6                	slli	t2,t2,0x11
 17a:	0010                	0x10
 17c:	0014                	0x14
 17e:	0000                	unimp
 180:	0054                	addi	a3,sp,4
 182:	0000                	unimp
 184:	0000                	unimp
 186:	0000                	unimp
 188:	03da                	slli	t2,t2,0x16
 18a:	0010                	0x10
 18c:	0096                	slli	ra,ra,0x5
 18e:	0000                	unimp
 190:	0e42                	slli	t3,t3,0x10
 192:	6040                	flw	fs0,4(s0)
 194:	0181                	addi	gp,gp,0
 196:	0285                	addi	t0,t0,1
 198:	0386                	slli	t2,t2,0x1
 19a:	058a0487          	0x58a0487
 19e:	078c068b          	0x78c068b
 1a2:	088d                	addi	a7,a7,3
 1a4:	098e                	slli	s3,s3,0x3
 1a6:	0b900a8f          	0xb900a8f
 1aa:	0c91                	addi	s9,s9,4
 1ac:	0d9c                	addi	a5,sp,720
 1ae:	0e9d                	addi	t4,t4,7
 1b0:	0f9e                	slli	t6,t6,0x7
 1b2:	109f 5002 42c1      	0x42c15002109f
 1b8:	42c5                	li	t0,17
 1ba:	42c6                	lw	t0,80(sp)
 1bc:	42ca42c7          	fmsub.d	ft5,fs4,fa2,fs0,rmm
 1c0:	42cc42cb          	fnmsub.d	ft5,fs8,fa2,fs0,rmm
 1c4:	42cd                	li	t0,19
 1c6:	42ce                	lw	t0,208(sp)
 1c8:	42d042cf          	fnmadd.d	ft5,ft0,fa3,fs0,rmm
 1cc:	42d1                	li	t0,20
 1ce:	42dc                	lw	a5,4(a3)
 1d0:	42dd                	li	t0,23
 1d2:	42de                	lw	t0,212(sp)
 1d4:	42df 000e 000c      	0xc000e42df
 1da:	0000                	unimp
 1dc:	ffff                	0xffff
 1de:	ffff                	0xffff
 1e0:	0001                	nop
 1e2:	7c01                	lui	s8,0xfffe0
 1e4:	0d01                	addi	s10,s10,0
 1e6:	0002                	c.slli64	zero
 1e8:	001c                	0x1c
 1ea:	0000                	unimp
 1ec:	01d8                	addi	a4,sp,196
 1ee:	0000                	unimp
 1f0:	0470                	addi	a2,sp,524
 1f2:	0010                	0x10
 1f4:	016c                	addi	a1,sp,140
 1f6:	0000                	unimp
 1f8:	0e42                	slli	t3,t3,0x10
 1fa:	02c0                	addi	s0,sp,324
 1fc:	8144                	0x8144
 1fe:	0301                	addi	t1,t1,0
 200:	0162                	slli	sp,sp,0x18
 202:	42c1                	li	t0,16
 204:	000e                	c.slli	zero,0x3
 206:	0000                	unimp
 208:	000c                	0xc
 20a:	0000                	unimp
 20c:	ffff                	0xffff
 20e:	ffff                	0xffff
 210:	0001                	nop
 212:	7c01                	lui	s8,0xfffe0
 214:	0d01                	addi	s10,s10,0
 216:	0002                	c.slli64	zero
 218:	0014                	0x14
 21a:	0000                	unimp
 21c:	0208                	addi	a0,sp,256
 21e:	0000                	unimp
 220:	05dc                	addi	a5,sp,708
 222:	0010                	0x10
 224:	0616                	slli	a2,a2,0x5
 226:	0000                	unimp
 228:	0e42                	slli	t3,t3,0x10
 22a:	0320                	addi	s0,sp,392
 22c:	0612                	slli	a2,a2,0x4
 22e:	000e                	c.slli	zero,0x3
 230:	0014                	0x14
 232:	0000                	unimp
 234:	0208                	addi	a0,sp,256
 236:	0000                	unimp
 238:	0bf2                	slli	s7,s7,0x1c
 23a:	0010                	0x10
 23c:	0710                	addi	a2,sp,896
 23e:	0000                	unimp
 240:	0e42                	slli	t3,t3,0x10
 242:	0340                	addi	s0,sp,388
 244:	070c                	addi	a1,sp,896
 246:	000e                	c.slli	zero,0x3
 248:	000c                	0xc
 24a:	0000                	unimp
 24c:	ffff                	0xffff
 24e:	ffff                	0xffff
 250:	0001                	nop
 252:	7c01                	lui	s8,0xfffe0
 254:	0d01                	addi	s10,s10,0
 256:	0002                	c.slli64	zero
 258:	0018                	0x18
 25a:	0000                	unimp
 25c:	0248                	addi	a0,sp,260
 25e:	0000                	unimp
 260:	1302                	slli	t1,t1,0x20
 262:	0010                	0x10
 264:	001c                	0x1c
 266:	0000                	unimp
 268:	0e42                	slli	t3,t3,0x10
 26a:	4220                	lw	s0,64(a2)
 26c:	0181                	addi	gp,gp,0
 26e:	c154                	sw	a3,4(a0)
 270:	0e42                	slli	t3,t3,0x10
	...

Déassemblage de la section .debug_ranges :

00000000 <.debug_ranges>:
   0:	ffff                	0xffff
   2:	ffff                	0xffff
   4:	0000                	unimp
   6:	0000                	unimp
   8:	131e                	slli	t1,t1,0x27
   a:	0010                	0x10
   c:	13ac                	addi	a1,sp,488
   e:	0010                	0x10
  10:	0000                	unimp
  12:	0010                	0x10
  14:	0084                	addi	s1,sp,64
  16:	0010                	0x10
	...
